ccopy_reg
_reconstructor
p0
(cpsychopy.data.experiment
ExperimentHandler
p1
c__builtin__
object
p2
Ntp3
Rp4
(dp5
S'originPath'
p6
VC:\u005cUsers\u005cadmin\u005cDocuments\u005cgit-repos\u005c2018_replication_sheb-pulv2013\u005cexp-scripts_psychopy\u005csheb_replic_noAudioCapture.psyexp
p7
sS'dataFileName'
p8
VC:\u005cUsers\u005cadmin\u005cDocuments\u005cgit-repos\u005c2018_replication_sheb-pulv2013\u005cexp-scripts_psychopy\u005cdata/951_sheb_replic_180522_2018_May_31_1623
p9
sS'runtimeInfo'
p10
NsS'name'
p11
S'sheb_replic_180522'
p12
sS'dataNames'
p13
(lp14
S'key_resp_5.keys'
p15
aS'key_resp_5.rt'
p16
aS'key_resp_15.keys'
p17
aS'key_resp_15.rt'
p18
aS'key_resp_6.keys'
p19
aS'key_resp_6.rt'
p20
aS'key_resp_2.keys'
p21
aS'key_resp_2.rt'
p22
aS'key_resp_8.keys'
p23
aS'key_resp_8.rt'
p24
aS'key_resp_7.keys'
p25
aS'key_resp_7.rt'
p26
aS'key_resp_3.keys'
p27
asS'autoLog'
p28
I01
sS'extraInfo'
p29
(dp30
S'date'
p31
V2018_May_31_1623
p32
sS'frameRate'
p33
cnumpy.core.multiarray
scalar
p34
(cnumpy
dtype
p35
(S'f8'
p36
I0
I1
tp37
Rp38
(I3
S'<'
p39
NNNI-1
I-1
I0
tp40
bS'i~8(D\xd0M@'
p41
tp42
Rp43
sS'expName'
p44
g12
sS'session'
p45
S'001'
p46
sS'participant'
p47
g0
(cfuture.types.newstr
newstr
p48
c__builtin__
unicode
p49
V951
p50
tp51
Rp52
ssS'loopsUnfinished'
p53
(lp54
g0
(cpsychopy.data.trial
TrialHandler
p55
g2
Ntp56
Rp57
(dp58
S'origin'
p59
NsS'thisTrial'
p60
NsS'_exp'
p61
I370091856
sg11
S'training_block'
p62
sg6
I-1
sS'thisRepN'
p63
I1
sg28
I01
sg29
g30
sS'data'
p64
g0
(cpsychopy.data.base
DataHandler
p65
c__builtin__
dict
p66
(dp67
S'ran'
p68
cnumpy.ma.core
_mareconstruct
p69
(cnumpy.ma.core
MaskedArray
p70
cnumpy
ndarray
p71
(I0
tp72
S'b'
p73
tp74
Rp75
(I1
(I1
I20
tp76
g35
(S'f4'
p77
I0
I1
tp78
Rp79
(I3
S'<'
p80
NNNI-1
I-1
I0
tp81
bI00
S'\x00\x00\x80?\x00\x00\x80?\x00\x00\x00\x00\x00\x00\x00\x00\x00\x00\x00\x00\x00\x00\x00\x00\x00\x00\x00\x00\x00\x00\x00\x00\x00\x00\x00\x00\x00\x00\x00\x00\x00\x00\x00\x00\x00\x00\x00\x00\x00\x00\x00\x00\x00\x00\x00\x00\x00\x00\x00\x00\x00\x00\x00\x00\x00\x00\x00\x00\x00\x00\x00\x00\x00\x00\x00\x00\x00\x00\x00\x00'
p82
S'\x00\x00\x00\x00\x00\x00\x00\x00\x00\x00\x00\x00\x00\x00\x00\x00\x00\x00\x00\x00'
p83
Ntp84
bsg24
g69
(g70
g71
g72
g73
tp85
Rp86
(I1
(I1
I20
tp87
g79
I00
S'+\x1d]Ad`\x90@\x00\x00\x00\x00\x00\x00\x00\x00\x00\x00\x00\x00\x00\x00\x00\x00\x00\x00\x00\x00\x00\x00\x00\x00\x00\x00\x00\x00\x00\x00\x00\x00\x00\x00\x00\x00\x00\x00\x00\x00\x00\x00\x00\x00\x00\x00\x00\x00\x00\x00\x00\x00\x00\x00\x00\x00\x00\x00\x00\x00\x00\x00\x00\x00\x00\x00\x00\x00\x00\x00\x00\x00'
p88
S'\x00\x00\x01\x01\x01\x01\x01\x01\x01\x01\x01\x01\x01\x01\x01\x01\x01\x01\x01\x01'
p89
Ntp90
bsg23
cnumpy.core.multiarray
_reconstruct
p91
(g71
(I0
tp92
g73
tp93
Rp94
(I1
(I1
I20
tp95
g35
(S'O4'
p96
I0
I1
tp97
Rp98
(I3
S'|'
p99
NNNI-1
I-1
I63
tp100
bI00
(lp101
S'p'
p102
aS's'
p103
aS'--'
p104
aS'--'
p105
aS'--'
p106
aS'--'
p107
aS'--'
p108
aS'--'
p109
aS'--'
p110
aS'--'
p111
aS'--'
p112
aS'--'
p113
aS'--'
p114
aS'--'
p115
aS'--'
p116
aS'--'
p117
aS'--'
p118
aS'--'
p119
aS'--'
p120
aS'--'
p121
atp122
bsS'order'
p123
g69
(g70
g71
g72
g73
tp124
Rp125
(I1
(I1
I20
tp126
g79
I00
S'\x00\x00\x00\x00\x00\x00\x80?\x00\x00\x00\x00\x00\x00\x00\x00\x00\x00\x00\x00\x00\x00\x00\x00\x00\x00\x00\x00\x00\x00\x00\x00\x00\x00\x00\x00\x00\x00\x00\x00\x00\x00\x00\x00\x00\x00\x00\x00\x00\x00\x00\x00\x00\x00\x00\x00\x00\x00\x00\x00\x00\x00\x00\x00\x00\x00\x00\x00\x00\x00\x00\x00\x00\x00\x00\x00\x00\x00\x00\x00'
p127
S'\x00\x00\x01\x01\x01\x01\x01\x01\x01\x01\x01\x01\x01\x01\x01\x01\x01\x01\x01\x01'
p128
Ntp129
bstp130
Rp131
(dp132
S'isNumeric'
p133
(dp134
g68
I01
sg24
I01
sg23
I00
sg123
I01
ssS'trials'
p135
g57
sS'dataTypes'
p136
(lp137
g68
ag123
ag23
ag24
asS'dataShape'
p138
(lp139
I1
aI20
asbsS'method'
p140
S'random'
p141
sS'sequenceIndices'
p142
g91
(g71
(I0
tp143
g73
tp144
Rp145
(I1
(I1
I20
tp146
g35
(S'i4'
p147
I0
I1
tp148
Rp149
(I3
S'<'
p150
NNNI-1
I-1
I0
tp151
bI00
S'\x00\x00\x00\x00\x00\x00\x00\x00\x00\x00\x00\x00\x00\x00\x00\x00\x00\x00\x00\x00\x00\x00\x00\x00\x00\x00\x00\x00\x00\x00\x00\x00\x00\x00\x00\x00\x00\x00\x00\x00\x00\x00\x00\x00\x00\x00\x00\x00\x00\x00\x00\x00\x00\x00\x00\x00\x00\x00\x00\x00\x00\x00\x00\x00\x00\x00\x00\x00\x00\x00\x00\x00\x00\x00\x00\x00\x00\x00\x00\x00'
p152
tp153
bsS'finished'
p154
I00
sS'nReps'
p155
I20
sS'nRemaining'
p156
I18
sS'trialList'
p157
(lp158
NasS'seed'
p159
NsS'thisIndex'
p160
g34
(g149
S'\x00\x00\x00\x00'
p161
tp162
Rp163
sS'thisN'
p164
I1
sS'thisTrialN'
p165
I0
sS'nTotal'
p166
I20
sbag0
(g55
g2
Ntp167
Rp168
(dp169
g59
Nsg60
Nsg61
I370091856
sg11
g62
sg6
I-1
sg63
I0
sg28
I01
sg29
g30
sg64
g0
(g65
g66
(dp170
g68
g69
(g70
g71
g72
g73
tp171
Rp172
(I1
(I1
I20
tp173
g79
I00
S'\x00\x00\x80?\x00\x00\x00\x00\x00\x00\x00\x00\x00\x00\x00\x00\x00\x00\x00\x00\x00\x00\x00\x00\x00\x00\x00\x00\x00\x00\x00\x00\x00\x00\x00\x00\x00\x00\x00\x00\x00\x00\x00\x00\x00\x00\x00\x00\x00\x00\x00\x00\x00\x00\x00\x00\x00\x00\x00\x00\x00\x00\x00\x00\x00\x00\x00\x00\x00\x00\x00\x00\x00\x00\x00\x00\x00\x00\x00\x00'
p174
S'\x00\x00\x00\x00\x00\x00\x00\x00\x00\x00\x00\x00\x00\x00\x00\x00\x00\x00\x00\x00'
p175
Ntp176
bsg24
g69
(g70
g71
g72
g73
tp177
Rp178
(I1
(I1
I20
tp179
g79
I00
S'\xa1\xedw@\x00\x00\x00\x00\x00\x00\x00\x00\x00\x00\x00\x00\x00\x00\x00\x00\x00\x00\x00\x00\x00\x00\x00\x00\x00\x00\x00\x00\x00\x00\x00\x00\x00\x00\x00\x00\x00\x00\x00\x00\x00\x00\x00\x00\x00\x00\x00\x00\x00\x00\x00\x00\x00\x00\x00\x00\x00\x00\x00\x00\x00\x00\x00\x00\x00\x00\x00\x00\x00\x00\x00\x00\x00\x00\x00\x00'
p180
S'\x00\x01\x01\x01\x01\x01\x01\x01\x01\x01\x01\x01\x01\x01\x01\x01\x01\x01\x01\x01'
p181
Ntp182
bsg23
g91
(g71
(I0
tp183
g73
tp184
Rp185
(I1
(I1
I20
tp186
g98
I00
(lp187
S's'
p188
aS'--'
p189
aS'--'
p190
aS'--'
p191
aS'--'
p192
aS'--'
p193
aS'--'
p194
aS'--'
p195
aS'--'
p196
aS'--'
p197
aS'--'
p198
aS'--'
p199
aS'--'
p200
aS'--'
p201
aS'--'
p202
aS'--'
p203
aS'--'
p204
aS'--'
p205
aS'--'
p206
aS'--'
p207
atp208
bsg123
g69
(g70
g71
g72
g73
tp209
Rp210
(I1
(I1
I20
tp211
g79
I00
S'\x00\x00\x00\x00\x00\x00\x00\x00\x00\x00\x00\x00\x00\x00\x00\x00\x00\x00\x00\x00\x00\x00\x00\x00\x00\x00\x00\x00\x00\x00\x00\x00\x00\x00\x00\x00\x00\x00\x00\x00\x00\x00\x00\x00\x00\x00\x00\x00\x00\x00\x00\x00\x00\x00\x00\x00\x00\x00\x00\x00\x00\x00\x00\x00\x00\x00\x00\x00\x00\x00\x00\x00\x00\x00\x00\x00\x00\x00\x00\x00'
p212
S'\x00\x01\x01\x01\x01\x01\x01\x01\x01\x01\x01\x01\x01\x01\x01\x01\x01\x01\x01\x01'
p213
Ntp214
bstp215
Rp216
(dp217
g133
(dp218
g68
I01
sg24
I01
sg23
I00
sg123
I01
ssg135
g168
sg136
(lp219
g68
ag123
ag23
ag24
asg138
(lp220
I1
aI20
asbsg140
g141
sg142
g91
(g71
(I0
tp221
g73
tp222
Rp223
(I1
(I1
I20
tp224
g149
I00
S'\x00\x00\x00\x00\x00\x00\x00\x00\x00\x00\x00\x00\x00\x00\x00\x00\x00\x00\x00\x00\x00\x00\x00\x00\x00\x00\x00\x00\x00\x00\x00\x00\x00\x00\x00\x00\x00\x00\x00\x00\x00\x00\x00\x00\x00\x00\x00\x00\x00\x00\x00\x00\x00\x00\x00\x00\x00\x00\x00\x00\x00\x00\x00\x00\x00\x00\x00\x00\x00\x00\x00\x00\x00\x00\x00\x00\x00\x00\x00\x00'
p225
tp226
bsg154
I00
sg155
I20
sg156
I19
sg157
(lp227
Nasg159
Nsg160
g34
(g149
S'\x00\x00\x00\x00'
p228
tp229
Rp230
sg164
I0
sg165
I0
sg166
I20
sbag0
(g55
g2
Ntp231
Rp232
(dp233
g59
Nsg60
Nsg61
I370091856
sg11
g62
sg6
I-1
sg63
I0
sg28
I01
sg29
g30
sg64
g0
(g65
g66
(dp234
g68
g69
(g70
g71
g72
g73
tp235
Rp236
(I1
(I1
I20
tp237
g79
I00
S'\x00\x00\x80?\x00\x00\x00\x00\x00\x00\x00\x00\x00\x00\x00\x00\x00\x00\x00\x00\x00\x00\x00\x00\x00\x00\x00\x00\x00\x00\x00\x00\x00\x00\x00\x00\x00\x00\x00\x00\x00\x00\x00\x00\x00\x00\x00\x00\x00\x00\x00\x00\x00\x00\x00\x00\x00\x00\x00\x00\x00\x00\x00\x00\x00\x00\x00\x00\x00\x00\x00\x00\x00\x00\x00\x00\x00\x00\x00\x00'
p238
S'\x00\x00\x00\x00\x00\x00\x00\x00\x00\x00\x00\x00\x00\x00\x00\x00\x00\x00\x00\x00'
p239
Ntp240
bsg24
g69
(g70
g71
g72
g73
tp241
Rp242
(I1
(I1
I20
tp243
g79
I00
S'd|q@\x00\x00\x00\x00\x00\x00\x00\x00\x00\x00\x00\x00\x00\x00\x00\x00\x00\x00\x00\x00\x00\x00\x00\x00\x00\x00\x00\x00\x00\x00\x00\x00\x00\x00\x00\x00\x00\x00\x00\x00\x00\x00\x00\x00\x00\x00\x00\x00\x00\x00\x00\x00\x00\x00\x00\x00\x00\x00\x00\x00\x00\x00\x00\x00\x00\x00\x00\x00\x00\x00\x00\x00\x00\x00\x00\x00'
p244
S'\x00\x01\x01\x01\x01\x01\x01\x01\x01\x01\x01\x01\x01\x01\x01\x01\x01\x01\x01\x01'
p245
Ntp246
bsg23
g91
(g71
(I0
tp247
g73
tp248
Rp249
(I1
(I1
I20
tp250
g98
I00
(lp251
S's'
p252
aS'--'
p253
aS'--'
p254
aS'--'
p255
aS'--'
p256
aS'--'
p257
aS'--'
p258
aS'--'
p259
aS'--'
p260
aS'--'
p261
aS'--'
p262
aS'--'
p263
aS'--'
p264
aS'--'
p265
aS'--'
p266
aS'--'
p267
aS'--'
p268
aS'--'
p269
aS'--'
p270
aS'--'
p271
atp272
bsg123
g69
(g70
g71
g72
g73
tp273
Rp274
(I1
(I1
I20
tp275
g79
I00
S'\x00\x00\x00\x00\x00\x00\x00\x00\x00\x00\x00\x00\x00\x00\x00\x00\x00\x00\x00\x00\x00\x00\x00\x00\x00\x00\x00\x00\x00\x00\x00\x00\x00\x00\x00\x00\x00\x00\x00\x00\x00\x00\x00\x00\x00\x00\x00\x00\x00\x00\x00\x00\x00\x00\x00\x00\x00\x00\x00\x00\x00\x00\x00\x00\x00\x00\x00\x00\x00\x00\x00\x00\x00\x00\x00\x00\x00\x00\x00\x00'
p276
S'\x00\x01\x01\x01\x01\x01\x01\x01\x01\x01\x01\x01\x01\x01\x01\x01\x01\x01\x01\x01'
p277
Ntp278
bstp279
Rp280
(dp281
g133
(dp282
g68
I01
sg24
I01
sg23
I00
sg123
I01
ssg135
g232
sg136
(lp283
g68
ag123
ag23
ag24
asg138
(lp284
I1
aI20
asbsg140
g141
sg142
g91
(g71
(I0
tp285
g73
tp286
Rp287
(I1
(I1
I20
tp288
g149
I00
S'\x00\x00\x00\x00\x00\x00\x00\x00\x00\x00\x00\x00\x00\x00\x00\x00\x00\x00\x00\x00\x00\x00\x00\x00\x00\x00\x00\x00\x00\x00\x00\x00\x00\x00\x00\x00\x00\x00\x00\x00\x00\x00\x00\x00\x00\x00\x00\x00\x00\x00\x00\x00\x00\x00\x00\x00\x00\x00\x00\x00\x00\x00\x00\x00\x00\x00\x00\x00\x00\x00\x00\x00\x00\x00\x00\x00\x00\x00\x00\x00'
p289
tp290
bsg154
I00
sg155
I20
sg156
I19
sg157
(lp291
Nasg159
Nsg160
g34
(g149
S'\x00\x00\x00\x00'
p292
tp293
Rp294
sg164
I0
sg165
I0
sg166
I20
sbag0
(g55
g2
Ntp295
Rp296
(dp297
g59
Nsg60
Nsg61
I370091856
sg11
g62
sg6
I-1
sg63
I0
sg28
I01
sg29
g30
sg64
g0
(g65
g66
(dp298
g68
g69
(g70
g71
g72
g73
tp299
Rp300
(I1
(I1
I20
tp301
g79
I00
S'\x00\x00\x80?\x00\x00\x00\x00\x00\x00\x00\x00\x00\x00\x00\x00\x00\x00\x00\x00\x00\x00\x00\x00\x00\x00\x00\x00\x00\x00\x00\x00\x00\x00\x00\x00\x00\x00\x00\x00\x00\x00\x00\x00\x00\x00\x00\x00\x00\x00\x00\x00\x00\x00\x00\x00\x00\x00\x00\x00\x00\x00\x00\x00\x00\x00\x00\x00\x00\x00\x00\x00\x00\x00\x00\x00\x00\x00\x00\x00'
p302
S'\x00\x00\x00\x00\x00\x00\x00\x00\x00\x00\x00\x00\x00\x00\x00\x00\x00\x00\x00\x00'
p303
Ntp304
bsg24
g69
(g70
g71
g72
g73
tp305
Rp306
(I1
(I1
I20
tp307
g79
I00
S'k\xb5H@\x00\x00\x00\x00\x00\x00\x00\x00\x00\x00\x00\x00\x00\x00\x00\x00\x00\x00\x00\x00\x00\x00\x00\x00\x00\x00\x00\x00\x00\x00\x00\x00\x00\x00\x00\x00\x00\x00\x00\x00\x00\x00\x00\x00\x00\x00\x00\x00\x00\x00\x00\x00\x00\x00\x00\x00\x00\x00\x00\x00\x00\x00\x00\x00\x00\x00\x00\x00\x00\x00\x00\x00\x00\x00\x00\x00'
p308
S'\x00\x01\x01\x01\x01\x01\x01\x01\x01\x01\x01\x01\x01\x01\x01\x01\x01\x01\x01\x01'
p309
Ntp310
bsg23
g91
(g71
(I0
tp311
g73
tp312
Rp313
(I1
(I1
I20
tp314
g98
I00
(lp315
S's'
p316
aS'--'
p317
aS'--'
p318
aS'--'
p319
aS'--'
p320
aS'--'
p321
aS'--'
p322
aS'--'
p323
aS'--'
p324
aS'--'
p325
aS'--'
p326
aS'--'
p327
aS'--'
p328
aS'--'
p329
aS'--'
p330
aS'--'
p331
aS'--'
p332
aS'--'
p333
aS'--'
p334
aS'--'
p335
atp336
bsg123
g69
(g70
g71
g72
g73
tp337
Rp338
(I1
(I1
I20
tp339
g79
I00
S'\x00\x00\x00\x00\x00\x00\x00\x00\x00\x00\x00\x00\x00\x00\x00\x00\x00\x00\x00\x00\x00\x00\x00\x00\x00\x00\x00\x00\x00\x00\x00\x00\x00\x00\x00\x00\x00\x00\x00\x00\x00\x00\x00\x00\x00\x00\x00\x00\x00\x00\x00\x00\x00\x00\x00\x00\x00\x00\x00\x00\x00\x00\x00\x00\x00\x00\x00\x00\x00\x00\x00\x00\x00\x00\x00\x00\x00\x00\x00\x00'
p340
S'\x00\x01\x01\x01\x01\x01\x01\x01\x01\x01\x01\x01\x01\x01\x01\x01\x01\x01\x01\x01'
p341
Ntp342
bstp343
Rp344
(dp345
g133
(dp346
g68
I01
sg24
I01
sg23
I00
sg123
I01
ssg135
g296
sg136
(lp347
g68
ag123
ag23
ag24
asg138
(lp348
I1
aI20
asbsg140
g141
sg142
g91
(g71
(I0
tp349
g73
tp350
Rp351
(I1
(I1
I20
tp352
g149
I00
S'\x00\x00\x00\x00\x00\x00\x00\x00\x00\x00\x00\x00\x00\x00\x00\x00\x00\x00\x00\x00\x00\x00\x00\x00\x00\x00\x00\x00\x00\x00\x00\x00\x00\x00\x00\x00\x00\x00\x00\x00\x00\x00\x00\x00\x00\x00\x00\x00\x00\x00\x00\x00\x00\x00\x00\x00\x00\x00\x00\x00\x00\x00\x00\x00\x00\x00\x00\x00\x00\x00\x00\x00\x00\x00\x00\x00\x00\x00\x00\x00'
p353
tp354
bsg154
I00
sg155
I20
sg156
I19
sg157
(lp355
Nasg159
Nsg160
g34
(g149
S'\x00\x00\x00\x00'
p356
tp357
Rp358
sg164
I0
sg165
I0
sg166
I20
sbasS'saveWideText'
p359
I00
sS'thisEntry'
p360
(dp361
sS'version'
p362
S''
p363
sS'_paramNamesSoFar'
p364
(lp365
S'BlockType'
p366
aS'BlockLabel'
p367
aS'BlockInstructions'
p368
aS'item'
p369
aS'type'
p370
aS'word1'
p371
aS'word2'
p372
aS'word3'
p373
aS'word4'
p374
asS'entries'
p375
(lp376
(dp377
S'training_block.thisRepN'
p378
I0
sS'block.thisTrialN'
p379
I0
sg17
S'return'
p380
sS'block.thisRepN'
p381
I0
sS'word_presentation_training.thisRepN'
p382
I0
sg367
Vwhile repeating a syllable
p383
sg19
S'space'
p384
sg33
g43
sg374
Vruin
p385
sg45
g46
sg371
Vlick
p386
sg373
Vsoothe
p387
sg372
Vchew
p388
sg366
VARTICULATION
p389
sg16
F20.729184487798193
sg368
Vrepeat the syllable "bla" continuously
p390
sS'word_presentation_training.thisN'
p391
I0
sg44
g12
sS'block.thisIndex'
p392
g34
(g149
S'\x03\x00\x00\x00'
p393
tp394
Rp395
sg370
Vtraining
p396
sS'training_block.thisIndex'
p397
g34
(g149
S'\x00\x00\x00\x00'
p398
tp399
Rp400
sg22
F10.448850761596987
sS'training_block.thisN'
p401
I0
sS'block.thisN'
p402
I0
sS'training_block.thisTrialN'
p403
I0
sg21
S'space'
p404
sg31
g32
sg47
g52
sS'word_presentation_training.thisIndex'
p405
g34
(g149
S'\x02\x00\x00\x00'
p406
tp407
Rp408
sS'word_presentation_training.thisTrialN'
p409
I0
sg369
g34
(g35
(S'i8'
p410
I0
I1
tp411
Rp412
(I3
S'<'
p413
NNNI-1
I-1
I0
tp414
bS'\x03\x00\x00\x00\x00\x00\x00\x00'
p415
tp416
Rp417
sg15
S'space'
p418
sg20
F4.092680694935552
sg18
F153.67374059488793
sa(dp419
S'training_block.thisRepN'
p420
I0
sS'block.thisTrialN'
p421
I0
sS'block.thisRepN'
p422
I0
sS'word_presentation_training.thisRepN'
p423
I0
sg367
g383
sg33
g43
sg374
Vlook
p424
sg45
g46
sg371
Vstay
p425
sg373
Vprint
p426
sg372
Vsave
p427
sg366
g389
sg368
g390
sS'word_presentation_training.thisN'
p428
I1
sS'block.thisIndex'
p429
g395
sg370
g396
sS'training_block.thisIndex'
p430
g400
sg22
F5.132227313439216
sS'training_block.thisN'
p431
I0
sS'block.thisN'
p432
I0
sS'training_block.thisTrialN'
p433
I0
sg21
S'space'
p434
sg31
g32
sg47
g52
sS'word_presentation_training.thisIndex'
p435
g34
(g149
S'\x03\x00\x00\x00'
p436
tp437
Rp438
sS'word_presentation_training.thisTrialN'
p439
I1
sg369
g34
(g412
S'\x04\x00\x00\x00\x00\x00\x00\x00'
p440
tp441
Rp442
sg44
g12
sa(dp443
S'training_block.thisRepN'
p444
I0
sS'block.thisTrialN'
p445
I0
sS'block.thisRepN'
p446
I0
sS'word_presentation_training.thisRepN'
p447
I0
sg367
g383
sg33
g43
sg374
Vstare
p448
sg45
g46
sg371
Vlike
p449
sg373
Vthank
p450
sg372
Vyell
p451
sg366
g389
sg368
g390
sS'word_presentation_training.thisN'
p452
I2
sS'block.thisIndex'
p453
g395
sg370
g396
sS'training_block.thisIndex'
p454
g400
sg22
F8.48653601413389
sS'training_block.thisN'
p455
I0
sS'block.thisN'
p456
I0
sS'training_block.thisTrialN'
p457
I0
sg21
S'space'
p458
sg31
g32
sg47
g52
sS'word_presentation_training.thisIndex'
p459
g34
(g149
S'\x01\x00\x00\x00'
p460
tp461
Rp462
sS'word_presentation_training.thisTrialN'
p463
I2
sg369
g34
(g412
S'\x02\x00\x00\x00\x00\x00\x00\x00'
p464
tp465
Rp466
sg44
g12
sa(dp467
S'training_block.thisRepN'
p468
I0
sS'block.thisTrialN'
p469
I0
sS'block.thisRepN'
p470
I0
sS'word_presentation_training.thisRepN'
p471
I0
sg367
g383
sg33
g43
sg374
Vblush
p472
sg45
g46
sg371
Vwait
p473
sg373
Vbless
p474
sg372
Vsigh
p475
sg366
g389
sg368
g390
sS'word_presentation_training.thisN'
p476
I3
sS'block.thisIndex'
p477
g395
sg370
g396
sS'training_block.thisIndex'
p478
g400
sg22
F6.089119168118486
sS'training_block.thisN'
p479
I0
sS'block.thisN'
p480
I0
sS'training_block.thisTrialN'
p481
I0
sg21
S'space'
p482
sg31
g32
sg47
g52
sS'word_presentation_training.thisIndex'
p483
g34
(g149
S'\x00\x00\x00\x00'
p484
tp485
Rp486
sS'word_presentation_training.thisTrialN'
p487
I3
sg369
g34
(g412
S'\x01\x00\x00\x00\x00\x00\x00\x00'
p488
tp489
Rp490
sg44
g12
sa(dp491
S'training_block.thisRepN'
p492
I0
sS'block.thisTrialN'
p493
I0
sS'block.thisRepN'
p494
I0
sg45
g46
sg368
g390
sg367
g383
sg47
g52
sS'block.thisN'
p495
I0
sS'training_block.thisTrialN'
p496
I0
sg33
g43
sg24
F13.819621349721274
sg44
g12
sg23
g102
sg31
g32
sS'training_block.thisN'
p497
I0
sS'block.thisIndex'
p498
g395
sg366
g389
sS'training_block.thisIndex'
p499
g400
sa(dp500
S'training_block.thisRepN'
p501
I1
sS'block.thisTrialN'
p502
I0
sS'block.thisRepN'
p503
I0
sS'word_presentation_training.thisRepN'
p504
I0
sg367
g383
sg33
g43
sS'word4'
p505
Vruin
p506
sg45
g46
sS'word1'
p507
Vlick
p508
sS'word3'
p509
Vsoothe
p510
sS'word2'
p511
Vchew
p512
sg366
g389
sg368
g390
sS'word_presentation_training.thisN'
p513
I0
sS'block.thisIndex'
p514
g395
sS'type'
p515
Vtraining
p516
sS'training_block.thisIndex'
p517
g163
sg22
F4.3279022749302385
sS'training_block.thisN'
p518
I1
sS'block.thisN'
p519
I0
sS'training_block.thisTrialN'
p520
I0
sg21
S'space'
p521
sg31
g32
sg47
g52
sS'word_presentation_training.thisIndex'
p522
g34
(g149
S'\x02\x00\x00\x00'
p523
tp524
Rp525
sS'word_presentation_training.thisTrialN'
p526
I0
sS'item'
p527
g34
(g412
S'\x03\x00\x00\x00\x00\x00\x00\x00'
p528
tp529
Rp530
sg44
g12
sa(dp531
S'training_block.thisRepN'
p532
I1
sS'block.thisTrialN'
p533
I0
sS'block.thisRepN'
p534
I0
sS'word_presentation_training.thisRepN'
p535
I0
sg367
g383
sg33
g43
sg505
Vlook
p536
sg45
g46
sg507
Vstay
p537
sg509
Vprint
p538
sg511
Vsave
p539
sg366
g389
sg368
g390
sS'word_presentation_training.thisN'
p540
I1
sS'block.thisIndex'
p541
g395
sg515
g516
sS'training_block.thisIndex'
p542
g163
sg22
F4.3937715557513
sS'training_block.thisN'
p543
I1
sS'block.thisN'
p544
I0
sS'training_block.thisTrialN'
p545
I0
sg21
S'space'
p546
sg31
g32
sg47
g52
sS'word_presentation_training.thisIndex'
p547
g34
(g149
S'\x03\x00\x00\x00'
p548
tp549
Rp550
sS'word_presentation_training.thisTrialN'
p551
I1
sg527
g34
(g412
S'\x04\x00\x00\x00\x00\x00\x00\x00'
p552
tp553
Rp554
sg44
g12
sa(dp555
S'training_block.thisRepN'
p556
I1
sS'block.thisTrialN'
p557
I0
sS'block.thisRepN'
p558
I0
sS'word_presentation_training.thisRepN'
p559
I0
sg367
g383
sg33
g43
sg505
Vblush
p560
sg45
g46
sg507
Vwait
p561
sg509
Vbless
p562
sg511
Vsigh
p563
sg366
g389
sg368
g390
sS'word_presentation_training.thisN'
p564
I2
sS'block.thisIndex'
p565
g395
sg515
g516
sS'training_block.thisIndex'
p566
g163
sg22
F5.73597762409554
sS'training_block.thisN'
p567
I1
sS'block.thisN'
p568
I0
sS'training_block.thisTrialN'
p569
I0
sg21
S'space'
p570
sg31
g32
sg47
g52
sS'word_presentation_training.thisIndex'
p571
g34
(g149
S'\x00\x00\x00\x00'
p572
tp573
Rp574
sS'word_presentation_training.thisTrialN'
p575
I2
sg527
g34
(g412
S'\x01\x00\x00\x00\x00\x00\x00\x00'
p576
tp577
Rp578
sg44
g12
sa(dp579
S'training_block.thisRepN'
p580
I1
sS'block.thisTrialN'
p581
I0
sS'block.thisRepN'
p582
I0
sS'word_presentation_training.thisRepN'
p583
I0
sg367
g383
sg33
g43
sg505
Vstare
p584
sg45
g46
sg507
Vlike
p585
sg509
Vthank
p586
sg511
Vyell
p587
sg366
g389
sg368
g390
sS'word_presentation_training.thisN'
p588
I3
sS'block.thisIndex'
p589
g395
sg515
g516
sS'training_block.thisIndex'
p590
g163
sg22
F5.216229404366459
sS'training_block.thisN'
p591
I1
sS'block.thisN'
p592
I0
sS'training_block.thisTrialN'
p593
I0
sg21
S'space'
p594
sg31
g32
sg47
g52
sS'word_presentation_training.thisIndex'
p595
g34
(g149
S'\x01\x00\x00\x00'
p596
tp597
Rp598
sS'word_presentation_training.thisTrialN'
p599
I3
sg527
g34
(g412
S'\x02\x00\x00\x00\x00\x00\x00\x00'
p600
tp601
Rp602
sg44
g12
sa(dp603
S'training_block.thisRepN'
p604
I1
sS'block.thisTrialN'
p605
I0
sS'block.thisRepN'
p606
I0
sg367
g383
sg33
g43
sS'word4'
p607
Vbash
p608
sg45
g46
sS'word1'
p609
Vwash
p610
sS'word3'
p611
Vcarve
p612
sS'word2'
p613
Vstir
p614
sg366
g389
sS'word_presentation.thisRepN'
p615
I0
sg368
g390
sg47
g52
sg24
F4.511766195682867
sS'block.thisIndex'
p616
g395
sS'type'
p617
Varm
p618
sS'training_block.thisIndex'
p619
g163
sg22
F6.172088044862903
sS'training_block.thisN'
p620
I1
sS'word_presentation.thisN'
p621
I0
sg26
F3.035925429991039
sS'block.thisN'
p622
I0
sS'training_block.thisTrialN'
p623
I0
sg21
S'space'
p624
sg23
g103
sg31
g32
sS'word_presentation.thisTrialN'
p625
I0
sS'item'
p626
g34
(g412
S'\x06\x00\x00\x00\x00\x00\x00\x00'
p627
tp628
Rp629
sg44
g12
sg25
S'space'
p630
sS'word_presentation.thisIndex'
p631
g34
(g149
S'\x00\x00\x00\x00'
p632
tp633
Rp634
sa(dp635
S'training_block.thisRepN'
p636
I1
sS'block.thisTrialN'
p637
I0
sS'block.thisRepN'
p638
I0
sg367
g383
sg33
g43
sg607
Vjump
p639
sg45
g46
sg609
Vstep
p640
sg611
Vstroll
p641
sg613
Vwalk
p642
sg366
g389
sS'word_presentation.thisRepN'
p643
I0
sg368
g390
sg47
g52
sS'block.thisIndex'
p644
g395
sg617
Vleg
p645
sS'training_block.thisIndex'
p646
g163
sg22
F5.416773313598242
sS'training_block.thisN'
p647
I1
sS'word_presentation.thisN'
p648
I1
sS'block.thisN'
p649
I0
sS'training_block.thisTrialN'
p650
I0
sg21
S'space'
p651
sg31
g32
sS'word_presentation.thisTrialN'
p652
I1
sg626
g34
(g412
S'\x0c\x00\x00\x00\x00\x00\x00\x00'
p653
tp654
Rp655
sg44
g12
sS'word_presentation.thisIndex'
p656
g34
(g149
S'\x01\x00\x00\x00'
p657
tp658
Rp659
sa(dp660
S'training_block.thisRepN'
p661
I1
sS'block.thisTrialN'
p662
I0
sS'block.thisRepN'
p663
I0
sg367
g383
sg33
g43
sg607
Vgrasp
p664
sg45
g46
sg609
Vgrip
p665
sg611
Vseize
p666
sg613
Vcatch
p667
sg366
g389
sS'word_presentation.thisRepN'
p668
I0
sg368
g390
sg47
g52
sS'block.thisIndex'
p669
g395
sg617
g618
sS'training_block.thisIndex'
p670
g163
sg22
F7.597589351295028
sS'training_block.thisN'
p671
I1
sS'word_presentation.thisN'
p672
I2
sS'block.thisN'
p673
I0
sS'training_block.thisTrialN'
p674
I0
sg21
S'space'
p675
sg31
g32
sS'word_presentation.thisTrialN'
p676
I2
sg626
g34
(g412
S'\x04\x00\x00\x00\x00\x00\x00\x00'
p677
tp678
Rp679
sg44
g12
sS'word_presentation.thisIndex'
p680
g34
(g149
S'\x02\x00\x00\x00'
p681
tp682
Rp683
sa(dp684
S'training_block.thisRepN'
p685
I1
sS'block.thisTrialN'
p686
I0
sS'block.thisRepN'
p687
I0
sg367
g383
sg33
g43
sg607
Vlimp
p688
sg45
g46
sg609
Vmount
p689
sg611
Vstride
p690
sg613
Vhop
p691
sg366
g389
sS'word_presentation.thisRepN'
p692
I0
sg368
g390
sg47
g52
sS'block.thisIndex'
p693
g395
sg617
g645
sS'training_block.thisIndex'
p694
g163
sg22
F4.377368934903643
sS'training_block.thisN'
p695
I1
sS'word_presentation.thisN'
p696
I3
sS'block.thisN'
p697
I0
sS'training_block.thisTrialN'
p698
I0
sg21
S'space'
p699
sg31
g32
sS'word_presentation.thisTrialN'
p700
I3
sg626
g34
(g412
S'\n\x00\x00\x00\x00\x00\x00\x00'
p701
tp702
Rp703
sg44
g12
sS'word_presentation.thisIndex'
p704
g34
(g149
S'\x03\x00\x00\x00'
p705
tp706
Rp707
sa(dp708
S'training_block.thisRepN'
p709
I1
sS'block.thisTrialN'
p710
I0
sS'block.thisRepN'
p711
I0
sg367
g383
sg33
g43
sg607
Vrub
p712
sg45
g46
sg609
Vchop
p713
sg611
Vdunk
p714
sg613
Vswitch
p715
sg366
g389
sS'word_presentation.thisRepN'
p716
I0
sg368
g390
sg47
g52
sS'block.thisIndex'
p717
g395
sg617
g618
sS'training_block.thisIndex'
p718
g163
sg22
F4.847072052762087
sS'training_block.thisN'
p719
I1
sS'word_presentation.thisN'
p720
I4
sS'block.thisN'
p721
I0
sS'training_block.thisTrialN'
p722
I0
sg21
S'space'
p723
sg31
g32
sS'word_presentation.thisTrialN'
p724
I4
sg626
g34
(g412
S'\x02\x00\x00\x00\x00\x00\x00\x00'
p725
tp726
Rp727
sg44
g12
sS'word_presentation.thisIndex'
p728
g34
(g149
S'\x04\x00\x00\x00'
p729
tp730
Rp731
sa(dp732
S'training_block.thisRepN'
p733
I1
sS'block.thisTrialN'
p734
I0
sS'block.thisRepN'
p735
I0
sg367
g383
sg33
g43
sg607
Vslip
p736
sg45
g46
sg609
Vstray
p737
sg611
Vskate
p738
sg613
Vleap
p739
sg366
g389
sS'word_presentation.thisRepN'
p740
I0
sg368
g390
sg47
g52
sS'block.thisIndex'
p741
g395
sg617
g645
sS'training_block.thisIndex'
p742
g163
sg22
F7.799161338269187
sS'training_block.thisN'
p743
I1
sS'word_presentation.thisN'
p744
I5
sS'block.thisN'
p745
I0
sS'training_block.thisTrialN'
p746
I0
sg21
S'space'
p747
sg31
g32
sS'word_presentation.thisTrialN'
p748
I5
sg626
g34
(g412
S'\x12\x00\x00\x00\x00\x00\x00\x00'
p749
tp750
Rp751
sg44
g12
sS'word_presentation.thisIndex'
p752
g34
(g149
S'\x05\x00\x00\x00'
p753
tp754
Rp755
sa(dp756
S'training_block.thisRepN'
p757
I1
sS'block.thisTrialN'
p758
I0
sS'block.thisRepN'
p759
I0
sg367
g383
sg33
g43
sg607
Vglide
p760
sg45
g46
sg609
Vstomp
p761
sg611
Vcreep
p762
sg613
Vstumble
p763
sg366
g389
sS'word_presentation.thisRepN'
p764
I0
sg368
g390
sg47
g52
sS'block.thisIndex'
p765
g395
sg617
g645
sS'training_block.thisIndex'
p766
g163
sg22
F9.610063387590344
sS'training_block.thisN'
p767
I1
sS'word_presentation.thisN'
p768
I6
sS'block.thisN'
p769
I0
sS'training_block.thisTrialN'
p770
I0
sg21
S'space'
p771
sg31
g32
sS'word_presentation.thisTrialN'
p772
I6
sg626
g34
(g412
S'\x10\x00\x00\x00\x00\x00\x00\x00'
p773
tp774
Rp775
sg44
g12
sS'word_presentation.thisIndex'
p776
g34
(g149
S'\x06\x00\x00\x00'
p777
tp778
Rp779
sa(dp780
S'training_block.thisRepN'
p781
I1
sS'block.thisTrialN'
p782
I0
sS'block.thisRepN'
p783
I0
sg367
g383
sg33
g43
sg607
Vscrape
p784
sg45
g46
sg609
Vwhip
p785
sg611
Vtoss
p786
sg613
Vthrow
p787
sg366
g389
sS'word_presentation.thisRepN'
p788
I0
sg368
g390
sg47
g52
sS'block.thisIndex'
p789
g395
sg617
g618
sS'training_block.thisIndex'
p790
g163
sg22
F6.759043389858562
sS'training_block.thisN'
p791
I1
sS'word_presentation.thisN'
p792
I7
sS'block.thisN'
p793
I0
sS'training_block.thisTrialN'
p794
I0
sg21
S'space'
p795
sg31
g32
sS'word_presentation.thisTrialN'
p796
I7
sg626
g34
(g412
S'\t\x00\x00\x00\x00\x00\x00\x00'
p797
tp798
Rp799
sg44
g12
sS'word_presentation.thisIndex'
p800
g34
(g149
S'\x07\x00\x00\x00'
p801
tp802
Rp803
sa(dp804
S'training_block.thisRepN'
p805
I1
sS'block.thisTrialN'
p806
I0
sS'block.thisRepN'
p807
I0
sg367
g383
sg33
g43
sg607
Vdig
p808
sg45
g46
sg609
Vnip
p809
sg611
Vscrub
p810
sg613
Vknock
p811
sg366
g389
sS'word_presentation.thisRepN'
p812
I0
sg368
g390
sg47
g52
sS'block.thisIndex'
p813
g395
sg617
g618
sS'training_block.thisIndex'
p814
g163
sg22
F7.111946287088358
sS'training_block.thisN'
p815
I1
sS'word_presentation.thisN'
p816
I8
sS'block.thisN'
p817
I0
sS'training_block.thisTrialN'
p818
I0
sg21
S'space'
p819
sg31
g32
sS'word_presentation.thisTrialN'
p820
I8
sg626
g34
(g412
S'\x07\x00\x00\x00\x00\x00\x00\x00'
p821
tp822
Rp823
sg44
g12
sS'word_presentation.thisIndex'
p824
g34
(g149
S'\x08\x00\x00\x00'
p825
tp826
Rp827
sa(dp828
S'training_block.thisRepN'
p829
I1
sS'block.thisTrialN'
p830
I0
sS'block.thisRepN'
p831
I0
sg367
g383
sg33
g43
sg607
Vskip
p832
sg45
g46
sg609
Vstrut
p833
sg611
Vpace
p834
sg613
Vdance
p835
sg366
g389
sS'word_presentation.thisRepN'
p836
I0
sg368
g390
sg47
g52
sS'block.thisIndex'
p837
g395
sg617
g645
sS'training_block.thisIndex'
p838
g163
sg22
F7.56398677643665
sS'training_block.thisN'
p839
I1
sS'word_presentation.thisN'
p840
I9
sS'block.thisN'
p841
I0
sS'training_block.thisTrialN'
p842
I0
sg21
S'space'
p843
sg31
g32
sS'word_presentation.thisTrialN'
p844
I9
sg626
g34
(g412
S'\x0b\x00\x00\x00\x00\x00\x00\x00'
p845
tp846
Rp847
sg44
g12
sS'word_presentation.thisIndex'
p848
g34
(g149
S'\t\x00\x00\x00'
p849
tp850
Rp851
sa(dp852
S'training_block.thisRepN'
p853
I1
sS'block.thisTrialN'
p854
I0
sS'block.thisRepN'
p855
I0
sg367
g383
sg33
g43
sg607
Vhike
p856
sg45
g46
sg609
Vwade
p857
sg611
Vtread
p858
sg613
Vtiptoe
p859
sg366
g389
sS'word_presentation.thisRepN'
p860
I0
sg368
g390
sg47
g52
sS'block.thisIndex'
p861
g395
sg617
g645
sS'training_block.thisIndex'
p862
g163
sg22
F5.015112189674255
sS'training_block.thisN'
p863
I1
sS'word_presentation.thisN'
p864
I10
sS'block.thisN'
p865
I0
sS'training_block.thisTrialN'
p866
I0
sg21
S'space'
p867
sg31
g32
sS'word_presentation.thisTrialN'
p868
I10
sg626
g34
(g412
S'\r\x00\x00\x00\x00\x00\x00\x00'
p869
tp870
Rp871
sg44
g12
sS'word_presentation.thisIndex'
p872
g34
(g149
S'\n\x00\x00\x00'
p873
tp874
Rp875
sa(dp876
S'training_block.thisRepN'
p877
I1
sS'block.thisTrialN'
p878
I0
sS'block.thisRepN'
p879
I0
sg367
g383
sg33
g43
sg607
Vclick
p880
sg45
g46
sg609
Vwipe
p881
sg611
Vclap
p882
sg613
Vgrab
p883
sg366
g389
sS'word_presentation.thisRepN'
p884
I0
sg368
g390
sg47
g52
sS'block.thisIndex'
p885
g395
sg617
g618
sS'training_block.thisIndex'
p886
g163
sg22
F6.021014746715082
sS'training_block.thisN'
p887
I1
sS'word_presentation.thisN'
p888
I11
sS'block.thisN'
p889
I0
sS'training_block.thisTrialN'
p890
I0
sg21
S'space'
p891
sg31
g32
sS'word_presentation.thisTrialN'
p892
I11
sg626
g34
(g412
S'\x08\x00\x00\x00\x00\x00\x00\x00'
p893
tp894
Rp895
sg44
g12
sS'word_presentation.thisIndex'
p896
g34
(g149
S'\x0b\x00\x00\x00'
p897
tp898
Rp899
sa(dp900
S'training_block.thisRepN'
p901
I1
sS'block.thisTrialN'
p902
I0
sS'block.thisRepN'
p903
I0
sg367
g383
sg33
g43
sg607
Vkick
p904
sg45
g46
sg609
Vjog
p905
sg611
Vflee
p906
sg613
Vrun
p907
sg366
g389
sS'word_presentation.thisRepN'
p908
I0
sg368
g390
sg47
g52
sS'block.thisIndex'
p909
g395
sg617
g645
sS'training_block.thisIndex'
p910
g163
sg22
F10.315473676349939
sS'training_block.thisN'
p911
I1
sS'word_presentation.thisN'
p912
I12
sS'block.thisN'
p913
I0
sS'training_block.thisTrialN'
p914
I0
sg21
S'space'
p915
sg31
g32
sS'word_presentation.thisTrialN'
p916
I12
sg626
g34
(g412
S'\x11\x00\x00\x00\x00\x00\x00\x00'
p917
tp918
Rp919
sg44
g12
sS'word_presentation.thisIndex'
p920
g34
(g149
S'\x0c\x00\x00\x00'
p921
tp922
Rp923
sa(dp924
S'training_block.thisRepN'
p925
I1
sS'block.thisTrialN'
p926
I0
sS'block.thisRepN'
p927
I0
sg367
g383
sg33
g43
sg607
Vtrot
p928
sg45
g46
sg609
Vsprint
p929
sg611
Vcrawl
p930
sg613
Vslide
p931
sg366
g389
sS'word_presentation.thisRepN'
p932
I0
sg368
g390
sg47
g52
sS'block.thisIndex'
p933
g395
sg617
g645
sS'training_block.thisIndex'
p934
g163
sg22
F5.601922133977496
sS'training_block.thisN'
p935
I1
sS'word_presentation.thisN'
p936
I13
sS'block.thisN'
p937
I0
sS'training_block.thisTrialN'
p938
I0
sg21
S'space'
p939
sg31
g32
sS'word_presentation.thisTrialN'
p940
I13
sg626
g34
(g412
S'\x0f\x00\x00\x00\x00\x00\x00\x00'
p941
tp942
Rp943
sg44
g12
sS'word_presentation.thisIndex'
p944
g34
(g149
S'\r\x00\x00\x00'
p945
tp946
Rp947
sa(dp948
S'training_block.thisRepN'
p949
I1
sS'block.thisTrialN'
p950
I0
sS'block.thisRepN'
p951
I0
sg367
g383
sg33
g43
sg607
Vpull
p952
sg45
g46
sg609
Vpeel
p953
sg611
Vbraid
p954
sg613
Vpat
p955
sg366
g389
sS'word_presentation.thisRepN'
p956
I0
sg368
g390
sg47
g52
sS'block.thisIndex'
p957
g395
sg617
g618
sS'training_block.thisIndex'
p958
g163
sg22
F10.331234242494247
sS'training_block.thisN'
p959
I1
sS'word_presentation.thisN'
p960
I14
sS'block.thisN'
p961
I0
sS'training_block.thisTrialN'
p962
I0
sg21
S'space'
p963
sg31
g32
sS'word_presentation.thisTrialN'
p964
I14
sg626
g34
(g412
S'\x01\x00\x00\x00\x00\x00\x00\x00'
p965
tp966
Rp967
sg44
g12
sS'word_presentation.thisIndex'
p968
g34
(g149
S'\x0e\x00\x00\x00'
p969
tp970
Rp971
sa(dp972
S'training_block.thisRepN'
p973
I1
sS'block.thisTrialN'
p974
I0
sS'block.thisRepN'
p975
I0
sg367
g383
sg33
g43
sg607
Vbind
p976
sg45
g46
sg609
Vlift
p977
sg611
Vbrush
p978
sg613
Vfold
p979
sg366
g389
sS'word_presentation.thisRepN'
p980
I0
sg368
g390
sg47
g52
sS'block.thisIndex'
p981
g395
sg617
g618
sS'training_block.thisIndex'
p982
g163
sg22
F4.612955597076507
sS'training_block.thisN'
p983
I1
sS'word_presentation.thisN'
p984
I15
sS'block.thisN'
p985
I0
sS'training_block.thisTrialN'
p986
I0
sg21
S'space'
p987
sg31
g32
sS'word_presentation.thisTrialN'
p988
I15
sg626
g34
(g412
S'\x03\x00\x00\x00\x00\x00\x00\x00'
p989
tp990
Rp991
sg44
g12
sS'word_presentation.thisIndex'
p992
g34
(g149
S'\x0f\x00\x00\x00'
p993
tp994
Rp995
sa(dp996
S'training_block.thisRepN'
p997
I1
sS'block.thisTrialN'
p998
I0
sS'block.thisRepN'
p999
I0
sg367
g383
sg33
g43
sg607
Vwander
p1000
sg45
g46
sg609
Vclimb
p1001
sg611
Vkneel
p1002
sg613
Vstamp
p1003
sg366
g389
sS'word_presentation.thisRepN'
p1004
I0
sg368
g390
sg47
g52
sS'block.thisIndex'
p1005
g395
sg617
g645
sS'training_block.thisIndex'
p1006
g163
sg22
F7.513788766769721
sS'training_block.thisN'
p1007
I1
sS'word_presentation.thisN'
p1008
I16
sS'block.thisN'
p1009
I0
sS'training_block.thisTrialN'
p1010
I0
sg21
S'space'
p1011
sg31
g32
sS'word_presentation.thisTrialN'
p1012
I16
sg626
g34
(g412
S'\x0e\x00\x00\x00\x00\x00\x00\x00'
p1013
tp1014
Rp1015
sg44
g12
sS'word_presentation.thisIndex'
p1016
g34
(g149
S'\x10\x00\x00\x00'
p1017
tp1018
Rp1019
sa(dp1020
S'training_block.thisRepN'
p1021
I1
sS'block.thisTrialN'
p1022
I0
sS'block.thisRepN'
p1023
I0
sg367
g383
sg33
g43
sg607
Vclean
p1024
sg45
g46
sg609
Vstab
p1025
sg611
Vscratch
p1026
sg613
Vhack
p1027
sg366
g389
sS'word_presentation.thisRepN'
p1028
I0
sg368
g390
sg47
g52
sS'block.thisIndex'
p1029
g395
sg617
g618
sS'training_block.thisIndex'
p1030
g163
sg22
F8.38666667720463
sS'training_block.thisN'
p1031
I1
sS'word_presentation.thisN'
p1032
I17
sS'block.thisN'
p1033
I0
sS'training_block.thisTrialN'
p1034
I0
sg21
S'space'
p1035
sg31
g32
sS'word_presentation.thisTrialN'
p1036
I17
sg626
g34
(g412
S'\x05\x00\x00\x00\x00\x00\x00\x00'
p1037
tp1038
Rp1039
sg44
g12
sS'word_presentation.thisIndex'
p1040
g34
(g149
S'\x11\x00\x00\x00'
p1041
tp1042
Rp1043
sa(dp1044
S'training_block.thisRepN'
p1045
I1
sS'block.thisTrialN'
p1046
I0
sS'block.thisRepN'
p1047
I0
sg45
g46
sg368
g390
sg367
g383
sg47
g52
sS'block.thisN'
p1048
I0
sS'training_block.thisTrialN'
p1049
I0
sg33
g43
sg44
g12
sg31
g32
sS'training_block.thisN'
p1050
I1
sS'block.thisIndex'
p1051
g395
sg366
g389
sS'training_block.thisIndex'
p1052
g163
sa(dp1053
S'training_block.thisRepN'
p1054
I0
sS'block.thisTrialN'
p1055
I1
sg17
S'return'
p1056
sS'block.thisRepN'
p1057
I0
sS'word_presentation_training.thisRepN'
p1058
I0
sg367
Vwith hand drumming
p1059
sg19
S'space'
p1060
sg33
g43
sS'word4'
p1061
Vwait
p1062
sg45
g46
sS'word1'
p1063
Vblush
p1064
sS'word3'
p1065
Vbless
p1066
sS'word2'
p1067
Vsigh
p1068
sg366
VHANDS
p1069
sg16
F15.144459937167994
sg368
Vperform a simple drumming exercise with your hands
p1070
sS'word_presentation_training.thisN'
p1071
I0
sg44
g12
sS'block.thisIndex'
p1072
g34
(g149
S'\x01\x00\x00\x00'
p1073
tp1074
Rp1075
sS'type'
p1076
Vtraining
p1077
sS'training_block.thisIndex'
p1078
g230
sg22
F7.044316393494228
sS'training_block.thisN'
p1079
I0
sS'block.thisN'
p1080
I1
sS'training_block.thisTrialN'
p1081
I0
sg21
S'space'
p1082
sg31
g32
sg47
g52
sS'word_presentation_training.thisIndex'
p1083
g34
(g149
S'\x00\x00\x00\x00'
p1084
tp1085
Rp1086
sS'word_presentation_training.thisTrialN'
p1087
I0
sS'item'
p1088
g34
(g412
S'\x01\x00\x00\x00\x00\x00\x00\x00'
p1089
tp1090
Rp1091
sg15
S'space'
p1092
sg20
F4.242749621978874
sg18
F353.2318113805268
sa(dp1093
S'training_block.thisRepN'
p1094
I0
sS'block.thisTrialN'
p1095
I1
sS'block.thisRepN'
p1096
I0
sS'word_presentation_training.thisRepN'
p1097
I0
sg367
g1059
sg33
g43
sg1061
Vlook
p1098
sg45
g46
sg1063
Vstay
p1099
sg1065
Vsave
p1100
sg1067
Vprint
p1101
sg366
g1069
sg368
g1070
sS'word_presentation_training.thisN'
p1102
I1
sS'block.thisIndex'
p1103
g1075
sg1076
g1077
sS'training_block.thisIndex'
p1104
g230
sg22
F6.03787174473473
sS'training_block.thisN'
p1105
I0
sS'block.thisN'
p1106
I1
sS'training_block.thisTrialN'
p1107
I0
sg21
S'space'
p1108
sg31
g32
sg47
g52
sS'word_presentation_training.thisIndex'
p1109
g34
(g149
S'\x03\x00\x00\x00'
p1110
tp1111
Rp1112
sS'word_presentation_training.thisTrialN'
p1113
I1
sg1088
g34
(g412
S'\x04\x00\x00\x00\x00\x00\x00\x00'
p1114
tp1115
Rp1116
sg44
g12
sa(dp1117
S'training_block.thisRepN'
p1118
I0
sS'block.thisTrialN'
p1119
I1
sS'block.thisRepN'
p1120
I0
sS'word_presentation_training.thisRepN'
p1121
I0
sg367
g1059
sg33
g43
sg1061
Vlike
p1122
sg45
g46
sg1063
Vthank
p1123
sg1065
Vstare
p1124
sg1067
Vyell
p1125
sg366
g1069
sg368
g1070
sS'word_presentation_training.thisN'
p1126
I2
sS'block.thisIndex'
p1127
g1075
sg1076
g1077
sS'training_block.thisIndex'
p1128
g230
sg22
F6.658420972155
sS'training_block.thisN'
p1129
I0
sS'block.thisN'
p1130
I1
sS'training_block.thisTrialN'
p1131
I0
sg21
S'space'
p1132
sg31
g32
sg47
g52
sS'word_presentation_training.thisIndex'
p1133
g34
(g149
S'\x01\x00\x00\x00'
p1134
tp1135
Rp1136
sS'word_presentation_training.thisTrialN'
p1137
I2
sg1088
g34
(g412
S'\x02\x00\x00\x00\x00\x00\x00\x00'
p1138
tp1139
Rp1140
sg44
g12
sa(dp1141
S'training_block.thisRepN'
p1142
I0
sS'block.thisTrialN'
p1143
I1
sS'block.thisRepN'
p1144
I0
sS'word_presentation_training.thisRepN'
p1145
I0
sg367
g1059
sg33
g43
sg1061
Vlick
p1146
sg45
g46
sg1063
Vchew
p1147
sg1065
Vruin
p1148
sg1067
Vsoothe
p1149
sg366
g1069
sg368
g1070
sS'word_presentation_training.thisN'
p1150
I3
sS'block.thisIndex'
p1151
g1075
sg1076
g1077
sS'training_block.thisIndex'
p1152
g230
sg22
F4.49534263397436
sS'training_block.thisN'
p1153
I0
sS'block.thisN'
p1154
I1
sS'training_block.thisTrialN'
p1155
I0
sg21
S'space'
p1156
sg31
g32
sg47
g52
sS'word_presentation_training.thisIndex'
p1157
g34
(g149
S'\x02\x00\x00\x00'
p1158
tp1159
Rp1160
sS'word_presentation_training.thisTrialN'
p1161
I3
sg1088
g34
(g412
S'\x03\x00\x00\x00\x00\x00\x00\x00'
p1162
tp1163
Rp1164
sg44
g12
sa(dp1165
S'training_block.thisRepN'
p1166
I0
sS'block.thisTrialN'
p1167
I1
sS'block.thisRepN'
p1168
I0
sg367
g1059
sg33
g43
sS'word4'
p1169
Vclap
p1170
sg45
g46
sS'word1'
p1171
Vclick
p1172
sS'word3'
p1173
Vwipe
p1174
sS'word2'
p1175
Vgrab
p1176
sg366
g1069
sS'word_presentation.thisRepN'
p1177
I0
sg368
g1070
sg47
g52
sg24
F3.873878725546092
sS'block.thisIndex'
p1178
g1075
sS'type'
p1179
Varm
p1180
sS'training_block.thisIndex'
p1181
g230
sg22
F7.799795490758697
sS'training_block.thisN'
p1182
I0
sS'word_presentation.thisN'
p1183
I0
sg26
F3.3211364012640843
sS'block.thisN'
p1184
I1
sS'training_block.thisTrialN'
p1185
I0
sg21
S'space'
p1186
sg23
g188
sg31
g32
sS'word_presentation.thisTrialN'
p1187
I0
sS'item'
p1188
g34
(g412
S'\x08\x00\x00\x00\x00\x00\x00\x00'
p1189
tp1190
Rp1191
sg44
g12
sg25
S'space'
p1192
sS'word_presentation.thisIndex'
p1193
g34
(g149
S'\x00\x00\x00\x00'
p1194
tp1195
Rp1196
sa(dp1197
S'training_block.thisRepN'
p1198
I0
sS'block.thisTrialN'
p1199
I1
sS'block.thisRepN'
p1200
I0
sg367
g1059
sg33
g43
sg1169
Vlimp
p1201
sg45
g46
sg1171
Vmount
p1202
sg1173
Vstride
p1203
sg1175
Vhop
p1204
sg366
g1069
sS'word_presentation.thisRepN'
p1205
I0
sg368
g1070
sg47
g52
sS'block.thisIndex'
p1206
g1075
sg1179
Vleg
p1207
sS'training_block.thisIndex'
p1208
g230
sg22
F5.0987045509245945
sS'training_block.thisN'
p1209
I0
sS'word_presentation.thisN'
p1210
I1
sS'block.thisN'
p1211
I1
sS'training_block.thisTrialN'
p1212
I0
sg21
S'space'
p1213
sg31
g32
sS'word_presentation.thisTrialN'
p1214
I1
sg1188
g34
(g412
S'\n\x00\x00\x00\x00\x00\x00\x00'
p1215
tp1216
Rp1217
sg44
g12
sS'word_presentation.thisIndex'
p1218
g34
(g149
S'\x01\x00\x00\x00'
p1219
tp1220
Rp1221
sa(dp1222
S'training_block.thisRepN'
p1223
I0
sS'block.thisTrialN'
p1224
I1
sS'block.thisRepN'
p1225
I0
sg367
g1059
sg33
g43
sg1169
Vdunk
p1226
sg45
g46
sg1171
Vchop
p1227
sg1173
Vrub
p1228
sg1175
Vswitch
p1229
sg366
g1069
sS'word_presentation.thisRepN'
p1230
I0
sg368
g1070
sg47
g52
sS'block.thisIndex'
p1231
g1075
sg1179
g1180
sS'training_block.thisIndex'
p1232
g230
sg22
F7.713837207327742
sS'training_block.thisN'
p1233
I0
sS'word_presentation.thisN'
p1234
I2
sS'block.thisN'
p1235
I1
sS'training_block.thisTrialN'
p1236
I0
sg21
S'space'
p1237
sg31
g32
sS'word_presentation.thisTrialN'
p1238
I2
sg1188
g34
(g412
S'\x02\x00\x00\x00\x00\x00\x00\x00'
p1239
tp1240
Rp1241
sg44
g12
sS'word_presentation.thisIndex'
p1242
g34
(g149
S'\x02\x00\x00\x00'
p1243
tp1244
Rp1245
sa(dp1246
S'training_block.thisRepN'
p1247
I0
sS'block.thisTrialN'
p1248
I1
sS'block.thisRepN'
p1249
I0
sg367
g1059
sg33
g43
sg1169
Vcrawl
p1250
sg45
g46
sg1171
Vslide
p1251
sg1173
Vtrot
p1252
sg1175
Vsprint
p1253
sg366
g1069
sS'word_presentation.thisRepN'
p1254
I0
sg368
g1070
sg47
g52
sS'block.thisIndex'
p1255
g1075
sg1179
g1207
sS'training_block.thisIndex'
p1256
g230
sg22
F4.612309591269877
sS'training_block.thisN'
p1257
I0
sS'word_presentation.thisN'
p1258
I3
sS'block.thisN'
p1259
I1
sS'training_block.thisTrialN'
p1260
I0
sg21
S'space'
p1261
sg31
g32
sS'word_presentation.thisTrialN'
p1262
I3
sg1188
g34
(g412
S'\x0f\x00\x00\x00\x00\x00\x00\x00'
p1263
tp1264
Rp1265
sg44
g12
sS'word_presentation.thisIndex'
p1266
g34
(g149
S'\x03\x00\x00\x00'
p1267
tp1268
Rp1269
sa(dp1270
S'training_block.thisRepN'
p1271
I0
sS'block.thisTrialN'
p1272
I1
sS'block.thisRepN'
p1273
I0
sg367
g1059
sg33
g43
sg1169
Vthrow
p1274
sg45
g46
sg1171
Vwhip
p1275
sg1173
Vtoss
p1276
sg1175
Vscrape
p1277
sg366
g1069
sS'word_presentation.thisRepN'
p1278
I0
sg368
g1070
sg47
g52
sS'block.thisIndex'
p1279
g1075
sg1179
g1180
sS'training_block.thisIndex'
p1280
g230
sg22
F6.70791924097648
sS'training_block.thisN'
p1281
I0
sS'word_presentation.thisN'
p1282
I4
sS'block.thisN'
p1283
I1
sS'training_block.thisTrialN'
p1284
I0
sg21
S'space'
p1285
sg31
g32
sS'word_presentation.thisTrialN'
p1286
I4
sg1188
g34
(g412
S'\t\x00\x00\x00\x00\x00\x00\x00'
p1287
tp1288
Rp1289
sg44
g12
sS'word_presentation.thisIndex'
p1290
g34
(g149
S'\x04\x00\x00\x00'
p1291
tp1292
Rp1293
sa(dp1294
S'training_block.thisRepN'
p1295
I0
sS'block.thisTrialN'
p1296
I1
sS'block.thisRepN'
p1297
I0
sg367
g1059
sg33
g43
sg1169
Vstamp
p1298
sg45
g46
sg1171
Vkneel
p1299
sg1173
Vwander
p1300
sg1175
Vclimb
p1301
sg366
g1069
sS'word_presentation.thisRepN'
p1302
I0
sg368
g1070
sg47
g52
sS'block.thisIndex'
p1303
g1075
sg1179
g1207
sS'training_block.thisIndex'
p1304
g230
sg22
F5.786965459825296
sS'training_block.thisN'
p1305
I0
sS'word_presentation.thisN'
p1306
I5
sS'block.thisN'
p1307
I1
sS'training_block.thisTrialN'
p1308
I0
sg21
S'space'
p1309
sg31
g32
sS'word_presentation.thisTrialN'
p1310
I5
sg1188
g34
(g412
S'\x0e\x00\x00\x00\x00\x00\x00\x00'
p1311
tp1312
Rp1313
sg44
g12
sS'word_presentation.thisIndex'
p1314
g34
(g149
S'\x05\x00\x00\x00'
p1315
tp1316
Rp1317
sa(dp1318
S'training_block.thisRepN'
p1319
I0
sS'block.thisTrialN'
p1320
I1
sS'block.thisRepN'
p1321
I0
sg367
g1059
sg33
g43
sg1169
Vstrut
p1322
sg45
g46
sg1171
Vpace
p1323
sg1173
Vskip
p1324
sg1175
Vdance
p1325
sg366
g1069
sS'word_presentation.thisRepN'
p1326
I0
sg368
g1070
sg47
g52
sS'block.thisIndex'
p1327
g1075
sg1179
g1207
sS'training_block.thisIndex'
p1328
g230
sg22
F9.660465669432597
sS'training_block.thisN'
p1329
I0
sS'word_presentation.thisN'
p1330
I6
sS'block.thisN'
p1331
I1
sS'training_block.thisTrialN'
p1332
I0
sg21
S'space'
p1333
sg31
g32
sS'word_presentation.thisTrialN'
p1334
I6
sg1188
g34
(g412
S'\x0b\x00\x00\x00\x00\x00\x00\x00'
p1335
tp1336
Rp1337
sg44
g12
sS'word_presentation.thisIndex'
p1338
g34
(g149
S'\x06\x00\x00\x00'
p1339
tp1340
Rp1341
sa(dp1342
S'training_block.thisRepN'
p1343
I0
sS'block.thisTrialN'
p1344
I1
sS'block.thisRepN'
p1345
I0
sg367
g1059
sg33
g43
sg1169
Vlift
p1346
sg45
g46
sg1171
Vbrush
p1347
sg1173
Vbind
p1348
sg1175
Vfold
p1349
sg366
g1069
sS'word_presentation.thisRepN'
p1350
I0
sg368
g1070
sg47
g52
sS'block.thisIndex'
p1351
g1075
sg1179
g1180
sS'training_block.thisIndex'
p1352
g230
sg22
F5.769865468795615
sS'training_block.thisN'
p1353
I0
sS'word_presentation.thisN'
p1354
I7
sS'block.thisN'
p1355
I1
sS'training_block.thisTrialN'
p1356
I0
sg21
S'space'
p1357
sg31
g32
sS'word_presentation.thisTrialN'
p1358
I7
sg1188
g34
(g412
S'\x03\x00\x00\x00\x00\x00\x00\x00'
p1359
tp1360
Rp1361
sg44
g12
sS'word_presentation.thisIndex'
p1362
g34
(g149
S'\x07\x00\x00\x00'
p1363
tp1364
Rp1365
sa(dp1366
S'training_block.thisRepN'
p1367
I0
sS'block.thisTrialN'
p1368
I1
sS'block.thisRepN'
p1369
I0
sg367
g1059
sg33
g43
sg1169
Vtread
p1370
sg45
g46
sg1171
Vhike
p1371
sg1173
Vwade
p1372
sg1175
Vtiptoe
p1373
sg366
g1069
sS'word_presentation.thisRepN'
p1374
I0
sg368
g1070
sg47
g52
sS'block.thisIndex'
p1375
g1075
sg1179
g1207
sS'training_block.thisIndex'
p1376
g230
sg22
F6.7255360366543755
sS'training_block.thisN'
p1377
I0
sS'word_presentation.thisN'
p1378
I8
sS'block.thisN'
p1379
I1
sS'training_block.thisTrialN'
p1380
I0
sg21
S'space'
p1381
sg31
g32
sS'word_presentation.thisTrialN'
p1382
I8
sg1188
g34
(g412
S'\r\x00\x00\x00\x00\x00\x00\x00'
p1383
tp1384
Rp1385
sg44
g12
sS'word_presentation.thisIndex'
p1386
g34
(g149
S'\x08\x00\x00\x00'
p1387
tp1388
Rp1389
sa(dp1390
S'training_block.thisRepN'
p1391
I0
sS'block.thisTrialN'
p1392
I1
sS'block.thisRepN'
p1393
I0
sg367
g1059
sg33
g43
sg1169
Vstomp
p1394
sg45
g46
sg1171
Vstumble
p1395
sg1173
Vcreep
p1396
sg1175
Vglide
p1397
sg366
g1069
sS'word_presentation.thisRepN'
p1398
I0
sg368
g1070
sg47
g52
sS'block.thisIndex'
p1399
g1075
sg1179
g1207
sS'training_block.thisIndex'
p1400
g230
sg22
F7.045023641439911
sS'training_block.thisN'
p1401
I0
sS'word_presentation.thisN'
p1402
I9
sS'block.thisN'
p1403
I1
sS'training_block.thisTrialN'
p1404
I0
sg21
S'space'
p1405
sg31
g32
sS'word_presentation.thisTrialN'
p1406
I9
sg1188
g34
(g412
S'\x10\x00\x00\x00\x00\x00\x00\x00'
p1407
tp1408
Rp1409
sg44
g12
sS'word_presentation.thisIndex'
p1410
g34
(g149
S'\t\x00\x00\x00'
p1411
tp1412
Rp1413
sa(dp1414
S'training_block.thisRepN'
p1415
I0
sS'block.thisTrialN'
p1416
I1
sS'block.thisRepN'
p1417
I0
sg367
g1059
sg33
g43
sg1169
Vkick
p1418
sg45
g46
sg1171
Vrun
p1419
sg1173
Vjog
p1420
sg1175
Vflee
p1421
sg366
g1069
sS'word_presentation.thisRepN'
p1422
I0
sg368
g1070
sg47
g52
sS'block.thisIndex'
p1423
g1075
sg1179
g1207
sS'training_block.thisIndex'
p1424
g230
sg22
F6.776171828852966
sS'training_block.thisN'
p1425
I0
sS'word_presentation.thisN'
p1426
I10
sS'block.thisN'
p1427
I1
sS'training_block.thisTrialN'
p1428
I0
sg21
S'space'
p1429
sg31
g32
sS'word_presentation.thisTrialN'
p1430
I10
sg1188
g34
(g412
S'\x11\x00\x00\x00\x00\x00\x00\x00'
p1431
tp1432
Rp1433
sg44
g12
sS'word_presentation.thisIndex'
p1434
g34
(g149
S'\n\x00\x00\x00'
p1435
tp1436
Rp1437
sa(dp1438
S'training_block.thisRepN'
p1439
I0
sS'block.thisTrialN'
p1440
I1
sS'block.thisRepN'
p1441
I0
sg367
g1059
sg33
g43
sg1169
Vknock
p1442
sg45
g46
sg1171
Vnip
p1443
sg1173
Vscrub
p1444
sg1175
Vdig
p1445
sg366
g1069
sS'word_presentation.thisRepN'
p1446
I0
sg368
g1070
sg47
g52
sS'block.thisIndex'
p1447
g1075
sg1179
g1180
sS'training_block.thisIndex'
p1448
g230
sg22
F10.280983683118393
sS'training_block.thisN'
p1449
I0
sS'word_presentation.thisN'
p1450
I11
sS'block.thisN'
p1451
I1
sS'training_block.thisTrialN'
p1452
I0
sg21
S'space'
p1453
sg31
g32
sS'word_presentation.thisTrialN'
p1454
I11
sg1188
g34
(g412
S'\x07\x00\x00\x00\x00\x00\x00\x00'
p1455
tp1456
Rp1457
sg44
g12
sS'word_presentation.thisIndex'
p1458
g34
(g149
S'\x0b\x00\x00\x00'
p1459
tp1460
Rp1461
sa(dp1462
S'training_block.thisRepN'
p1463
I0
sS'block.thisTrialN'
p1464
I1
sS'block.thisRepN'
p1465
I0
sg367
g1059
sg33
g43
sg1169
Vpeel
p1466
sg45
g46
sg1171
Vpat
p1467
sg1173
Vpull
p1468
sg1175
Vbraid
p1469
sg366
g1069
sS'word_presentation.thisRepN'
p1470
I0
sg368
g1070
sg47
g52
sS'block.thisIndex'
p1471
g1075
sg1179
g1180
sS'training_block.thisIndex'
p1472
g230
sg22
F9.35875290455806
sS'training_block.thisN'
p1473
I0
sS'word_presentation.thisN'
p1474
I12
sS'block.thisN'
p1475
I1
sS'training_block.thisTrialN'
p1476
I0
sg21
S'space'
p1477
sg31
g32
sS'word_presentation.thisTrialN'
p1478
I12
sg1188
g34
(g412
S'\x01\x00\x00\x00\x00\x00\x00\x00'
p1479
tp1480
Rp1481
sg44
g12
sS'word_presentation.thisIndex'
p1482
g34
(g149
S'\x0c\x00\x00\x00'
p1483
tp1484
Rp1485
sa(dp1486
S'training_block.thisRepN'
p1487
I0
sS'block.thisTrialN'
p1488
I1
sS'block.thisRepN'
p1489
I0
sg367
g1059
sg33
g43
sg1169
Vstep
p1490
sg45
g46
sg1171
Vwalk
p1491
sg1173
Vstroll
p1492
sg1175
Vjump
p1493
sg366
g1069
sS'word_presentation.thisRepN'
p1494
I0
sg368
g1070
sg47
g52
sS'block.thisIndex'
p1495
g1075
sg1179
g1207
sS'training_block.thisIndex'
p1496
g230
sg22
F8.151324588481657
sS'training_block.thisN'
p1497
I0
sS'word_presentation.thisN'
p1498
I13
sS'block.thisN'
p1499
I1
sS'training_block.thisTrialN'
p1500
I0
sg21
S'space'
p1501
sg31
g32
sS'word_presentation.thisTrialN'
p1502
I13
sg1188
g34
(g412
S'\x0c\x00\x00\x00\x00\x00\x00\x00'
p1503
tp1504
Rp1505
sg44
g12
sS'word_presentation.thisIndex'
p1506
g34
(g149
S'\r\x00\x00\x00'
p1507
tp1508
Rp1509
sa(dp1510
S'training_block.thisRepN'
p1511
I0
sS'block.thisTrialN'
p1512
I1
sS'block.thisRepN'
p1513
I0
sg367
g1059
sg33
g43
sg1169
Vskate
p1514
sg45
g46
sg1171
Vslip
p1515
sg1173
Vstray
p1516
sg1175
Vleap
p1517
sg366
g1069
sS'word_presentation.thisRepN'
p1518
I0
sg368
g1070
sg47
g52
sS'block.thisIndex'
p1519
g1075
sg1179
g1207
sS'training_block.thisIndex'
p1520
g230
sg22
F9.878585282840504
sS'training_block.thisN'
p1521
I0
sS'word_presentation.thisN'
p1522
I14
sS'block.thisN'
p1523
I1
sS'training_block.thisTrialN'
p1524
I0
sg21
S'space'
p1525
sg31
g32
sS'word_presentation.thisTrialN'
p1526
I14
sg1188
g34
(g412
S'\x12\x00\x00\x00\x00\x00\x00\x00'
p1527
tp1528
Rp1529
sg44
g12
sS'word_presentation.thisIndex'
p1530
g34
(g149
S'\x0e\x00\x00\x00'
p1531
tp1532
Rp1533
sa(dp1534
S'training_block.thisRepN'
p1535
I0
sS'block.thisTrialN'
p1536
I1
sS'block.thisRepN'
p1537
I0
sg367
g1059
sg33
g43
sg1169
Vseize
p1538
sg45
g46
sg1171
Vgrasp
p1539
sg1173
Vcatch
p1540
sg1175
Vgrip
p1541
sg366
g1069
sS'word_presentation.thisRepN'
p1542
I0
sg368
g1070
sg47
g52
sS'block.thisIndex'
p1543
g1075
sg1179
g1180
sS'training_block.thisIndex'
p1544
g230
sg22
F7.211860271512705
sS'training_block.thisN'
p1545
I0
sS'word_presentation.thisN'
p1546
I15
sS'block.thisN'
p1547
I1
sS'training_block.thisTrialN'
p1548
I0
sg21
S'space'
p1549
sg31
g32
sS'word_presentation.thisTrialN'
p1550
I15
sg1188
g34
(g412
S'\x04\x00\x00\x00\x00\x00\x00\x00'
p1551
tp1552
Rp1553
sg44
g12
sS'word_presentation.thisIndex'
p1554
g34
(g149
S'\x0f\x00\x00\x00'
p1555
tp1556
Rp1557
sa(dp1558
S'training_block.thisRepN'
p1559
I0
sS'block.thisTrialN'
p1560
I1
sS'block.thisRepN'
p1561
I0
sg367
g1059
sg33
g43
sg1169
Vbash
p1562
sg45
g46
sg1171
Vcarve
p1563
sg1173
Vwash
p1564
sg1175
Vstir
p1565
sg366
g1069
sS'word_presentation.thisRepN'
p1566
I0
sg368
g1070
sg47
g52
sS'block.thisIndex'
p1567
g1075
sg1179
g1180
sS'training_block.thisIndex'
p1568
g230
sg22
F8.787917676338111
sS'training_block.thisN'
p1569
I0
sS'word_presentation.thisN'
p1570
I16
sS'block.thisN'
p1571
I1
sS'training_block.thisTrialN'
p1572
I0
sg21
S'space'
p1573
sg31
g32
sS'word_presentation.thisTrialN'
p1574
I16
sg1188
g34
(g412
S'\x06\x00\x00\x00\x00\x00\x00\x00'
p1575
tp1576
Rp1577
sg44
g12
sS'word_presentation.thisIndex'
p1578
g34
(g149
S'\x10\x00\x00\x00'
p1579
tp1580
Rp1581
sa(dp1582
S'training_block.thisRepN'
p1583
I0
sS'block.thisTrialN'
p1584
I1
sS'block.thisRepN'
p1585
I0
sg367
g1059
sg33
g43
sg1169
Vscratch
p1586
sg45
g46
sg1171
Vhack
p1587
sg1173
Vclean
p1588
sg1175
Vstab
p1589
sg366
g1069
sS'word_presentation.thisRepN'
p1590
I0
sg368
g1070
sg47
g52
sS'block.thisIndex'
p1591
g1075
sg1179
g1180
sS'training_block.thisIndex'
p1592
g230
sg22
F5.853472844246426
sS'training_block.thisN'
p1593
I0
sS'word_presentation.thisN'
p1594
I17
sS'block.thisN'
p1595
I1
sS'training_block.thisTrialN'
p1596
I0
sg21
S'space'
p1597
sg31
g32
sS'word_presentation.thisTrialN'
p1598
I17
sg1188
g34
(g412
S'\x05\x00\x00\x00\x00\x00\x00\x00'
p1599
tp1600
Rp1601
sg44
g12
sS'word_presentation.thisIndex'
p1602
g34
(g149
S'\x11\x00\x00\x00'
p1603
tp1604
Rp1605
sa(dp1606
S'training_block.thisRepN'
p1607
I0
sS'block.thisTrialN'
p1608
I1
sS'block.thisRepN'
p1609
I0
sg45
g46
sg368
g1070
sg367
g1059
sg47
g52
sS'block.thisN'
p1610
I1
sS'training_block.thisTrialN'
p1611
I0
sg33
g43
sg44
g12
sg31
g32
sS'training_block.thisN'
p1612
I0
sS'block.thisIndex'
p1613
g1075
sg366
g1069
sS'training_block.thisIndex'
p1614
g230
sa(dp1615
S'training_block.thisRepN'
p1616
I0
sS'block.thisTrialN'
p1617
I2
sg17
S'return'
p1618
sS'block.thisRepN'
p1619
I0
sS'word_presentation_training.thisRepN'
p1620
I0
sg367
Vwith foot drumming
p1621
sg19
S'space'
p1622
sg33
g43
sS'word4'
p1623
Vchew
p1624
sg45
g46
sS'word1'
p1625
Vruin
p1626
sS'word3'
p1627
Vlick
p1628
sS'word2'
p1629
Vsoothe
p1630
sg366
VFEET
p1631
sg16
F8.520573605743266
sg368
Vperform a simple drumming exercise with your feet
p1632
sS'word_presentation_training.thisN'
p1633
I0
sg44
g12
sS'block.thisIndex'
p1634
g34
(g149
S'\x02\x00\x00\x00'
p1635
tp1636
Rp1637
sS'type'
p1638
Vtraining
p1639
sS'training_block.thisIndex'
p1640
g294
sg22
F3.3375789282799815
sS'training_block.thisN'
p1641
I0
sS'block.thisN'
p1642
I2
sS'training_block.thisTrialN'
p1643
I0
sg21
S'space'
p1644
sg31
g32
sg47
g52
sS'word_presentation_training.thisIndex'
p1645
g34
(g149
S'\x02\x00\x00\x00'
p1646
tp1647
Rp1648
sS'word_presentation_training.thisTrialN'
p1649
I0
sS'item'
p1650
g34
(g412
S'\x03\x00\x00\x00\x00\x00\x00\x00'
p1651
tp1652
Rp1653
sg15
S'space'
p1654
sg20
F1.7278426922493964
sg18
F136.56724683388165
sa(dp1655
S'training_block.thisRepN'
p1656
I0
sS'block.thisTrialN'
p1657
I2
sS'block.thisRepN'
p1658
I0
sS'word_presentation_training.thisRepN'
p1659
I0
sg367
g1621
sg33
g43
sg1623
Vbless
p1660
sg45
g46
sg1625
Vsigh
p1661
sg1627
Vblush
p1662
sg1629
Vwait
p1663
sg366
g1631
sg368
g1632
sS'word_presentation_training.thisN'
p1664
I1
sS'block.thisIndex'
p1665
g1637
sg1638
g1639
sS'training_block.thisIndex'
p1666
g294
sg22
F6.641168863548955
sS'training_block.thisN'
p1667
I0
sS'block.thisN'
p1668
I2
sS'training_block.thisTrialN'
p1669
I0
sg21
S'space'
p1670
sg31
g32
sg47
g52
sS'word_presentation_training.thisIndex'
p1671
g34
(g149
S'\x00\x00\x00\x00'
p1672
tp1673
Rp1674
sS'word_presentation_training.thisTrialN'
p1675
I1
sg1650
g34
(g412
S'\x01\x00\x00\x00\x00\x00\x00\x00'
p1676
tp1677
Rp1678
sg44
g12
sa(dp1679
S'training_block.thisRepN'
p1680
I0
sS'block.thisTrialN'
p1681
I2
sS'block.thisRepN'
p1682
I0
sS'word_presentation_training.thisRepN'
p1683
I0
sg367
g1621
sg33
g43
sg1623
Vthank
p1684
sg45
g46
sg1625
Vstare
p1685
sg1627
Vyell
p1686
sg1629
Vlike
p1687
sg366
g1631
sg368
g1632
sS'word_presentation_training.thisN'
p1688
I2
sS'block.thisIndex'
p1689
g1637
sg1638
g1639
sS'training_block.thisIndex'
p1690
g294
sg22
F5.316749093322869
sS'training_block.thisN'
p1691
I0
sS'block.thisN'
p1692
I2
sS'training_block.thisTrialN'
p1693
I0
sg21
S'space'
p1694
sg31
g32
sg47
g52
sS'word_presentation_training.thisIndex'
p1695
g34
(g149
S'\x01\x00\x00\x00'
p1696
tp1697
Rp1698
sS'word_presentation_training.thisTrialN'
p1699
I2
sg1650
g34
(g412
S'\x02\x00\x00\x00\x00\x00\x00\x00'
p1700
tp1701
Rp1702
sg44
g12
sa(dp1703
S'training_block.thisRepN'
p1704
I0
sS'block.thisTrialN'
p1705
I2
sS'block.thisRepN'
p1706
I0
sS'word_presentation_training.thisRepN'
p1707
I0
sg367
g1621
sg33
g43
sg1623
Vlook
p1708
sg45
g46
sg1625
Vstay
p1709
sg1627
Vprint
p1710
sg1629
Vsave
p1711
sg366
g1631
sg368
g1632
sS'word_presentation_training.thisN'
p1712
I3
sS'block.thisIndex'
p1713
g1637
sg1638
g1639
sS'training_block.thisIndex'
p1714
g294
sg22
F5.618319223274739
sS'training_block.thisN'
p1715
I0
sS'block.thisN'
p1716
I2
sS'training_block.thisTrialN'
p1717
I0
sg21
S'space'
p1718
sg31
g32
sg47
g52
sS'word_presentation_training.thisIndex'
p1719
g34
(g149
S'\x03\x00\x00\x00'
p1720
tp1721
Rp1722
sS'word_presentation_training.thisTrialN'
p1723
I3
sg1650
g34
(g412
S'\x04\x00\x00\x00\x00\x00\x00\x00'
p1724
tp1725
Rp1726
sg44
g12
sa(dp1727
S'training_block.thisRepN'
p1728
I0
sS'block.thisTrialN'
p1729
I2
sS'block.thisRepN'
p1730
I0
sg367
g1621
sg33
g43
sS'word4'
p1731
Vthrow
p1732
sg45
g46
sS'word1'
p1733
Vscrape
p1734
sS'word3'
p1735
Vtoss
p1736
sS'word2'
p1737
Vwhip
p1738
sg366
g1631
sS'word_presentation.thisRepN'
p1739
I0
sg368
g1632
sg47
g52
sg24
F3.7732171918942186
sS'block.thisIndex'
p1740
g1637
sS'type'
p1741
Varm
p1742
sS'training_block.thisIndex'
p1743
g294
sg22
F4.277616550705716
sS'training_block.thisN'
p1744
I0
sS'word_presentation.thisN'
p1745
I0
sg26
F2.0966108599313884
sS'block.thisN'
p1746
I2
sS'training_block.thisTrialN'
p1747
I0
sg21
S'space'
p1748
sg23
g252
sg31
g32
sS'word_presentation.thisTrialN'
p1749
I0
sS'item'
p1750
g34
(g412
S'\t\x00\x00\x00\x00\x00\x00\x00'
p1751
tp1752
Rp1753
sg44
g12
sg25
S'space'
p1754
sS'word_presentation.thisIndex'
p1755
g34
(g149
S'\x00\x00\x00\x00'
p1756
tp1757
Rp1758
sa(dp1759
S'training_block.thisRepN'
p1760
I0
sS'block.thisTrialN'
p1761
I2
sS'block.thisRepN'
p1762
I0
sg367
g1621
sg33
g43
sg1731
Vcrawl
p1763
sg45
g46
sg1733
Vtrot
p1764
sg1735
Vslide
p1765
sg1737
Vsprint
p1766
sg366
g1631
sS'word_presentation.thisRepN'
p1767
I0
sg368
g1632
sg47
g52
sS'block.thisIndex'
p1768
g1637
sg1741
Vleg
p1769
sS'training_block.thisIndex'
p1770
g294
sg22
F5.048353633457737
sS'training_block.thisN'
p1771
I0
sS'word_presentation.thisN'
p1772
I1
sS'block.thisN'
p1773
I2
sS'training_block.thisTrialN'
p1774
I0
sg21
S'space'
p1775
sg31
g32
sS'word_presentation.thisTrialN'
p1776
I1
sg1750
g34
(g412
S'\x0f\x00\x00\x00\x00\x00\x00\x00'
p1777
tp1778
Rp1779
sg44
g12
sS'word_presentation.thisIndex'
p1780
g34
(g149
S'\x01\x00\x00\x00'
p1781
tp1782
Rp1783
sa(dp1784
S'training_block.thisRepN'
p1785
I0
sS'block.thisTrialN'
p1786
I2
sS'block.thisRepN'
p1787
I0
sg367
g1621
sg33
g43
sg1731
Vhop
p1788
sg45
g46
sg1733
Vlimp
p1789
sg1735
Vmount
p1790
sg1737
Vstride
p1791
sg366
g1631
sS'word_presentation.thisRepN'
p1792
I0
sg368
g1632
sg47
g52
sS'block.thisIndex'
p1793
g1637
sg1741
g1769
sS'training_block.thisIndex'
p1794
g294
sg22
F7.027579904199229
sS'training_block.thisN'
p1795
I0
sS'word_presentation.thisN'
p1796
I2
sS'block.thisN'
p1797
I2
sS'training_block.thisTrialN'
p1798
I0
sg21
S'space'
p1799
sg31
g32
sS'word_presentation.thisTrialN'
p1800
I2
sg1750
g34
(g412
S'\n\x00\x00\x00\x00\x00\x00\x00'
p1801
tp1802
Rp1803
sg44
g12
sS'word_presentation.thisIndex'
p1804
g34
(g149
S'\x02\x00\x00\x00'
p1805
tp1806
Rp1807
sa(dp1808
S'training_block.thisRepN'
p1809
I0
sS'block.thisTrialN'
p1810
I2
sS'block.thisRepN'
p1811
I0
sg367
g1621
sg33
g43
sg1731
Vrun
p1812
sg45
g46
sg1733
Vflee
p1813
sg1735
Vjog
p1814
sg1737
Vkick
p1815
sg366
g1631
sS'word_presentation.thisRepN'
p1816
I0
sg368
g1632
sg47
g52
sS'block.thisIndex'
p1817
g1637
sg1741
g1769
sS'training_block.thisIndex'
p1818
g294
sg22
F4.276838973077247
sS'training_block.thisN'
p1819
I0
sS'word_presentation.thisN'
p1820
I3
sS'block.thisN'
p1821
I2
sS'training_block.thisTrialN'
p1822
I0
sg21
S'space'
p1823
sg31
g32
sS'word_presentation.thisTrialN'
p1824
I3
sg1750
g34
(g412
S'\x11\x00\x00\x00\x00\x00\x00\x00'
p1825
tp1826
Rp1827
sg44
g12
sS'word_presentation.thisIndex'
p1828
g34
(g149
S'\x03\x00\x00\x00'
p1829
tp1830
Rp1831
sa(dp1832
S'training_block.thisRepN'
p1833
I0
sS'block.thisTrialN'
p1834
I2
sS'block.thisRepN'
p1835
I0
sg367
g1621
sg33
g43
sg1731
Vcatch
p1836
sg45
g46
sg1733
Vseize
p1837
sg1735
Vgrip
p1838
sg1737
Vgrasp
p1839
sg366
g1631
sS'word_presentation.thisRepN'
p1840
I0
sg368
g1632
sg47
g52
sS'block.thisIndex'
p1841
g1637
sg1741
g1742
sS'training_block.thisIndex'
p1842
g294
sg22
F7.160938024138886
sS'training_block.thisN'
p1843
I0
sS'word_presentation.thisN'
p1844
I4
sS'block.thisN'
p1845
I2
sS'training_block.thisTrialN'
p1846
I0
sg21
S'space'
p1847
sg31
g32
sS'word_presentation.thisTrialN'
p1848
I4
sg1750
g34
(g412
S'\x04\x00\x00\x00\x00\x00\x00\x00'
p1849
tp1850
Rp1851
sg44
g12
sS'word_presentation.thisIndex'
p1852
g34
(g149
S'\x04\x00\x00\x00'
p1853
tp1854
Rp1855
sa(dp1856
S'training_block.thisRepN'
p1857
I0
sS'block.thisTrialN'
p1858
I2
sS'block.thisRepN'
p1859
I0
sg367
g1621
sg33
g43
sg1731
Vknock
p1860
sg45
g46
sg1733
Vnip
p1861
sg1735
Vscrub
p1862
sg1737
Vdig
p1863
sg366
g1631
sS'word_presentation.thisRepN'
p1864
I0
sg368
g1632
sg47
g52
sS'block.thisIndex'
p1865
g1637
sg1741
g1742
sS'training_block.thisIndex'
p1866
g294
sg22
F12.461996880996594
sS'training_block.thisN'
p1867
I0
sS'word_presentation.thisN'
p1868
I5
sS'block.thisN'
p1869
I2
sS'training_block.thisTrialN'
p1870
I0
sg21
S'space'
p1871
sg31
g32
sS'word_presentation.thisTrialN'
p1872
I5
sg1750
g34
(g412
S'\x07\x00\x00\x00\x00\x00\x00\x00'
p1873
tp1874
Rp1875
sg44
g12
sS'word_presentation.thisIndex'
p1876
g34
(g149
S'\x05\x00\x00\x00'
p1877
tp1878
Rp1879
sa(dp1880
S'training_block.thisRepN'
p1881
I0
sS'block.thisTrialN'
p1882
I2
sS'block.thisRepN'
p1883
I0
sg367
g1621
sg33
g43
sg1731
Vstumble
p1884
sg45
g46
sg1733
Vcreep
p1885
sg1735
Vstomp
p1886
sg1737
Vglide
p1887
sg366
g1631
sS'word_presentation.thisRepN'
p1888
I0
sg368
g1632
sg47
g52
sS'block.thisIndex'
p1889
g1637
sg1741
g1769
sS'training_block.thisIndex'
p1890
g294
sg22
F11.873582392607204
sS'training_block.thisN'
p1891
I0
sS'word_presentation.thisN'
p1892
I6
sS'block.thisN'
p1893
I2
sS'training_block.thisTrialN'
p1894
I0
sg21
S'space'
p1895
sg31
g32
sS'word_presentation.thisTrialN'
p1896
I6
sg1750
g34
(g412
S'\x10\x00\x00\x00\x00\x00\x00\x00'
p1897
tp1898
Rp1899
sg44
g12
sS'word_presentation.thisIndex'
p1900
g34
(g149
S'\x06\x00\x00\x00'
p1901
tp1902
Rp1903
sa(dp1904
S'training_block.thisRepN'
p1905
I0
sS'block.thisTrialN'
p1906
I2
sS'block.thisRepN'
p1907
I0
sg367
g1621
sg33
g43
sg1731
Vscratch
p1908
sg45
g46
sg1733
Vclean
p1909
sg1735
Vstab
p1910
sg1737
Vhack
p1911
sg366
g1631
sS'word_presentation.thisRepN'
p1912
I0
sg368
g1632
sg47
g52
sS'block.thisIndex'
p1913
g1637
sg1741
g1742
sS'training_block.thisIndex'
p1914
g294
sg22
F4.998077787000511
sS'training_block.thisN'
p1915
I0
sS'word_presentation.thisN'
p1916
I7
sS'block.thisN'
p1917
I2
sS'training_block.thisTrialN'
p1918
I0
sg21
S'space'
p1919
sg31
g32
sS'word_presentation.thisTrialN'
p1920
I7
sg1750
g34
(g412
S'\x05\x00\x00\x00\x00\x00\x00\x00'
p1921
tp1922
Rp1923
sg44
g12
sS'word_presentation.thisIndex'
p1924
g34
(g149
S'\x07\x00\x00\x00'
p1925
tp1926
Rp1927
sa(dp1928
S'training_block.thisRepN'
p1929
I0
sS'block.thisTrialN'
p1930
I2
sS'block.thisRepN'
p1931
I0
sg367
g1621
sg33
g43
sg1731
Vwalk
p1932
sg45
g46
sg1733
Vstroll
p1933
sg1735
Vstep
p1934
sg1737
Vjump
p1935
sg366
g1631
sS'word_presentation.thisRepN'
p1936
I0
sg368
g1632
sg47
g52
sS'block.thisIndex'
p1937
g1637
sg1741
g1769
sS'training_block.thisIndex'
p1938
g294
sg22
F3.6899191880329454
sS'training_block.thisN'
p1939
I0
sS'word_presentation.thisN'
p1940
I8
sS'block.thisN'
p1941
I2
sS'training_block.thisTrialN'
p1942
I0
sg21
S'space'
p1943
sg31
g32
sS'word_presentation.thisTrialN'
p1944
I8
sg1750
g34
(g412
S'\x0c\x00\x00\x00\x00\x00\x00\x00'
p1945
tp1946
Rp1947
sg44
g12
sS'word_presentation.thisIndex'
p1948
g34
(g149
S'\x08\x00\x00\x00'
p1949
tp1950
Rp1951
sa(dp1952
S'training_block.thisRepN'
p1953
I0
sS'block.thisTrialN'
p1954
I2
sS'block.thisRepN'
p1955
I0
sg367
g1621
sg33
g43
sg1731
Vclap
p1956
sg45
g46
sg1733
Vwipe
p1957
sg1735
Vclick
p1958
sg1737
Vgrab
p1959
sg366
g1631
sS'word_presentation.thisRepN'
p1960
I0
sg368
g1632
sg47
g52
sS'block.thisIndex'
p1961
g1637
sg1741
g1742
sS'training_block.thisIndex'
p1962
g294
sg22
F18.81786626849862
sS'training_block.thisN'
p1963
I0
sS'word_presentation.thisN'
p1964
I9
sS'block.thisN'
p1965
I2
sS'training_block.thisTrialN'
p1966
I0
sg21
S'space'
p1967
sg31
g32
sS'word_presentation.thisTrialN'
p1968
I9
sg1750
g34
(g412
S'\x08\x00\x00\x00\x00\x00\x00\x00'
p1969
tp1970
Rp1971
sg44
g12
sS'word_presentation.thisIndex'
p1972
g34
(g149
S'\t\x00\x00\x00'
p1973
tp1974
Rp1975
sa(dp1976
S'training_block.thisRepN'
p1977
I0
sS'block.thisTrialN'
p1978
I2
sS'block.thisRepN'
p1979
I0
sg367
g1621
sg33
g43
sg1731
Vstir
p1980
sg45
g46
sg1733
Vcarve
p1981
sg1735
Vbash
p1982
sg1737
Vwash
p1983
sg366
g1631
sS'word_presentation.thisRepN'
p1984
I0
sg368
g1632
sg47
g52
sS'block.thisIndex'
p1985
g1637
sg1741
g1742
sS'training_block.thisIndex'
p1986
g294
sg22
F7.178254140661011
sS'training_block.thisN'
p1987
I0
sS'word_presentation.thisN'
p1988
I10
sS'block.thisN'
p1989
I2
sS'training_block.thisTrialN'
p1990
I0
sg21
S'space'
p1991
sg31
g32
sS'word_presentation.thisTrialN'
p1992
I10
sg1750
g34
(g412
S'\x06\x00\x00\x00\x00\x00\x00\x00'
p1993
tp1994
Rp1995
sg44
g12
sS'word_presentation.thisIndex'
p1996
g34
(g149
S'\n\x00\x00\x00'
p1997
tp1998
Rp1999
sa(dp2000
S'training_block.thisRepN'
p2001
I0
sS'block.thisTrialN'
p2002
I2
sS'block.thisRepN'
p2003
I0
sg367
g1621
sg33
g43
sg1731
Vbind
p2004
sg45
g46
sg1733
Vfold
p2005
sg1735
Vbrush
p2006
sg1737
Vlift
p2007
sg366
g1631
sS'word_presentation.thisRepN'
p2008
I0
sg368
g1632
sg47
g52
sS'block.thisIndex'
p2009
g1637
sg1741
g1742
sS'training_block.thisIndex'
p2010
g294
sg22
F8.487361400148075
sS'training_block.thisN'
p2011
I0
sS'word_presentation.thisN'
p2012
I11
sS'block.thisN'
p2013
I2
sS'training_block.thisTrialN'
p2014
I0
sg21
S'space'
p2015
sg31
g32
sS'word_presentation.thisTrialN'
p2016
I11
sg1750
g34
(g412
S'\x03\x00\x00\x00\x00\x00\x00\x00'
p2017
tp2018
Rp2019
sg44
g12
sS'word_presentation.thisIndex'
p2020
g34
(g149
S'\x0b\x00\x00\x00'
p2021
tp2022
Rp2023
sa(dp2024
S'training_block.thisRepN'
p2025
I0
sS'block.thisTrialN'
p2026
I2
sS'block.thisRepN'
p2027
I0
sg367
g1621
sg33
g43
sg1731
Vclimb
p2028
sg45
g46
sg1733
Vwander
p2029
sg1735
Vstamp
p2030
sg1737
Vkneel
p2031
sg366
g1631
sS'word_presentation.thisRepN'
p2032
I0
sg368
g1632
sg47
g52
sS'block.thisIndex'
p2033
g1637
sg1741
g1769
sS'training_block.thisIndex'
p2034
g294
sg22
F7.631017287272698
sS'training_block.thisN'
p2035
I0
sS'word_presentation.thisN'
p2036
I12
sS'block.thisN'
p2037
I2
sS'training_block.thisTrialN'
p2038
I0
sg21
S'space'
p2039
sg31
g32
sS'word_presentation.thisTrialN'
p2040
I12
sg1750
g34
(g412
S'\x0e\x00\x00\x00\x00\x00\x00\x00'
p2041
tp2042
Rp2043
sg44
g12
sS'word_presentation.thisIndex'
p2044
g34
(g149
S'\x0c\x00\x00\x00'
p2045
tp2046
Rp2047
sa(dp2048
S'training_block.thisRepN'
p2049
I0
sS'block.thisTrialN'
p2050
I2
sS'block.thisRepN'
p2051
I0
sg367
g1621
sg33
g43
sg1731
Vslip
p2052
sg45
g46
sg1733
Vleap
p2053
sg1735
Vstray
p2054
sg1737
Vskate
p2055
sg366
g1631
sS'word_presentation.thisRepN'
p2056
I0
sg368
g1632
sg47
g52
sS'block.thisIndex'
p2057
g1637
sg1741
g1769
sS'training_block.thisIndex'
p2058
g294
sg22
F10.86802674266437
sS'training_block.thisN'
p2059
I0
sS'word_presentation.thisN'
p2060
I13
sS'block.thisN'
p2061
I2
sS'training_block.thisTrialN'
p2062
I0
sg21
S'space'
p2063
sg31
g32
sS'word_presentation.thisTrialN'
p2064
I13
sg1750
g34
(g412
S'\x12\x00\x00\x00\x00\x00\x00\x00'
p2065
tp2066
Rp2067
sg44
g12
sS'word_presentation.thisIndex'
p2068
g34
(g149
S'\r\x00\x00\x00'
p2069
tp2070
Rp2071
sa(dp2072
S'training_block.thisRepN'
p2073
I0
sS'block.thisTrialN'
p2074
I2
sS'block.thisRepN'
p2075
I0
sg367
g1621
sg33
g43
sg1731
Vchop
p2076
sg45
g46
sg1733
Vrub
p2077
sg1735
Vswitch
p2078
sg1737
Vdunk
p2079
sg366
g1631
sS'word_presentation.thisRepN'
p2080
I0
sg368
g1632
sg47
g52
sS'block.thisIndex'
p2081
g1637
sg1741
g1742
sS'training_block.thisIndex'
p2082
g294
sg22
F10.78404717304511
sS'training_block.thisN'
p2083
I0
sS'word_presentation.thisN'
p2084
I14
sS'block.thisN'
p2085
I2
sS'training_block.thisTrialN'
p2086
I0
sg21
S'space'
p2087
sg31
g32
sS'word_presentation.thisTrialN'
p2088
I14
sg1750
g34
(g412
S'\x02\x00\x00\x00\x00\x00\x00\x00'
p2089
tp2090
Rp2091
sg44
g12
sS'word_presentation.thisIndex'
p2092
g34
(g149
S'\x0e\x00\x00\x00'
p2093
tp2094
Rp2095
sa(dp2096
S'training_block.thisRepN'
p2097
I0
sS'block.thisTrialN'
p2098
I2
sS'block.thisRepN'
p2099
I0
sg367
g1621
sg33
g43
sg1731
Vtread
p2100
sg45
g46
sg1733
Vtiptoe
p2101
sg1735
Vwade
p2102
sg1737
Vhike
p2103
sg366
g1631
sS'word_presentation.thisRepN'
p2104
I0
sg368
g1632
sg47
g52
sS'block.thisIndex'
p2105
g1637
sg1741
g1769
sS'training_block.thisIndex'
p2106
g294
sg22
F6.373279935454775
sS'training_block.thisN'
p2107
I0
sS'word_presentation.thisN'
p2108
I15
sS'block.thisN'
p2109
I2
sS'training_block.thisTrialN'
p2110
I0
sg21
S'space'
p2111
sg31
g32
sS'word_presentation.thisTrialN'
p2112
I15
sg1750
g34
(g412
S'\r\x00\x00\x00\x00\x00\x00\x00'
p2113
tp2114
Rp2115
sg44
g12
sS'word_presentation.thisIndex'
p2116
g34
(g149
S'\x0f\x00\x00\x00'
p2117
tp2118
Rp2119
sa(dp2120
S'training_block.thisRepN'
p2121
I0
sS'block.thisTrialN'
p2122
I2
sS'block.thisRepN'
p2123
I0
sg367
g1621
sg33
g43
sg1731
Vpeel
p2124
sg45
g46
sg1733
Vpull
p2125
sg1735
Vbraid
p2126
sg1737
Vpat
p2127
sg366
g1631
sS'word_presentation.thisRepN'
p2128
I0
sg368
g1632
sg47
g52
sS'block.thisIndex'
p2129
g1637
sg1741
g1742
sS'training_block.thisIndex'
p2130
g294
sg22
F6.49052228482833
sS'training_block.thisN'
p2131
I0
sS'word_presentation.thisN'
p2132
I16
sS'block.thisN'
p2133
I2
sS'training_block.thisTrialN'
p2134
I0
sg21
S'space'
p2135
sg31
g32
sS'word_presentation.thisTrialN'
p2136
I16
sg1750
g34
(g412
S'\x01\x00\x00\x00\x00\x00\x00\x00'
p2137
tp2138
Rp2139
sg44
g12
sS'word_presentation.thisIndex'
p2140
g34
(g149
S'\x10\x00\x00\x00'
p2141
tp2142
Rp2143
sa(dp2144
S'training_block.thisRepN'
p2145
I0
sS'block.thisTrialN'
p2146
I2
sS'block.thisRepN'
p2147
I0
sg367
g1621
sg33
g43
sg1731
Vskip
p2148
sg45
g46
sg1733
Vpace
p2149
sg1735
Vdance
p2150
sg1737
Vstrut
p2151
sg366
g1631
sS'word_presentation.thisRepN'
p2152
I0
sg368
g1632
sg47
g52
sS'block.thisIndex'
p2153
g1637
sg1741
g1769
sS'training_block.thisIndex'
p2154
g294
sg22
F9.073330944233021
sS'training_block.thisN'
p2155
I0
sS'word_presentation.thisN'
p2156
I17
sS'block.thisN'
p2157
I2
sS'training_block.thisTrialN'
p2158
I0
sg21
S'space'
p2159
sg31
g32
sS'word_presentation.thisTrialN'
p2160
I17
sg1750
g34
(g412
S'\x0b\x00\x00\x00\x00\x00\x00\x00'
p2161
tp2162
Rp2163
sg44
g12
sS'word_presentation.thisIndex'
p2164
g34
(g149
S'\x11\x00\x00\x00'
p2165
tp2166
Rp2167
sa(dp2168
S'training_block.thisRepN'
p2169
I0
sS'block.thisTrialN'
p2170
I2
sS'block.thisRepN'
p2171
I0
sg45
g46
sg368
g1632
sg367
g1621
sg47
g52
sS'block.thisN'
p2172
I2
sS'training_block.thisTrialN'
p2173
I0
sg33
g43
sg44
g12
sg31
g32
sS'training_block.thisN'
p2174
I0
sS'block.thisIndex'
p2175
g1637
sg366
g1631
sS'training_block.thisIndex'
p2176
g294
sa(dp2177
S'training_block.thisRepN'
p2178
I0
sS'block.thisTrialN'
p2179
I3
sg17
S'return'
p2180
sS'block.thisRepN'
p2181
I0
sS'word_presentation_training.thisRepN'
p2182
I0
sg367
Vwhile you wait silently
p2183
sg19
S'space'
p2184
sg33
g43
sS'word4'
p2185
Vyell
p2186
sg45
g46
sS'word1'
p2187
Vlike
p2188
sS'word3'
p2189
Vstare
p2190
sS'word2'
p2191
Vthank
p2192
sg366
VSILENT
p2193
sg16
F9.945481456077687
sg368
Vwait silently
p2194
sS'word_presentation_training.thisN'
p2195
I0
sg44
g12
sS'block.thisIndex'
p2196
g34
(g149
S'\x00\x00\x00\x00'
p2197
tp2198
Rp2199
sS'type'
p2200
Vtraining
p2201
sS'training_block.thisIndex'
p2202
g358
sg22
F3.8075155564947636
sS'training_block.thisN'
p2203
I0
sS'block.thisN'
p2204
I3
sS'training_block.thisTrialN'
p2205
I0
sg21
S'space'
p2206
sg31
g32
sg47
g52
sS'word_presentation_training.thisIndex'
p2207
g34
(g149
S'\x01\x00\x00\x00'
p2208
tp2209
Rp2210
sS'word_presentation_training.thisTrialN'
p2211
I0
sS'item'
p2212
g34
(g412
S'\x02\x00\x00\x00\x00\x00\x00\x00'
p2213
tp2214
Rp2215
sg15
S'space'
p2216
sg20
F3.874387627980468
sg18
F7.228680524251104
sa(dp2217
S'training_block.thisRepN'
p2218
I0
sS'block.thisTrialN'
p2219
I3
sS'block.thisRepN'
p2220
I0
sS'word_presentation_training.thisRepN'
p2221
I0
sg367
g2183
sg33
g43
sg2185
Vwait
p2222
sg45
g46
sg2187
Vsigh
p2223
sg2189
Vbless
p2224
sg2191
Vblush
p2225
sg366
g2193
sg368
g2194
sS'word_presentation_training.thisN'
p2226
I1
sS'block.thisIndex'
p2227
g2199
sg2200
g2201
sS'training_block.thisIndex'
p2228
g358
sg22
F3.924864585726027
sS'training_block.thisN'
p2229
I0
sS'block.thisN'
p2230
I3
sS'training_block.thisTrialN'
p2231
I0
sg21
S'space'
p2232
sg31
g32
sg47
g52
sS'word_presentation_training.thisIndex'
p2233
g34
(g149
S'\x00\x00\x00\x00'
p2234
tp2235
Rp2236
sS'word_presentation_training.thisTrialN'
p2237
I1
sg2212
g34
(g412
S'\x01\x00\x00\x00\x00\x00\x00\x00'
p2238
tp2239
Rp2240
sg44
g12
sa(dp2241
S'training_block.thisRepN'
p2242
I0
sS'block.thisTrialN'
p2243
I3
sS'block.thisRepN'
p2244
I0
sS'word_presentation_training.thisRepN'
p2245
I0
sg367
g2183
sg33
g43
sg2185
Vruin
p2246
sg45
g46
sg2187
Vlick
p2247
sg2189
Vsoothe
p2248
sg2191
Vchew
p2249
sg366
g2193
sg368
g2194
sS'word_presentation_training.thisN'
p2250
I2
sS'block.thisIndex'
p2251
g2199
sg2200
g2201
sS'training_block.thisIndex'
p2252
g358
sg22
F6.339762309376965
sS'training_block.thisN'
p2253
I0
sS'block.thisN'
p2254
I3
sS'training_block.thisTrialN'
p2255
I0
sg21
S'space'
p2256
sg31
g32
sg47
g52
sS'word_presentation_training.thisIndex'
p2257
g34
(g149
S'\x02\x00\x00\x00'
p2258
tp2259
Rp2260
sS'word_presentation_training.thisTrialN'
p2261
I2
sg2212
g34
(g412
S'\x03\x00\x00\x00\x00\x00\x00\x00'
p2262
tp2263
Rp2264
sg44
g12
sa(dp2265
S'training_block.thisRepN'
p2266
I0
sS'block.thisTrialN'
p2267
I3
sS'block.thisRepN'
p2268
I0
sS'word_presentation_training.thisRepN'
p2269
I0
sg367
g2183
sg33
g43
sg2185
Vlook
p2270
sg45
g46
sg2187
Vsave
p2271
sg2189
Vprint
p2272
sg2191
Vstay
p2273
sg366
g2193
sg368
g2194
sS'word_presentation_training.thisN'
p2274
I3
sS'block.thisIndex'
p2275
g2199
sg2200
g2201
sS'training_block.thisIndex'
p2276
g358
sg22
F4.511717201970896
sS'training_block.thisN'
p2277
I0
sS'block.thisN'
p2278
I3
sS'training_block.thisTrialN'
p2279
I0
sg21
S'space'
p2280
sg31
g32
sg47
g52
sS'word_presentation_training.thisIndex'
p2281
g34
(g149
S'\x03\x00\x00\x00'
p2282
tp2283
Rp2284
sS'word_presentation_training.thisTrialN'
p2285
I3
sg2212
g34
(g412
S'\x04\x00\x00\x00\x00\x00\x00\x00'
p2286
tp2287
Rp2288
sg44
g12
sa(dp2289
S'training_block.thisRepN'
p2290
I0
sS'block.thisTrialN'
p2291
I3
sS'block.thisRepN'
p2292
I0
sg367
g2183
sg33
g43
sS'word4'
p2293
Vwhip
p2294
sg45
g46
sS'word1'
p2295
Vthrow
p2296
sS'word3'
p2297
Vtoss
p2298
sS'word2'
p2299
Vscrape
p2300
sg366
g2193
sS'word_presentation.thisRepN'
p2301
I0
sg368
g2194
sg47
g52
sg24
F3.1360729247680865
sS'block.thisIndex'
p2302
g2199
sS'type'
p2303
Varm
p2304
sS'training_block.thisIndex'
p2305
g358
sg22
F3.874553179317445
sS'training_block.thisN'
p2306
I0
sS'word_presentation.thisN'
p2307
I0
sg26
F1.3420456534477125
sS'block.thisN'
p2308
I3
sS'training_block.thisTrialN'
p2309
I0
sg21
S'space'
p2310
sg23
g316
sg31
g32
sS'word_presentation.thisTrialN'
p2311
I0
sS'item'
p2312
g34
(g412
S'\t\x00\x00\x00\x00\x00\x00\x00'
p2313
tp2314
Rp2315
sg44
g12
sg25
S'space'
p2316
sS'word_presentation.thisIndex'
p2317
g34
(g149
S'\x00\x00\x00\x00'
p2318
tp2319
Rp2320
sa(dp2321
S'training_block.thisRepN'
p2322
I0
sS'block.thisTrialN'
p2323
I3
sS'block.thisRepN'
p2324
I0
sg367
g2183
sg33
g43
sg2293
Vstumble
p2325
sg45
g46
sg2295
Vcreep
p2326
sg2297
Vglide
p2327
sg2299
Vstomp
p2328
sg366
g2193
sS'word_presentation.thisRepN'
p2329
I0
sg368
g2194
sg47
g52
sS'block.thisIndex'
p2330
g2199
sg2303
Vleg
p2331
sS'training_block.thisIndex'
p2332
g358
sg22
F7.095126824569888
sS'training_block.thisN'
p2333
I0
sS'word_presentation.thisN'
p2334
I1
sS'block.thisN'
p2335
I3
sS'training_block.thisTrialN'
p2336
I0
sg21
S'space'
p2337
sg31
g32
sS'word_presentation.thisTrialN'
p2338
I1
sg2312
g34
(g412
S'\x10\x00\x00\x00\x00\x00\x00\x00'
p2339
tp2340
Rp2341
sg44
g12
sS'word_presentation.thisIndex'
p2342
g34
(g149
S'\x01\x00\x00\x00'
p2343
tp2344
Rp2345
sa(dp2346
S'training_block.thisRepN'
p2347
I0
sS'block.thisTrialN'
p2348
I3
sS'block.thisRepN'
p2349
I0
sg367
g2183
sg33
g43
sg2293
Vclean
p2350
sg45
g46
sg2295
Vhack
p2351
sg2297
Vstab
p2352
sg2299
Vscratch
p2353
sg366
g2193
sS'word_presentation.thisRepN'
p2354
I0
sg368
g2194
sg47
g52
sS'block.thisIndex'
p2355
g2199
sg2303
g2304
sS'training_block.thisIndex'
p2356
g358
sg22
F3.3377484307202394
sS'training_block.thisN'
p2357
I0
sS'word_presentation.thisN'
p2358
I2
sS'block.thisN'
p2359
I3
sS'training_block.thisTrialN'
p2360
I0
sg21
S'space'
p2361
sg31
g32
sS'word_presentation.thisTrialN'
p2362
I2
sg2312
g34
(g412
S'\x05\x00\x00\x00\x00\x00\x00\x00'
p2363
tp2364
Rp2365
sg44
g12
sS'word_presentation.thisIndex'
p2366
g34
(g149
S'\x02\x00\x00\x00'
p2367
tp2368
Rp2369
sa(dp2370
S'training_block.thisRepN'
p2371
I0
sS'block.thisTrialN'
p2372
I3
sS'block.thisRepN'
p2373
I0
sg367
g2183
sg33
g43
sg2293
Vskip
p2374
sg45
g46
sg2295
Vdance
p2375
sg2297
Vstrut
p2376
sg2299
Vpace
p2377
sg366
g2193
sS'word_presentation.thisRepN'
p2378
I0
sg368
g2194
sg47
g52
sS'block.thisIndex'
p2379
g2199
sg2303
g2331
sS'training_block.thisIndex'
p2380
g358
sg22
F4.477996489047655
sS'training_block.thisN'
p2381
I0
sS'word_presentation.thisN'
p2382
I3
sS'block.thisN'
p2383
I3
sS'training_block.thisTrialN'
p2384
I0
sg21
S'space'
p2385
sg31
g32
sS'word_presentation.thisTrialN'
p2386
I3
sg2312
g34
(g412
S'\x0b\x00\x00\x00\x00\x00\x00\x00'
p2387
tp2388
Rp2389
sg44
g12
sS'word_presentation.thisIndex'
p2390
g34
(g149
S'\x03\x00\x00\x00'
p2391
tp2392
Rp2393
sa(dp2394
S'training_block.thisRepN'
p2395
I0
sS'block.thisTrialN'
p2396
I3
sS'block.thisRepN'
p2397
I0
sg367
g2183
sg33
g43
sg2293
Vchop
p2398
sg45
g46
sg2295
Vrub
p2399
sg2297
Vdunk
p2400
sg2299
Vswitch
p2401
sg366
g2193
sS'word_presentation.thisRepN'
p2402
I0
sg368
g2194
sg47
g52
sS'block.thisIndex'
p2403
g2199
sg2303
g2304
sS'training_block.thisIndex'
p2404
g358
sg22
F9.308238806417648
sS'training_block.thisN'
p2405
I0
sS'word_presentation.thisN'
p2406
I4
sS'block.thisN'
p2407
I3
sS'training_block.thisTrialN'
p2408
I0
sg21
S'space'
p2409
sg31
g32
sS'word_presentation.thisTrialN'
p2410
I4
sg2312
g34
(g412
S'\x02\x00\x00\x00\x00\x00\x00\x00'
p2411
tp2412
Rp2413
sg44
g12
sS'word_presentation.thisIndex'
p2414
g34
(g149
S'\x04\x00\x00\x00'
p2415
tp2416
Rp2417
sa(dp2418
S'training_block.thisRepN'
p2419
I0
sS'block.thisTrialN'
p2420
I3
sS'block.thisRepN'
p2421
I0
sg367
g2183
sg33
g43
sg2293
Vstep
p2422
sg45
g46
sg2295
Vjump
p2423
sg2297
Vstroll
p2424
sg2299
Vwalk
p2425
sg366
g2193
sS'word_presentation.thisRepN'
p2426
I0
sg368
g2194
sg47
g52
sS'block.thisIndex'
p2427
g2199
sg2303
g2331
sS'training_block.thisIndex'
p2428
g358
sg22
F4.897603140656429
sS'training_block.thisN'
p2429
I0
sS'word_presentation.thisN'
p2430
I5
sS'block.thisN'
p2431
I3
sS'training_block.thisTrialN'
p2432
I0
sg21
S'space'
p2433
sg31
g32
sS'word_presentation.thisTrialN'
p2434
I5
sg2312
g34
(g412
S'\x0c\x00\x00\x00\x00\x00\x00\x00'
p2435
tp2436
Rp2437
sg44
g12
sS'word_presentation.thisIndex'
p2438
g34
(g149
S'\x05\x00\x00\x00'
p2439
tp2440
Rp2441
sa(dp2442
S'training_block.thisRepN'
p2443
I0
sS'block.thisTrialN'
p2444
I3
sS'block.thisRepN'
p2445
I0
sg367
g2183
sg33
g43
sg2293
Vseize
p2446
sg45
g46
sg2295
Vgrasp
p2447
sg2297
Vgrip
p2448
sg2299
Vcatch
p2449
sg366
g2193
sS'word_presentation.thisRepN'
p2450
I0
sg368
g2194
sg47
g52
sS'block.thisIndex'
p2451
g2199
sg2303
g2304
sS'training_block.thisIndex'
p2452
g358
sg22
F4.7627380689446
sS'training_block.thisN'
p2453
I0
sS'word_presentation.thisN'
p2454
I6
sS'block.thisN'
p2455
I3
sS'training_block.thisTrialN'
p2456
I0
sg21
S'space'
p2457
sg31
g32
sS'word_presentation.thisTrialN'
p2458
I6
sg2312
g34
(g412
S'\x04\x00\x00\x00\x00\x00\x00\x00'
p2459
tp2460
Rp2461
sg44
g12
sS'word_presentation.thisIndex'
p2462
g34
(g149
S'\x06\x00\x00\x00'
p2463
tp2464
Rp2465
sa(dp2466
S'training_block.thisRepN'
p2467
I0
sS'block.thisTrialN'
p2468
I3
sS'block.thisRepN'
p2469
I0
sg367
g2183
sg33
g43
sg2293
Vmount
p2470
sg45
g46
sg2295
Vstride
p2471
sg2297
Vhop
p2472
sg2299
Vlimp
p2473
sg366
g2193
sS'word_presentation.thisRepN'
p2474
I0
sg368
g2194
sg47
g52
sS'block.thisIndex'
p2475
g2199
sg2303
g2331
sS'training_block.thisIndex'
p2476
g358
sg22
F4.897454974183347
sS'training_block.thisN'
p2477
I0
sS'word_presentation.thisN'
p2478
I7
sS'block.thisN'
p2479
I3
sS'training_block.thisTrialN'
p2480
I0
sg21
S'space'
p2481
sg31
g32
sS'word_presentation.thisTrialN'
p2482
I7
sg2312
g34
(g412
S'\n\x00\x00\x00\x00\x00\x00\x00'
p2483
tp2484
Rp2485
sg44
g12
sS'word_presentation.thisIndex'
p2486
g34
(g149
S'\x07\x00\x00\x00'
p2487
tp2488
Rp2489
sa(dp2490
S'training_block.thisRepN'
p2491
I0
sS'block.thisTrialN'
p2492
I3
sS'block.thisRepN'
p2493
I0
sg367
g2183
sg33
g43
sg2293
Vsprint
p2494
sg45
g46
sg2295
Vtrot
p2495
sg2297
Vcrawl
p2496
sg2299
Vslide
p2497
sg366
g2193
sS'word_presentation.thisRepN'
p2498
I0
sg368
g2194
sg47
g52
sS'block.thisIndex'
p2499
g2199
sg2303
g2331
sS'training_block.thisIndex'
p2500
g358
sg22
F6.893588817107229
sS'training_block.thisN'
p2501
I0
sS'word_presentation.thisN'
p2502
I8
sS'block.thisN'
p2503
I3
sS'training_block.thisTrialN'
p2504
I0
sg21
S'space'
p2505
sg31
g32
sS'word_presentation.thisTrialN'
p2506
I8
sg2312
g34
(g412
S'\x0f\x00\x00\x00\x00\x00\x00\x00'
p2507
tp2508
Rp2509
sg44
g12
sS'word_presentation.thisIndex'
p2510
g34
(g149
S'\x08\x00\x00\x00'
p2511
tp2512
Rp2513
sa(dp2514
S'training_block.thisRepN'
p2515
I0
sS'block.thisTrialN'
p2516
I3
sS'block.thisRepN'
p2517
I0
sg367
g2183
sg33
g43
sg2293
Vwade
p2518
sg45
g46
sg2295
Vtread
p2519
sg2297
Vhike
p2520
sg2299
Vtiptoe
p2521
sg366
g2193
sS'word_presentation.thisRepN'
p2522
I0
sg368
g2194
sg47
g52
sS'block.thisIndex'
p2523
g2199
sg2303
g2331
sS'training_block.thisIndex'
p2524
g358
sg22
F4.949251996396924
sS'training_block.thisN'
p2525
I0
sS'word_presentation.thisN'
p2526
I9
sS'block.thisN'
p2527
I3
sS'training_block.thisTrialN'
p2528
I0
sg21
S'space'
p2529
sg31
g32
sS'word_presentation.thisTrialN'
p2530
I9
sg2312
g34
(g412
S'\r\x00\x00\x00\x00\x00\x00\x00'
p2531
tp2532
Rp2533
sg44
g12
sS'word_presentation.thisIndex'
p2534
g34
(g149
S'\t\x00\x00\x00'
p2535
tp2536
Rp2537
sa(dp2538
S'training_block.thisRepN'
p2539
I0
sS'block.thisTrialN'
p2540
I3
sS'block.thisRepN'
p2541
I0
sg367
g2183
sg33
g43
sg2293
Vfold
p2542
sg45
g46
sg2295
Vbind
p2543
sg2297
Vlift
p2544
sg2299
Vbrush
p2545
sg366
g2193
sS'word_presentation.thisRepN'
p2546
I0
sg368
g2194
sg47
g52
sS'block.thisIndex'
p2547
g2199
sg2303
g2304
sS'training_block.thisIndex'
p2548
g358
sg22
F5.38343822861134
sS'training_block.thisN'
p2549
I0
sS'word_presentation.thisN'
p2550
I10
sS'block.thisN'
p2551
I3
sS'training_block.thisTrialN'
p2552
I0
sg21
S'space'
p2553
sg31
g32
sS'word_presentation.thisTrialN'
p2554
I10
sg2312
g34
(g412
S'\x03\x00\x00\x00\x00\x00\x00\x00'
p2555
tp2556
Rp2557
sg44
g12
sS'word_presentation.thisIndex'
p2558
g34
(g149
S'\n\x00\x00\x00'
p2559
tp2560
Rp2561
sa(dp2562
S'training_block.thisRepN'
p2563
I0
sS'block.thisTrialN'
p2564
I3
sS'block.thisRepN'
p2565
I0
sg367
g2183
sg33
g43
sg2293
Vkneel
p2566
sg45
g46
sg2295
Vclimb
p2567
sg2297
Vstamp
p2568
sg2299
Vwander
p2569
sg366
g2193
sS'word_presentation.thisRepN'
p2570
I0
sg368
g2194
sg47
g52
sS'block.thisIndex'
p2571
g2199
sg2303
g2331
sS'training_block.thisIndex'
p2572
g358
sg22
F5.450762306609249
sS'training_block.thisN'
p2573
I0
sS'word_presentation.thisN'
p2574
I11
sS'block.thisN'
p2575
I3
sS'training_block.thisTrialN'
p2576
I0
sg21
S'space'
p2577
sg31
g32
sS'word_presentation.thisTrialN'
p2578
I11
sg2312
g34
(g412
S'\x0e\x00\x00\x00\x00\x00\x00\x00'
p2579
tp2580
Rp2581
sg44
g12
sS'word_presentation.thisIndex'
p2582
g34
(g149
S'\x0b\x00\x00\x00'
p2583
tp2584
Rp2585
sa(dp2586
S'training_block.thisRepN'
p2587
I0
sS'block.thisTrialN'
p2588
I3
sS'block.thisRepN'
p2589
I0
sg367
g2183
sg33
g43
sg2293
Vscrub
p2590
sg45
g46
sg2295
Vknock
p2591
sg2297
Vdig
p2592
sg2299
Vnip
p2593
sg366
g2193
sS'word_presentation.thisRepN'
p2594
I0
sg368
g2194
sg47
g52
sS'block.thisIndex'
p2595
g2199
sg2303
g2304
sS'training_block.thisIndex'
p2596
g358
sg22
F9.173627000593115
sS'training_block.thisN'
p2597
I0
sS'word_presentation.thisN'
p2598
I12
sS'block.thisN'
p2599
I3
sS'training_block.thisTrialN'
p2600
I0
sg21
S'space'
p2601
sg31
g32
sS'word_presentation.thisTrialN'
p2602
I12
sg2312
g34
(g412
S'\x07\x00\x00\x00\x00\x00\x00\x00'
p2603
tp2604
Rp2605
sg44
g12
sS'word_presentation.thisIndex'
p2606
g34
(g149
S'\x0c\x00\x00\x00'
p2607
tp2608
Rp2609
sa(dp2610
S'training_block.thisRepN'
p2611
I0
sS'block.thisTrialN'
p2612
I3
sS'block.thisRepN'
p2613
I0
sg367
g2183
sg33
g43
sg2293
Vflee
p2614
sg45
g46
sg2295
Vjog
p2615
sg2297
Vkick
p2616
sg2299
Vrun
p2617
sg366
g2193
sS'word_presentation.thisRepN'
p2618
I0
sg368
g2194
sg47
g52
sS'block.thisIndex'
p2619
g2199
sg2303
g2331
sS'training_block.thisIndex'
p2620
g358
sg22
F3.8409059569639794
sS'training_block.thisN'
p2621
I0
sS'word_presentation.thisN'
p2622
I13
sS'block.thisN'
p2623
I3
sS'training_block.thisTrialN'
p2624
I0
sg21
S'space'
p2625
sg31
g32
sS'word_presentation.thisTrialN'
p2626
I13
sg2312
g34
(g412
S'\x11\x00\x00\x00\x00\x00\x00\x00'
p2627
tp2628
Rp2629
sg44
g12
sS'word_presentation.thisIndex'
p2630
g34
(g149
S'\r\x00\x00\x00'
p2631
tp2632
Rp2633
sa(dp2634
S'training_block.thisRepN'
p2635
I0
sS'block.thisTrialN'
p2636
I3
sS'block.thisRepN'
p2637
I0
sg367
g2183
sg33
g43
sg2293
Vgrab
p2638
sg45
g46
sg2295
Vclap
p2639
sg2297
Vclick
p2640
sg2299
Vwipe
p2641
sg366
g2193
sS'word_presentation.thisRepN'
p2642
I0
sg368
g2194
sg47
g52
sS'block.thisIndex'
p2643
g2199
sg2303
g2304
sS'training_block.thisIndex'
p2644
g358
sg22
F4.277306784006214
sS'training_block.thisN'
p2645
I0
sS'word_presentation.thisN'
p2646
I14
sS'block.thisN'
p2647
I3
sS'training_block.thisTrialN'
p2648
I0
sg21
S'space'
p2649
sg31
g32
sS'word_presentation.thisTrialN'
p2650
I14
sg2312
g34
(g412
S'\x08\x00\x00\x00\x00\x00\x00\x00'
p2651
tp2652
Rp2653
sg44
g12
sS'word_presentation.thisIndex'
p2654
g34
(g149
S'\x0e\x00\x00\x00'
p2655
tp2656
Rp2657
sa(dp2658
S'training_block.thisRepN'
p2659
I0
sS'block.thisTrialN'
p2660
I3
sS'block.thisRepN'
p2661
I0
sg367
g2183
sg33
g43
sg2293
Vstir
p2662
sg45
g46
sg2295
Vwash
p2663
sg2297
Vcarve
p2664
sg2299
Vbash
p2665
sg366
g2193
sS'word_presentation.thisRepN'
p2666
I0
sg368
g2194
sg47
g52
sS'block.thisIndex'
p2667
g2199
sg2303
g2304
sS'training_block.thisIndex'
p2668
g358
sg22
F4.427877106383676
sS'training_block.thisN'
p2669
I0
sS'word_presentation.thisN'
p2670
I15
sS'block.thisN'
p2671
I3
sS'training_block.thisTrialN'
p2672
I0
sg21
S'space'
p2673
sg31
g32
sS'word_presentation.thisTrialN'
p2674
I15
sg2312
g34
(g412
S'\x06\x00\x00\x00\x00\x00\x00\x00'
p2675
tp2676
Rp2677
sg44
g12
sS'word_presentation.thisIndex'
p2678
g34
(g149
S'\x0f\x00\x00\x00'
p2679
tp2680
Rp2681
sa(dp2682
S'training_block.thisRepN'
p2683
I0
sS'block.thisTrialN'
p2684
I3
sS'block.thisRepN'
p2685
I0
sg367
g2183
sg33
g43
sg2293
Vpull
p2686
sg45
g46
sg2295
Vbraid
p2687
sg2297
Vpeel
p2688
sg2299
Vpat
p2689
sg366
g2193
sS'word_presentation.thisRepN'
p2690
I0
sg368
g2194
sg47
g52
sS'block.thisIndex'
p2691
g2199
sg2303
g2304
sS'training_block.thisIndex'
p2692
g358
sg22
F4.663329826071276
sS'training_block.thisN'
p2693
I0
sS'word_presentation.thisN'
p2694
I16
sS'block.thisN'
p2695
I3
sS'training_block.thisTrialN'
p2696
I0
sg21
S'space'
p2697
sg31
g32
sS'word_presentation.thisTrialN'
p2698
I16
sg2312
g34
(g412
S'\x01\x00\x00\x00\x00\x00\x00\x00'
p2699
tp2700
Rp2701
sg44
g12
sS'word_presentation.thisIndex'
p2702
g34
(g149
S'\x10\x00\x00\x00'
p2703
tp2704
Rp2705
sa(dp2706
S'training_block.thisRepN'
p2707
I0
sS'block.thisTrialN'
p2708
I3
sS'block.thisRepN'
p2709
I0
sg367
g2183
sg33
g43
sg2293
Vstray
p2710
sg45
g46
sg2295
Vskate
p2711
sg2297
Vslip
p2712
sg2299
Vleap
p2713
sg366
g2193
sS'word_presentation.thisRepN'
p2714
I0
sg368
g2194
sg47
g52
sS'block.thisIndex'
p2715
g2199
sg2303
g2331
sS'training_block.thisIndex'
p2716
g358
sg22
F8.638149033344234
sS'training_block.thisN'
p2717
I0
sS'word_presentation.thisN'
p2718
I17
sS'block.thisN'
p2719
I3
sS'training_block.thisTrialN'
p2720
I0
sg21
S'space'
p2721
sg31
g32
sS'word_presentation.thisTrialN'
p2722
I17
sg2312
g34
(g412
S'\x12\x00\x00\x00\x00\x00\x00\x00'
p2723
tp2724
Rp2725
sg44
g12
sS'word_presentation.thisIndex'
p2726
g34
(g149
S'\x11\x00\x00\x00'
p2727
tp2728
Rp2729
sa(dp2730
S'training_block.thisRepN'
p2731
I0
sS'block.thisTrialN'
p2732
I3
sS'block.thisRepN'
p2733
I0
sg45
g46
sg368
g2194
sg367
g2183
sg47
g52
sS'block.thisN'
p2734
I3
sS'training_block.thisTrialN'
p2735
I0
sg33
g43
sg44
g12
sg31
g32
sS'training_block.thisN'
p2736
I0
sS'block.thisIndex'
p2737
g2199
sg366
g2193
sS'training_block.thisIndex'
p2738
g358
sa(dp2739
S'training_block.thisRepN'
p2740
I0
sS'training_block.thisN'
p2741
I0
sg45
g46
sg47
g52
sg33
g43
sS'training_block.thisTrialN'
p2742
I0
sg44
g12
sg31
g32
sg27
NsS'training_block.thisIndex'
p2743
g358
sasS'loops'
p2744
(lp2745
g0
(g55
g2
Ntp2746
Rp2747
(dp2748
g59
Nsg60
(lp2749
sg61
I370091856
sg11
S'block'
p2750
sg6
I-1
sg63
I1
sg28
I01
sg29
g30
sg64
g0
(g65
g66
(dp2751
g17
g91
(g71
(I0
tp2752
g73
tp2753
Rp2754
(I1
(I4
I1
tp2755
g98
I00
(lp2756
g2180
ag1056
ag1618
ag380
atp2757
bsg68
g69
(g70
g71
g72
g73
tp2758
Rp2759
(I1
(I4
I1
tp2760
g79
I00
S'\x00\x00\x80?\x00\x00\x80?\x00\x00\x80?\x00\x00\x80?'
p2761
S'\x00\x00\x00\x00'
p2762
Ntp2763
bsg26
g69
(g70
g71
g72
g73
tp2764
Rp2765
(I1
(I4
I1
tp2766
g79
I00
S"'\xc8\xab?\x80\x8dT@\xdf.\x06@\x9aLB@"
p2767
S'\x00\x00\x00\x00'
p2768
Ntp2769
bsg19
g91
(g71
(I0
tp2770
g73
tp2771
Rp2772
(I1
(I4
I1
tp2773
g98
I00
(lp2774
g2184
ag1060
ag1622
ag384
atp2775
bsg15
g91
(g71
(I0
tp2776
g73
tp2777
Rp2778
(I1
(I4
I1
tp2779
g98
I00
(lp2780
g2216
ag1092
ag1654
ag418
atp2781
bsg25
g91
(g71
(I0
tp2782
g73
tp2783
Rp2784
(I1
(I4
I1
tp2785
g98
I00
(lp2786
g2316
ag1192
ag1754
ag630
atp2787
bsg18
g69
(g70
g71
g72
g73
tp2788
Rp2789
(I1
(I4
I1
tp2790
g79
I00
S'ZQ\xe7@\xac\x9d\xb0C7\x91\x08Cz\xac\x19C'
p2791
S'\x00\x00\x00\x00'
p2792
Ntp2793
bsg123
g69
(g70
g71
g72
g73
tp2794
Rp2795
(I1
(I4
I1
tp2796
g79
I00
S'\x00\x00@@\x00\x00\x80?\x00\x00\x00@\x00\x00\x00\x00'
p2797
S'\x00\x00\x00\x00'
p2798
Ntp2799
bsg20
g69
(g70
g71
g72
g73
tp2800
Rp2801
(I1
(I4
I1
tp2802
g79
I00
S'\xf8\xf5w@\x9b\xc4\x87@\xf3)\xdd?>\xf7\x82@'
p2803
S'\x00\x00\x00\x00'
p2804
Ntp2805
bsg16
g69
(g70
g71
g72
g73
tp2806
Rp2807
(I1
(I4
I1
tp2808
g79
I00
S'\xb1 \x1fA\xb5OrAET\x08A_\xd5\xa5A'
p2809
S'\x00\x00\x00\x00'
p2810
Ntp2811
bstp2812
Rp2813
(dp2814
g133
(dp2815
g17
I00
sg68
I01
sg26
I01
sg19
I00
sg15
I00
sg25
I00
sg18
I01
sg123
I01
sg20
I01
sg16
I01
ssg135
g2747
sg136
(lp2816
g68
ag123
ag15
ag16
ag17
ag18
ag19
ag20
ag25
ag26
asg138
(lp2817
I4
aI1
asbsg140
g141
sg142
g91
(g71
(I0
tp2818
g73
tp2819
Rp2820
(I1
(I4
I1
tp2821
g149
I00
S'\x03\x00\x00\x00\x01\x00\x00\x00\x02\x00\x00\x00\x00\x00\x00\x00'
p2822
tp2823
bsg154
I01
sg155
I1
sg156
I-1
sg157
(lp2824
ccollections
OrderedDict
p2825
((lp2826
(lp2827
g366
ag2193
aa(lp2828
g367
ag2183
aa(lp2829
g368
ag2194
aatp2830
Rp2831
ag2825
((lp2832
(lp2833
g366
ag1069
aa(lp2834
g367
ag1059
aa(lp2835
g368
ag1070
aatp2836
Rp2837
ag2825
((lp2838
(lp2839
g366
ag1631
aa(lp2840
g367
ag1621
aa(lp2841
g368
ag1632
aatp2842
Rp2843
ag2825
((lp2844
(lp2845
g366
ag389
aa(lp2846
g367
ag383
aa(lp2847
g368
ag390
aatp2848
Rp2849
asg159
Nsg160
g2199
sg164
I4
sg165
I0
sg166
I4
sbag57
ag0
(g55
g2
Ntp2850
Rp2851
(dp2852
g59
Nsg60
(lp2853
sg61
I370091856
sg11
S'word_presentation_training'
p2854
sg6
I-1
sg63
I1
sg28
I01
sg29
g30
sg64
g0
(g65
g66
(dp2855
g68
g69
(g70
g71
g72
g73
tp2856
Rp2857
(I1
(I4
I1
tp2858
g79
I00
S'\x00\x00\x80?\x00\x00\x80?\x00\x00\x80?\x00\x00\x80?'
p2859
S'\x00\x00\x00\x00'
p2860
Ntp2861
bsg22
g69
(g70
g71
g72
g73
tp2862
Rp2863
(I1
(I4
I1
tp2864
g79
I00
S"\x10\xda\xc2@\xda\xc8\x07A~.'A5;\xa4@"
p2865
S'\x00\x00\x00\x00'
p2866
Ntp2867
bsg123
g69
(g70
g71
g72
g73
tp2868
Rp2869
(I1
(I4
I1
tp2870
g79
I00
S'\x00\x00@@\x00\x00\x00@\x00\x00\x00\x00\x00\x00\x80?'
p2871
S'\x00\x00\x00\x00'
p2872
Ntp2873
bsg21
g91
(g71
(I0
tp2874
g73
tp2875
Rp2876
(I1
(I4
I1
tp2877
g98
I00
(lp2878
g482
ag458
ag404
ag434
atp2879
bstp2880
Rp2881
(dp2882
g133
(dp2883
g68
I01
sg22
I01
sg123
I01
sg21
I00
ssg135
g2851
sg136
(lp2884
g68
ag123
ag21
ag22
asg138
(lp2885
I4
aI1
asbsg140
g141
sg142
g91
(g71
(I0
tp2886
g73
tp2887
Rp2888
(I1
(I4
I1
tp2889
g149
I00
S'\x02\x00\x00\x00\x03\x00\x00\x00\x01\x00\x00\x00\x00\x00\x00\x00'
p2890
tp2891
bsg154
I01
sg155
I1
sg156
I-1
sg157
(lp2892
g2825
((lp2893
(lp2894
g369
ag490
aa(lp2895
g370
ag396
aa(lp2896
g371
ag473
aa(lp2897
g372
ag475
aa(lp2898
g373
ag474
aa(lp2899
g374
ag472
aatp2900
Rp2901
ag2825
((lp2902
(lp2903
g369
ag466
aa(lp2904
g370
ag396
aa(lp2905
g371
ag449
aa(lp2906
g372
ag451
aa(lp2907
g373
ag450
aa(lp2908
g374
ag448
aatp2909
Rp2910
ag2825
((lp2911
(lp2912
g369
ag417
aa(lp2913
g370
ag396
aa(lp2914
g371
ag386
aa(lp2915
g372
ag388
aa(lp2916
g373
ag387
aa(lp2917
g374
ag385
aatp2918
Rp2919
ag2825
((lp2920
(lp2921
g369
ag442
aa(lp2922
g370
ag396
aa(lp2923
g371
ag425
aa(lp2924
g372
ag427
aa(lp2925
g373
ag426
aa(lp2926
g374
ag424
aatp2927
Rp2928
asg159
Nsg160
g486
sg164
I4
sg165
I0
sg166
I4
sbag0
(g55
g2
Ntp2929
Rp2930
(dp2931
g59
Nsg60
(lp2932
sg61
I370091856
sg11
g2854
sg6
I-1
sg63
I1
sg28
I01
sg29
g30
sg64
g0
(g65
g66
(dp2933
g68
g69
(g70
g71
g72
g73
tp2934
Rp2935
(I1
(I4
I1
tp2936
g79
I00
S'\x00\x00\x80?\x00\x00\x80?\x00\x00\x80?\x00\x00\x80?'
p2937
S'\x00\x00\x00\x00'
p2938
Ntp2939
bsg22
g69
(g70
g71
g72
g73
tp2940
Rp2941
(I1
(I4
I1
tp2942
g79
I00
S'!\x8d\xb7@Z\xeb\xa6@-~\x8a@\xc7\x99\x8c@'
p2943
S'\x00\x00\x00\x00'
p2944
Ntp2945
bsg123
g69
(g70
g71
g72
g73
tp2946
Rp2947
(I1
(I4
I1
tp2948
g79
I00
S'\x00\x00\x00@\x00\x00@@\x00\x00\x00\x00\x00\x00\x80?'
p2949
S'\x00\x00\x00\x00'
p2950
Ntp2951
bsg21
g91
(g71
(I0
tp2952
g73
tp2953
Rp2954
(I1
(I4
I1
tp2955
g98
I00
(lp2956
g570
ag594
ag521
ag546
atp2957
bstp2958
Rp2959
(dp2960
g133
(dp2961
g68
I01
sg22
I01
sg123
I01
sg21
I00
ssg135
g2930
sg136
(lp2962
g68
ag123
ag21
ag22
asg138
(lp2963
I4
aI1
asbsg140
g141
sg142
g91
(g71
(I0
tp2964
g73
tp2965
Rp2966
(I1
(I4
I1
tp2967
g149
I00
S'\x02\x00\x00\x00\x03\x00\x00\x00\x00\x00\x00\x00\x01\x00\x00\x00'
p2968
tp2969
bsg154
I01
sg155
I1
sg156
I-1
sg157
(lp2970
g2825
((lp2971
(lp2972
g527
ag578
aa(lp2973
g515
ag516
aa(lp2974
g507
ag561
aa(lp2975
g511
ag563
aa(lp2976
g509
ag562
aa(lp2977
g505
ag560
aatp2978
Rp2979
ag2825
((lp2980
(lp2981
g527
ag602
aa(lp2982
g515
ag516
aa(lp2983
g507
ag585
aa(lp2984
g511
ag587
aa(lp2985
g509
ag586
aa(lp2986
g505
ag584
aatp2987
Rp2988
ag2825
((lp2989
(lp2990
g527
ag530
aa(lp2991
g515
ag516
aa(lp2992
g507
ag508
aa(lp2993
g511
ag512
aa(lp2994
g509
ag510
aa(lp2995
g505
ag506
aatp2996
Rp2997
ag2825
((lp2998
(lp2999
g527
ag554
aa(lp3000
g515
ag516
aa(lp3001
g507
ag537
aa(lp3002
g511
ag539
aa(lp3003
g509
ag538
aa(lp3004
g505
ag536
aatp3005
Rp3006
asg159
Nsg160
g598
sg164
I4
sg165
I0
sg166
I4
sbag0
(g55
g2
Ntp3007
Rp3008
(dp3009
g59
Nsg60
(lp3010
sg61
I370091856
sg11
S'word_presentation'
p3011
sg6
I-1
sg63
I1
sg28
I01
sg29
g30
sg64
g0
(g65
g66
(dp3012
g68
g69
(g70
g71
g72
g73
tp3013
Rp3014
(I1
(I18
I1
tp3015
g79
I00
S'\x00\x00\x80?\x00\x00\x80?\x00\x00\x80?\x00\x00\x80?\x00\x00\x80?\x00\x00\x80?\x00\x00\x80?\x00\x00\x80?\x00\x00\x80?\x00\x00\x80?\x00\x00\x80?\x00\x00\x80?\x00\x00\x80?\x00\x00\x80?\x00\x00\x80?\x00\x00\x80?\x00\x00\x80?\x00\x00\x80?'
p3016
S'\x00\x00\x00\x00\x00\x00\x00\x00\x00\x00\x00\x00\x00\x00\x00\x00\x00\x00'
p3017
Ntp3018
bsg22
g69
(g70
g71
g72
g73
tp3019
Rp3020
(I1
(I18
I1
tp3021
g79
I00
S"\xbf\x81\xc5@5V\xad@t\x1f\xf3@h\x13\x8c@7\x1b\x9b@\xbb\x92\xf9@\xd2\xc2\x19A\x15J\xd8@\x10\x95\xe3@.\x0c\xf2@\xcd{\xa0@'\xac\xc0@.\x0c%A\xf2B\xb3@\xbcL%AU\x9d\x93@\xf5p\xf0@\xc9/\x06A"
p3022
S'\x00\x00\x00\x00\x00\x00\x00\x00\x00\x00\x00\x00\x00\x00\x00\x00\x00\x00'
p3023
Ntp3024
bsg123
g69
(g70
g71
g72
g73
tp3025
Rp3026
(I1
(I18
I1
tp3027
g79
I00
S'\x00\x00\x00\x00\x00\x00\x80?\x00\x00\x00@\x00\x00@@\x00\x00\x80@\x00\x00\xa0@\x00\x00\xc0@\x00\x00\xe0@\x00\x00\x00A\x00\x00\x10A\x00\x00 A\x00\x000A\x00\x00@A\x00\x00PA\x00\x00`A\x00\x00pA\x00\x00\x80A\x00\x00\x88A'
p3028
S'\x00\x00\x00\x00\x00\x00\x00\x00\x00\x00\x00\x00\x00\x00\x00\x00\x00\x00'
p3029
Ntp3030
bsg21
g91
(g71
(I0
tp3031
g73
tp3032
Rp3033
(I1
(I18
I1
tp3034
g98
I00
(lp3035
g624
ag651
ag675
ag699
ag723
ag747
ag771
ag795
ag819
ag843
ag867
ag891
ag915
ag939
ag963
ag987
ag1011
ag1035
atp3036
bstp3037
Rp3038
(dp3039
g133
(dp3040
g68
I01
sg22
I01
sg123
I01
sg21
I00
ssg135
g3008
sg136
(lp3041
g68
ag123
ag21
ag22
asg138
(lp3042
I18
aI1
asbsg140
S'sequential'
p3043
sg142
g91
(g71
(I0
tp3044
g73
tp3045
Rp3046
(I1
(I18
I1
tp3047
g149
I00
S'\x00\x00\x00\x00\x01\x00\x00\x00\x02\x00\x00\x00\x03\x00\x00\x00\x04\x00\x00\x00\x05\x00\x00\x00\x06\x00\x00\x00\x07\x00\x00\x00\x08\x00\x00\x00\t\x00\x00\x00\n\x00\x00\x00\x0b\x00\x00\x00\x0c\x00\x00\x00\r\x00\x00\x00\x0e\x00\x00\x00\x0f\x00\x00\x00\x10\x00\x00\x00\x11\x00\x00\x00'
p3048
tp3049
bsg154
I01
sg155
I1
sg156
I-1
sg157
(lp3050
g2825
((lp3051
(lp3052
g626
ag629
aa(lp3053
g617
ag618
aa(lp3054
g609
ag610
aa(lp3055
g613
ag614
aa(lp3056
g611
ag612
aa(lp3057
g607
ag608
aatp3058
Rp3059
ag2825
((lp3060
(lp3061
g626
ag655
aa(lp3062
g617
ag645
aa(lp3063
g609
ag640
aa(lp3064
g613
ag642
aa(lp3065
g611
ag641
aa(lp3066
g607
ag639
aatp3067
Rp3068
ag2825
((lp3069
(lp3070
g626
ag679
aa(lp3071
g617
ag618
aa(lp3072
g609
ag665
aa(lp3073
g613
ag667
aa(lp3074
g611
ag666
aa(lp3075
g607
ag664
aatp3076
Rp3077
ag2825
((lp3078
(lp3079
g626
ag703
aa(lp3080
g617
ag645
aa(lp3081
g609
ag689
aa(lp3082
g613
ag691
aa(lp3083
g611
ag690
aa(lp3084
g607
ag688
aatp3085
Rp3086
ag2825
((lp3087
(lp3088
g626
ag727
aa(lp3089
g617
ag618
aa(lp3090
g609
ag713
aa(lp3091
g613
ag715
aa(lp3092
g611
ag714
aa(lp3093
g607
ag712
aatp3094
Rp3095
ag2825
((lp3096
(lp3097
g626
ag751
aa(lp3098
g617
ag645
aa(lp3099
g609
ag737
aa(lp3100
g613
ag739
aa(lp3101
g611
ag738
aa(lp3102
g607
ag736
aatp3103
Rp3104
ag2825
((lp3105
(lp3106
g626
ag775
aa(lp3107
g617
ag645
aa(lp3108
g609
ag761
aa(lp3109
g613
ag763
aa(lp3110
g611
ag762
aa(lp3111
g607
ag760
aatp3112
Rp3113
ag2825
((lp3114
(lp3115
g626
ag799
aa(lp3116
g617
ag618
aa(lp3117
g609
ag785
aa(lp3118
g613
ag787
aa(lp3119
g611
ag786
aa(lp3120
g607
ag784
aatp3121
Rp3122
ag2825
((lp3123
(lp3124
g626
ag823
aa(lp3125
g617
ag618
aa(lp3126
g609
ag809
aa(lp3127
g613
ag811
aa(lp3128
g611
ag810
aa(lp3129
g607
ag808
aatp3130
Rp3131
ag2825
((lp3132
(lp3133
g626
ag847
aa(lp3134
g617
ag645
aa(lp3135
g609
ag833
aa(lp3136
g613
ag835
aa(lp3137
g611
ag834
aa(lp3138
g607
ag832
aatp3139
Rp3140
ag2825
((lp3141
(lp3142
g626
ag871
aa(lp3143
g617
ag645
aa(lp3144
g609
ag857
aa(lp3145
g613
ag859
aa(lp3146
g611
ag858
aa(lp3147
g607
ag856
aatp3148
Rp3149
ag2825
((lp3150
(lp3151
g626
ag895
aa(lp3152
g617
ag618
aa(lp3153
g609
ag881
aa(lp3154
g613
ag883
aa(lp3155
g611
ag882
aa(lp3156
g607
ag880
aatp3157
Rp3158
ag2825
((lp3159
(lp3160
g626
ag919
aa(lp3161
g617
ag645
aa(lp3162
g609
ag905
aa(lp3163
g613
ag907
aa(lp3164
g611
ag906
aa(lp3165
g607
ag904
aatp3166
Rp3167
ag2825
((lp3168
(lp3169
g626
ag943
aa(lp3170
g617
ag645
aa(lp3171
g609
ag929
aa(lp3172
g613
ag931
aa(lp3173
g611
ag930
aa(lp3174
g607
ag928
aatp3175
Rp3176
ag2825
((lp3177
(lp3178
g626
ag967
aa(lp3179
g617
ag618
aa(lp3180
g609
ag953
aa(lp3181
g613
ag955
aa(lp3182
g611
ag954
aa(lp3183
g607
ag952
aatp3184
Rp3185
ag2825
((lp3186
(lp3187
g626
ag991
aa(lp3188
g617
ag618
aa(lp3189
g609
ag977
aa(lp3190
g613
ag979
aa(lp3191
g611
ag978
aa(lp3192
g607
ag976
aatp3193
Rp3194
ag2825
((lp3195
(lp3196
g626
ag1015
aa(lp3197
g617
ag645
aa(lp3198
g609
ag1001
aa(lp3199
g613
ag1003
aa(lp3200
g611
ag1002
aa(lp3201
g607
ag1000
aatp3202
Rp3203
ag2825
((lp3204
(lp3205
g626
ag1039
aa(lp3206
g617
ag618
aa(lp3207
g609
ag1025
aa(lp3208
g613
ag1027
aa(lp3209
g611
ag1026
aa(lp3210
g607
ag1024
aatp3211
Rp3212
asg159
Nsg160
g1043
sg164
I18
sg165
I0
sg166
I18
sbag168
ag0
(g55
g2
Ntp3213
Rp3214
(dp3215
g59
Nsg60
(lp3216
sg61
I370091856
sg11
g2854
sg6
I-1
sg63
I1
sg28
I01
sg29
g30
sg64
g0
(g65
g66
(dp3217
g68
g69
(g70
g71
g72
g73
tp3218
Rp3219
(I1
(I4
I1
tp3220
g79
I00
S'\x00\x00\x80?\x00\x00\x80?\x00\x00\x80?\x00\x00\x80?'
p3221
S'\x00\x00\x00\x00'
p3222
Ntp3223
bsg22
g69
(g70
g71
g72
g73
tp3224
Rp3225
(I1
(I4
I1
tp3226
g79
I00
S'\nk\xe1@\xc9\x11\xd5@\xd9\xd9\x8f@?6\xc1@'
p3227
S'\x00\x00\x00\x00'
p3228
Ntp3229
bsg123
g69
(g70
g71
g72
g73
tp3230
Rp3231
(I1
(I4
I1
tp3232
g79
I00
S'\x00\x00\x00\x00\x00\x00\x00@\x00\x00@@\x00\x00\x80?'
p3233
S'\x00\x00\x00\x00'
p3234
Ntp3235
bsg21
g91
(g71
(I0
tp3236
g73
tp3237
Rp3238
(I1
(I4
I1
tp3239
g98
I00
(lp3240
g1082
ag1132
ag1156
ag1108
atp3241
bstp3242
Rp3243
(dp3244
g133
(dp3245
g68
I01
sg22
I01
sg123
I01
sg21
I00
ssg135
g3214
sg136
(lp3246
g68
ag123
ag21
ag22
asg138
(lp3247
I4
aI1
asbsg140
g141
sg142
g91
(g71
(I0
tp3248
g73
tp3249
Rp3250
(I1
(I4
I1
tp3251
g149
I00
S'\x00\x00\x00\x00\x03\x00\x00\x00\x01\x00\x00\x00\x02\x00\x00\x00'
p3252
tp3253
bsg154
I01
sg155
I1
sg156
I-1
sg157
(lp3254
g2825
((lp3255
(lp3256
g1088
ag1091
aa(lp3257
g1076
ag1077
aa(lp3258
g1063
ag1064
aa(lp3259
g1067
ag1068
aa(lp3260
g1065
ag1066
aa(lp3261
g1061
ag1062
aatp3262
Rp3263
ag2825
((lp3264
(lp3265
g1088
ag1140
aa(lp3266
g1076
ag1077
aa(lp3267
g1063
ag1123
aa(lp3268
g1067
ag1125
aa(lp3269
g1065
ag1124
aa(lp3270
g1061
ag1122
aatp3271
Rp3272
ag2825
((lp3273
(lp3274
g1088
ag1164
aa(lp3275
g1076
ag1077
aa(lp3276
g1063
ag1147
aa(lp3277
g1067
ag1149
aa(lp3278
g1065
ag1148
aa(lp3279
g1061
ag1146
aatp3280
Rp3281
ag2825
((lp3282
(lp3283
g1088
ag1116
aa(lp3284
g1076
ag1077
aa(lp3285
g1063
ag1099
aa(lp3286
g1067
ag1101
aa(lp3287
g1065
ag1100
aa(lp3288
g1061
ag1098
aatp3289
Rp3290
asg159
Nsg160
g1160
sg164
I4
sg165
I0
sg166
I4
sbag0
(g55
g2
Ntp3291
Rp3292
(dp3293
g59
Nsg60
(lp3294
sg61
I370091856
sg11
g3011
sg6
I-1
sg63
I1
sg28
I01
sg29
g30
sg64
g0
(g65
g66
(dp3295
g68
g69
(g70
g71
g72
g73
tp3296
Rp3297
(I1
(I18
I1
tp3298
g79
I00
S'\x00\x00\x80?\x00\x00\x80?\x00\x00\x80?\x00\x00\x80?\x00\x00\x80?\x00\x00\x80?\x00\x00\x80?\x00\x00\x80?\x00\x00\x80?\x00\x00\x80?\x00\x00\x80?\x00\x00\x80?\x00\x00\x80?\x00\x00\x80?\x00\x00\x80?\x00\x00\x80?\x00\x00\x80?\x00\x00\x80?'
p3299
S'\x00\x00\x00\x00\x00\x00\x00\x00\x00\x00\x00\x00\x00\x00\x00\x00\x00\x00'
p3300
Ntp3301
bsg22
g69
(g70
g71
g72
g73
tp3302
Rp3303
(I1
(I18
I1
tp3304
g79
I00
S'\xed\x97\xf9@\x96(\xa3@\xc1\xd7\xf6@\n\x98\x93@F\xa7\xd6@\xd2.\xb9@D\x91\x1aA\xbd\xa2\xb8@\x977\xd7@\xd5p\xe1@f\xd6\xd8@\xe9~$At\xbd\x15A\xd3k\x02A\xaf\x0e\x1eA\x8f\xc7\xe6@P\x9b\x0cA\xa6O\xbb@'
p3305
S'\x00\x00\x00\x00\x00\x00\x00\x00\x00\x00\x00\x00\x00\x00\x00\x00\x00\x00'
p3306
Ntp3307
bsg123
g69
(g70
g71
g72
g73
tp3308
Rp3309
(I1
(I18
I1
tp3310
g79
I00
S'\x00\x00\x00\x00\x00\x00\x80?\x00\x00\x00@\x00\x00@@\x00\x00\x80@\x00\x00\xa0@\x00\x00\xc0@\x00\x00\xe0@\x00\x00\x00A\x00\x00\x10A\x00\x00 A\x00\x000A\x00\x00@A\x00\x00PA\x00\x00`A\x00\x00pA\x00\x00\x80A\x00\x00\x88A'
p3311
S'\x00\x00\x00\x00\x00\x00\x00\x00\x00\x00\x00\x00\x00\x00\x00\x00\x00\x00'
p3312
Ntp3313
bsg21
g91
(g71
(I0
tp3314
g73
tp3315
Rp3316
(I1
(I18
I1
tp3317
g98
I00
(lp3318
g1186
ag1213
ag1237
ag1261
ag1285
ag1309
ag1333
ag1357
ag1381
ag1405
ag1429
ag1453
ag1477
ag1501
ag1525
ag1549
ag1573
ag1597
atp3319
bstp3320
Rp3321
(dp3322
g133
(dp3323
g68
I01
sg22
I01
sg123
I01
sg21
I00
ssg135
g3292
sg136
(lp3324
g68
ag123
ag21
ag22
asg138
(lp3325
I18
aI1
asbsg140
g3043
sg142
g91
(g71
(I0
tp3326
g73
tp3327
Rp3328
(I1
(I18
I1
tp3329
g149
I00
S'\x00\x00\x00\x00\x01\x00\x00\x00\x02\x00\x00\x00\x03\x00\x00\x00\x04\x00\x00\x00\x05\x00\x00\x00\x06\x00\x00\x00\x07\x00\x00\x00\x08\x00\x00\x00\t\x00\x00\x00\n\x00\x00\x00\x0b\x00\x00\x00\x0c\x00\x00\x00\r\x00\x00\x00\x0e\x00\x00\x00\x0f\x00\x00\x00\x10\x00\x00\x00\x11\x00\x00\x00'
p3330
tp3331
bsg154
I01
sg155
I1
sg156
I-1
sg157
(lp3332
g2825
((lp3333
(lp3334
g1188
ag1191
aa(lp3335
g1179
ag1180
aa(lp3336
g1171
ag1172
aa(lp3337
g1175
ag1176
aa(lp3338
g1173
ag1174
aa(lp3339
g1169
ag1170
aatp3340
Rp3341
ag2825
((lp3342
(lp3343
g1188
ag1217
aa(lp3344
g1179
ag1207
aa(lp3345
g1171
ag1202
aa(lp3346
g1175
ag1204
aa(lp3347
g1173
ag1203
aa(lp3348
g1169
ag1201
aatp3349
Rp3350
ag2825
((lp3351
(lp3352
g1188
ag1241
aa(lp3353
g1179
ag1180
aa(lp3354
g1171
ag1227
aa(lp3355
g1175
ag1229
aa(lp3356
g1173
ag1228
aa(lp3357
g1169
ag1226
aatp3358
Rp3359
ag2825
((lp3360
(lp3361
g1188
ag1265
aa(lp3362
g1179
ag1207
aa(lp3363
g1171
ag1251
aa(lp3364
g1175
ag1253
aa(lp3365
g1173
ag1252
aa(lp3366
g1169
ag1250
aatp3367
Rp3368
ag2825
((lp3369
(lp3370
g1188
ag1289
aa(lp3371
g1179
ag1180
aa(lp3372
g1171
ag1275
aa(lp3373
g1175
ag1277
aa(lp3374
g1173
ag1276
aa(lp3375
g1169
ag1274
aatp3376
Rp3377
ag2825
((lp3378
(lp3379
g1188
ag1313
aa(lp3380
g1179
ag1207
aa(lp3381
g1171
ag1299
aa(lp3382
g1175
ag1301
aa(lp3383
g1173
ag1300
aa(lp3384
g1169
ag1298
aatp3385
Rp3386
ag2825
((lp3387
(lp3388
g1188
ag1337
aa(lp3389
g1179
ag1207
aa(lp3390
g1171
ag1323
aa(lp3391
g1175
ag1325
aa(lp3392
g1173
ag1324
aa(lp3393
g1169
ag1322
aatp3394
Rp3395
ag2825
((lp3396
(lp3397
g1188
ag1361
aa(lp3398
g1179
ag1180
aa(lp3399
g1171
ag1347
aa(lp3400
g1175
ag1349
aa(lp3401
g1173
ag1348
aa(lp3402
g1169
ag1346
aatp3403
Rp3404
ag2825
((lp3405
(lp3406
g1188
ag1385
aa(lp3407
g1179
ag1207
aa(lp3408
g1171
ag1371
aa(lp3409
g1175
ag1373
aa(lp3410
g1173
ag1372
aa(lp3411
g1169
ag1370
aatp3412
Rp3413
ag2825
((lp3414
(lp3415
g1188
ag1409
aa(lp3416
g1179
ag1207
aa(lp3417
g1171
ag1395
aa(lp3418
g1175
ag1397
aa(lp3419
g1173
ag1396
aa(lp3420
g1169
ag1394
aatp3421
Rp3422
ag2825
((lp3423
(lp3424
g1188
ag1433
aa(lp3425
g1179
ag1207
aa(lp3426
g1171
ag1419
aa(lp3427
g1175
ag1421
aa(lp3428
g1173
ag1420
aa(lp3429
g1169
ag1418
aatp3430
Rp3431
ag2825
((lp3432
(lp3433
g1188
ag1457
aa(lp3434
g1179
ag1180
aa(lp3435
g1171
ag1443
aa(lp3436
g1175
ag1445
aa(lp3437
g1173
ag1444
aa(lp3438
g1169
ag1442
aatp3439
Rp3440
ag2825
((lp3441
(lp3442
g1188
ag1481
aa(lp3443
g1179
ag1180
aa(lp3444
g1171
ag1467
aa(lp3445
g1175
ag1469
aa(lp3446
g1173
ag1468
aa(lp3447
g1169
ag1466
aatp3448
Rp3449
ag2825
((lp3450
(lp3451
g1188
ag1505
aa(lp3452
g1179
ag1207
aa(lp3453
g1171
ag1491
aa(lp3454
g1175
ag1493
aa(lp3455
g1173
ag1492
aa(lp3456
g1169
ag1490
aatp3457
Rp3458
ag2825
((lp3459
(lp3460
g1188
ag1529
aa(lp3461
g1179
ag1207
aa(lp3462
g1171
ag1515
aa(lp3463
g1175
ag1517
aa(lp3464
g1173
ag1516
aa(lp3465
g1169
ag1514
aatp3466
Rp3467
ag2825
((lp3468
(lp3469
g1188
ag1553
aa(lp3470
g1179
ag1180
aa(lp3471
g1171
ag1539
aa(lp3472
g1175
ag1541
aa(lp3473
g1173
ag1540
aa(lp3474
g1169
ag1538
aatp3475
Rp3476
ag2825
((lp3477
(lp3478
g1188
ag1577
aa(lp3479
g1179
ag1180
aa(lp3480
g1171
ag1563
aa(lp3481
g1175
ag1565
aa(lp3482
g1173
ag1564
aa(lp3483
g1169
ag1562
aatp3484
Rp3485
ag2825
((lp3486
(lp3487
g1188
ag1601
aa(lp3488
g1179
ag1180
aa(lp3489
g1171
ag1587
aa(lp3490
g1175
ag1589
aa(lp3491
g1173
ag1588
aa(lp3492
g1169
ag1586
aatp3493
Rp3494
asg159
Nsg160
g1605
sg164
I18
sg165
I0
sg166
I18
sbag232
ag0
(g55
g2
Ntp3495
Rp3496
(dp3497
g59
Nsg60
(lp3498
sg61
I370091856
sg11
g2854
sg6
I-1
sg63
I1
sg28
I01
sg29
g30
sg64
g0
(g65
g66
(dp3499
g68
g69
(g70
g71
g72
g73
tp3500
Rp3501
(I1
(I4
I1
tp3502
g79
I00
S'\x00\x00\x80?\x00\x00\x80?\x00\x00\x80?\x00\x00\x80?'
p3503
S'\x00\x00\x00\x00'
p3504
Ntp3505
bsg22
g69
(g70
g71
g72
g73
tp3506
Rp3507
(I1
(I4
I1
tp3508
g79
I00
S'u\x84\xd4@\xcf"\xaa@\xe5\x9aU@E\xc9\xb3@'
p3509
S'\x00\x00\x00\x00'
p3510
Ntp3511
bsg123
g69
(g70
g71
g72
g73
tp3512
Rp3513
(I1
(I4
I1
tp3514
g79
I00
S'\x00\x00\x80?\x00\x00\x00@\x00\x00\x00\x00\x00\x00@@'
p3515
S'\x00\x00\x00\x00'
p3516
Ntp3517
bsg21
g91
(g71
(I0
tp3518
g73
tp3519
Rp3520
(I1
(I4
I1
tp3521
g98
I00
(lp3522
g1670
ag1694
ag1644
ag1718
atp3523
bstp3524
Rp3525
(dp3526
g133
(dp3527
g68
I01
sg22
I01
sg123
I01
sg21
I00
ssg135
g3496
sg136
(lp3528
g68
ag123
ag21
ag22
asg138
(lp3529
I4
aI1
asbsg140
g141
sg142
g91
(g71
(I0
tp3530
g73
tp3531
Rp3532
(I1
(I4
I1
tp3533
g149
I00
S'\x02\x00\x00\x00\x00\x00\x00\x00\x01\x00\x00\x00\x03\x00\x00\x00'
p3534
tp3535
bsg154
I01
sg155
I1
sg156
I-1
sg157
(lp3536
g2825
((lp3537
(lp3538
g1650
ag1678
aa(lp3539
g1638
ag1639
aa(lp3540
g1625
ag1661
aa(lp3541
g1629
ag1663
aa(lp3542
g1627
ag1662
aa(lp3543
g1623
ag1660
aatp3544
Rp3545
ag2825
((lp3546
(lp3547
g1650
ag1702
aa(lp3548
g1638
ag1639
aa(lp3549
g1625
ag1685
aa(lp3550
g1629
ag1687
aa(lp3551
g1627
ag1686
aa(lp3552
g1623
ag1684
aatp3553
Rp3554
ag2825
((lp3555
(lp3556
g1650
ag1653
aa(lp3557
g1638
ag1639
aa(lp3558
g1625
ag1626
aa(lp3559
g1629
ag1630
aa(lp3560
g1627
ag1628
aa(lp3561
g1623
ag1624
aatp3562
Rp3563
ag2825
((lp3564
(lp3565
g1650
ag1726
aa(lp3566
g1638
ag1639
aa(lp3567
g1625
ag1709
aa(lp3568
g1629
ag1711
aa(lp3569
g1627
ag1710
aa(lp3570
g1623
ag1708
aatp3571
Rp3572
asg159
Nsg160
g1722
sg164
I4
sg165
I0
sg166
I4
sbag0
(g55
g2
Ntp3573
Rp3574
(dp3575
g59
Nsg60
(lp3576
sg61
I370091856
sg11
g3011
sg6
I-1
sg63
I1
sg28
I01
sg29
g30
sg64
g0
(g65
g66
(dp3577
g68
g69
(g70
g71
g72
g73
tp3578
Rp3579
(I1
(I18
I1
tp3580
g79
I00
S'\x00\x00\x80?\x00\x00\x80?\x00\x00\x80?\x00\x00\x80?\x00\x00\x80?\x00\x00\x80?\x00\x00\x80?\x00\x00\x80?\x00\x00\x80?\x00\x00\x80?\x00\x00\x80?\x00\x00\x80?\x00\x00\x80?\x00\x00\x80?\x00\x00\x80?\x00\x00\x80?\x00\x00\x80?\x00\x00\x80?'
p3581
S'\x00\x00\x00\x00\x00\x00\x00\x00\x00\x00\x00\x00\x00\x00\x00\x00\x00\x00'
p3582
Ntp3583
bsg22
g69
(g70
g71
g72
g73
tp3584
Rp3585
(I1
(I18
I1
tp3586
g79
I00
S"<\xe2\x88@\x1d\x8c\xa1@\xef\xe1\xe0@\xdd\xdb\x88@g&\xe5@WdGA2\xfa=AA\xf0\x9f@\xa3'l@\xfd\x8a\x96AB\xb4\xe5@;\xcc\x07AK1\xf4@p\xe3-Au\x8b,A\xe9\xf1\xcb@\\\xb2\xcf@],\x11A"
p3587
S'\x00\x00\x00\x00\x00\x00\x00\x00\x00\x00\x00\x00\x00\x00\x00\x00\x00\x00'
p3588
Ntp3589
bsg123
g69
(g70
g71
g72
g73
tp3590
Rp3591
(I1
(I18
I1
tp3592
g79
I00
S'\x00\x00\x00\x00\x00\x00\x80?\x00\x00\x00@\x00\x00@@\x00\x00\x80@\x00\x00\xa0@\x00\x00\xc0@\x00\x00\xe0@\x00\x00\x00A\x00\x00\x10A\x00\x00 A\x00\x000A\x00\x00@A\x00\x00PA\x00\x00`A\x00\x00pA\x00\x00\x80A\x00\x00\x88A'
p3593
S'\x00\x00\x00\x00\x00\x00\x00\x00\x00\x00\x00\x00\x00\x00\x00\x00\x00\x00'
p3594
Ntp3595
bsg21
g91
(g71
(I0
tp3596
g73
tp3597
Rp3598
(I1
(I18
I1
tp3599
g98
I00
(lp3600
g1748
ag1775
ag1799
ag1823
ag1847
ag1871
ag1895
ag1919
ag1943
ag1967
ag1991
ag2015
ag2039
ag2063
ag2087
ag2111
ag2135
ag2159
atp3601
bstp3602
Rp3603
(dp3604
g133
(dp3605
g68
I01
sg22
I01
sg123
I01
sg21
I00
ssg135
g3574
sg136
(lp3606
g68
ag123
ag21
ag22
asg138
(lp3607
I18
aI1
asbsg140
g3043
sg142
g91
(g71
(I0
tp3608
g73
tp3609
Rp3610
(I1
(I18
I1
tp3611
g149
I00
S'\x00\x00\x00\x00\x01\x00\x00\x00\x02\x00\x00\x00\x03\x00\x00\x00\x04\x00\x00\x00\x05\x00\x00\x00\x06\x00\x00\x00\x07\x00\x00\x00\x08\x00\x00\x00\t\x00\x00\x00\n\x00\x00\x00\x0b\x00\x00\x00\x0c\x00\x00\x00\r\x00\x00\x00\x0e\x00\x00\x00\x0f\x00\x00\x00\x10\x00\x00\x00\x11\x00\x00\x00'
p3612
tp3613
bsg154
I01
sg155
I1
sg156
I-1
sg157
(lp3614
g2825
((lp3615
(lp3616
g1750
ag1753
aa(lp3617
g1741
ag1742
aa(lp3618
g1733
ag1734
aa(lp3619
g1737
ag1738
aa(lp3620
g1735
ag1736
aa(lp3621
g1731
ag1732
aatp3622
Rp3623
ag2825
((lp3624
(lp3625
g1750
ag1779
aa(lp3626
g1741
ag1769
aa(lp3627
g1733
ag1764
aa(lp3628
g1737
ag1766
aa(lp3629
g1735
ag1765
aa(lp3630
g1731
ag1763
aatp3631
Rp3632
ag2825
((lp3633
(lp3634
g1750
ag1803
aa(lp3635
g1741
ag1769
aa(lp3636
g1733
ag1789
aa(lp3637
g1737
ag1791
aa(lp3638
g1735
ag1790
aa(lp3639
g1731
ag1788
aatp3640
Rp3641
ag2825
((lp3642
(lp3643
g1750
ag1827
aa(lp3644
g1741
ag1769
aa(lp3645
g1733
ag1813
aa(lp3646
g1737
ag1815
aa(lp3647
g1735
ag1814
aa(lp3648
g1731
ag1812
aatp3649
Rp3650
ag2825
((lp3651
(lp3652
g1750
ag1851
aa(lp3653
g1741
ag1742
aa(lp3654
g1733
ag1837
aa(lp3655
g1737
ag1839
aa(lp3656
g1735
ag1838
aa(lp3657
g1731
ag1836
aatp3658
Rp3659
ag2825
((lp3660
(lp3661
g1750
ag1875
aa(lp3662
g1741
ag1742
aa(lp3663
g1733
ag1861
aa(lp3664
g1737
ag1863
aa(lp3665
g1735
ag1862
aa(lp3666
g1731
ag1860
aatp3667
Rp3668
ag2825
((lp3669
(lp3670
g1750
ag1899
aa(lp3671
g1741
ag1769
aa(lp3672
g1733
ag1885
aa(lp3673
g1737
ag1887
aa(lp3674
g1735
ag1886
aa(lp3675
g1731
ag1884
aatp3676
Rp3677
ag2825
((lp3678
(lp3679
g1750
ag1923
aa(lp3680
g1741
ag1742
aa(lp3681
g1733
ag1909
aa(lp3682
g1737
ag1911
aa(lp3683
g1735
ag1910
aa(lp3684
g1731
ag1908
aatp3685
Rp3686
ag2825
((lp3687
(lp3688
g1750
ag1947
aa(lp3689
g1741
ag1769
aa(lp3690
g1733
ag1933
aa(lp3691
g1737
ag1935
aa(lp3692
g1735
ag1934
aa(lp3693
g1731
ag1932
aatp3694
Rp3695
ag2825
((lp3696
(lp3697
g1750
ag1971
aa(lp3698
g1741
ag1742
aa(lp3699
g1733
ag1957
aa(lp3700
g1737
ag1959
aa(lp3701
g1735
ag1958
aa(lp3702
g1731
ag1956
aatp3703
Rp3704
ag2825
((lp3705
(lp3706
g1750
ag1995
aa(lp3707
g1741
ag1742
aa(lp3708
g1733
ag1981
aa(lp3709
g1737
ag1983
aa(lp3710
g1735
ag1982
aa(lp3711
g1731
ag1980
aatp3712
Rp3713
ag2825
((lp3714
(lp3715
g1750
ag2019
aa(lp3716
g1741
ag1742
aa(lp3717
g1733
ag2005
aa(lp3718
g1737
ag2007
aa(lp3719
g1735
ag2006
aa(lp3720
g1731
ag2004
aatp3721
Rp3722
ag2825
((lp3723
(lp3724
g1750
ag2043
aa(lp3725
g1741
ag1769
aa(lp3726
g1733
ag2029
aa(lp3727
g1737
ag2031
aa(lp3728
g1735
ag2030
aa(lp3729
g1731
ag2028
aatp3730
Rp3731
ag2825
((lp3732
(lp3733
g1750
ag2067
aa(lp3734
g1741
ag1769
aa(lp3735
g1733
ag2053
aa(lp3736
g1737
ag2055
aa(lp3737
g1735
ag2054
aa(lp3738
g1731
ag2052
aatp3739
Rp3740
ag2825
((lp3741
(lp3742
g1750
ag2091
aa(lp3743
g1741
ag1742
aa(lp3744
g1733
ag2077
aa(lp3745
g1737
ag2079
aa(lp3746
g1735
ag2078
aa(lp3747
g1731
ag2076
aatp3748
Rp3749
ag2825
((lp3750
(lp3751
g1750
ag2115
aa(lp3752
g1741
ag1769
aa(lp3753
g1733
ag2101
aa(lp3754
g1737
ag2103
aa(lp3755
g1735
ag2102
aa(lp3756
g1731
ag2100
aatp3757
Rp3758
ag2825
((lp3759
(lp3760
g1750
ag2139
aa(lp3761
g1741
ag1742
aa(lp3762
g1733
ag2125
aa(lp3763
g1737
ag2127
aa(lp3764
g1735
ag2126
aa(lp3765
g1731
ag2124
aatp3766
Rp3767
ag2825
((lp3768
(lp3769
g1750
ag2163
aa(lp3770
g1741
ag1769
aa(lp3771
g1733
ag2149
aa(lp3772
g1737
ag2151
aa(lp3773
g1735
ag2150
aa(lp3774
g1731
ag2148
aatp3775
Rp3776
asg159
Nsg160
g2167
sg164
I18
sg165
I0
sg166
I18
sbag296
ag0
(g55
g2
Ntp3777
Rp3778
(dp3779
g59
Nsg60
(lp3780
sg61
I370091856
sg11
g2854
sg6
I-1
sg63
I1
sg28
I01
sg29
g30
sg64
g0
(g65
g66
(dp3781
g68
g69
(g70
g71
g72
g73
tp3782
Rp3783
(I1
(I4
I1
tp3784
g79
I00
S'\x00\x00\x80?\x00\x00\x80?\x00\x00\x80?\x00\x00\x80?'
p3785
S'\x00\x00\x00\x00'
p3786
Ntp3787
bsg22
g69
(g70
g71
g72
g73
tp3788
Rp3789
(I1
(I4
I1
tp3790
g79
I00
S'\xfb0{@V\xaes@U\xdf\xca@\xfd_\x90@'
p3791
S'\x00\x00\x00\x00'
p3792
Ntp3793
bsg123
g69
(g70
g71
g72
g73
tp3794
Rp3795
(I1
(I4
I1
tp3796
g79
I00
S'\x00\x00\x80?\x00\x00\x00\x00\x00\x00\x00@\x00\x00@@'
p3797
S'\x00\x00\x00\x00'
p3798
Ntp3799
bsg21
g91
(g71
(I0
tp3800
g73
tp3801
Rp3802
(I1
(I4
I1
tp3803
g98
I00
(lp3804
g2232
ag2206
ag2256
ag2280
atp3805
bstp3806
Rp3807
(dp3808
g133
(dp3809
g68
I01
sg22
I01
sg123
I01
sg21
I00
ssg135
g3778
sg136
(lp3810
g68
ag123
ag21
ag22
asg138
(lp3811
I4
aI1
asbsg140
g141
sg142
g91
(g71
(I0
tp3812
g73
tp3813
Rp3814
(I1
(I4
I1
tp3815
g149
I00
S'\x01\x00\x00\x00\x00\x00\x00\x00\x02\x00\x00\x00\x03\x00\x00\x00'
p3816
tp3817
bsg154
I01
sg155
I1
sg156
I-1
sg157
(lp3818
g2825
((lp3819
(lp3820
g2212
ag2240
aa(lp3821
g2200
ag2201
aa(lp3822
g2187
ag2223
aa(lp3823
g2191
ag2225
aa(lp3824
g2189
ag2224
aa(lp3825
g2185
ag2222
aatp3826
Rp3827
ag2825
((lp3828
(lp3829
g2212
ag2215
aa(lp3830
g2200
ag2201
aa(lp3831
g2187
ag2188
aa(lp3832
g2191
ag2192
aa(lp3833
g2189
ag2190
aa(lp3834
g2185
ag2186
aatp3835
Rp3836
ag2825
((lp3837
(lp3838
g2212
ag2264
aa(lp3839
g2200
ag2201
aa(lp3840
g2187
ag2247
aa(lp3841
g2191
ag2249
aa(lp3842
g2189
ag2248
aa(lp3843
g2185
ag2246
aatp3844
Rp3845
ag2825
((lp3846
(lp3847
g2212
ag2288
aa(lp3848
g2200
ag2201
aa(lp3849
g2187
ag2271
aa(lp3850
g2191
ag2273
aa(lp3851
g2189
ag2272
aa(lp3852
g2185
ag2270
aatp3853
Rp3854
asg159
Nsg160
g2284
sg164
I4
sg165
I0
sg166
I4
sbag0
(g55
g2
Ntp3855
Rp3856
(dp3857
g59
Nsg60
(lp3858
sg61
I370091856
sg11
g3011
sg6
I-1
sg63
I1
sg28
I01
sg29
g30
sg64
g0
(g65
g66
(dp3859
g68
g69
(g70
g71
g72
g73
tp3860
Rp3861
(I1
(I18
I1
tp3862
g79
I00
S'\x00\x00\x80?\x00\x00\x80?\x00\x00\x80?\x00\x00\x80?\x00\x00\x80?\x00\x00\x80?\x00\x00\x80?\x00\x00\x80?\x00\x00\x80?\x00\x00\x80?\x00\x00\x80?\x00\x00\x80?\x00\x00\x80?\x00\x00\x80?\x00\x00\x80?\x00\x00\x80?\x00\x00\x80?\x00\x00\x80?'
p3863
S'\x00\x00\x00\x00\x00\x00\x00\x00\x00\x00\x00\x00\x00\x00\x00\x00\x00\x00'
p3864
Ntp3865
bsg22
g69
(g70
g71
g72
g73
tp3866
Rp3867
(I1
(I18
I1
tp3868
g79
I00
S'\xae\xf8w@G\x0b\xe3@\xac\x9dU@\xbfK\x8f@\x8c\xee\x14A*\xb9\x9c@Zh\x98@\xf3\xb7\x9c@H\x98\xdc@F`\x9e@ E\xac@\xa5l\xae@-\xc7\x12Ag\xd1u@\xb2\xdf\x88@+\xb1\x8d@\xff9\x95@\xdc5\nA'
p3869
S'\x00\x00\x00\x00\x00\x00\x00\x00\x00\x00\x00\x00\x00\x00\x00\x00\x00\x00'
p3870
Ntp3871
bsg123
g69
(g70
g71
g72
g73
tp3872
Rp3873
(I1
(I18
I1
tp3874
g79
I00
S'\x00\x00\x00\x00\x00\x00\x80?\x00\x00\x00@\x00\x00@@\x00\x00\x80@\x00\x00\xa0@\x00\x00\xc0@\x00\x00\xe0@\x00\x00\x00A\x00\x00\x10A\x00\x00 A\x00\x000A\x00\x00@A\x00\x00PA\x00\x00`A\x00\x00pA\x00\x00\x80A\x00\x00\x88A'
p3875
S'\x00\x00\x00\x00\x00\x00\x00\x00\x00\x00\x00\x00\x00\x00\x00\x00\x00\x00'
p3876
Ntp3877
bsg21
g91
(g71
(I0
tp3878
g73
tp3879
Rp3880
(I1
(I18
I1
tp3881
g98
I00
(lp3882
g2310
ag2337
ag2361
ag2385
ag2409
ag2433
ag2457
ag2481
ag2505
ag2529
ag2553
ag2577
ag2601
ag2625
ag2649
ag2673
ag2697
ag2721
atp3883
bstp3884
Rp3885
(dp3886
g133
(dp3887
g68
I01
sg22
I01
sg123
I01
sg21
I00
ssg135
g3856
sg136
(lp3888
g68
ag123
ag21
ag22
asg138
(lp3889
I18
aI1
asbsg140
g3043
sg142
g91
(g71
(I0
tp3890
g73
tp3891
Rp3892
(I1
(I18
I1
tp3893
g149
I00
S'\x00\x00\x00\x00\x01\x00\x00\x00\x02\x00\x00\x00\x03\x00\x00\x00\x04\x00\x00\x00\x05\x00\x00\x00\x06\x00\x00\x00\x07\x00\x00\x00\x08\x00\x00\x00\t\x00\x00\x00\n\x00\x00\x00\x0b\x00\x00\x00\x0c\x00\x00\x00\r\x00\x00\x00\x0e\x00\x00\x00\x0f\x00\x00\x00\x10\x00\x00\x00\x11\x00\x00\x00'
p3894
tp3895
bsg154
I01
sg155
I1
sg156
I-1
sg157
(lp3896
g2825
((lp3897
(lp3898
g2312
ag2315
aa(lp3899
g2303
ag2304
aa(lp3900
g2295
ag2296
aa(lp3901
g2299
ag2300
aa(lp3902
g2297
ag2298
aa(lp3903
g2293
ag2294
aatp3904
Rp3905
ag2825
((lp3906
(lp3907
g2312
ag2341
aa(lp3908
g2303
ag2331
aa(lp3909
g2295
ag2326
aa(lp3910
g2299
ag2328
aa(lp3911
g2297
ag2327
aa(lp3912
g2293
ag2325
aatp3913
Rp3914
ag2825
((lp3915
(lp3916
g2312
ag2365
aa(lp3917
g2303
ag2304
aa(lp3918
g2295
ag2351
aa(lp3919
g2299
ag2353
aa(lp3920
g2297
ag2352
aa(lp3921
g2293
ag2350
aatp3922
Rp3923
ag2825
((lp3924
(lp3925
g2312
ag2389
aa(lp3926
g2303
ag2331
aa(lp3927
g2295
ag2375
aa(lp3928
g2299
ag2377
aa(lp3929
g2297
ag2376
aa(lp3930
g2293
ag2374
aatp3931
Rp3932
ag2825
((lp3933
(lp3934
g2312
ag2413
aa(lp3935
g2303
ag2304
aa(lp3936
g2295
ag2399
aa(lp3937
g2299
ag2401
aa(lp3938
g2297
ag2400
aa(lp3939
g2293
ag2398
aatp3940
Rp3941
ag2825
((lp3942
(lp3943
g2312
ag2437
aa(lp3944
g2303
ag2331
aa(lp3945
g2295
ag2423
aa(lp3946
g2299
ag2425
aa(lp3947
g2297
ag2424
aa(lp3948
g2293
ag2422
aatp3949
Rp3950
ag2825
((lp3951
(lp3952
g2312
ag2461
aa(lp3953
g2303
ag2304
aa(lp3954
g2295
ag2447
aa(lp3955
g2299
ag2449
aa(lp3956
g2297
ag2448
aa(lp3957
g2293
ag2446
aatp3958
Rp3959
ag2825
((lp3960
(lp3961
g2312
ag2485
aa(lp3962
g2303
ag2331
aa(lp3963
g2295
ag2471
aa(lp3964
g2299
ag2473
aa(lp3965
g2297
ag2472
aa(lp3966
g2293
ag2470
aatp3967
Rp3968
ag2825
((lp3969
(lp3970
g2312
ag2509
aa(lp3971
g2303
ag2331
aa(lp3972
g2295
ag2495
aa(lp3973
g2299
ag2497
aa(lp3974
g2297
ag2496
aa(lp3975
g2293
ag2494
aatp3976
Rp3977
ag2825
((lp3978
(lp3979
g2312
ag2533
aa(lp3980
g2303
ag2331
aa(lp3981
g2295
ag2519
aa(lp3982
g2299
ag2521
aa(lp3983
g2297
ag2520
aa(lp3984
g2293
ag2518
aatp3985
Rp3986
ag2825
((lp3987
(lp3988
g2312
ag2557
aa(lp3989
g2303
ag2304
aa(lp3990
g2295
ag2543
aa(lp3991
g2299
ag2545
aa(lp3992
g2297
ag2544
aa(lp3993
g2293
ag2542
aatp3994
Rp3995
ag2825
((lp3996
(lp3997
g2312
ag2581
aa(lp3998
g2303
ag2331
aa(lp3999
g2295
ag2567
aa(lp4000
g2299
ag2569
aa(lp4001
g2297
ag2568
aa(lp4002
g2293
ag2566
aatp4003
Rp4004
ag2825
((lp4005
(lp4006
g2312
ag2605
aa(lp4007
g2303
ag2304
aa(lp4008
g2295
ag2591
aa(lp4009
g2299
ag2593
aa(lp4010
g2297
ag2592
aa(lp4011
g2293
ag2590
aatp4012
Rp4013
ag2825
((lp4014
(lp4015
g2312
ag2629
aa(lp4016
g2303
ag2331
aa(lp4017
g2295
ag2615
aa(lp4018
g2299
ag2617
aa(lp4019
g2297
ag2616
aa(lp4020
g2293
ag2614
aatp4021
Rp4022
ag2825
((lp4023
(lp4024
g2312
ag2653
aa(lp4025
g2303
ag2304
aa(lp4026
g2295
ag2639
aa(lp4027
g2299
ag2641
aa(lp4028
g2297
ag2640
aa(lp4029
g2293
ag2638
aatp4030
Rp4031
ag2825
((lp4032
(lp4033
g2312
ag2677
aa(lp4034
g2303
ag2304
aa(lp4035
g2295
ag2663
aa(lp4036
g2299
ag2665
aa(lp4037
g2297
ag2664
aa(lp4038
g2293
ag2662
aatp4039
Rp4040
ag2825
((lp4041
(lp4042
g2312
ag2701
aa(lp4043
g2303
ag2304
aa(lp4044
g2295
ag2687
aa(lp4045
g2299
ag2689
aa(lp4046
g2297
ag2688
aa(lp4047
g2293
ag2686
aatp4048
Rp4049
ag2825
((lp4050
(lp4051
g2312
ag2725
aa(lp4052
g2303
ag2331
aa(lp4053
g2295
ag2711
aa(lp4054
g2299
ag2713
aa(lp4055
g2297
ag2712
aa(lp4056
g2293
ag2710
aatp4057
Rp4058
asg159
Nsg160
g2729
sg164
I18
sg165
I0
sg166
I18
sbasS'savePickle'
p4059
I00
sb.