ccopy_reg
_reconstructor
p0
(cpsychopy.data.experiment
ExperimentHandler
p1
c__builtin__
object
p2
Ntp3
Rp4
(dp5
S'originPath'
p6
VC:\u005cUsers\u005cadmin\u005cDocuments\u005cgit-repos\u005c2018_replication_sheb-pulv2013\u005cexp-scripts_psychopy\u005csheb_replic_noAudioCapture.psyexp
p7
sS'dataFileName'
p8
VC:\u005cUsers\u005cadmin\u005cDocuments\u005cgit-repos\u005c2018_replication_sheb-pulv2013\u005cexp-scripts_psychopy\u005cdata/952_sheb_replic_180522_2018_Jun_01_1505
p9
sS'runtimeInfo'
p10
NsS'name'
p11
S'sheb_replic_180522'
p12
sS'dataNames'
p13
(lp14
S'key_resp_5.keys'
p15
aS'key_resp_5.rt'
p16
aS'key_resp_15.keys'
p17
aS'key_resp_15.rt'
p18
aS'key_resp_6.keys'
p19
aS'key_resp_6.rt'
p20
aS'key_resp_2.keys'
p21
aS'key_resp_2.rt'
p22
aS'key_resp_8.keys'
p23
aS'key_resp_8.rt'
p24
aS'key_resp_7.keys'
p25
aS'key_resp_7.rt'
p26
aS'key_resp_3.keys'
p27
asS'autoLog'
p28
I01
sS'extraInfo'
p29
(dp30
S'date'
p31
V2018_Jun_01_1505
p32
sS'frameRate'
p33
cnumpy.core.multiarray
scalar
p34
(cnumpy
dtype
p35
(S'f8'
p36
I0
I1
tp37
Rp38
(I3
S'<'
p39
NNNI-1
I-1
I0
tp40
bS'\xb8*\xa6\x1d\xeb\xc9M@'
p41
tp42
Rp43
sS'expName'
p44
g12
sS'session'
p45
S'001'
p46
sS'participant'
p47
g0
(cfuture.types.newstr
newstr
p48
c__builtin__
unicode
p49
V952
p50
tp51
Rp52
ssS'loopsUnfinished'
p53
(lp54
g0
(cpsychopy.data.trial
TrialHandler
p55
g2
Ntp56
Rp57
(dp58
S'origin'
p59
NsS'thisTrial'
p60
NsS'_exp'
p61
I346892112
sg11
S'training_block'
p62
sg6
I-1
sS'thisRepN'
p63
I0
sg28
I01
sg29
g30
sS'data'
p64
g0
(cpsychopy.data.base
DataHandler
p65
c__builtin__
dict
p66
(dp67
S'ran'
p68
cnumpy.ma.core
_mareconstruct
p69
(cnumpy.ma.core
MaskedArray
p70
cnumpy
ndarray
p71
(I0
tp72
S'b'
p73
tp74
Rp75
(I1
(I1
I20
tp76
g35
(S'f4'
p77
I0
I1
tp78
Rp79
(I3
S'<'
p80
NNNI-1
I-1
I0
tp81
bI00
S'\x00\x00\x80?\x00\x00\x00\x00\x00\x00\x00\x00\x00\x00\x00\x00\x00\x00\x00\x00\x00\x00\x00\x00\x00\x00\x00\x00\x00\x00\x00\x00\x00\x00\x00\x00\x00\x00\x00\x00\x00\x00\x00\x00\x00\x00\x00\x00\x00\x00\x00\x00\x00\x00\x00\x00\x00\x00\x00\x00\x00\x00\x00\x00\x00\x00\x00\x00\x00\x00\x00\x00\x00\x00\x00\x00\x00\x00\x00\x00'
p82
S'\x00\x00\x00\x00\x00\x00\x00\x00\x00\x00\x00\x00\x00\x00\x00\x00\x00\x00\x00\x00'
p83
Ntp84
bsg24
g69
(g70
g71
g72
g73
tp85
Rp86
(I1
(I1
I20
tp87
g79
I00
S'V(\xe5A\x00\x00\x00\x00\x00\x00\x00\x00\x00\x00\x00\x00\x00\x00\x00\x00\x00\x00\x00\x00\x00\x00\x00\x00\x00\x00\x00\x00\x00\x00\x00\x00\x00\x00\x00\x00\x00\x00\x00\x00\x00\x00\x00\x00\x00\x00\x00\x00\x00\x00\x00\x00\x00\x00\x00\x00\x00\x00\x00\x00\x00\x00\x00\x00\x00\x00\x00\x00\x00\x00\x00\x00\x00\x00\x00\x00'
p88
S'\x00\x01\x01\x01\x01\x01\x01\x01\x01\x01\x01\x01\x01\x01\x01\x01\x01\x01\x01\x01'
p89
Ntp90
bsg23
cnumpy.core.multiarray
_reconstruct
p91
(g71
(I0
tp92
g73
tp93
Rp94
(I1
(I1
I20
tp95
g35
(S'O4'
p96
I0
I1
tp97
Rp98
(I3
S'|'
p99
NNNI-1
I-1
I63
tp100
bI00
(lp101
S's'
p102
aS'--'
p103
aS'--'
p104
aS'--'
p105
aS'--'
p106
aS'--'
p107
aS'--'
p108
aS'--'
p109
aS'--'
p110
aS'--'
p111
aS'--'
p112
aS'--'
p113
aS'--'
p114
aS'--'
p115
aS'--'
p116
aS'--'
p117
aS'--'
p118
aS'--'
p119
aS'--'
p120
aS'--'
p121
atp122
bsS'order'
p123
g69
(g70
g71
g72
g73
tp124
Rp125
(I1
(I1
I20
tp126
g79
I00
S'\x00\x00\x00\x00\x00\x00\x00\x00\x00\x00\x00\x00\x00\x00\x00\x00\x00\x00\x00\x00\x00\x00\x00\x00\x00\x00\x00\x00\x00\x00\x00\x00\x00\x00\x00\x00\x00\x00\x00\x00\x00\x00\x00\x00\x00\x00\x00\x00\x00\x00\x00\x00\x00\x00\x00\x00\x00\x00\x00\x00\x00\x00\x00\x00\x00\x00\x00\x00\x00\x00\x00\x00\x00\x00\x00\x00\x00\x00\x00\x00'
p127
S'\x00\x01\x01\x01\x01\x01\x01\x01\x01\x01\x01\x01\x01\x01\x01\x01\x01\x01\x01\x01'
p128
Ntp129
bstp130
Rp131
(dp132
S'isNumeric'
p133
(dp134
g68
I01
sg24
I01
sg23
I00
sg123
I01
ssS'trials'
p135
g57
sS'dataTypes'
p136
(lp137
g68
ag123
ag23
ag24
asS'dataShape'
p138
(lp139
I1
aI20
asbsS'method'
p140
S'random'
p141
sS'sequenceIndices'
p142
g91
(g71
(I0
tp143
g73
tp144
Rp145
(I1
(I1
I20
tp146
g35
(S'i4'
p147
I0
I1
tp148
Rp149
(I3
S'<'
p150
NNNI-1
I-1
I0
tp151
bI00
S'\x00\x00\x00\x00\x00\x00\x00\x00\x00\x00\x00\x00\x00\x00\x00\x00\x00\x00\x00\x00\x00\x00\x00\x00\x00\x00\x00\x00\x00\x00\x00\x00\x00\x00\x00\x00\x00\x00\x00\x00\x00\x00\x00\x00\x00\x00\x00\x00\x00\x00\x00\x00\x00\x00\x00\x00\x00\x00\x00\x00\x00\x00\x00\x00\x00\x00\x00\x00\x00\x00\x00\x00\x00\x00\x00\x00\x00\x00\x00\x00'
p152
tp153
bsS'finished'
p154
I00
sS'nReps'
p155
I20
sS'nRemaining'
p156
I19
sS'trialList'
p157
(lp158
NasS'seed'
p159
NsS'thisIndex'
p160
g34
(g149
S'\x00\x00\x00\x00'
p161
tp162
Rp163
sS'thisN'
p164
I0
sS'thisTrialN'
p165
I0
sS'nTotal'
p166
I20
sbag0
(g55
g2
Ntp167
Rp168
(dp169
g59
Nsg60
Nsg61
I346892112
sg11
g62
sg6
I-1
sg63
I0
sg28
I01
sg29
g30
sg64
g0
(g65
g66
(dp170
g68
g69
(g70
g71
g72
g73
tp171
Rp172
(I1
(I1
I20
tp173
g79
I00
S'\x00\x00\x80?\x00\x00\x00\x00\x00\x00\x00\x00\x00\x00\x00\x00\x00\x00\x00\x00\x00\x00\x00\x00\x00\x00\x00\x00\x00\x00\x00\x00\x00\x00\x00\x00\x00\x00\x00\x00\x00\x00\x00\x00\x00\x00\x00\x00\x00\x00\x00\x00\x00\x00\x00\x00\x00\x00\x00\x00\x00\x00\x00\x00\x00\x00\x00\x00\x00\x00\x00\x00\x00\x00\x00\x00\x00\x00\x00\x00'
p174
S'\x00\x00\x00\x00\x00\x00\x00\x00\x00\x00\x00\x00\x00\x00\x00\x00\x00\x00\x00\x00'
p175
Ntp176
bsg24
g69
(g70
g71
g72
g73
tp177
Rp178
(I1
(I1
I20
tp179
g79
I00
S'\xd9\x9e8@\x00\x00\x00\x00\x00\x00\x00\x00\x00\x00\x00\x00\x00\x00\x00\x00\x00\x00\x00\x00\x00\x00\x00\x00\x00\x00\x00\x00\x00\x00\x00\x00\x00\x00\x00\x00\x00\x00\x00\x00\x00\x00\x00\x00\x00\x00\x00\x00\x00\x00\x00\x00\x00\x00\x00\x00\x00\x00\x00\x00\x00\x00\x00\x00\x00\x00\x00\x00\x00\x00\x00\x00\x00\x00\x00\x00'
p180
S'\x00\x01\x01\x01\x01\x01\x01\x01\x01\x01\x01\x01\x01\x01\x01\x01\x01\x01\x01\x01'
p181
Ntp182
bsg23
g91
(g71
(I0
tp183
g73
tp184
Rp185
(I1
(I1
I20
tp186
g98
I00
(lp187
S's'
p188
aS'--'
p189
aS'--'
p190
aS'--'
p191
aS'--'
p192
aS'--'
p193
aS'--'
p194
aS'--'
p195
aS'--'
p196
aS'--'
p197
aS'--'
p198
aS'--'
p199
aS'--'
p200
aS'--'
p201
aS'--'
p202
aS'--'
p203
aS'--'
p204
aS'--'
p205
aS'--'
p206
aS'--'
p207
atp208
bsg123
g69
(g70
g71
g72
g73
tp209
Rp210
(I1
(I1
I20
tp211
g79
I00
S'\x00\x00\x00\x00\x00\x00\x00\x00\x00\x00\x00\x00\x00\x00\x00\x00\x00\x00\x00\x00\x00\x00\x00\x00\x00\x00\x00\x00\x00\x00\x00\x00\x00\x00\x00\x00\x00\x00\x00\x00\x00\x00\x00\x00\x00\x00\x00\x00\x00\x00\x00\x00\x00\x00\x00\x00\x00\x00\x00\x00\x00\x00\x00\x00\x00\x00\x00\x00\x00\x00\x00\x00\x00\x00\x00\x00\x00\x00\x00\x00'
p212
S'\x00\x01\x01\x01\x01\x01\x01\x01\x01\x01\x01\x01\x01\x01\x01\x01\x01\x01\x01\x01'
p213
Ntp214
bstp215
Rp216
(dp217
g133
(dp218
g68
I01
sg24
I01
sg23
I00
sg123
I01
ssg135
g168
sg136
(lp219
g68
ag123
ag23
ag24
asg138
(lp220
I1
aI20
asbsg140
g141
sg142
g91
(g71
(I0
tp221
g73
tp222
Rp223
(I1
(I1
I20
tp224
g149
I00
S'\x00\x00\x00\x00\x00\x00\x00\x00\x00\x00\x00\x00\x00\x00\x00\x00\x00\x00\x00\x00\x00\x00\x00\x00\x00\x00\x00\x00\x00\x00\x00\x00\x00\x00\x00\x00\x00\x00\x00\x00\x00\x00\x00\x00\x00\x00\x00\x00\x00\x00\x00\x00\x00\x00\x00\x00\x00\x00\x00\x00\x00\x00\x00\x00\x00\x00\x00\x00\x00\x00\x00\x00\x00\x00\x00\x00\x00\x00\x00\x00'
p225
tp226
bsg154
I00
sg155
I20
sg156
I19
sg157
(lp227
Nasg159
Nsg160
g34
(g149
S'\x00\x00\x00\x00'
p228
tp229
Rp230
sg164
I0
sg165
I0
sg166
I20
sbag0
(g55
g2
Ntp231
Rp232
(dp233
g59
Nsg60
Nsg61
I346892112
sg11
g62
sg6
I-1
sg63
I0
sg28
I01
sg29
g30
sg64
g0
(g65
g66
(dp234
g68
g69
(g70
g71
g72
g73
tp235
Rp236
(I1
(I1
I20
tp237
g79
I00
S'\x00\x00\x80?\x00\x00\x00\x00\x00\x00\x00\x00\x00\x00\x00\x00\x00\x00\x00\x00\x00\x00\x00\x00\x00\x00\x00\x00\x00\x00\x00\x00\x00\x00\x00\x00\x00\x00\x00\x00\x00\x00\x00\x00\x00\x00\x00\x00\x00\x00\x00\x00\x00\x00\x00\x00\x00\x00\x00\x00\x00\x00\x00\x00\x00\x00\x00\x00\x00\x00\x00\x00\x00\x00\x00\x00\x00\x00\x00\x00'
p238
S'\x00\x00\x00\x00\x00\x00\x00\x00\x00\x00\x00\x00\x00\x00\x00\x00\x00\x00\x00\x00'
p239
Ntp240
bsg24
g69
(g70
g71
g72
g73
tp241
Rp242
(I1
(I1
I20
tp243
g79
I00
S'Y\x05yA\x00\x00\x00\x00\x00\x00\x00\x00\x00\x00\x00\x00\x00\x00\x00\x00\x00\x00\x00\x00\x00\x00\x00\x00\x00\x00\x00\x00\x00\x00\x00\x00\x00\x00\x00\x00\x00\x00\x00\x00\x00\x00\x00\x00\x00\x00\x00\x00\x00\x00\x00\x00\x00\x00\x00\x00\x00\x00\x00\x00\x00\x00\x00\x00\x00\x00\x00\x00\x00\x00\x00\x00\x00\x00\x00\x00'
p244
S'\x00\x01\x01\x01\x01\x01\x01\x01\x01\x01\x01\x01\x01\x01\x01\x01\x01\x01\x01\x01'
p245
Ntp246
bsg23
g91
(g71
(I0
tp247
g73
tp248
Rp249
(I1
(I1
I20
tp250
g98
I00
(lp251
S's'
p252
aS'--'
p253
aS'--'
p254
aS'--'
p255
aS'--'
p256
aS'--'
p257
aS'--'
p258
aS'--'
p259
aS'--'
p260
aS'--'
p261
aS'--'
p262
aS'--'
p263
aS'--'
p264
aS'--'
p265
aS'--'
p266
aS'--'
p267
aS'--'
p268
aS'--'
p269
aS'--'
p270
aS'--'
p271
atp272
bsg123
g69
(g70
g71
g72
g73
tp273
Rp274
(I1
(I1
I20
tp275
g79
I00
S'\x00\x00\x00\x00\x00\x00\x00\x00\x00\x00\x00\x00\x00\x00\x00\x00\x00\x00\x00\x00\x00\x00\x00\x00\x00\x00\x00\x00\x00\x00\x00\x00\x00\x00\x00\x00\x00\x00\x00\x00\x00\x00\x00\x00\x00\x00\x00\x00\x00\x00\x00\x00\x00\x00\x00\x00\x00\x00\x00\x00\x00\x00\x00\x00\x00\x00\x00\x00\x00\x00\x00\x00\x00\x00\x00\x00\x00\x00\x00\x00'
p276
S'\x00\x01\x01\x01\x01\x01\x01\x01\x01\x01\x01\x01\x01\x01\x01\x01\x01\x01\x01\x01'
p277
Ntp278
bstp279
Rp280
(dp281
g133
(dp282
g68
I01
sg24
I01
sg23
I00
sg123
I01
ssg135
g232
sg136
(lp283
g68
ag123
ag23
ag24
asg138
(lp284
I1
aI20
asbsg140
g141
sg142
g91
(g71
(I0
tp285
g73
tp286
Rp287
(I1
(I1
I20
tp288
g149
I00
S'\x00\x00\x00\x00\x00\x00\x00\x00\x00\x00\x00\x00\x00\x00\x00\x00\x00\x00\x00\x00\x00\x00\x00\x00\x00\x00\x00\x00\x00\x00\x00\x00\x00\x00\x00\x00\x00\x00\x00\x00\x00\x00\x00\x00\x00\x00\x00\x00\x00\x00\x00\x00\x00\x00\x00\x00\x00\x00\x00\x00\x00\x00\x00\x00\x00\x00\x00\x00\x00\x00\x00\x00\x00\x00\x00\x00\x00\x00\x00\x00'
p289
tp290
bsg154
I00
sg155
I20
sg156
I19
sg157
(lp291
Nasg159
Nsg160
g34
(g149
S'\x00\x00\x00\x00'
p292
tp293
Rp294
sg164
I0
sg165
I0
sg166
I20
sbag0
(g55
g2
Ntp295
Rp296
(dp297
g59
Nsg60
Nsg61
I346892112
sg11
g62
sg6
I-1
sg63
I0
sg28
I01
sg29
g30
sg64
g0
(g65
g66
(dp298
g68
g69
(g70
g71
g72
g73
tp299
Rp300
(I1
(I1
I20
tp301
g79
I00
S'\x00\x00\x80?\x00\x00\x00\x00\x00\x00\x00\x00\x00\x00\x00\x00\x00\x00\x00\x00\x00\x00\x00\x00\x00\x00\x00\x00\x00\x00\x00\x00\x00\x00\x00\x00\x00\x00\x00\x00\x00\x00\x00\x00\x00\x00\x00\x00\x00\x00\x00\x00\x00\x00\x00\x00\x00\x00\x00\x00\x00\x00\x00\x00\x00\x00\x00\x00\x00\x00\x00\x00\x00\x00\x00\x00\x00\x00\x00\x00'
p302
S'\x00\x00\x00\x00\x00\x00\x00\x00\x00\x00\x00\x00\x00\x00\x00\x00\x00\x00\x00\x00'
p303
Ntp304
bsg24
g69
(g70
g71
g72
g73
tp305
Rp306
(I1
(I1
I20
tp307
g79
I00
S'\xff\xdbg@\x00\x00\x00\x00\x00\x00\x00\x00\x00\x00\x00\x00\x00\x00\x00\x00\x00\x00\x00\x00\x00\x00\x00\x00\x00\x00\x00\x00\x00\x00\x00\x00\x00\x00\x00\x00\x00\x00\x00\x00\x00\x00\x00\x00\x00\x00\x00\x00\x00\x00\x00\x00\x00\x00\x00\x00\x00\x00\x00\x00\x00\x00\x00\x00\x00\x00\x00\x00\x00\x00\x00\x00\x00\x00\x00\x00'
p308
S'\x00\x01\x01\x01\x01\x01\x01\x01\x01\x01\x01\x01\x01\x01\x01\x01\x01\x01\x01\x01'
p309
Ntp310
bsg23
g91
(g71
(I0
tp311
g73
tp312
Rp313
(I1
(I1
I20
tp314
g98
I00
(lp315
S's'
p316
aS'--'
p317
aS'--'
p318
aS'--'
p319
aS'--'
p320
aS'--'
p321
aS'--'
p322
aS'--'
p323
aS'--'
p324
aS'--'
p325
aS'--'
p326
aS'--'
p327
aS'--'
p328
aS'--'
p329
aS'--'
p330
aS'--'
p331
aS'--'
p332
aS'--'
p333
aS'--'
p334
aS'--'
p335
atp336
bsg123
g69
(g70
g71
g72
g73
tp337
Rp338
(I1
(I1
I20
tp339
g79
I00
S'\x00\x00\x00\x00\x00\x00\x00\x00\x00\x00\x00\x00\x00\x00\x00\x00\x00\x00\x00\x00\x00\x00\x00\x00\x00\x00\x00\x00\x00\x00\x00\x00\x00\x00\x00\x00\x00\x00\x00\x00\x00\x00\x00\x00\x00\x00\x00\x00\x00\x00\x00\x00\x00\x00\x00\x00\x00\x00\x00\x00\x00\x00\x00\x00\x00\x00\x00\x00\x00\x00\x00\x00\x00\x00\x00\x00\x00\x00\x00\x00'
p340
S'\x00\x01\x01\x01\x01\x01\x01\x01\x01\x01\x01\x01\x01\x01\x01\x01\x01\x01\x01\x01'
p341
Ntp342
bstp343
Rp344
(dp345
g133
(dp346
g68
I01
sg24
I01
sg23
I00
sg123
I01
ssg135
g296
sg136
(lp347
g68
ag123
ag23
ag24
asg138
(lp348
I1
aI20
asbsg140
g141
sg142
g91
(g71
(I0
tp349
g73
tp350
Rp351
(I1
(I1
I20
tp352
g149
I00
S'\x00\x00\x00\x00\x00\x00\x00\x00\x00\x00\x00\x00\x00\x00\x00\x00\x00\x00\x00\x00\x00\x00\x00\x00\x00\x00\x00\x00\x00\x00\x00\x00\x00\x00\x00\x00\x00\x00\x00\x00\x00\x00\x00\x00\x00\x00\x00\x00\x00\x00\x00\x00\x00\x00\x00\x00\x00\x00\x00\x00\x00\x00\x00\x00\x00\x00\x00\x00\x00\x00\x00\x00\x00\x00\x00\x00\x00\x00\x00\x00'
p353
tp354
bsg154
I00
sg155
I20
sg156
I19
sg157
(lp355
Nasg159
Nsg160
g34
(g149
S'\x00\x00\x00\x00'
p356
tp357
Rp358
sg164
I0
sg165
I0
sg166
I20
sbasS'saveWideText'
p359
I00
sS'thisEntry'
p360
(dp361
sS'version'
p362
S''
p363
sS'_paramNamesSoFar'
p364
(lp365
S'BlockType'
p366
aS'BlockLabel'
p367
aS'BlockInstructions'
p368
aS'item'
p369
aS'type'
p370
aS'word1'
p371
aS'word2'
p372
aS'word3'
p373
aS'word4'
p374
asS'entries'
p375
(lp376
(dp377
S'training_block.thisRepN'
p378
I0
sS'block.thisTrialN'
p379
I0
sg17
S'return'
p380
sS'block.thisRepN'
p381
I0
sS'word_presentation_training.thisRepN'
p382
I0
sg367
Vwhile repeating a syllable
p383
sg19
S'space'
p384
sg33
g43
sg374
Vstay
p385
sg45
g46
sg371
Vsave
p386
sg373
Vprint
p387
sg372
Vlook
p388
sg366
VARTICULATION
p389
sg16
F15.547061238343304
sg368
Vrepeat the syllable "bla" continuously
p390
sS'word_presentation_training.thisN'
p391
I0
sg44
g12
sS'block.thisIndex'
p392
g34
(g149
S'\x03\x00\x00\x00'
p393
tp394
Rp395
sg370
Vtraining
p396
sS'training_block.thisIndex'
p397
g163
sg22
F25.257334902706134
sS'training_block.thisN'
p398
I0
sS'block.thisN'
p399
I0
sS'training_block.thisTrialN'
p400
I0
sg21
S'space'
p401
sg31
g32
sg47
g52
sS'word_presentation_training.thisIndex'
p402
g34
(g149
S'\x03\x00\x00\x00'
p403
tp404
Rp405
sS'word_presentation_training.thisTrialN'
p406
I0
sg369
g34
(g35
(S'i8'
p407
I0
I1
tp408
Rp409
(I3
S'<'
p410
NNNI-1
I-1
I0
tp411
bS'\x04\x00\x00\x00\x00\x00\x00\x00'
p412
tp413
Rp414
sg15
S'space'
p415
sg20
F5.182747406404815
sg18
F7.379536592430668
sa(dp416
S'training_block.thisRepN'
p417
I0
sS'block.thisTrialN'
p418
I0
sS'block.thisRepN'
p419
I0
sS'word_presentation_training.thisRepN'
p420
I0
sg367
g383
sg33
g43
sg374
Vbless
p421
sg45
g46
sg371
Vwait
p422
sg373
Vsigh
p423
sg372
Vblush
p424
sg366
g389
sg368
g390
sS'word_presentation_training.thisN'
p425
I1
sS'block.thisIndex'
p426
g395
sg370
g396
sS'training_block.thisIndex'
p427
g163
sg22
F13.920184025977505
sS'training_block.thisN'
p428
I0
sS'block.thisN'
p429
I0
sS'training_block.thisTrialN'
p430
I0
sg21
S'space'
p431
sg31
g32
sg47
g52
sS'word_presentation_training.thisIndex'
p432
g34
(g149
S'\x00\x00\x00\x00'
p433
tp434
Rp435
sS'word_presentation_training.thisTrialN'
p436
I1
sg369
g34
(g409
S'\x01\x00\x00\x00\x00\x00\x00\x00'
p437
tp438
Rp439
sg44
g12
sa(dp440
S'training_block.thisRepN'
p441
I0
sS'block.thisTrialN'
p442
I0
sS'block.thisRepN'
p443
I0
sS'word_presentation_training.thisRepN'
p444
I0
sg367
g383
sg33
g43
sg374
Vsoothe
p445
sg45
g46
sg371
Vchew
p446
sg373
Vruin
p447
sg372
Vlick
p448
sg366
g389
sg368
g390
sS'word_presentation_training.thisN'
p449
I2
sS'block.thisIndex'
p450
g395
sg370
g396
sS'training_block.thisIndex'
p451
g163
sg22
F14.07226227969295
sS'training_block.thisN'
p452
I0
sS'block.thisN'
p453
I0
sS'training_block.thisTrialN'
p454
I0
sg21
S'space'
p455
sg31
g32
sg47
g52
sS'word_presentation_training.thisIndex'
p456
g34
(g149
S'\x02\x00\x00\x00'
p457
tp458
Rp459
sS'word_presentation_training.thisTrialN'
p460
I2
sg369
g34
(g409
S'\x03\x00\x00\x00\x00\x00\x00\x00'
p461
tp462
Rp463
sg44
g12
sa(dp464
S'training_block.thisRepN'
p465
I0
sS'block.thisTrialN'
p466
I0
sS'block.thisRepN'
p467
I0
sS'word_presentation_training.thisRepN'
p468
I0
sg367
g383
sg33
g43
sg374
Vthank
p469
sg45
g46
sg371
Vyell
p470
sg373
Vlike
p471
sg372
Vstare
p472
sg366
g389
sg368
g390
sS'word_presentation_training.thisN'
p473
I3
sS'block.thisIndex'
p474
g395
sg370
g396
sS'training_block.thisIndex'
p475
g163
sg22
F8.318814262014712
sS'training_block.thisN'
p476
I0
sS'block.thisN'
p477
I0
sS'training_block.thisTrialN'
p478
I0
sg21
S'space'
p479
sg31
g32
sg47
g52
sS'word_presentation_training.thisIndex'
p480
g34
(g149
S'\x01\x00\x00\x00'
p481
tp482
Rp483
sS'word_presentation_training.thisTrialN'
p484
I3
sg369
g34
(g409
S'\x02\x00\x00\x00\x00\x00\x00\x00'
p485
tp486
Rp487
sg44
g12
sa(dp488
S'training_block.thisRepN'
p489
I0
sS'block.thisTrialN'
p490
I0
sS'block.thisRepN'
p491
I0
sg367
g383
sg33
g43
sS'word4'
p492
Vslide
p493
sg45
g46
sS'word1'
p494
Vsprint
p495
sS'word3'
p496
Vcrawl
p497
sS'word2'
p498
Vtrot
p499
sg366
g389
sS'word_presentation.thisRepN'
p500
I0
sg368
g390
sg47
g52
sg24
F28.644695444036188
sS'block.thisIndex'
p501
g395
sS'type'
p502
Vleg
p503
sS'training_block.thisIndex'
p504
g163
sg22
F8.990252660367332
sS'training_block.thisN'
p505
I0
sS'word_presentation.thisN'
p506
I0
sg26
F1.9457471847490524
sS'block.thisN'
p507
I0
sS'training_block.thisTrialN'
p508
I0
sg21
S'space'
p509
sg23
g102
sg31
g32
sS'word_presentation.thisTrialN'
p510
I0
sS'item'
p511
g34
(g409
S'\x0f\x00\x00\x00\x00\x00\x00\x00'
p512
tp513
Rp514
sg44
g12
sg25
S'space'
p515
sS'word_presentation.thisIndex'
p516
g34
(g149
S'\x00\x00\x00\x00'
p517
tp518
Rp519
sa(dp520
S'training_block.thisRepN'
p521
I0
sS'block.thisTrialN'
p522
I0
sS'block.thisRepN'
p523
I0
sg367
g383
sg33
g43
sg492
Vstab
p524
sg45
g46
sg494
Vscratch
p525
sg496
Vclean
p526
sg498
Vhack
p527
sg366
g389
sS'word_presentation.thisRepN'
p528
I0
sg368
g390
sg47
g52
sS'block.thisIndex'
p529
g395
sg502
Varm
p530
sS'training_block.thisIndex'
p531
g163
sg22
F2.8513947546107374
sS'training_block.thisN'
p532
I0
sS'word_presentation.thisN'
p533
I1
sS'block.thisN'
p534
I0
sS'training_block.thisTrialN'
p535
I0
sg21
S'space'
p536
sg31
g32
sS'word_presentation.thisTrialN'
p537
I1
sg511
g34
(g409
S'\x05\x00\x00\x00\x00\x00\x00\x00'
p538
tp539
Rp540
sg44
g12
sS'word_presentation.thisIndex'
p541
g34
(g149
S'\x01\x00\x00\x00'
p542
tp543
Rp544
sa(dp545
S'training_block.thisRepN'
p546
I0
sS'block.thisTrialN'
p547
I0
sS'block.thisRepN'
p548
I0
sg367
g383
sg33
g43
sg492
Vdance
p549
sg45
g46
sg494
Vpace
p550
sg496
Vstrut
p551
sg498
Vskip
p552
sg366
g389
sS'word_presentation.thisRepN'
p553
I0
sg368
g390
sg47
g52
sS'block.thisIndex'
p554
g395
sg502
g503
sS'training_block.thisIndex'
p555
g163
sg22
F7.043544965579713
sS'training_block.thisN'
p556
I0
sS'word_presentation.thisN'
p557
I2
sS'block.thisN'
p558
I0
sS'training_block.thisTrialN'
p559
I0
sg21
S'space'
p560
sg31
g32
sS'word_presentation.thisTrialN'
p561
I2
sg511
g34
(g409
S'\x0b\x00\x00\x00\x00\x00\x00\x00'
p562
tp563
Rp564
sg44
g12
sS'word_presentation.thisIndex'
p565
g34
(g149
S'\x02\x00\x00\x00'
p566
tp567
Rp568
sa(dp569
S'training_block.thisRepN'
p570
I0
sS'block.thisTrialN'
p571
I0
sS'block.thisRepN'
p572
I0
sg367
g383
sg33
g43
sg492
Vthrow
p573
sg45
g46
sg494
Vtoss
p574
sg496
Vwhip
p575
sg498
Vscrape
p576
sg366
g389
sS'word_presentation.thisRepN'
p577
I0
sg368
g390
sg47
g52
sS'block.thisIndex'
p578
g395
sg502
g530
sS'training_block.thisIndex'
p579
g163
sg22
F5.904661377737284
sS'training_block.thisN'
p580
I0
sS'word_presentation.thisN'
p581
I3
sS'block.thisN'
p582
I0
sS'training_block.thisTrialN'
p583
I0
sg21
S'space'
p584
sg31
g32
sS'word_presentation.thisTrialN'
p585
I3
sg511
g34
(g409
S'\t\x00\x00\x00\x00\x00\x00\x00'
p586
tp587
Rp588
sg44
g12
sS'word_presentation.thisIndex'
p589
g34
(g149
S'\x03\x00\x00\x00'
p590
tp591
Rp592
sa(dp593
S'training_block.thisRepN'
p594
I0
sS'block.thisTrialN'
p595
I0
sS'block.thisRepN'
p596
I0
sg367
g383
sg33
g43
sg492
Vgrab
p597
sg45
g46
sg494
Vclap
p598
sg496
Vwipe
p599
sg498
Vclick
p600
sg366
g389
sS'word_presentation.thisRepN'
p601
I0
sg368
g390
sg47
g52
sS'block.thisIndex'
p602
g395
sg502
g530
sS'training_block.thisIndex'
p603
g163
sg22
F4.310385006087017
sS'training_block.thisN'
p604
I0
sS'word_presentation.thisN'
p605
I4
sS'block.thisN'
p606
I0
sS'training_block.thisTrialN'
p607
I0
sg21
S'space'
p608
sg31
g32
sS'word_presentation.thisTrialN'
p609
I4
sg511
g34
(g409
S'\x08\x00\x00\x00\x00\x00\x00\x00'
p610
tp611
Rp612
sg44
g12
sS'word_presentation.thisIndex'
p613
g34
(g149
S'\x04\x00\x00\x00'
p614
tp615
Rp616
sa(dp617
S'training_block.thisRepN'
p618
I0
sS'block.thisTrialN'
p619
I0
sS'block.thisRepN'
p620
I0
sg367
g383
sg33
g43
sg492
Vmount
p621
sg45
g46
sg494
Vlimp
p622
sg496
Vhop
p623
sg498
Vstride
p624
sg366
g389
sS'word_presentation.thisRepN'
p625
I0
sg368
g390
sg47
g52
sS'block.thisIndex'
p626
g395
sg502
g503
sS'training_block.thisIndex'
p627
g163
sg22
F4.544952936588743
sS'training_block.thisN'
p628
I0
sS'word_presentation.thisN'
p629
I5
sS'block.thisN'
p630
I0
sS'training_block.thisTrialN'
p631
I0
sg21
S'space'
p632
sg31
g32
sS'word_presentation.thisTrialN'
p633
I5
sg511
g34
(g409
S'\n\x00\x00\x00\x00\x00\x00\x00'
p634
tp635
Rp636
sg44
g12
sS'word_presentation.thisIndex'
p637
g34
(g149
S'\x05\x00\x00\x00'
p638
tp639
Rp640
sa(dp641
S'training_block.thisRepN'
p642
I0
sS'block.thisTrialN'
p643
I0
sS'block.thisRepN'
p644
I0
sg367
g383
sg33
g43
sg492
Vtread
p645
sg45
g46
sg494
Vhike
p646
sg496
Vwade
p647
sg498
Vtiptoe
p648
sg366
g389
sS'word_presentation.thisRepN'
p649
I0
sg368
g390
sg47
g52
sS'block.thisIndex'
p650
g395
sg502
g503
sS'training_block.thisIndex'
p651
g163
sg22
F6.591047540701766
sS'training_block.thisN'
p652
I0
sS'word_presentation.thisN'
p653
I6
sS'block.thisN'
p654
I0
sS'training_block.thisTrialN'
p655
I0
sg21
S'space'
p656
sg31
g32
sS'word_presentation.thisTrialN'
p657
I6
sg511
g34
(g409
S'\r\x00\x00\x00\x00\x00\x00\x00'
p658
tp659
Rp660
sg44
g12
sS'word_presentation.thisIndex'
p661
g34
(g149
S'\x06\x00\x00\x00'
p662
tp663
Rp664
sa(dp665
S'training_block.thisRepN'
p666
I0
sS'block.thisTrialN'
p667
I0
sS'block.thisRepN'
p668
I0
sg367
g383
sg33
g43
sg492
Vrub
p669
sg45
g46
sg494
Vdunk
p670
sg496
Vswitch
p671
sg498
Vchop
p672
sg366
g389
sS'word_presentation.thisRepN'
p673
I0
sg368
g390
sg47
g52
sS'block.thisIndex'
p674
g395
sg502
g530
sS'training_block.thisIndex'
p675
g163
sg22
F83.48640805200557
sS'training_block.thisN'
p676
I0
sS'word_presentation.thisN'
p677
I7
sS'block.thisN'
p678
I0
sS'training_block.thisTrialN'
p679
I0
sg21
S'space'
p680
sg31
g32
sS'word_presentation.thisTrialN'
p681
I7
sg511
g34
(g409
S'\x02\x00\x00\x00\x00\x00\x00\x00'
p682
tp683
Rp684
sg44
g12
sS'word_presentation.thisIndex'
p685
g34
(g149
S'\x07\x00\x00\x00'
p686
tp687
Rp688
sa(dp689
S'training_block.thisRepN'
p690
I0
sS'block.thisTrialN'
p691
I0
sS'block.thisRepN'
p692
I0
sg367
g383
sg33
g43
sg492
Vpeel
p693
sg45
g46
sg494
Vpull
p694
sg496
Vpat
p695
sg498
Vbraid
p696
sg366
g389
sS'word_presentation.thisRepN'
p697
I0
sg368
g390
sg47
g52
sS'block.thisIndex'
p698
g395
sg502
g530
sS'training_block.thisIndex'
p699
g163
sg22
F17.325429967517266
sS'training_block.thisN'
p700
I0
sS'word_presentation.thisN'
p701
I8
sS'block.thisN'
p702
I0
sS'training_block.thisTrialN'
p703
I0
sg21
S'space'
p704
sg31
g32
sS'word_presentation.thisTrialN'
p705
I8
sg511
g34
(g409
S'\x01\x00\x00\x00\x00\x00\x00\x00'
p706
tp707
Rp708
sg44
g12
sS'word_presentation.thisIndex'
p709
g34
(g149
S'\x08\x00\x00\x00'
p710
tp711
Rp712
sa(dp713
S'training_block.thisRepN'
p714
I0
sS'block.thisTrialN'
p715
I0
sS'block.thisRepN'
p716
I0
sg367
g383
sg33
g43
sg492
Vgrip
p717
sg45
g46
sg494
Vgrasp
p718
sg496
Vcatch
p719
sg498
Vseize
p720
sg366
g389
sS'word_presentation.thisRepN'
p721
I0
sg368
g390
sg47
g52
sS'block.thisIndex'
p722
g395
sg502
g530
sS'training_block.thisIndex'
p723
g163
sg22
F11.404552525200415
sS'training_block.thisN'
p724
I0
sS'word_presentation.thisN'
p725
I9
sS'block.thisN'
p726
I0
sS'training_block.thisTrialN'
p727
I0
sg21
S'space'
p728
sg31
g32
sS'word_presentation.thisTrialN'
p729
I9
sg511
g34
(g409
S'\x04\x00\x00\x00\x00\x00\x00\x00'
p730
tp731
Rp732
sg44
g12
sS'word_presentation.thisIndex'
p733
g34
(g149
S'\t\x00\x00\x00'
p734
tp735
Rp736
sa(dp737
S'training_block.thisRepN'
p738
I0
sS'block.thisTrialN'
p739
I0
sS'block.thisRepN'
p740
I0
sg367
g383
sg33
g43
sg492
Vwander
p741
sg45
g46
sg494
Vclimb
p742
sg496
Vstamp
p743
sg498
Vkneel
p744
sg366
g389
sS'word_presentation.thisRepN'
p745
I0
sg368
g390
sg47
g52
sS'block.thisIndex'
p746
g395
sg502
g503
sS'training_block.thisIndex'
p747
g163
sg22
F10.180355811480695
sS'training_block.thisN'
p748
I0
sS'word_presentation.thisN'
p749
I10
sS'block.thisN'
p750
I0
sS'training_block.thisTrialN'
p751
I0
sg21
S'space'
p752
sg31
g32
sS'word_presentation.thisTrialN'
p753
I10
sg511
g34
(g409
S'\x0e\x00\x00\x00\x00\x00\x00\x00'
p754
tp755
Rp756
sg44
g12
sS'word_presentation.thisIndex'
p757
g34
(g149
S'\n\x00\x00\x00'
p758
tp759
Rp760
sa(dp761
S'training_block.thisRepN'
p762
I0
sS'block.thisTrialN'
p763
I0
sS'block.thisRepN'
p764
I0
sg367
g383
sg33
g43
sg492
Vjog
p765
sg45
g46
sg494
Vkick
p766
sg496
Vflee
p767
sg498
Vrun
p768
sg366
g389
sS'word_presentation.thisRepN'
p769
I0
sg368
g390
sg47
g52
sS'block.thisIndex'
p770
g395
sg502
g503
sS'training_block.thisIndex'
p771
g163
sg22
F10.43235634724806
sS'training_block.thisN'
p772
I0
sS'word_presentation.thisN'
p773
I11
sS'block.thisN'
p774
I0
sS'training_block.thisTrialN'
p775
I0
sg21
S'space'
p776
sg31
g32
sS'word_presentation.thisTrialN'
p777
I11
sg511
g34
(g409
S'\x11\x00\x00\x00\x00\x00\x00\x00'
p778
tp779
Rp780
sg44
g12
sS'word_presentation.thisIndex'
p781
g34
(g149
S'\x0b\x00\x00\x00'
p782
tp783
Rp784
sa(dp785
S'training_block.thisRepN'
p786
I0
sS'block.thisTrialN'
p787
I0
sS'block.thisRepN'
p788
I0
sg367
g383
sg33
g43
sg492
Vbrush
p789
sg45
g46
sg494
Vbind
p790
sg496
Vlift
p791
sg498
Vfold
p792
sg366
g389
sS'word_presentation.thisRepN'
p793
I0
sg368
g390
sg47
g52
sS'block.thisIndex'
p794
g395
sg502
g530
sS'training_block.thisIndex'
p795
g163
sg22
F9.156993014868931
sS'training_block.thisN'
p796
I0
sS'word_presentation.thisN'
p797
I12
sS'block.thisN'
p798
I0
sS'training_block.thisTrialN'
p799
I0
sg21
S'space'
p800
sg31
g32
sS'word_presentation.thisTrialN'
p801
I12
sg511
g34
(g409
S'\x03\x00\x00\x00\x00\x00\x00\x00'
p802
tp803
Rp804
sg44
g12
sS'word_presentation.thisIndex'
p805
g34
(g149
S'\x0c\x00\x00\x00'
p806
tp807
Rp808
sa(dp809
S'training_block.thisRepN'
p810
I0
sS'block.thisTrialN'
p811
I0
sS'block.thisRepN'
p812
I0
sg367
g383
sg33
g43
sg492
Vdig
p813
sg45
g46
sg494
Vscrub
p814
sg496
Vnip
p815
sg498
Vknock
p816
sg366
g389
sS'word_presentation.thisRepN'
p817
I0
sg368
g390
sg47
g52
sS'block.thisIndex'
p818
g395
sg502
g530
sS'training_block.thisIndex'
p819
g163
sg22
F3.7747349114779354
sS'training_block.thisN'
p820
I0
sS'word_presentation.thisN'
p821
I13
sS'block.thisN'
p822
I0
sS'training_block.thisTrialN'
p823
I0
sg21
S'space'
p824
sg31
g32
sS'word_presentation.thisTrialN'
p825
I13
sg511
g34
(g409
S'\x07\x00\x00\x00\x00\x00\x00\x00'
p826
tp827
Rp828
sg44
g12
sS'word_presentation.thisIndex'
p829
g34
(g149
S'\r\x00\x00\x00'
p830
tp831
Rp832
sa(dp833
S'training_block.thisRepN'
p834
I0
sS'block.thisTrialN'
p835
I0
sS'block.thisRepN'
p836
I0
sg367
g383
sg33
g43
sg492
Vleap
p837
sg45
g46
sg494
Vstray
p838
sg496
Vskate
p839
sg498
Vslip
p840
sg366
g389
sS'word_presentation.thisRepN'
p841
I0
sg368
g390
sg47
g52
sS'block.thisIndex'
p842
g395
sg502
g503
sS'training_block.thisIndex'
p843
g163
sg22
F10.617157135255184
sS'training_block.thisN'
p844
I0
sS'word_presentation.thisN'
p845
I14
sS'block.thisN'
p846
I0
sS'training_block.thisTrialN'
p847
I0
sg21
S'space'
p848
sg31
g32
sS'word_presentation.thisTrialN'
p849
I14
sg511
g34
(g409
S'\x12\x00\x00\x00\x00\x00\x00\x00'
p850
tp851
Rp852
sg44
g12
sS'word_presentation.thisIndex'
p853
g34
(g149
S'\x0e\x00\x00\x00'
p854
tp855
Rp856
sa(dp857
S'training_block.thisRepN'
p858
I0
sS'block.thisTrialN'
p859
I0
sS'block.thisRepN'
p860
I0
sg367
g383
sg33
g43
sg492
Vwash
p861
sg45
g46
sg494
Vcarve
p862
sg496
Vstir
p863
sg498
Vbash
p864
sg366
g389
sS'word_presentation.thisRepN'
p865
I0
sg368
g390
sg47
g52
sS'block.thisIndex'
p866
g395
sg502
g530
sS'training_block.thisIndex'
p867
g163
sg22
F19.655898760423952
sS'training_block.thisN'
p868
I0
sS'word_presentation.thisN'
p869
I15
sS'block.thisN'
p870
I0
sS'training_block.thisTrialN'
p871
I0
sg21
S'space'
p872
sg31
g32
sS'word_presentation.thisTrialN'
p873
I15
sg511
g34
(g409
S'\x06\x00\x00\x00\x00\x00\x00\x00'
p874
tp875
Rp876
sg44
g12
sS'word_presentation.thisIndex'
p877
g34
(g149
S'\x0f\x00\x00\x00'
p878
tp879
Rp880
sa(dp881
S'training_block.thisRepN'
p882
I0
sS'block.thisTrialN'
p883
I0
sS'block.thisRepN'
p884
I0
sg367
g383
sg33
g43
sg492
Vwalk
p885
sg45
g46
sg494
Vstroll
p886
sg496
Vjump
p887
sg498
Vstep
p888
sg366
g389
sS'word_presentation.thisRepN'
p889
I0
sg368
g390
sg47
g52
sS'block.thisIndex'
p890
g395
sg502
g503
sS'training_block.thisIndex'
p891
g163
sg22
F7.513468673978423
sS'training_block.thisN'
p892
I0
sS'word_presentation.thisN'
p893
I16
sS'block.thisN'
p894
I0
sS'training_block.thisTrialN'
p895
I0
sg21
S'space'
p896
sg31
g32
sS'word_presentation.thisTrialN'
p897
I16
sg511
g34
(g409
S'\x0c\x00\x00\x00\x00\x00\x00\x00'
p898
tp899
Rp900
sg44
g12
sS'word_presentation.thisIndex'
p901
g34
(g149
S'\x10\x00\x00\x00'
p902
tp903
Rp904
sa(dp905
S'training_block.thisRepN'
p906
I0
sS'block.thisTrialN'
p907
I0
sS'block.thisRepN'
p908
I0
sg367
g383
sg33
g43
sg492
Vstomp
p909
sg45
g46
sg494
Vglide
p910
sg496
Vcreep
p911
sg498
Vstumble
p912
sg366
g389
sS'word_presentation.thisRepN'
p913
I0
sg368
g390
sg47
g52
sS'block.thisIndex'
p914
g395
sg502
g503
sS'training_block.thisIndex'
p915
g163
sg22
F21.8698317270173
sS'training_block.thisN'
p916
I0
sS'word_presentation.thisN'
p917
I17
sS'block.thisN'
p918
I0
sS'training_block.thisTrialN'
p919
I0
sg21
S'space'
p920
sg31
g32
sS'word_presentation.thisTrialN'
p921
I17
sg511
g34
(g409
S'\x10\x00\x00\x00\x00\x00\x00\x00'
p922
tp923
Rp924
sg44
g12
sS'word_presentation.thisIndex'
p925
g34
(g149
S'\x11\x00\x00\x00'
p926
tp927
Rp928
sa(dp929
S'training_block.thisRepN'
p930
I0
sS'block.thisTrialN'
p931
I0
sS'block.thisRepN'
p932
I0
sg45
g46
sg368
g390
sg367
g383
sg47
g52
sS'block.thisN'
p933
I0
sS'training_block.thisTrialN'
p934
I0
sg33
g43
sg44
g12
sg31
g32
sS'training_block.thisN'
p935
I0
sS'block.thisIndex'
p936
g395
sg366
g389
sS'training_block.thisIndex'
p937
g163
sa(dp938
S'training_block.thisRepN'
p939
I0
sS'block.thisTrialN'
p940
I1
sg17
S'return'
p941
sS'block.thisRepN'
p942
I0
sS'word_presentation_training.thisRepN'
p943
I0
sg367
Vwith hand drumming
p944
sg19
S'space'
p945
sg33
g43
sS'word4'
p946
Vyell
p947
sg45
g46
sS'word1'
p948
Vstare
p949
sS'word3'
p950
Vthank
p951
sS'word2'
p952
Vlike
p953
sg366
VHANDS
p954
sg16
F5.601896444295562
sg368
Vperform a simple drumming exercise with your hands
p955
sS'word_presentation_training.thisN'
p956
I0
sg44
g12
sS'block.thisIndex'
p957
g34
(g149
S'\x01\x00\x00\x00'
p958
tp959
Rp960
sS'type'
p961
Vtraining
p962
sS'training_block.thisIndex'
p963
g230
sg22
F7.178242373309331
sS'training_block.thisN'
p964
I0
sS'block.thisN'
p965
I1
sS'training_block.thisTrialN'
p966
I0
sg21
S'space'
p967
sg31
g32
sg47
g52
sS'word_presentation_training.thisIndex'
p968
g34
(g149
S'\x01\x00\x00\x00'
p969
tp970
Rp971
sS'word_presentation_training.thisTrialN'
p972
I0
sS'item'
p973
g34
(g409
S'\x02\x00\x00\x00\x00\x00\x00\x00'
p974
tp975
Rp976
sg15
S'space'
p977
sg20
F5.098630275544565
sg18
F272.5282184889693
sa(dp978
S'training_block.thisRepN'
p979
I0
sS'block.thisTrialN'
p980
I1
sS'block.thisRepN'
p981
I0
sS'word_presentation_training.thisRepN'
p982
I0
sg367
g944
sg33
g43
sg946
Vruin
p983
sg45
g46
sg948
Vchew
p984
sg950
Vsoothe
p985
sg952
Vlick
p986
sg366
g954
sg368
g955
sS'word_presentation_training.thisN'
p987
I1
sS'block.thisIndex'
p988
g960
sg961
g962
sS'training_block.thisIndex'
p989
g230
sg22
F16.36880464110982
sS'training_block.thisN'
p990
I0
sS'block.thisN'
p991
I1
sS'training_block.thisTrialN'
p992
I0
sg21
S'space'
p993
sg31
g32
sg47
g52
sS'word_presentation_training.thisIndex'
p994
g34
(g149
S'\x02\x00\x00\x00'
p995
tp996
Rp997
sS'word_presentation_training.thisTrialN'
p998
I1
sg973
g34
(g409
S'\x03\x00\x00\x00\x00\x00\x00\x00'
p999
tp1000
Rp1001
sg44
g12
sa(dp1002
S'training_block.thisRepN'
p1003
I0
sS'block.thisTrialN'
p1004
I1
sS'block.thisRepN'
p1005
I0
sS'word_presentation_training.thisRepN'
p1006
I0
sg367
g944
sg33
g43
sg946
Vlook
p1007
sg45
g46
sg948
Vstay
p1008
sg950
Vprint
p1009
sg952
Vsave
p1010
sg366
g954
sg368
g955
sS'word_presentation_training.thisN'
p1011
I2
sS'block.thisIndex'
p1012
g960
sg961
g962
sS'training_block.thisIndex'
p1013
g230
sg22
F17.542742696707137
sS'training_block.thisN'
p1014
I0
sS'block.thisN'
p1015
I1
sS'training_block.thisTrialN'
p1016
I0
sg21
S'space'
p1017
sg31
g32
sg47
g52
sS'word_presentation_training.thisIndex'
p1018
g34
(g149
S'\x03\x00\x00\x00'
p1019
tp1020
Rp1021
sS'word_presentation_training.thisTrialN'
p1022
I2
sg973
g34
(g409
S'\x04\x00\x00\x00\x00\x00\x00\x00'
p1023
tp1024
Rp1025
sg44
g12
sa(dp1026
S'training_block.thisRepN'
p1027
I0
sS'block.thisTrialN'
p1028
I1
sS'block.thisRepN'
p1029
I0
sS'word_presentation_training.thisRepN'
p1030
I0
sg367
g944
sg33
g43
sg946
Vwait
p1031
sg45
g46
sg948
Vblush
p1032
sg950
Vbless
p1033
sg952
Vsigh
p1034
sg366
g954
sg368
g955
sS'word_presentation_training.thisN'
p1035
I3
sS'block.thisIndex'
p1036
g960
sg961
g962
sS'training_block.thisIndex'
p1037
g230
sg22
F13.081739364752138
sS'training_block.thisN'
p1038
I0
sS'block.thisN'
p1039
I1
sS'training_block.thisTrialN'
p1040
I0
sg21
S'space'
p1041
sg31
g32
sg47
g52
sS'word_presentation_training.thisIndex'
p1042
g34
(g149
S'\x00\x00\x00\x00'
p1043
tp1044
Rp1045
sS'word_presentation_training.thisTrialN'
p1046
I3
sg973
g34
(g409
S'\x01\x00\x00\x00\x00\x00\x00\x00'
p1047
tp1048
Rp1049
sg44
g12
sa(dp1050
S'training_block.thisRepN'
p1051
I0
sS'block.thisTrialN'
p1052
I1
sS'block.thisRepN'
p1053
I0
sg367
g944
sg33
g43
sS'word4'
p1054
Vpull
p1055
sg45
g46
sS'word1'
p1056
Vbraid
p1057
sS'word3'
p1058
Vpat
p1059
sS'word2'
p1060
Vpeel
p1061
sg366
g954
sS'word_presentation.thisRepN'
p1062
I0
sg368
g955
sg47
g52
sg24
F2.884695333406853
sS'block.thisIndex'
p1063
g960
sS'type'
p1064
Varm
p1065
sS'training_block.thisIndex'
p1066
g230
sg22
F10.29868582787276
sS'training_block.thisN'
p1067
I0
sS'word_presentation.thisN'
p1068
I0
sg26
F1.2580298994798795
sS'block.thisN'
p1069
I1
sS'training_block.thisTrialN'
p1070
I0
sg21
S'space'
p1071
sg23
g188
sg31
g32
sS'word_presentation.thisTrialN'
p1072
I0
sS'item'
p1073
g34
(g409
S'\x01\x00\x00\x00\x00\x00\x00\x00'
p1074
tp1075
Rp1076
sg44
g12
sg25
S'space'
p1077
sS'word_presentation.thisIndex'
p1078
g34
(g149
S'\x00\x00\x00\x00'
p1079
tp1080
Rp1081
sa(dp1082
S'training_block.thisRepN'
p1083
I0
sS'block.thisTrialN'
p1084
I1
sS'block.thisRepN'
p1085
I0
sg367
g944
sg33
g43
sg1054
Vmount
p1086
sg45
g46
sg1056
Vlimp
p1087
sg1058
Vstride
p1088
sg1060
Vhop
p1089
sg366
g954
sS'word_presentation.thisRepN'
p1090
I0
sg368
g955
sg47
g52
sS'block.thisIndex'
p1091
g960
sg1064
Vleg
p1092
sS'training_block.thisIndex'
p1093
g230
sg22
F8.603877125835425
sS'training_block.thisN'
p1094
I0
sS'word_presentation.thisN'
p1095
I1
sS'block.thisN'
p1096
I1
sS'training_block.thisTrialN'
p1097
I0
sg21
S'space'
p1098
sg31
g32
sS'word_presentation.thisTrialN'
p1099
I1
sg1073
g34
(g409
S'\n\x00\x00\x00\x00\x00\x00\x00'
p1100
tp1101
Rp1102
sg44
g12
sS'word_presentation.thisIndex'
p1103
g34
(g149
S'\x01\x00\x00\x00'
p1104
tp1105
Rp1106
sa(dp1107
S'training_block.thisRepN'
p1108
I0
sS'block.thisTrialN'
p1109
I1
sS'block.thisRepN'
p1110
I0
sg367
g944
sg33
g43
sg1054
Vscrape
p1111
sg45
g46
sg1056
Vwhip
p1112
sg1058
Vthrow
p1113
sg1060
Vtoss
p1114
sg366
g954
sS'word_presentation.thisRepN'
p1115
I0
sg368
g955
sg47
g52
sS'block.thisIndex'
p1116
g960
sg1064
g1065
sS'training_block.thisIndex'
p1117
g230
sg22
F16.97248223688439
sS'training_block.thisN'
p1118
I0
sS'word_presentation.thisN'
p1119
I2
sS'block.thisN'
p1120
I1
sS'training_block.thisTrialN'
p1121
I0
sg21
S'space'
p1122
sg31
g32
sS'word_presentation.thisTrialN'
p1123
I2
sg1073
g34
(g409
S'\t\x00\x00\x00\x00\x00\x00\x00'
p1124
tp1125
Rp1126
sg44
g12
sS'word_presentation.thisIndex'
p1127
g34
(g149
S'\x02\x00\x00\x00'
p1128
tp1129
Rp1130
sa(dp1131
S'training_block.thisRepN'
p1132
I0
sS'block.thisTrialN'
p1133
I1
sS'block.thisRepN'
p1134
I0
sg367
g944
sg33
g43
sg1054
Vstomp
p1135
sg45
g46
sg1056
Vstumble
p1136
sg1058
Vglide
p1137
sg1060
Vcreep
p1138
sg366
g954
sS'word_presentation.thisRepN'
p1139
I0
sg368
g955
sg47
g52
sS'block.thisIndex'
p1140
g960
sg1064
g1092
sS'training_block.thisIndex'
p1141
g230
sg22
F22.1883682273874
sS'training_block.thisN'
p1142
I0
sS'word_presentation.thisN'
p1143
I3
sS'block.thisN'
p1144
I1
sS'training_block.thisTrialN'
p1145
I0
sg21
S'space'
p1146
sg31
g32
sS'word_presentation.thisTrialN'
p1147
I3
sg1073
g34
(g409
S'\x10\x00\x00\x00\x00\x00\x00\x00'
p1148
tp1149
Rp1150
sg44
g12
sS'word_presentation.thisIndex'
p1151
g34
(g149
S'\x03\x00\x00\x00'
p1152
tp1153
Rp1154
sa(dp1155
S'training_block.thisRepN'
p1156
I0
sS'block.thisTrialN'
p1157
I1
sS'block.thisRepN'
p1158
I0
sg367
g944
sg33
g43
sg1054
Vgrasp
p1159
sg45
g46
sg1056
Vgrip
p1160
sg1058
Vcatch
p1161
sg1060
Vseize
p1162
sg366
g954
sS'word_presentation.thisRepN'
p1163
I0
sg368
g955
sg47
g52
sS'block.thisIndex'
p1164
g960
sg1064
g1065
sS'training_block.thisIndex'
p1165
g230
sg22
F16.535843698031385
sS'training_block.thisN'
p1166
I0
sS'word_presentation.thisN'
p1167
I4
sS'block.thisN'
p1168
I1
sS'training_block.thisTrialN'
p1169
I0
sg21
S'space'
p1170
sg31
g32
sS'word_presentation.thisTrialN'
p1171
I4
sg1073
g34
(g409
S'\x04\x00\x00\x00\x00\x00\x00\x00'
p1172
tp1173
Rp1174
sg44
g12
sS'word_presentation.thisIndex'
p1175
g34
(g149
S'\x04\x00\x00\x00'
p1176
tp1177
Rp1178
sa(dp1179
S'training_block.thisRepN'
p1180
I0
sS'block.thisTrialN'
p1181
I1
sS'block.thisRepN'
p1182
I0
sg367
g944
sg33
g43
sg1054
Vtrot
p1183
sg45
g46
sg1056
Vsprint
p1184
sg1058
Vslide
p1185
sg1060
Vcrawl
p1186
sg366
g954
sS'word_presentation.thisRepN'
p1187
I0
sg368
g955
sg47
g52
sS'block.thisIndex'
p1188
g960
sg1064
g1092
sS'training_block.thisIndex'
p1189
g230
sg22
F13.266250537843007
sS'training_block.thisN'
p1190
I0
sS'word_presentation.thisN'
p1191
I5
sS'block.thisN'
p1192
I1
sS'training_block.thisTrialN'
p1193
I0
sg21
S'space'
p1194
sg31
g32
sS'word_presentation.thisTrialN'
p1195
I5
sg1073
g34
(g409
S'\x0f\x00\x00\x00\x00\x00\x00\x00'
p1196
tp1197
Rp1198
sg44
g12
sS'word_presentation.thisIndex'
p1199
g34
(g149
S'\x05\x00\x00\x00'
p1200
tp1201
Rp1202
sa(dp1203
S'training_block.thisRepN'
p1204
I0
sS'block.thisTrialN'
p1205
I1
sS'block.thisRepN'
p1206
I0
sg367
g944
sg33
g43
sg1054
Vstab
p1207
sg45
g46
sg1056
Vclean
p1208
sg1058
Vscratch
p1209
sg1060
Vhack
p1210
sg366
g954
sS'word_presentation.thisRepN'
p1211
I0
sg368
g955
sg47
g52
sS'block.thisIndex'
p1212
g960
sg1064
g1065
sS'training_block.thisIndex'
p1213
g230
sg22
F15.447265391176188
sS'training_block.thisN'
p1214
I0
sS'word_presentation.thisN'
p1215
I6
sS'block.thisN'
p1216
I1
sS'training_block.thisTrialN'
p1217
I0
sg21
S'space'
p1218
sg31
g32
sS'word_presentation.thisTrialN'
p1219
I6
sg1073
g34
(g409
S'\x05\x00\x00\x00\x00\x00\x00\x00'
p1220
tp1221
Rp1222
sg44
g12
sS'word_presentation.thisIndex'
p1223
g34
(g149
S'\x06\x00\x00\x00'
p1224
tp1225
Rp1226
sa(dp1227
S'training_block.thisRepN'
p1228
I0
sS'block.thisTrialN'
p1229
I1
sS'block.thisRepN'
p1230
I0
sg367
g944
sg33
g43
sg1054
Vkneel
p1231
sg45
g46
sg1056
Vwander
p1232
sg1058
Vclimb
p1233
sg1060
Vstamp
p1234
sg366
g954
sS'word_presentation.thisRepN'
p1235
I0
sg368
g955
sg47
g52
sS'block.thisIndex'
p1236
g960
sg1064
g1092
sS'training_block.thisIndex'
p1237
g230
sS'training_block.thisN'
p1238
I0
sS'word_presentation.thisN'
p1239
I7
sS'block.thisN'
p1240
I1
sS'training_block.thisTrialN'
p1241
I0
sg21
Nsg31
g32
sS'word_presentation.thisTrialN'
p1242
I7
sg1073
g34
(g409
S'\x0e\x00\x00\x00\x00\x00\x00\x00'
p1243
tp1244
Rp1245
sg44
g12
sS'word_presentation.thisIndex'
p1246
g34
(g149
S'\x07\x00\x00\x00'
p1247
tp1248
Rp1249
sa(dp1250
S'training_block.thisRepN'
p1251
I0
sS'block.thisTrialN'
p1252
I1
sS'block.thisRepN'
p1253
I0
sg367
g944
sg33
g43
sg1054
Vrub
p1254
sg45
g46
sg1056
Vswitch
p1255
sg1058
Vchop
p1256
sg1060
Vdunk
p1257
sg366
g954
sS'word_presentation.thisRepN'
p1258
I0
sg368
g955
sg47
g52
sS'block.thisIndex'
p1259
g960
sg1064
g1065
sS'training_block.thisIndex'
p1260
g230
sg22
F17.190530263967958
sS'training_block.thisN'
p1261
I0
sS'word_presentation.thisN'
p1262
I8
sS'block.thisN'
p1263
I1
sS'training_block.thisTrialN'
p1264
I0
sg21
S'space'
p1265
sg31
g32
sS'word_presentation.thisTrialN'
p1266
I8
sg1073
g34
(g409
S'\x02\x00\x00\x00\x00\x00\x00\x00'
p1267
tp1268
Rp1269
sg44
g12
sS'word_presentation.thisIndex'
p1270
g34
(g149
S'\x08\x00\x00\x00'
p1271
tp1272
Rp1273
sa(dp1274
S'training_block.thisRepN'
p1275
I0
sS'block.thisTrialN'
p1276
I1
sS'block.thisRepN'
p1277
I0
sg367
g944
sg33
g43
sg1054
Vdig
p1278
sg45
g46
sg1056
Vnip
p1279
sg1058
Vscrub
p1280
sg1060
Vknock
p1281
sg366
g954
sS'word_presentation.thisRepN'
p1282
I0
sg368
g955
sg47
g52
sS'block.thisIndex'
p1283
g960
sg1064
g1065
sS'training_block.thisIndex'
p1284
g230
sg22
F18.75029070146411
sS'training_block.thisN'
p1285
I0
sS'word_presentation.thisN'
p1286
I9
sS'block.thisN'
p1287
I1
sS'training_block.thisTrialN'
p1288
I0
sg21
S'space'
p1289
sg31
g32
sS'word_presentation.thisTrialN'
p1290
I9
sg1073
g34
(g409
S'\x07\x00\x00\x00\x00\x00\x00\x00'
p1291
tp1292
Rp1293
sg44
g12
sS'word_presentation.thisIndex'
p1294
g34
(g149
S'\t\x00\x00\x00'
p1295
tp1296
Rp1297
sa(dp1298
S'training_block.thisRepN'
p1299
I0
sS'block.thisTrialN'
p1300
I1
sS'block.thisRepN'
p1301
I0
sg367
g944
sg33
g43
sg1054
Vtread
p1302
sg45
g46
sg1056
Vhike
p1303
sg1058
Vtiptoe
p1304
sg1060
Vwade
p1305
sg366
g954
sS'word_presentation.thisRepN'
p1306
I0
sg368
g955
sg47
g52
sS'block.thisIndex'
p1307
g960
sg1064
g1092
sS'training_block.thisIndex'
p1308
g230
sg22
F14.389877385816362
sS'training_block.thisN'
p1309
I0
sS'word_presentation.thisN'
p1310
I10
sS'block.thisN'
p1311
I1
sS'training_block.thisTrialN'
p1312
I0
sg21
S'space'
p1313
sg31
g32
sS'word_presentation.thisTrialN'
p1314
I10
sg1073
g34
(g409
S'\r\x00\x00\x00\x00\x00\x00\x00'
p1315
tp1316
Rp1317
sg44
g12
sS'word_presentation.thisIndex'
p1318
g34
(g149
S'\n\x00\x00\x00'
p1319
tp1320
Rp1321
sa(dp1322
S'training_block.thisRepN'
p1323
I0
sS'block.thisTrialN'
p1324
I1
sS'block.thisRepN'
p1325
I0
sg367
g944
sg33
g43
sg1054
Vlift
p1326
sg45
g46
sg1056
Vbrush
p1327
sg1058
Vfold
p1328
sg1060
Vbind
p1329
sg366
g954
sS'word_presentation.thisRepN'
p1330
I0
sg368
g955
sg47
g52
sS'block.thisIndex'
p1331
g960
sg1064
g1065
sS'training_block.thisIndex'
p1332
g230
sg22
F21.46754515207067
sS'training_block.thisN'
p1333
I0
sS'word_presentation.thisN'
p1334
I11
sS'block.thisN'
p1335
I1
sS'training_block.thisTrialN'
p1336
I0
sg21
S'space'
p1337
sg31
g32
sS'word_presentation.thisTrialN'
p1338
I11
sg1073
g34
(g409
S'\x03\x00\x00\x00\x00\x00\x00\x00'
p1339
tp1340
Rp1341
sg44
g12
sS'word_presentation.thisIndex'
p1342
g34
(g149
S'\x0b\x00\x00\x00'
p1343
tp1344
Rp1345
sa(dp1346
S'training_block.thisRepN'
p1347
I0
sS'block.thisTrialN'
p1348
I1
sS'block.thisRepN'
p1349
I0
sg367
g944
sg33
g43
sg1054
Vwalk
p1350
sg45
g46
sg1056
Vstroll
p1351
sg1058
Vstep
p1352
sg1060
Vjump
p1353
sg366
g954
sS'word_presentation.thisRepN'
p1354
I0
sg368
g955
sg47
g52
sS'block.thisIndex'
p1355
g960
sg1064
g1092
sS'training_block.thisIndex'
p1356
g230
sg22
F4.813446113252212
sS'training_block.thisN'
p1357
I0
sS'word_presentation.thisN'
p1358
I12
sS'block.thisN'
p1359
I1
sS'training_block.thisTrialN'
p1360
I0
sg21
S'space'
p1361
sg31
g32
sS'word_presentation.thisTrialN'
p1362
I12
sg1073
g34
(g409
S'\x0c\x00\x00\x00\x00\x00\x00\x00'
p1363
tp1364
Rp1365
sg44
g12
sS'word_presentation.thisIndex'
p1366
g34
(g149
S'\x0c\x00\x00\x00'
p1367
tp1368
Rp1369
sa(dp1370
S'training_block.thisRepN'
p1371
I0
sS'block.thisTrialN'
p1372
I1
sS'block.thisRepN'
p1373
I0
sg367
g944
sg33
g43
sg1054
Vrun
p1374
sg45
g46
sg1056
Vjog
p1375
sg1058
Vflee
p1376
sg1060
Vkick
p1377
sg366
g954
sS'word_presentation.thisRepN'
p1378
I0
sg368
g955
sg47
g52
sS'block.thisIndex'
p1379
g960
sg1064
g1092
sS'training_block.thisIndex'
p1380
g230
sg22
F7.2286349733913084
sS'training_block.thisN'
p1381
I0
sS'word_presentation.thisN'
p1382
I13
sS'block.thisN'
p1383
I1
sS'training_block.thisTrialN'
p1384
I0
sg21
S'space'
p1385
sg31
g32
sS'word_presentation.thisTrialN'
p1386
I13
sg1073
g34
(g409
S'\x11\x00\x00\x00\x00\x00\x00\x00'
p1387
tp1388
Rp1389
sg44
g12
sS'word_presentation.thisIndex'
p1390
g34
(g149
S'\r\x00\x00\x00'
p1391
tp1392
Rp1393
sa(dp1394
S'training_block.thisRepN'
p1395
I0
sS'block.thisTrialN'
p1396
I1
sS'block.thisRepN'
p1397
I0
sg367
g944
sg33
g43
sg1054
Vstrut
p1398
sg45
g46
sg1056
Vdance
p1399
sg1058
Vskip
p1400
sg1060
Vpace
p1401
sg366
g954
sS'word_presentation.thisRepN'
p1402
I0
sg368
g955
sg47
g52
sS'block.thisIndex'
p1403
g960
sg1064
g1092
sS'training_block.thisIndex'
p1404
g230
sg22
F11.639532554416292
sS'training_block.thisN'
p1405
I0
sS'word_presentation.thisN'
p1406
I14
sS'block.thisN'
p1407
I1
sS'training_block.thisTrialN'
p1408
I0
sg21
S'space'
p1409
sg31
g32
sS'word_presentation.thisTrialN'
p1410
I14
sg1073
g34
(g409
S'\x0b\x00\x00\x00\x00\x00\x00\x00'
p1411
tp1412
Rp1413
sg44
g12
sS'word_presentation.thisIndex'
p1414
g34
(g149
S'\x0e\x00\x00\x00'
p1415
tp1416
Rp1417
sa(dp1418
S'training_block.thisRepN'
p1419
I0
sS'block.thisTrialN'
p1420
I1
sS'block.thisRepN'
p1421
I0
sg367
g944
sg33
g43
sg1054
Vstir
p1422
sg45
g46
sg1056
Vbash
p1423
sg1058
Vcarve
p1424
sg1060
Vwash
p1425
sg366
g954
sS'word_presentation.thisRepN'
p1426
I0
sg368
g955
sg47
g52
sS'block.thisIndex'
p1427
g960
sg1064
g1065
sS'training_block.thisIndex'
p1428
g230
sg22
F13.5182238110865
sS'training_block.thisN'
p1429
I0
sS'word_presentation.thisN'
p1430
I15
sS'block.thisN'
p1431
I1
sS'training_block.thisTrialN'
p1432
I0
sg21
S'space'
p1433
sg31
g32
sS'word_presentation.thisTrialN'
p1434
I15
sg1073
g34
(g409
S'\x06\x00\x00\x00\x00\x00\x00\x00'
p1435
tp1436
Rp1437
sg44
g12
sS'word_presentation.thisIndex'
p1438
g34
(g149
S'\x0f\x00\x00\x00'
p1439
tp1440
Rp1441
sa(dp1442
S'training_block.thisRepN'
p1443
I0
sS'block.thisTrialN'
p1444
I1
sS'block.thisRepN'
p1445
I0
sg367
g944
sg33
g43
sg1054
Vclick
p1446
sg45
g46
sg1056
Vclap
p1447
sg1058
Vwipe
p1448
sg1060
Vgrab
p1449
sg366
g954
sS'word_presentation.thisRepN'
p1450
I0
sg368
g955
sg47
g52
sS'block.thisIndex'
p1451
g960
sg1064
g1065
sS'training_block.thisIndex'
p1452
g230
sg22
F13.86996606408502
sS'training_block.thisN'
p1453
I0
sS'word_presentation.thisN'
p1454
I16
sS'block.thisN'
p1455
I1
sS'training_block.thisTrialN'
p1456
I0
sg21
S'space'
p1457
sg31
g32
sS'word_presentation.thisTrialN'
p1458
I16
sg1073
g34
(g409
S'\x08\x00\x00\x00\x00\x00\x00\x00'
p1459
tp1460
Rp1461
sg44
g12
sS'word_presentation.thisIndex'
p1462
g34
(g149
S'\x10\x00\x00\x00'
p1463
tp1464
Rp1465
sa(dp1466
S'training_block.thisRepN'
p1467
I0
sS'block.thisTrialN'
p1468
I1
sS'block.thisRepN'
p1469
I0
sg367
g944
sg33
g43
sg1054
Vstray
p1470
sg45
g46
sg1056
Vleap
p1471
sg1058
Vslip
p1472
sg1060
Vskate
p1473
sg366
g954
sS'word_presentation.thisRepN'
p1474
I0
sg368
g955
sg47
g52
sS'block.thisIndex'
p1475
g960
sg1064
g1092
sS'training_block.thisIndex'
p1476
g230
sg22
F19.16936387842179
sS'training_block.thisN'
p1477
I0
sS'word_presentation.thisN'
p1478
I17
sS'block.thisN'
p1479
I1
sS'training_block.thisTrialN'
p1480
I0
sg21
S'space'
p1481
sg31
g32
sS'word_presentation.thisTrialN'
p1482
I17
sg1073
g34
(g409
S'\x12\x00\x00\x00\x00\x00\x00\x00'
p1483
tp1484
Rp1485
sg44
g12
sS'word_presentation.thisIndex'
p1486
g34
(g149
S'\x11\x00\x00\x00'
p1487
tp1488
Rp1489
sa(dp1490
S'training_block.thisRepN'
p1491
I0
sS'block.thisTrialN'
p1492
I1
sS'block.thisRepN'
p1493
I0
sg45
g46
sg368
g955
sg367
g944
sg47
g52
sS'block.thisN'
p1494
I1
sS'training_block.thisTrialN'
p1495
I0
sg33
g43
sg44
g12
sg31
g32
sS'training_block.thisN'
p1496
I0
sS'block.thisIndex'
p1497
g960
sg366
g954
sS'training_block.thisIndex'
p1498
g230
sa(dp1499
S'training_block.thisRepN'
p1500
I0
sS'block.thisTrialN'
p1501
I2
sg17
S'return'
p1502
sS'block.thisRepN'
p1503
I0
sS'word_presentation_training.thisRepN'
p1504
I0
sg367
Vwhile you wait silently
p1505
sg19
S'space'
p1506
sg33
g43
sS'word4'
p1507
Vchew
p1508
sg45
g46
sS'word1'
p1509
Vruin
p1510
sS'word3'
p1511
Vlick
p1512
sS'word2'
p1513
Vsoothe
p1514
sg366
VSILENT
p1515
sg16
F8.721364769788124
sg368
Vwait silently
p1516
sS'word_presentation_training.thisN'
p1517
I0
sg44
g12
sS'block.thisIndex'
p1518
g34
(g149
S'\x00\x00\x00\x00'
p1519
tp1520
Rp1521
sS'type'
p1522
Vtraining
p1523
sS'training_block.thisIndex'
p1524
g294
sg22
F12.729503620581454
sS'training_block.thisN'
p1525
I0
sS'block.thisN'
p1526
I2
sS'training_block.thisTrialN'
p1527
I0
sg21
S'space'
p1528
sg31
g32
sg47
g52
sS'word_presentation_training.thisIndex'
p1529
g34
(g149
S'\x02\x00\x00\x00'
p1530
tp1531
Rp1532
sS'word_presentation_training.thisTrialN'
p1533
I0
sS'item'
p1534
g34
(g409
S'\x03\x00\x00\x00\x00\x00\x00\x00'
p1535
tp1536
Rp1537
sg15
S'space'
p1538
sg20
F2.8513753942697804
sg18
F18.683301941920945
sa(dp1539
S'training_block.thisRepN'
p1540
I0
sS'block.thisTrialN'
p1541
I2
sS'block.thisRepN'
p1542
I0
sS'word_presentation_training.thisRepN'
p1543
I0
sg367
g1505
sg33
g43
sg1507
Vsave
p1544
sg45
g46
sg1509
Vlook
p1545
sg1511
Vstay
p1546
sg1513
Vprint
p1547
sg366
g1515
sg368
g1516
sS'word_presentation_training.thisN'
p1548
I1
sS'block.thisIndex'
p1549
g1521
sg1522
g1523
sS'training_block.thisIndex'
p1550
g294
sg22
F4.545665713267226
sS'training_block.thisN'
p1551
I0
sS'block.thisN'
p1552
I2
sS'training_block.thisTrialN'
p1553
I0
sg21
S'space'
p1554
sg31
g32
sg47
g52
sS'word_presentation_training.thisIndex'
p1555
g34
(g149
S'\x03\x00\x00\x00'
p1556
tp1557
Rp1558
sS'word_presentation_training.thisTrialN'
p1559
I1
sg1534
g34
(g409
S'\x04\x00\x00\x00\x00\x00\x00\x00'
p1560
tp1561
Rp1562
sg44
g12
sa(dp1563
S'training_block.thisRepN'
p1564
I0
sS'block.thisTrialN'
p1565
I2
sS'block.thisRepN'
p1566
I0
sS'word_presentation_training.thisRepN'
p1567
I0
sg367
g1505
sg33
g43
sg1507
Vbless
p1568
sg45
g46
sg1509
Vwait
p1569
sg1511
Vsigh
p1570
sg1513
Vblush
p1571
sg366
g1515
sg368
g1516
sS'word_presentation_training.thisN'
p1572
I2
sS'block.thisIndex'
p1573
g1521
sg1522
g1523
sS'training_block.thisIndex'
p1574
g294
sg22
F17.677022079087692
sS'training_block.thisN'
p1575
I0
sS'block.thisN'
p1576
I2
sS'training_block.thisTrialN'
p1577
I0
sg21
S'space'
p1578
sg31
g32
sg47
g52
sS'word_presentation_training.thisIndex'
p1579
g34
(g149
S'\x00\x00\x00\x00'
p1580
tp1581
Rp1582
sS'word_presentation_training.thisTrialN'
p1583
I2
sg1534
g34
(g409
S'\x01\x00\x00\x00\x00\x00\x00\x00'
p1584
tp1585
Rp1586
sg44
g12
sa(dp1587
S'training_block.thisRepN'
p1588
I0
sS'block.thisTrialN'
p1589
I2
sS'block.thisRepN'
p1590
I0
sS'word_presentation_training.thisRepN'
p1591
I0
sg367
g1505
sg33
g43
sg1507
Vyell
p1592
sg45
g46
sg1509
Vthank
p1593
sg1511
Vlike
p1594
sg1513
Vstare
p1595
sg366
g1515
sg368
g1516
sS'word_presentation_training.thisN'
p1596
I3
sS'block.thisIndex'
p1597
g1521
sg1522
g1523
sS'training_block.thisIndex'
p1598
g294
sg22
F24.552359650360813
sS'training_block.thisN'
p1599
I0
sS'block.thisN'
p1600
I2
sS'training_block.thisTrialN'
p1601
I0
sg21
S'space'
p1602
sg31
g32
sg47
g52
sS'word_presentation_training.thisIndex'
p1603
g34
(g149
S'\x01\x00\x00\x00'
p1604
tp1605
Rp1606
sS'word_presentation_training.thisTrialN'
p1607
I3
sg1534
g34
(g409
S'\x02\x00\x00\x00\x00\x00\x00\x00'
p1608
tp1609
Rp1610
sg44
g12
sa(dp1611
S'training_block.thisRepN'
p1612
I0
sS'block.thisTrialN'
p1613
I2
sS'block.thisRepN'
p1614
I0
sg367
g1505
sg33
g43
sS'word4'
p1615
Vclimb
p1616
sg45
g46
sS'word1'
p1617
Vstamp
p1618
sS'word3'
p1619
Vwander
p1620
sS'word2'
p1621
Vkneel
p1622
sg366
g1515
sS'word_presentation.thisRepN'
p1623
I0
sg368
g1516
sg47
g52
sg24
F15.56380556368822
sS'block.thisIndex'
p1624
g1521
sS'type'
p1625
Vleg
p1626
sS'training_block.thisIndex'
p1627
g294
sg22
F13.417115806851143
sS'training_block.thisN'
p1628
I0
sS'word_presentation.thisN'
p1629
I0
sg26
F7.011444728001152
sS'block.thisN'
p1630
I2
sS'training_block.thisTrialN'
p1631
I0
sg21
S'space'
p1632
sg23
g252
sg31
g32
sS'word_presentation.thisTrialN'
p1633
I0
sS'item'
p1634
g34
(g409
S'\x0e\x00\x00\x00\x00\x00\x00\x00'
p1635
tp1636
Rp1637
sg44
g12
sg25
S'space'
p1638
sS'word_presentation.thisIndex'
p1639
g34
(g149
S'\x00\x00\x00\x00'
p1640
tp1641
Rp1642
sa(dp1643
S'training_block.thisRepN'
p1644
I0
sS'block.thisTrialN'
p1645
I2
sS'block.thisRepN'
p1646
I0
sg367
g1505
sg33
g43
sg1615
Vleap
p1647
sg45
g46
sg1617
Vstray
p1648
sg1619
Vslip
p1649
sg1621
Vskate
p1650
sg366
g1515
sS'word_presentation.thisRepN'
p1651
I0
sg368
g1516
sg47
g52
sS'block.thisIndex'
p1652
g1521
sg1625
g1626
sS'training_block.thisIndex'
p1653
g294
sg22
F23.714747483845713
sS'training_block.thisN'
p1654
I0
sS'word_presentation.thisN'
p1655
I1
sS'block.thisN'
p1656
I2
sS'training_block.thisTrialN'
p1657
I0
sg21
S'space'
p1658
sg31
g32
sS'word_presentation.thisTrialN'
p1659
I1
sg1634
g34
(g409
S'\x12\x00\x00\x00\x00\x00\x00\x00'
p1660
tp1661
Rp1662
sg44
g12
sS'word_presentation.thisIndex'
p1663
g34
(g149
S'\x01\x00\x00\x00'
p1664
tp1665
Rp1666
sa(dp1667
S'training_block.thisRepN'
p1668
I0
sS'block.thisTrialN'
p1669
I2
sS'block.thisRepN'
p1670
I0
sg367
g1505
sg33
g43
sg1615
Vhack
p1671
sg45
g46
sg1617
Vstab
p1672
sg1619
Vscratch
p1673
sg1621
Vclean
p1674
sg366
g1515
sS'word_presentation.thisRepN'
p1675
I0
sg368
g1516
sg47
g52
sS'block.thisIndex'
p1676
g1521
sg1625
Varm
p1677
sS'training_block.thisIndex'
p1678
g294
sg22
F18.48232736600221
sS'training_block.thisN'
p1679
I0
sS'word_presentation.thisN'
p1680
I2
sS'block.thisN'
p1681
I2
sS'training_block.thisTrialN'
p1682
I0
sg21
S'space'
p1683
sg31
g32
sS'word_presentation.thisTrialN'
p1684
I2
sg1634
g34
(g409
S'\x05\x00\x00\x00\x00\x00\x00\x00'
p1685
tp1686
Rp1687
sg44
g12
sS'word_presentation.thisIndex'
p1688
g34
(g149
S'\x02\x00\x00\x00'
p1689
tp1690
Rp1691
sa(dp1692
S'training_block.thisRepN'
p1693
I0
sS'block.thisTrialN'
p1694
I2
sS'block.thisRepN'
p1695
I0
sg367
g1505
sg33
g43
sg1615
Vgrip
p1696
sg45
g46
sg1617
Vseize
p1697
sg1619
Vcatch
p1698
sg1621
Vgrasp
p1699
sg366
g1515
sS'word_presentation.thisRepN'
p1700
I0
sg368
g1516
sg47
g52
sS'block.thisIndex'
p1701
g1521
sg1625
g1677
sS'training_block.thisIndex'
p1702
g294
sg22
F22.875770215654484
sS'training_block.thisN'
p1703
I0
sS'word_presentation.thisN'
p1704
I3
sS'block.thisN'
p1705
I2
sS'training_block.thisTrialN'
p1706
I0
sg21
S'space'
p1707
sg31
g32
sS'word_presentation.thisTrialN'
p1708
I3
sg1634
g34
(g409
S'\x04\x00\x00\x00\x00\x00\x00\x00'
p1709
tp1710
Rp1711
sg44
g12
sS'word_presentation.thisIndex'
p1712
g34
(g149
S'\x03\x00\x00\x00'
p1713
tp1714
Rp1715
sa(dp1716
S'training_block.thisRepN'
p1717
I0
sS'block.thisTrialN'
p1718
I2
sS'block.thisRepN'
p1719
I0
sg367
g1505
sg33
g43
sg1615
Vthrow
p1720
sg45
g46
sg1617
Vtoss
p1721
sg1619
Vwhip
p1722
sg1621
Vscrape
p1723
sg366
g1515
sS'word_presentation.thisRepN'
p1724
I0
sg368
g1516
sg47
g52
sS'block.thisIndex'
p1725
g1521
sg1625
g1677
sS'training_block.thisIndex'
p1726
g294
sg22
F7.698251286969025
sS'training_block.thisN'
p1727
I0
sS'word_presentation.thisN'
p1728
I4
sS'block.thisN'
p1729
I2
sS'training_block.thisTrialN'
p1730
I0
sg21
S'space'
p1731
sg31
g32
sS'word_presentation.thisTrialN'
p1732
I4
sg1634
g34
(g409
S'\t\x00\x00\x00\x00\x00\x00\x00'
p1733
tp1734
Rp1735
sg44
g12
sS'word_presentation.thisIndex'
p1736
g34
(g149
S'\x04\x00\x00\x00'
p1737
tp1738
Rp1739
sa(dp1740
S'training_block.thisRepN'
p1741
I0
sS'block.thisTrialN'
p1742
I2
sS'block.thisRepN'
p1743
I0
sg367
g1505
sg33
g43
sg1615
Vmount
p1744
sg45
g46
sg1617
Vstride
p1745
sg1619
Vhop
p1746
sg1621
Vlimp
p1747
sg366
g1515
sS'word_presentation.thisRepN'
p1748
I0
sg368
g1516
sg47
g52
sS'block.thisIndex'
p1749
g1521
sg1625
g1626
sS'training_block.thisIndex'
p1750
g294
sg22
F11.404617323081766
sS'training_block.thisN'
p1751
I0
sS'word_presentation.thisN'
p1752
I5
sS'block.thisN'
p1753
I2
sS'training_block.thisTrialN'
p1754
I0
sg21
S'space'
p1755
sg31
g32
sS'word_presentation.thisTrialN'
p1756
I5
sg1634
g34
(g409
S'\n\x00\x00\x00\x00\x00\x00\x00'
p1757
tp1758
Rp1759
sg44
g12
sS'word_presentation.thisIndex'
p1760
g34
(g149
S'\x05\x00\x00\x00'
p1761
tp1762
Rp1763
sa(dp1764
S'training_block.thisRepN'
p1765
I0
sS'block.thisTrialN'
p1766
I2
sS'block.thisRepN'
p1767
I0
sg367
g1505
sg33
g43
sg1615
Vcarve
p1768
sg45
g46
sg1617
Vstir
p1769
sg1619
Vwash
p1770
sg1621
Vbash
p1771
sg366
g1515
sS'word_presentation.thisRepN'
p1772
I0
sg368
g1516
sg47
g52
sS'block.thisIndex'
p1773
g1521
sg1625
g1677
sS'training_block.thisIndex'
p1774
g294
sg22
F4.780040435456613
sS'training_block.thisN'
p1775
I0
sS'word_presentation.thisN'
p1776
I6
sS'block.thisN'
p1777
I2
sS'training_block.thisTrialN'
p1778
I0
sg21
S'space'
p1779
sg31
g32
sS'word_presentation.thisTrialN'
p1780
I6
sg1634
g34
(g409
S'\x06\x00\x00\x00\x00\x00\x00\x00'
p1781
tp1782
Rp1783
sg44
g12
sS'word_presentation.thisIndex'
p1784
g34
(g149
S'\x06\x00\x00\x00'
p1785
tp1786
Rp1787
sa(dp1788
S'training_block.thisRepN'
p1789
I0
sS'block.thisTrialN'
p1790
I2
sS'block.thisRepN'
p1791
I0
sg367
g1505
sg33
g43
sg1615
Vhike
p1792
sg45
g46
sg1617
Vwade
p1793
sg1619
Vtread
p1794
sg1621
Vtiptoe
p1795
sg366
g1515
sS'word_presentation.thisRepN'
p1796
I0
sg368
g1516
sg47
g52
sS'block.thisIndex'
p1797
g1521
sg1625
g1626
sS'training_block.thisIndex'
p1798
g294
sg22
F9.862247214185118
sS'training_block.thisN'
p1799
I0
sS'word_presentation.thisN'
p1800
I7
sS'block.thisN'
p1801
I2
sS'training_block.thisTrialN'
p1802
I0
sg21
S'space'
p1803
sg31
g32
sS'word_presentation.thisTrialN'
p1804
I7
sg1634
g34
(g409
S'\r\x00\x00\x00\x00\x00\x00\x00'
p1805
tp1806
Rp1807
sg44
g12
sS'word_presentation.thisIndex'
p1808
g34
(g149
S'\x07\x00\x00\x00'
p1809
tp1810
Rp1811
sa(dp1812
S'training_block.thisRepN'
p1813
I0
sS'block.thisTrialN'
p1814
I2
sS'block.thisRepN'
p1815
I0
sg367
g1505
sg33
g43
sg1615
Vknock
p1816
sg45
g46
sg1617
Vdig
p1817
sg1619
Vnip
p1818
sg1621
Vscrub
p1819
sg366
g1515
sS'word_presentation.thisRepN'
p1820
I0
sg368
g1516
sg47
g52
sS'block.thisIndex'
p1821
g1521
sg1625
g1677
sS'training_block.thisIndex'
p1822
g294
sg22
F26.598998714709523
sS'training_block.thisN'
p1823
I0
sS'word_presentation.thisN'
p1824
I8
sS'block.thisN'
p1825
I2
sS'training_block.thisTrialN'
p1826
I0
sg21
S'space'
p1827
sg31
g32
sS'word_presentation.thisTrialN'
p1828
I8
sg1634
g34
(g409
S'\x07\x00\x00\x00\x00\x00\x00\x00'
p1829
tp1830
Rp1831
sg44
g12
sS'word_presentation.thisIndex'
p1832
g34
(g149
S'\x08\x00\x00\x00'
p1833
tp1834
Rp1835
sa(dp1836
S'training_block.thisRepN'
p1837
I0
sS'block.thisTrialN'
p1838
I2
sS'block.thisRepN'
p1839
I0
sg367
g1505
sg33
g43
sg1615
Vstumble
p1840
sg45
g46
sg1617
Vglide
p1841
sg1619
Vstomp
p1842
sg1621
Vcreep
p1843
sg366
g1515
sS'word_presentation.thisRepN'
p1844
I0
sg368
g1516
sg47
g52
sS'block.thisIndex'
p1845
g1521
sg1625
g1626
sS'training_block.thisIndex'
p1846
g294
sg22
F11.991203292680439
sS'training_block.thisN'
p1847
I0
sS'word_presentation.thisN'
p1848
I9
sS'block.thisN'
p1849
I2
sS'training_block.thisTrialN'
p1850
I0
sg21
S'space'
p1851
sg31
g32
sS'word_presentation.thisTrialN'
p1852
I9
sg1634
g34
(g409
S'\x10\x00\x00\x00\x00\x00\x00\x00'
p1853
tp1854
Rp1855
sg44
g12
sS'word_presentation.thisIndex'
p1856
g34
(g149
S'\t\x00\x00\x00'
p1857
tp1858
Rp1859
sa(dp1860
S'training_block.thisRepN'
p1861
I0
sS'block.thisTrialN'
p1862
I2
sS'block.thisRepN'
p1863
I0
sg367
g1505
sg33
g43
sg1615
Vdunk
p1864
sg45
g46
sg1617
Vchop
p1865
sg1619
Vrub
p1866
sg1621
Vswitch
p1867
sg366
g1515
sS'word_presentation.thisRepN'
p1868
I0
sg368
g1516
sg47
g52
sS'block.thisIndex'
p1869
g1521
sg1625
g1677
sS'training_block.thisIndex'
p1870
g294
sg22
F18.247206677975555
sS'training_block.thisN'
p1871
I0
sS'word_presentation.thisN'
p1872
I10
sS'block.thisN'
p1873
I2
sS'training_block.thisTrialN'
p1874
I0
sg21
S'space'
p1875
sg31
g32
sS'word_presentation.thisTrialN'
p1876
I10
sg1634
g34
(g409
S'\x02\x00\x00\x00\x00\x00\x00\x00'
p1877
tp1878
Rp1879
sg44
g12
sS'word_presentation.thisIndex'
p1880
g34
(g149
S'\n\x00\x00\x00'
p1881
tp1882
Rp1883
sa(dp1884
S'training_block.thisRepN'
p1885
I0
sS'block.thisTrialN'
p1886
I2
sS'block.thisRepN'
p1887
I0
sg367
g1505
sg33
g43
sg1615
Vcrawl
p1888
sg45
g46
sg1617
Vtrot
p1889
sg1619
Vsprint
p1890
sg1621
Vslide
p1891
sg366
g1515
sS'word_presentation.thisRepN'
p1892
I0
sg368
g1516
sg47
g52
sS'block.thisIndex'
p1893
g1521
sg1625
g1626
sS'training_block.thisIndex'
p1894
g294
sg22
F3.8746485011342884
sS'training_block.thisN'
p1895
I0
sS'word_presentation.thisN'
p1896
I11
sS'block.thisN'
p1897
I2
sS'training_block.thisTrialN'
p1898
I0
sg21
S'space'
p1899
sg31
g32
sS'word_presentation.thisTrialN'
p1900
I11
sg1634
g34
(g409
S'\x0f\x00\x00\x00\x00\x00\x00\x00'
p1901
tp1902
Rp1903
sg44
g12
sS'word_presentation.thisIndex'
p1904
g34
(g149
S'\x0b\x00\x00\x00'
p1905
tp1906
Rp1907
sa(dp1908
S'training_block.thisRepN'
p1909
I0
sS'block.thisTrialN'
p1910
I2
sS'block.thisRepN'
p1911
I0
sg367
g1505
sg33
g43
sg1615
Vstroll
p1912
sg45
g46
sg1617
Vwalk
p1913
sg1619
Vjump
p1914
sg1621
Vstep
p1915
sg366
g1515
sS'word_presentation.thisRepN'
p1916
I0
sg368
g1516
sg47
g52
sS'block.thisIndex'
p1917
g1521
sg1625
g1626
sS'training_block.thisIndex'
p1918
g294
sg22
F19.035935560879807
sS'training_block.thisN'
p1919
I0
sS'word_presentation.thisN'
p1920
I12
sS'block.thisN'
p1921
I2
sS'training_block.thisTrialN'
p1922
I0
sg21
S'space'
p1923
sg31
g32
sS'word_presentation.thisTrialN'
p1924
I12
sg1634
g34
(g409
S'\x0c\x00\x00\x00\x00\x00\x00\x00'
p1925
tp1926
Rp1927
sg44
g12
sS'word_presentation.thisIndex'
p1928
g34
(g149
S'\x0c\x00\x00\x00'
p1929
tp1930
Rp1931
sa(dp1932
S'training_block.thisRepN'
p1933
I0
sS'block.thisTrialN'
p1934
I2
sS'block.thisRepN'
p1935
I0
sg367
g1505
sg33
g43
sg1615
Vfold
p1936
sg45
g46
sg1617
Vlift
p1937
sg1619
Vbrush
p1938
sg1621
Vbind
p1939
sg366
g1515
sS'word_presentation.thisRepN'
p1940
I0
sg368
g1516
sg47
g52
sS'block.thisIndex'
p1941
g1521
sg1625
g1677
sS'training_block.thisIndex'
p1942
g294
sg22
F18.51547266694979
sS'training_block.thisN'
p1943
I0
sS'word_presentation.thisN'
p1944
I13
sS'block.thisN'
p1945
I2
sS'training_block.thisTrialN'
p1946
I0
sg21
S'space'
p1947
sg31
g32
sS'word_presentation.thisTrialN'
p1948
I13
sg1634
g34
(g409
S'\x03\x00\x00\x00\x00\x00\x00\x00'
p1949
tp1950
Rp1951
sg44
g12
sS'word_presentation.thisIndex'
p1952
g34
(g149
S'\r\x00\x00\x00'
p1953
tp1954
Rp1955
sa(dp1956
S'training_block.thisRepN'
p1957
I0
sS'block.thisTrialN'
p1958
I2
sS'block.thisRepN'
p1959
I0
sg367
g1505
sg33
g43
sg1615
Vflee
p1960
sg45
g46
sg1617
Vkick
p1961
sg1619
Vjog
p1962
sg1621
Vrun
p1963
sg366
g1515
sS'word_presentation.thisRepN'
p1964
I0
sg368
g1516
sg47
g52
sS'block.thisIndex'
p1965
g1521
sg1625
g1626
sS'training_block.thisIndex'
p1966
g294
sg22
F8.117725894695468
sS'training_block.thisN'
p1967
I0
sS'word_presentation.thisN'
p1968
I14
sS'block.thisN'
p1969
I2
sS'training_block.thisTrialN'
p1970
I0
sg21
S'space'
p1971
sg31
g32
sS'word_presentation.thisTrialN'
p1972
I14
sg1634
g34
(g409
S'\x11\x00\x00\x00\x00\x00\x00\x00'
p1973
tp1974
Rp1975
sg44
g12
sS'word_presentation.thisIndex'
p1976
g34
(g149
S'\x0e\x00\x00\x00'
p1977
tp1978
Rp1979
sa(dp1980
S'training_block.thisRepN'
p1981
I0
sS'block.thisTrialN'
p1982
I2
sS'block.thisRepN'
p1983
I0
sg367
g1505
sg33
g43
sg1615
Vwipe
p1984
sg45
g46
sg1617
Vclap
p1985
sg1619
Vgrab
p1986
sg1621
Vclick
p1987
sg366
g1515
sS'word_presentation.thisRepN'
p1988
I0
sg368
g1516
sg47
g52
sS'block.thisIndex'
p1989
g1521
sg1625
g1677
sS'training_block.thisIndex'
p1990
g294
sg22
F11.169798893459301
sS'training_block.thisN'
p1991
I0
sS'word_presentation.thisN'
p1992
I15
sS'block.thisN'
p1993
I2
sS'training_block.thisTrialN'
p1994
I0
sg21
S'space'
p1995
sg31
g32
sS'word_presentation.thisTrialN'
p1996
I15
sg1634
g34
(g409
S'\x08\x00\x00\x00\x00\x00\x00\x00'
p1997
tp1998
Rp1999
sg44
g12
sS'word_presentation.thisIndex'
p2000
g34
(g149
S'\x0f\x00\x00\x00'
p2001
tp2002
Rp2003
sa(dp2004
S'training_block.thisRepN'
p2005
I0
sS'block.thisTrialN'
p2006
I2
sS'block.thisRepN'
p2007
I0
sg367
g1505
sg33
g43
sg1615
Vdance
p2008
sg45
g46
sg1617
Vskip
p2009
sg1619
Vstrut
p2010
sg1621
Vpace
p2011
sg366
g1515
sS'word_presentation.thisRepN'
p2012
I0
sg368
g1516
sg47
g52
sS'block.thisIndex'
p2013
g1521
sg1625
g1626
sS'training_block.thisIndex'
p2014
g294
sg22
F3.052874674973282
sS'training_block.thisN'
p2015
I0
sS'word_presentation.thisN'
p2016
I16
sS'block.thisN'
p2017
I2
sS'training_block.thisTrialN'
p2018
I0
sg21
S'space'
p2019
sg31
g32
sS'word_presentation.thisTrialN'
p2020
I16
sg1634
g34
(g409
S'\x0b\x00\x00\x00\x00\x00\x00\x00'
p2021
tp2022
Rp2023
sg44
g12
sS'word_presentation.thisIndex'
p2024
g34
(g149
S'\x10\x00\x00\x00'
p2025
tp2026
Rp2027
sa(dp2028
S'training_block.thisRepN'
p2029
I0
sS'block.thisTrialN'
p2030
I2
sS'block.thisRepN'
p2031
I0
sg367
g1505
sg33
g43
sg1615
Vpull
p2032
sg45
g46
sg1617
Vpat
p2033
sg1619
Vbraid
p2034
sg1621
Vpeel
p2035
sg366
g1515
sS'word_presentation.thisRepN'
p2036
I0
sg368
g1516
sg47
g52
sS'block.thisIndex'
p2037
g1521
sg1625
g1677
sS'training_block.thisIndex'
p2038
g294
sg22
F3.8915002961330174
sS'training_block.thisN'
p2039
I0
sS'word_presentation.thisN'
p2040
I17
sS'block.thisN'
p2041
I2
sS'training_block.thisTrialN'
p2042
I0
sg21
S'space'
p2043
sg31
g32
sS'word_presentation.thisTrialN'
p2044
I17
sg1634
g34
(g409
S'\x01\x00\x00\x00\x00\x00\x00\x00'
p2045
tp2046
Rp2047
sg44
g12
sS'word_presentation.thisIndex'
p2048
g34
(g149
S'\x11\x00\x00\x00'
p2049
tp2050
Rp2051
sa(dp2052
S'training_block.thisRepN'
p2053
I0
sS'block.thisTrialN'
p2054
I2
sS'block.thisRepN'
p2055
I0
sg45
g46
sg368
g1516
sg367
g1505
sg47
g52
sS'block.thisN'
p2056
I2
sS'training_block.thisTrialN'
p2057
I0
sg33
g43
sg44
g12
sg31
g32
sS'training_block.thisN'
p2058
I0
sS'block.thisIndex'
p2059
g1521
sg366
g1515
sS'training_block.thisIndex'
p2060
g294
sa(dp2061
S'training_block.thisRepN'
p2062
I0
sS'block.thisTrialN'
p2063
I3
sg17
S'return'
p2064
sS'block.thisRepN'
p2065
I0
sS'word_presentation_training.thisRepN'
p2066
I0
sg367
Vwith foot drumming
p2067
sg19
S'space'
p2068
sg33
g43
sS'word4'
p2069
Vlick
p2070
sg45
g46
sS'word1'
p2071
Vchew
p2072
sS'word3'
p2073
Vruin
p2074
sS'word2'
p2075
Vsoothe
p2076
sg366
VFEET
p2077
sg16
F0.9898852089754655
sg368
Vperform a simple drumming exercise with your feet
p2078
sS'word_presentation_training.thisN'
p2079
I0
sg44
g12
sS'block.thisIndex'
p2080
g34
(g149
S'\x02\x00\x00\x00'
p2081
tp2082
Rp2083
sS'type'
p2084
Vtraining
p2085
sS'training_block.thisIndex'
p2086
g358
sg22
F4.679408142485045
sS'training_block.thisN'
p2087
I0
sS'block.thisN'
p2088
I3
sS'training_block.thisTrialN'
p2089
I0
sg21
S'space'
p2090
sg31
g32
sg47
g52
sS'word_presentation_training.thisIndex'
p2091
g34
(g149
S'\x02\x00\x00\x00'
p2092
tp2093
Rp2094
sS'word_presentation_training.thisTrialN'
p2095
I0
sS'item'
p2096
g34
(g409
S'\x03\x00\x00\x00\x00\x00\x00\x00'
p2097
tp2098
Rp2099
sg15
S'space'
p2100
sg20
F1.0569387663999805
sg18
F4.31035655823689
sa(dp2101
S'training_block.thisRepN'
p2102
I0
sS'block.thisTrialN'
p2103
I3
sS'block.thisRepN'
p2104
I0
sS'word_presentation_training.thisRepN'
p2105
I0
sg367
g2067
sg33
g43
sg2069
Vyell
p2106
sg45
g46
sg2071
Vlike
p2107
sg2073
Vstare
p2108
sg2075
Vthank
p2109
sg366
g2077
sg368
g2078
sS'word_presentation_training.thisN'
p2110
I1
sS'block.thisIndex'
p2111
g2083
sg2084
g2085
sS'training_block.thisIndex'
p2112
g358
sg22
F8.956218759223702
sS'training_block.thisN'
p2113
I0
sS'block.thisN'
p2114
I3
sS'training_block.thisTrialN'
p2115
I0
sg21
S'space'
p2116
sg31
g32
sg47
g52
sS'word_presentation_training.thisIndex'
p2117
g34
(g149
S'\x01\x00\x00\x00'
p2118
tp2119
Rp2120
sS'word_presentation_training.thisTrialN'
p2121
I1
sg2096
g34
(g409
S'\x02\x00\x00\x00\x00\x00\x00\x00'
p2122
tp2123
Rp2124
sg44
g12
sa(dp2125
S'training_block.thisRepN'
p2126
I0
sS'block.thisTrialN'
p2127
I3
sS'block.thisRepN'
p2128
I0
sS'word_presentation_training.thisRepN'
p2129
I0
sg367
g2067
sg33
g43
sg2069
Vblush
p2130
sg45
g46
sg2071
Vwait
p2131
sg2073
Vbless
p2132
sg2075
Vsigh
p2133
sg366
g2077
sg368
g2078
sS'word_presentation_training.thisN'
p2134
I2
sS'block.thisIndex'
p2135
g2083
sg2084
g2085
sS'training_block.thisIndex'
p2136
g358
sg22
F8.922481189847531
sS'training_block.thisN'
p2137
I0
sS'block.thisN'
p2138
I3
sS'training_block.thisTrialN'
p2139
I0
sg21
S'space'
p2140
sg31
g32
sg47
g52
sS'word_presentation_training.thisIndex'
p2141
g34
(g149
S'\x00\x00\x00\x00'
p2142
tp2143
Rp2144
sS'word_presentation_training.thisTrialN'
p2145
I2
sg2096
g34
(g409
S'\x01\x00\x00\x00\x00\x00\x00\x00'
p2146
tp2147
Rp2148
sg44
g12
sa(dp2149
S'training_block.thisRepN'
p2150
I0
sS'block.thisTrialN'
p2151
I3
sS'block.thisRepN'
p2152
I0
sS'word_presentation_training.thisRepN'
p2153
I0
sg367
g2067
sg33
g43
sg2069
Vprint
p2154
sg45
g46
sg2071
Vstay
p2155
sg2073
Vlook
p2156
sg2075
Vsave
p2157
sg366
g2077
sg368
g2078
sS'word_presentation_training.thisN'
p2158
I3
sS'block.thisIndex'
p2159
g2083
sg2084
g2085
sS'training_block.thisIndex'
p2160
g358
sg22
F13.18233096149379
sS'training_block.thisN'
p2161
I0
sS'block.thisN'
p2162
I3
sS'training_block.thisTrialN'
p2163
I0
sg21
S'space'
p2164
sg31
g32
sg47
g52
sS'word_presentation_training.thisIndex'
p2165
g34
(g149
S'\x03\x00\x00\x00'
p2166
tp2167
Rp2168
sS'word_presentation_training.thisTrialN'
p2169
I3
sg2096
g34
(g409
S'\x04\x00\x00\x00\x00\x00\x00\x00'
p2170
tp2171
Rp2172
sg44
g12
sa(dp2173
S'training_block.thisRepN'
p2174
I0
sS'block.thisTrialN'
p2175
I3
sS'block.thisRepN'
p2176
I0
sg367
g2067
sg33
g43
sS'word4'
p2177
Vjog
p2178
sg45
g46
sS'word1'
p2179
Vrun
p2180
sS'word3'
p2181
Vflee
p2182
sS'word2'
p2183
Vkick
p2184
sg366
g2077
sS'word_presentation.thisRepN'
p2185
I0
sg368
g2078
sg47
g52
sg24
F3.622802452995529
sS'block.thisIndex'
p2186
g2083
sS'type'
p2187
Vleg
p2188
sS'training_block.thisIndex'
p2189
g358
sg22
F16.301694583095014
sS'training_block.thisN'
p2190
I0
sS'word_presentation.thisN'
p2191
I0
sg26
F0.7551782000973617
sS'block.thisN'
p2192
I3
sS'training_block.thisTrialN'
p2193
I0
sg21
S'space'
p2194
sg23
g316
sg31
g32
sS'word_presentation.thisTrialN'
p2195
I0
sS'item'
p2196
g34
(g409
S'\x11\x00\x00\x00\x00\x00\x00\x00'
p2197
tp2198
Rp2199
sg44
g12
sg25
S'space'
p2200
sS'word_presentation.thisIndex'
p2201
g34
(g149
S'\x00\x00\x00\x00'
p2202
tp2203
Rp2204
sa(dp2205
S'training_block.thisRepN'
p2206
I0
sS'block.thisTrialN'
p2207
I3
sS'block.thisRepN'
p2208
I0
sg367
g2067
sg33
g43
sg2177
Vwash
p2209
sg45
g46
sg2179
Vcarve
p2210
sg2181
Vstir
p2211
sg2183
Vbash
p2212
sg366
g2077
sS'word_presentation.thisRepN'
p2213
I0
sg368
g2078
sg47
g52
sS'block.thisIndex'
p2214
g2083
sg2187
Varm
p2215
sS'training_block.thisIndex'
p2216
g358
sg22
F22.506971106071433
sS'training_block.thisN'
p2217
I0
sS'word_presentation.thisN'
p2218
I1
sS'block.thisN'
p2219
I3
sS'training_block.thisTrialN'
p2220
I0
sg21
S'space'
p2221
sg31
g32
sS'word_presentation.thisTrialN'
p2222
I1
sg2196
g34
(g409
S'\x06\x00\x00\x00\x00\x00\x00\x00'
p2223
tp2224
Rp2225
sg44
g12
sS'word_presentation.thisIndex'
p2226
g34
(g149
S'\x01\x00\x00\x00'
p2227
tp2228
Rp2229
sa(dp2230
S'training_block.thisRepN'
p2231
I0
sS'block.thisTrialN'
p2232
I3
sS'block.thisRepN'
p2233
I0
sg367
g2067
sg33
g43
sg2177
Vpat
p2234
sg45
g46
sg2179
Vpeel
p2235
sg2181
Vbraid
p2236
sg2183
Vpull
p2237
sg366
g2077
sS'word_presentation.thisRepN'
p2238
I0
sg368
g2078
sg47
g52
sS'block.thisIndex'
p2239
g2083
sg2187
g2215
sS'training_block.thisIndex'
p2240
g358
sg22
F27.622786253523373
sS'training_block.thisN'
p2241
I0
sS'word_presentation.thisN'
p2242
I2
sS'block.thisN'
p2243
I3
sS'training_block.thisTrialN'
p2244
I0
sg21
S'space'
p2245
sg31
g32
sS'word_presentation.thisTrialN'
p2246
I2
sg2196
g34
(g409
S'\x01\x00\x00\x00\x00\x00\x00\x00'
p2247
tp2248
Rp2249
sg44
g12
sS'word_presentation.thisIndex'
p2250
g34
(g149
S'\x02\x00\x00\x00'
p2251
tp2252
Rp2253
sa(dp2254
S'training_block.thisRepN'
p2255
I0
sS'block.thisTrialN'
p2256
I3
sS'block.thisRepN'
p2257
I0
sg367
g2067
sg33
g43
sg2177
Vstep
p2258
sg45
g46
sg2179
Vwalk
p2259
sg2181
Vstroll
p2260
sg2183
Vjump
p2261
sg366
g2077
sS'word_presentation.thisRepN'
p2262
I0
sg368
g2078
sg47
g52
sS'block.thisIndex'
p2263
g2083
sg2187
g2188
sS'training_block.thisIndex'
p2264
g358
sg22
F17.425010875376756
sS'training_block.thisN'
p2265
I0
sS'word_presentation.thisN'
p2266
I3
sS'block.thisN'
p2267
I3
sS'training_block.thisTrialN'
p2268
I0
sg21
S'space'
p2269
sg31
g32
sS'word_presentation.thisTrialN'
p2270
I3
sg2196
g34
(g409
S'\x0c\x00\x00\x00\x00\x00\x00\x00'
p2271
tp2272
Rp2273
sg44
g12
sS'word_presentation.thisIndex'
p2274
g34
(g149
S'\x03\x00\x00\x00'
p2275
tp2276
Rp2277
sa(dp2278
S'training_block.thisRepN'
p2279
I0
sS'block.thisTrialN'
p2280
I3
sS'block.thisRepN'
p2281
I0
sg367
g2067
sg33
g43
sg2177
Vnip
p2282
sg45
g46
sg2179
Vscrub
p2283
sg2181
Vdig
p2284
sg2183
Vknock
p2285
sg366
g2077
sS'word_presentation.thisRepN'
p2286
I0
sg368
g2078
sg47
g52
sS'block.thisIndex'
p2287
g2083
sg2187
g2215
sS'training_block.thisIndex'
p2288
g358
sg22
F9.660303830936755
sS'training_block.thisN'
p2289
I0
sS'word_presentation.thisN'
p2290
I4
sS'block.thisN'
p2291
I3
sS'training_block.thisTrialN'
p2292
I0
sg21
S'space'
p2293
sg31
g32
sS'word_presentation.thisTrialN'
p2294
I4
sg2196
g34
(g409
S'\x07\x00\x00\x00\x00\x00\x00\x00'
p2295
tp2296
Rp2297
sg44
g12
sS'word_presentation.thisIndex'
p2298
g34
(g149
S'\x04\x00\x00\x00'
p2299
tp2300
Rp2301
sa(dp2302
S'training_block.thisRepN'
p2303
I0
sS'block.thisTrialN'
p2304
I3
sS'block.thisRepN'
p2305
I0
sg367
g2067
sg33
g43
sg2177
Vwade
p2306
sg45
g46
sg2179
Vhike
p2307
sg2181
Vtiptoe
p2308
sg2183
Vtread
p2309
sg366
g2077
sS'word_presentation.thisRepN'
p2310
I0
sg368
g2078
sg47
g52
sS'block.thisIndex'
p2311
g2083
sg2187
g2188
sS'training_block.thisIndex'
p2312
g358
sg22
F11.55645456028833
sS'training_block.thisN'
p2313
I0
sS'word_presentation.thisN'
p2314
I5
sS'block.thisN'
p2315
I3
sS'training_block.thisTrialN'
p2316
I0
sg21
S'space'
p2317
sg31
g32
sS'word_presentation.thisTrialN'
p2318
I5
sg2196
g34
(g409
S'\r\x00\x00\x00\x00\x00\x00\x00'
p2319
tp2320
Rp2321
sg44
g12
sS'word_presentation.thisIndex'
p2322
g34
(g149
S'\x05\x00\x00\x00'
p2323
tp2324
Rp2325
sa(dp2326
S'training_block.thisRepN'
p2327
I0
sS'block.thisTrialN'
p2328
I3
sS'block.thisRepN'
p2329
I0
sg367
g2067
sg33
g43
sg2177
Vgrasp
p2330
sg45
g46
sg2179
Vcatch
p2331
sg2181
Vgrip
p2332
sg2183
Vseize
p2333
sg366
g2077
sS'word_presentation.thisRepN'
p2334
I0
sg368
g2078
sg47
g52
sS'block.thisIndex'
p2335
g2083
sg2187
g2215
sS'training_block.thisIndex'
p2336
g358
sg22
F11.572300407713556
sS'training_block.thisN'
p2337
I0
sS'word_presentation.thisN'
p2338
I6
sS'block.thisN'
p2339
I3
sS'training_block.thisTrialN'
p2340
I0
sg21
S'space'
p2341
sg31
g32
sS'word_presentation.thisTrialN'
p2342
I6
sg2196
g34
(g409
S'\x04\x00\x00\x00\x00\x00\x00\x00'
p2343
tp2344
Rp2345
sg44
g12
sS'word_presentation.thisIndex'
p2346
g34
(g149
S'\x06\x00\x00\x00'
p2347
tp2348
Rp2349
sa(dp2350
S'training_block.thisRepN'
p2351
I0
sS'block.thisTrialN'
p2352
I3
sS'block.thisRepN'
p2353
I0
sg367
g2067
sg33
g43
sg2177
Vwipe
p2354
sg45
g46
sg2179
Vclap
p2355
sg2181
Vclick
p2356
sg2183
Vgrab
p2357
sg366
g2077
sS'word_presentation.thisRepN'
p2358
I0
sg368
g2078
sg47
g52
sS'block.thisIndex'
p2359
g2083
sg2187
g2215
sS'training_block.thisIndex'
p2360
g358
sg22
F11.991531628278608
sS'training_block.thisN'
p2361
I0
sS'word_presentation.thisN'
p2362
I7
sS'block.thisN'
p2363
I3
sS'training_block.thisTrialN'
p2364
I0
sg21
S'space'
p2365
sg31
g32
sS'word_presentation.thisTrialN'
p2366
I7
sg2196
g34
(g409
S'\x08\x00\x00\x00\x00\x00\x00\x00'
p2367
tp2368
Rp2369
sg44
g12
sS'word_presentation.thisIndex'
p2370
g34
(g149
S'\x07\x00\x00\x00'
p2371
tp2372
Rp2373
sa(dp2374
S'training_block.thisRepN'
p2375
I0
sS'block.thisTrialN'
p2376
I3
sS'block.thisRepN'
p2377
I0
sg367
g2067
sg33
g43
sg2177
Vmount
p2378
sg45
g46
sg2179
Vstride
p2379
sg2181
Vlimp
p2380
sg2183
Vhop
p2381
sg366
g2077
sS'word_presentation.thisRepN'
p2382
I0
sg368
g2078
sg47
g52
sS'block.thisIndex'
p2383
g2083
sg2187
g2188
sS'training_block.thisIndex'
p2384
g358
sg22
F13.886195167264304
sS'training_block.thisN'
p2385
I0
sS'word_presentation.thisN'
p2386
I8
sS'block.thisN'
p2387
I3
sS'training_block.thisTrialN'
p2388
I0
sg21
S'space'
p2389
sg31
g32
sS'word_presentation.thisTrialN'
p2390
I8
sg2196
g34
(g409
S'\n\x00\x00\x00\x00\x00\x00\x00'
p2391
tp2392
Rp2393
sg44
g12
sS'word_presentation.thisIndex'
p2394
g34
(g149
S'\x08\x00\x00\x00'
p2395
tp2396
Rp2397
sa(dp2398
S'training_block.thisRepN'
p2399
I0
sS'block.thisTrialN'
p2400
I3
sS'block.thisRepN'
p2401
I0
sg367
g2067
sg33
g43
sg2177
Vtrot
p2402
sg45
g46
sg2179
Vcrawl
p2403
sg2181
Vslide
p2404
sg2183
Vsprint
p2405
sg366
g2077
sS'word_presentation.thisRepN'
p2406
I0
sg368
g2078
sg47
g52
sS'block.thisIndex'
p2407
g2083
sg2187
g2188
sS'training_block.thisIndex'
p2408
g358
sg22
F14.406644627484638
sS'training_block.thisN'
p2409
I0
sS'word_presentation.thisN'
p2410
I9
sS'block.thisN'
p2411
I3
sS'training_block.thisTrialN'
p2412
I0
sg21
S'space'
p2413
sg31
g32
sS'word_presentation.thisTrialN'
p2414
I9
sg2196
g34
(g409
S'\x0f\x00\x00\x00\x00\x00\x00\x00'
p2415
tp2416
Rp2417
sg44
g12
sS'word_presentation.thisIndex'
p2418
g34
(g149
S'\t\x00\x00\x00'
p2419
tp2420
Rp2421
sa(dp2422
S'training_block.thisRepN'
p2423
I0
sS'block.thisTrialN'
p2424
I3
sS'block.thisRepN'
p2425
I0
sg367
g2067
sg33
g43
sg2177
Vhack
p2426
sg45
g46
sg2179
Vstab
p2427
sg2181
Vclean
p2428
sg2183
Vscratch
p2429
sg366
g2077
sS'word_presentation.thisRepN'
p2430
I0
sg368
g2078
sg47
g52
sS'block.thisIndex'
p2431
g2083
sg2187
g2215
sS'training_block.thisIndex'
p2432
g358
sg22
F12.361684381379746
sS'training_block.thisN'
p2433
I0
sS'word_presentation.thisN'
p2434
I10
sS'block.thisN'
p2435
I3
sS'training_block.thisTrialN'
p2436
I0
sg21
S'space'
p2437
sg31
g32
sS'word_presentation.thisTrialN'
p2438
I10
sg2196
g34
(g409
S'\x05\x00\x00\x00\x00\x00\x00\x00'
p2439
tp2440
Rp2441
sg44
g12
sS'word_presentation.thisIndex'
p2442
g34
(g149
S'\n\x00\x00\x00'
p2443
tp2444
Rp2445
sa(dp2446
S'training_block.thisRepN'
p2447
I0
sS'block.thisTrialN'
p2448
I3
sS'block.thisRepN'
p2449
I0
sg367
g2067
sg33
g43
sg2177
Vwander
p2450
sg45
g46
sg2179
Vkneel
p2451
sg2181
Vstamp
p2452
sg2183
Vclimb
p2453
sg366
g2077
sS'word_presentation.thisRepN'
p2454
I0
sg368
g2078
sg47
g52
sS'block.thisIndex'
p2455
g2083
sg2187
g2188
sS'training_block.thisIndex'
p2456
g358
sg22
F15.295852501059926
sS'training_block.thisN'
p2457
I0
sS'word_presentation.thisN'
p2458
I11
sS'block.thisN'
p2459
I3
sS'training_block.thisTrialN'
p2460
I0
sg21
S'space'
p2461
sg31
g32
sS'word_presentation.thisTrialN'
p2462
I11
sg2196
g34
(g409
S'\x0e\x00\x00\x00\x00\x00\x00\x00'
p2463
tp2464
Rp2465
sg44
g12
sS'word_presentation.thisIndex'
p2466
g34
(g149
S'\x0b\x00\x00\x00'
p2467
tp2468
Rp2469
sa(dp2470
S'training_block.thisRepN'
p2471
I0
sS'block.thisTrialN'
p2472
I3
sS'block.thisRepN'
p2473
I0
sg367
g2067
sg33
g43
sg2177
Vrub
p2474
sg45
g46
sg2179
Vswitch
p2475
sg2181
Vdunk
p2476
sg2183
Vchop
p2477
sg366
g2077
sS'word_presentation.thisRepN'
p2478
I0
sg368
g2078
sg47
g52
sS'block.thisIndex'
p2479
g2083
sg2187
g2215
sS'training_block.thisIndex'
p2480
g358
sg22
F8.922584708410795
sS'training_block.thisN'
p2481
I0
sS'word_presentation.thisN'
p2482
I12
sS'block.thisN'
p2483
I3
sS'training_block.thisTrialN'
p2484
I0
sg21
S'space'
p2485
sg31
g32
sS'word_presentation.thisTrialN'
p2486
I12
sg2196
g34
(g409
S'\x02\x00\x00\x00\x00\x00\x00\x00'
p2487
tp2488
Rp2489
sg44
g12
sS'word_presentation.thisIndex'
p2490
g34
(g149
S'\x0c\x00\x00\x00'
p2491
tp2492
Rp2493
sa(dp2494
S'training_block.thisRepN'
p2495
I0
sS'block.thisTrialN'
p2496
I3
sS'block.thisRepN'
p2497
I0
sg367
g2067
sg33
g43
sg2177
Vdance
p2498
sg45
g46
sg2179
Vstrut
p2499
sg2181
Vpace
p2500
sg2183
Vskip
p2501
sg366
g2077
sS'word_presentation.thisRepN'
p2502
I0
sg368
g2078
sg47
g52
sS'block.thisIndex'
p2503
g2083
sg2187
g2188
sS'training_block.thisIndex'
p2504
g358
sg22
F23.428847779112402
sS'training_block.thisN'
p2505
I0
sS'word_presentation.thisN'
p2506
I13
sS'block.thisN'
p2507
I3
sS'training_block.thisTrialN'
p2508
I0
sg21
S'space'
p2509
sg31
g32
sS'word_presentation.thisTrialN'
p2510
I13
sg2196
g34
(g409
S'\x0b\x00\x00\x00\x00\x00\x00\x00'
p2511
tp2512
Rp2513
sg44
g12
sS'word_presentation.thisIndex'
p2514
g34
(g149
S'\r\x00\x00\x00'
p2515
tp2516
Rp2517
sa(dp2518
S'training_block.thisRepN'
p2519
I0
sS'block.thisTrialN'
p2520
I3
sS'block.thisRepN'
p2521
I0
sg367
g2067
sg33
g43
sg2177
Vglide
p2522
sg45
g46
sg2179
Vstomp
p2523
sg2181
Vcreep
p2524
sg2183
Vstumble
p2525
sg366
g2077
sS'word_presentation.thisRepN'
p2526
I0
sg368
g2078
sg47
g52
sS'block.thisIndex'
p2527
g2083
sg2187
g2188
sS'training_block.thisIndex'
p2528
g358
sg22
F15.49695311675714
sS'training_block.thisN'
p2529
I0
sS'word_presentation.thisN'
p2530
I14
sS'block.thisN'
p2531
I3
sS'training_block.thisTrialN'
p2532
I0
sg21
S'space'
p2533
sg31
g32
sS'word_presentation.thisTrialN'
p2534
I14
sg2196
g34
(g409
S'\x10\x00\x00\x00\x00\x00\x00\x00'
p2535
tp2536
Rp2537
sg44
g12
sS'word_presentation.thisIndex'
p2538
g34
(g149
S'\x0e\x00\x00\x00'
p2539
tp2540
Rp2541
sa(dp2542
S'training_block.thisRepN'
p2543
I0
sS'block.thisTrialN'
p2544
I3
sS'block.thisRepN'
p2545
I0
sg367
g2067
sg33
g43
sg2177
Vleap
p2546
sg45
g46
sg2179
Vslip
p2547
sg2181
Vskate
p2548
sg2183
Vstray
p2549
sg366
g2077
sS'word_presentation.thisRepN'
p2550
I0
sg368
g2078
sg47
g52
sS'block.thisIndex'
p2551
g2083
sg2187
g2188
sS'training_block.thisIndex'
p2552
g358
sg22
F17.173817547345607
sS'training_block.thisN'
p2553
I0
sS'word_presentation.thisN'
p2554
I15
sS'block.thisN'
p2555
I3
sS'training_block.thisTrialN'
p2556
I0
sg21
S'space'
p2557
sg31
g32
sS'word_presentation.thisTrialN'
p2558
I15
sg2196
g34
(g409
S'\x12\x00\x00\x00\x00\x00\x00\x00'
p2559
tp2560
Rp2561
sg44
g12
sS'word_presentation.thisIndex'
p2562
g34
(g149
S'\x0f\x00\x00\x00'
p2563
tp2564
Rp2565
sa(dp2566
S'training_block.thisRepN'
p2567
I0
sS'block.thisTrialN'
p2568
I3
sS'block.thisRepN'
p2569
I0
sg367
g2067
sg33
g43
sg2177
Vwhip
p2570
sg45
g46
sg2179
Vtoss
p2571
sg2181
Vthrow
p2572
sg2183
Vscrape
p2573
sg366
g2077
sS'word_presentation.thisRepN'
p2574
I0
sg368
g2078
sg47
g52
sS'block.thisIndex'
p2575
g2083
sg2187
g2215
sS'training_block.thisIndex'
p2576
g358
sg22
F19.270221778648192
sS'training_block.thisN'
p2577
I0
sS'word_presentation.thisN'
p2578
I16
sS'block.thisN'
p2579
I3
sS'training_block.thisTrialN'
p2580
I0
sg21
S'space'
p2581
sg31
g32
sS'word_presentation.thisTrialN'
p2582
I16
sg2196
g34
(g409
S'\t\x00\x00\x00\x00\x00\x00\x00'
p2583
tp2584
Rp2585
sg44
g12
sS'word_presentation.thisIndex'
p2586
g34
(g149
S'\x10\x00\x00\x00'
p2587
tp2588
Rp2589
sa(dp2590
S'training_block.thisRepN'
p2591
I0
sS'block.thisTrialN'
p2592
I3
sS'block.thisRepN'
p2593
I0
sg367
g2067
sg33
g43
sg2177
Vbind
p2594
sg45
g46
sg2179
Vlift
p2595
sg2181
Vfold
p2596
sg2183
Vbrush
p2597
sg366
g2077
sS'word_presentation.thisRepN'
p2598
I0
sg368
g2078
sg47
g52
sS'block.thisIndex'
p2599
g2083
sg2187
g2215
sS'training_block.thisIndex'
p2600
g358
sg22
F17.49243188419132
sS'training_block.thisN'
p2601
I0
sS'word_presentation.thisN'
p2602
I17
sS'block.thisN'
p2603
I3
sS'training_block.thisTrialN'
p2604
I0
sg21
S'space'
p2605
sg31
g32
sS'word_presentation.thisTrialN'
p2606
I17
sg2196
g34
(g409
S'\x03\x00\x00\x00\x00\x00\x00\x00'
p2607
tp2608
Rp2609
sg44
g12
sS'word_presentation.thisIndex'
p2610
g34
(g149
S'\x11\x00\x00\x00'
p2611
tp2612
Rp2613
sa(dp2614
S'training_block.thisRepN'
p2615
I0
sS'block.thisTrialN'
p2616
I3
sS'block.thisRepN'
p2617
I0
sg45
g46
sg368
g2078
sg367
g2067
sg47
g52
sS'block.thisN'
p2618
I3
sS'training_block.thisTrialN'
p2619
I0
sg33
g43
sg44
g12
sg31
g32
sS'training_block.thisN'
p2620
I0
sS'block.thisIndex'
p2621
g2083
sg366
g2077
sS'training_block.thisIndex'
p2622
g358
sa(dp2623
S'training_block.thisRepN'
p2624
I0
sS'training_block.thisN'
p2625
I0
sg45
g46
sg47
g52
sg33
g43
sS'training_block.thisTrialN'
p2626
I0
sg44
g12
sg31
g32
sg27
NsS'training_block.thisIndex'
p2627
g358
sasS'loops'
p2628
(lp2629
g0
(g55
g2
Ntp2630
Rp2631
(dp2632
g59
Nsg60
(lp2633
sg61
I346892112
sg11
S'block'
p2634
sg6
I-1
sg63
I1
sg28
I01
sg29
g30
sg64
g0
(g65
g66
(dp2635
g17
g91
(g71
(I0
tp2636
g73
tp2637
Rp2638
(I1
(I4
I1
tp2639
g98
I00
(lp2640
g1502
ag941
ag2064
ag380
atp2641
bsg68
g69
(g70
g71
g72
g73
tp2642
Rp2643
(I1
(I4
I1
tp2644
g79
I00
S'\x00\x00\x80?\x00\x00\x80?\x00\x00\x80?\x00\x00\x80?'
p2645
S'\x00\x00\x00\x00'
p2646
Ntp2647
bsg26
g69
(g70
g71
g72
g73
tp2648
Rp2649
(I1
(I4
I1
tp2650
g79
I00
S'\xc1]\xe0@ \x07\xa1?\\SA?>\x0e\xf9?'
p2651
S'\x00\x00\x00\x00'
p2652
Ntp2653
bsg19
g91
(g71
(I0
tp2654
g73
tp2655
Rp2656
(I1
(I4
I1
tp2657
g98
I00
(lp2658
g1506
ag945
ag2068
ag384
atp2659
bsg15
g91
(g71
(I0
tp2660
g73
tp2661
Rp2662
(I1
(I4
I1
tp2663
g98
I00
(lp2664
g1538
ag977
ag2100
ag415
atp2665
bsg25
g91
(g71
(I0
tp2666
g73
tp2667
Rp2668
(I1
(I4
I1
tp2669
g98
I00
(lp2670
g1638
ag1077
ag2200
ag515
atp2671
bsg18
g69
(g70
g71
g72
g73
tp2672
Rp2673
(I1
(I4
I1
tp2674
g79
I00
S'gw\x95A\x9dC\x88Cq\xee\x89@*%\xec@'
p2675
S'\x00\x00\x00\x00'
p2676
Ntp2677
bsg123
g69
(g70
g71
g72
g73
tp2678
Rp2679
(I1
(I4
I1
tp2680
g79
I00
S'\x00\x00\x00@\x00\x00\x80?\x00\x00@@\x00\x00\x00\x00'
p2681
S'\x00\x00\x00\x00'
p2682
Ntp2683
bsg20
g69
(g70
g71
g72
g73
tp2684
Rp2685
(I1
(I4
I1
tp2686
g79
I00
S"\xef|6@\xfb'\xa3@\xc5I\x87?\x11\xd9\xa5@"
p2687
S'\x00\x00\x00\x00'
p2688
Ntp2689
bsg16
g69
(g70
g71
g72
g73
tp2690
Rp2691
(I1
(I4
I1
tp2692
g79
I00
S'\xb6\x8a\x0bA\xbcB\xb3@\x1ei}?\xc3\xc0xA'
p2693
S'\x00\x00\x00\x00'
p2694
Ntp2695
bstp2696
Rp2697
(dp2698
g133
(dp2699
g17
I00
sg68
I01
sg26
I01
sg19
I00
sg15
I00
sg25
I00
sg18
I01
sg123
I01
sg20
I01
sg16
I01
ssg135
g2631
sg136
(lp2700
g68
ag123
ag15
ag16
ag17
ag18
ag19
ag20
ag25
ag26
asg138
(lp2701
I4
aI1
asbsg140
g141
sg142
g91
(g71
(I0
tp2702
g73
tp2703
Rp2704
(I1
(I4
I1
tp2705
g149
I00
S'\x03\x00\x00\x00\x01\x00\x00\x00\x00\x00\x00\x00\x02\x00\x00\x00'
p2706
tp2707
bsg154
I01
sg155
I1
sg156
I-1
sg157
(lp2708
ccollections
OrderedDict
p2709
((lp2710
(lp2711
g366
ag1515
aa(lp2712
g367
ag1505
aa(lp2713
g368
ag1516
aatp2714
Rp2715
ag2709
((lp2716
(lp2717
g366
ag954
aa(lp2718
g367
ag944
aa(lp2719
g368
ag955
aatp2720
Rp2721
ag2709
((lp2722
(lp2723
g366
ag2077
aa(lp2724
g367
ag2067
aa(lp2725
g368
ag2078
aatp2726
Rp2727
ag2709
((lp2728
(lp2729
g366
ag389
aa(lp2730
g367
ag383
aa(lp2731
g368
ag390
aatp2732
Rp2733
asg159
Nsg160
g2083
sg164
I4
sg165
I0
sg166
I4
sbag57
ag0
(g55
g2
Ntp2734
Rp2735
(dp2736
g59
Nsg60
(lp2737
sg61
I346892112
sg11
S'word_presentation_training'
p2738
sg6
I-1
sg63
I1
sg28
I01
sg29
g30
sg64
g0
(g65
g66
(dp2739
g68
g69
(g70
g71
g72
g73
tp2740
Rp2741
(I1
(I4
I1
tp2742
g79
I00
S'\x00\x00\x80?\x00\x00\x80?\x00\x00\x80?\x00\x00\x80?'
p2743
S'\x00\x00\x00\x00'
p2744
Ntp2745
bsg22
g69
(g70
g71
g72
g73
tp2746
Rp2747
(I1
(I4
I1
tp2748
g79
I00
S"\x13\xb9^A\xdd\x19\x05A\xfc'aA\x06\x0f\xcaA"
p2749
S'\x00\x00\x00\x00'
p2750
Ntp2751
bsg123
g69
(g70
g71
g72
g73
tp2752
Rp2753
(I1
(I4
I1
tp2754
g79
I00
S'\x00\x00\x80?\x00\x00@@\x00\x00\x00@\x00\x00\x00\x00'
p2755
S'\x00\x00\x00\x00'
p2756
Ntp2757
bsg21
g91
(g71
(I0
tp2758
g73
tp2759
Rp2760
(I1
(I4
I1
tp2761
g98
I00
(lp2762
g431
ag479
ag455
ag401
atp2763
bstp2764
Rp2765
(dp2766
g133
(dp2767
g68
I01
sg22
I01
sg123
I01
sg21
I00
ssg135
g2735
sg136
(lp2768
g68
ag123
ag21
ag22
asg138
(lp2769
I4
aI1
asbsg140
g141
sg142
g91
(g71
(I0
tp2770
g73
tp2771
Rp2772
(I1
(I4
I1
tp2773
g149
I00
S'\x03\x00\x00\x00\x00\x00\x00\x00\x02\x00\x00\x00\x01\x00\x00\x00'
p2774
tp2775
bsg154
I01
sg155
I1
sg156
I-1
sg157
(lp2776
g2709
((lp2777
(lp2778
g369
ag439
aa(lp2779
g370
ag396
aa(lp2780
g371
ag422
aa(lp2781
g372
ag424
aa(lp2782
g373
ag423
aa(lp2783
g374
ag421
aatp2784
Rp2785
ag2709
((lp2786
(lp2787
g369
ag487
aa(lp2788
g370
ag396
aa(lp2789
g371
ag470
aa(lp2790
g372
ag472
aa(lp2791
g373
ag471
aa(lp2792
g374
ag469
aatp2793
Rp2794
ag2709
((lp2795
(lp2796
g369
ag463
aa(lp2797
g370
ag396
aa(lp2798
g371
ag446
aa(lp2799
g372
ag448
aa(lp2800
g373
ag447
aa(lp2801
g374
ag445
aatp2802
Rp2803
ag2709
((lp2804
(lp2805
g369
ag414
aa(lp2806
g370
ag396
aa(lp2807
g371
ag386
aa(lp2808
g372
ag388
aa(lp2809
g373
ag387
aa(lp2810
g374
ag385
aatp2811
Rp2812
asg159
Nsg160
g483
sg164
I4
sg165
I0
sg166
I4
sbag0
(g55
g2
Ntp2813
Rp2814
(dp2815
g59
Nsg60
(lp2816
sg61
I346892112
sg11
S'word_presentation'
p2817
sg6
I-1
sg63
I1
sg28
I01
sg29
g30
sg64
g0
(g65
g66
(dp2818
g68
g69
(g70
g71
g72
g73
tp2819
Rp2820
(I1
(I18
I1
tp2821
g79
I00
S'\x00\x00\x80?\x00\x00\x80?\x00\x00\x80?\x00\x00\x80?\x00\x00\x80?\x00\x00\x80?\x00\x00\x80?\x00\x00\x80?\x00\x00\x80?\x00\x00\x80?\x00\x00\x80?\x00\x00\x80?\x00\x00\x80?\x00\x00\x80?\x00\x00\x80?\x00\x00\x80?\x00\x00\x80?\x00\x00\x80?'
p2822
S'\x00\x00\x00\x00\x00\x00\x00\x00\x00\x00\x00\x00\x00\x00\x00\x00\x00\x00'
p2823
Ntp2824
bsg22
g69
(g70
g71
g72
g73
tp2825
Rp2826
(I1
(I18
I1
tp2827
g79
I00
S'\x13\xd8\x0fA@}6@\xb8d\xe1@\xfc\xf2\xbc@\xad\xee\x89@Ap\x91@\xdd\xe9\xd2@\n\xf9\xa6B{\x9a\x8aA\x0cy6A\xbd\xe2"A\xee\xea&A\x0b\x83\x12AB\x95q@\xe0\xdf)AH?\x9dAVn\xf0@j\xf5\xaeA'
p2828
S'\x00\x00\x00\x00\x00\x00\x00\x00\x00\x00\x00\x00\x00\x00\x00\x00\x00\x00'
p2829
Ntp2830
bsg123
g69
(g70
g71
g72
g73
tp2831
Rp2832
(I1
(I18
I1
tp2833
g79
I00
S'\x00\x00\x00\x00\x00\x00\x80?\x00\x00\x00@\x00\x00@@\x00\x00\x80@\x00\x00\xa0@\x00\x00\xc0@\x00\x00\xe0@\x00\x00\x00A\x00\x00\x10A\x00\x00 A\x00\x000A\x00\x00@A\x00\x00PA\x00\x00`A\x00\x00pA\x00\x00\x80A\x00\x00\x88A'
p2834
S'\x00\x00\x00\x00\x00\x00\x00\x00\x00\x00\x00\x00\x00\x00\x00\x00\x00\x00'
p2835
Ntp2836
bsg21
g91
(g71
(I0
tp2837
g73
tp2838
Rp2839
(I1
(I18
I1
tp2840
g98
I00
(lp2841
g509
ag536
ag560
ag584
ag608
ag632
ag656
ag680
ag704
ag728
ag752
ag776
ag800
ag824
ag848
ag872
ag896
ag920
atp2842
bstp2843
Rp2844
(dp2845
g133
(dp2846
g68
I01
sg22
I01
sg123
I01
sg21
I00
ssg135
g2814
sg136
(lp2847
g68
ag123
ag21
ag22
asg138
(lp2848
I18
aI1
asbsg140
S'sequential'
p2849
sg142
g91
(g71
(I0
tp2850
g73
tp2851
Rp2852
(I1
(I18
I1
tp2853
g149
I00
S'\x00\x00\x00\x00\x01\x00\x00\x00\x02\x00\x00\x00\x03\x00\x00\x00\x04\x00\x00\x00\x05\x00\x00\x00\x06\x00\x00\x00\x07\x00\x00\x00\x08\x00\x00\x00\t\x00\x00\x00\n\x00\x00\x00\x0b\x00\x00\x00\x0c\x00\x00\x00\r\x00\x00\x00\x0e\x00\x00\x00\x0f\x00\x00\x00\x10\x00\x00\x00\x11\x00\x00\x00'
p2854
tp2855
bsg154
I01
sg155
I1
sg156
I-1
sg157
(lp2856
g2709
((lp2857
(lp2858
g511
ag514
aa(lp2859
g502
ag503
aa(lp2860
g494
ag495
aa(lp2861
g498
ag499
aa(lp2862
g496
ag497
aa(lp2863
g492
ag493
aatp2864
Rp2865
ag2709
((lp2866
(lp2867
g511
ag540
aa(lp2868
g502
ag530
aa(lp2869
g494
ag525
aa(lp2870
g498
ag527
aa(lp2871
g496
ag526
aa(lp2872
g492
ag524
aatp2873
Rp2874
ag2709
((lp2875
(lp2876
g511
ag564
aa(lp2877
g502
ag503
aa(lp2878
g494
ag550
aa(lp2879
g498
ag552
aa(lp2880
g496
ag551
aa(lp2881
g492
ag549
aatp2882
Rp2883
ag2709
((lp2884
(lp2885
g511
ag588
aa(lp2886
g502
ag530
aa(lp2887
g494
ag574
aa(lp2888
g498
ag576
aa(lp2889
g496
ag575
aa(lp2890
g492
ag573
aatp2891
Rp2892
ag2709
((lp2893
(lp2894
g511
ag612
aa(lp2895
g502
ag530
aa(lp2896
g494
ag598
aa(lp2897
g498
ag600
aa(lp2898
g496
ag599
aa(lp2899
g492
ag597
aatp2900
Rp2901
ag2709
((lp2902
(lp2903
g511
ag636
aa(lp2904
g502
ag503
aa(lp2905
g494
ag622
aa(lp2906
g498
ag624
aa(lp2907
g496
ag623
aa(lp2908
g492
ag621
aatp2909
Rp2910
ag2709
((lp2911
(lp2912
g511
ag660
aa(lp2913
g502
ag503
aa(lp2914
g494
ag646
aa(lp2915
g498
ag648
aa(lp2916
g496
ag647
aa(lp2917
g492
ag645
aatp2918
Rp2919
ag2709
((lp2920
(lp2921
g511
ag684
aa(lp2922
g502
ag530
aa(lp2923
g494
ag670
aa(lp2924
g498
ag672
aa(lp2925
g496
ag671
aa(lp2926
g492
ag669
aatp2927
Rp2928
ag2709
((lp2929
(lp2930
g511
ag708
aa(lp2931
g502
ag530
aa(lp2932
g494
ag694
aa(lp2933
g498
ag696
aa(lp2934
g496
ag695
aa(lp2935
g492
ag693
aatp2936
Rp2937
ag2709
((lp2938
(lp2939
g511
ag732
aa(lp2940
g502
ag530
aa(lp2941
g494
ag718
aa(lp2942
g498
ag720
aa(lp2943
g496
ag719
aa(lp2944
g492
ag717
aatp2945
Rp2946
ag2709
((lp2947
(lp2948
g511
ag756
aa(lp2949
g502
ag503
aa(lp2950
g494
ag742
aa(lp2951
g498
ag744
aa(lp2952
g496
ag743
aa(lp2953
g492
ag741
aatp2954
Rp2955
ag2709
((lp2956
(lp2957
g511
ag780
aa(lp2958
g502
ag503
aa(lp2959
g494
ag766
aa(lp2960
g498
ag768
aa(lp2961
g496
ag767
aa(lp2962
g492
ag765
aatp2963
Rp2964
ag2709
((lp2965
(lp2966
g511
ag804
aa(lp2967
g502
ag530
aa(lp2968
g494
ag790
aa(lp2969
g498
ag792
aa(lp2970
g496
ag791
aa(lp2971
g492
ag789
aatp2972
Rp2973
ag2709
((lp2974
(lp2975
g511
ag828
aa(lp2976
g502
ag530
aa(lp2977
g494
ag814
aa(lp2978
g498
ag816
aa(lp2979
g496
ag815
aa(lp2980
g492
ag813
aatp2981
Rp2982
ag2709
((lp2983
(lp2984
g511
ag852
aa(lp2985
g502
ag503
aa(lp2986
g494
ag838
aa(lp2987
g498
ag840
aa(lp2988
g496
ag839
aa(lp2989
g492
ag837
aatp2990
Rp2991
ag2709
((lp2992
(lp2993
g511
ag876
aa(lp2994
g502
ag530
aa(lp2995
g494
ag862
aa(lp2996
g498
ag864
aa(lp2997
g496
ag863
aa(lp2998
g492
ag861
aatp2999
Rp3000
ag2709
((lp3001
(lp3002
g511
ag900
aa(lp3003
g502
ag503
aa(lp3004
g494
ag886
aa(lp3005
g498
ag888
aa(lp3006
g496
ag887
aa(lp3007
g492
ag885
aatp3008
Rp3009
ag2709
((lp3010
(lp3011
g511
ag924
aa(lp3012
g502
ag503
aa(lp3013
g494
ag910
aa(lp3014
g498
ag912
aa(lp3015
g496
ag911
aa(lp3016
g492
ag909
aatp3017
Rp3018
asg159
Nsg160
g928
sg164
I18
sg165
I0
sg166
I18
sbag168
ag0
(g55
g2
Ntp3019
Rp3020
(dp3021
g59
Nsg60
(lp3022
sg61
I346892112
sg11
g2738
sg6
I-1
sg63
I1
sg28
I01
sg29
g30
sg64
g0
(g65
g66
(dp3023
g68
g69
(g70
g71
g72
g73
tp3024
Rp3025
(I1
(I4
I1
tp3026
g79
I00
S'\x00\x00\x80?\x00\x00\x80?\x00\x00\x80?\x00\x00\x80?'
p3027
S'\x00\x00\x00\x00'
p3028
Ntp3029
bsg22
g69
(g70
g71
g72
g73
tp3030
Rp3031
(I1
(I4
I1
tp3032
g79
I00
S'\xceNQA)\xb4\xe5@P\xf3\x82A\x89W\x8cA'
p3033
S'\x00\x00\x00\x00'
p3034
Ntp3035
bsg123
g69
(g70
g71
g72
g73
tp3036
Rp3037
(I1
(I4
I1
tp3038
g79
I00
S'\x00\x00@@\x00\x00\x00\x00\x00\x00\x80?\x00\x00\x00@'
p3039
S'\x00\x00\x00\x00'
p3040
Ntp3041
bsg21
g91
(g71
(I0
tp3042
g73
tp3043
Rp3044
(I1
(I4
I1
tp3045
g98
I00
(lp3046
g1041
ag967
ag993
ag1017
atp3047
bstp3048
Rp3049
(dp3050
g133
(dp3051
g68
I01
sg22
I01
sg123
I01
sg21
I00
ssg135
g3020
sg136
(lp3052
g68
ag123
ag21
ag22
asg138
(lp3053
I4
aI1
asbsg140
g141
sg142
g91
(g71
(I0
tp3054
g73
tp3055
Rp3056
(I1
(I4
I1
tp3057
g149
I00
S'\x01\x00\x00\x00\x02\x00\x00\x00\x03\x00\x00\x00\x00\x00\x00\x00'
p3058
tp3059
bsg154
I01
sg155
I1
sg156
I-1
sg157
(lp3060
g2709
((lp3061
(lp3062
g973
ag1049
aa(lp3063
g961
ag962
aa(lp3064
g948
ag1032
aa(lp3065
g952
ag1034
aa(lp3066
g950
ag1033
aa(lp3067
g946
ag1031
aatp3068
Rp3069
ag2709
((lp3070
(lp3071
g973
ag976
aa(lp3072
g961
ag962
aa(lp3073
g948
ag949
aa(lp3074
g952
ag953
aa(lp3075
g950
ag951
aa(lp3076
g946
ag947
aatp3077
Rp3078
ag2709
((lp3079
(lp3080
g973
ag1001
aa(lp3081
g961
ag962
aa(lp3082
g948
ag984
aa(lp3083
g952
ag986
aa(lp3084
g950
ag985
aa(lp3085
g946
ag983
aatp3086
Rp3087
ag2709
((lp3088
(lp3089
g973
ag1025
aa(lp3090
g961
ag962
aa(lp3091
g948
ag1008
aa(lp3092
g952
ag1010
aa(lp3093
g950
ag1009
aa(lp3094
g946
ag1007
aatp3095
Rp3096
asg159
Nsg160
g1045
sg164
I4
sg165
I0
sg166
I4
sbag0
(g55
g2
Ntp3097
Rp3098
(dp3099
g59
Nsg60
(lp3100
sg61
I346892112
sg11
g2817
sg6
I-1
sg63
I1
sg28
I01
sg29
g30
sg64
g0
(g65
g66
(dp3101
g68
g69
(g70
g71
g72
g73
tp3102
Rp3103
(I1
(I18
I1
tp3104
g79
I00
S'\x00\x00\x80?\x00\x00\x80?\x00\x00\x80?\x00\x00\x80?\x00\x00\x80?\x00\x00\x80?\x00\x00\x80?\x00\x00\x80?\x00\x00\x80?\x00\x00\x80?\x00\x00\x80?\x00\x00\x80?\x00\x00\x80?\x00\x00\x80?\x00\x00\x80?\x00\x00\x80?\x00\x00\x80?\x00\x00\x80?'
p3105
S'\x00\x00\x00\x00\x00\x00\x00\x00\x00\x00\x00\x00\x00\x00\x00\x00\x00\x00'
p3106
Ntp3107
bsg22
g69
(g70
g71
g72
g73
tp3108
Rp3109
(I1
(I18
I1
tp3110
g79
I00
S'k\xc7$A{\xa9\tA\xa5\xc7\x87A\xc7\x81\xb1AhI\x84A\x90BTA\x00(wA\x00\x00\x00\x005\x86\x89A\x98\x00\x96A\xf0<fA\x88\xbd\xabA\xc0\x07\x9a@\xfaP\xe7@\x86;:A\xa5JXAb\xeb]A\xdbZ\x99A'
p3111
S'\x00\x00\x00\x00\x00\x00\x00\x01\x00\x00\x00\x00\x00\x00\x00\x00\x00\x00'
p3112
Ntp3113
bsg123
g69
(g70
g71
g72
g73
tp3114
Rp3115
(I1
(I18
I1
tp3116
g79
I00
S'\x00\x00\x00\x00\x00\x00\x80?\x00\x00\x00@\x00\x00@@\x00\x00\x80@\x00\x00\xa0@\x00\x00\xc0@\x00\x00\xe0@\x00\x00\x00A\x00\x00\x10A\x00\x00 A\x00\x000A\x00\x00@A\x00\x00PA\x00\x00`A\x00\x00pA\x00\x00\x80A\x00\x00\x88A'
p3117
S'\x00\x00\x00\x00\x00\x00\x00\x00\x00\x00\x00\x00\x00\x00\x00\x00\x00\x00'
p3118
Ntp3119
bsg21
g91
(g71
(I0
tp3120
g73
tp3121
Rp3122
(I1
(I18
I1
tp3123
g98
I00
(lp3124
g1071
ag1098
ag1122
ag1146
ag1170
ag1194
ag1218
aNag1265
ag1289
ag1313
ag1337
ag1361
ag1385
ag1409
ag1433
ag1457
ag1481
atp3125
bstp3126
Rp3127
(dp3128
g133
(dp3129
g68
I01
sg22
I01
sg123
I01
sg21
I00
ssg135
g3098
sg136
(lp3130
g68
ag123
ag21
ag22
asg138
(lp3131
I18
aI1
asbsg140
g2849
sg142
g91
(g71
(I0
tp3132
g73
tp3133
Rp3134
(I1
(I18
I1
tp3135
g149
I00
S'\x00\x00\x00\x00\x01\x00\x00\x00\x02\x00\x00\x00\x03\x00\x00\x00\x04\x00\x00\x00\x05\x00\x00\x00\x06\x00\x00\x00\x07\x00\x00\x00\x08\x00\x00\x00\t\x00\x00\x00\n\x00\x00\x00\x0b\x00\x00\x00\x0c\x00\x00\x00\r\x00\x00\x00\x0e\x00\x00\x00\x0f\x00\x00\x00\x10\x00\x00\x00\x11\x00\x00\x00'
p3136
tp3137
bsg154
I01
sg155
I1
sg156
I-1
sg157
(lp3138
g2709
((lp3139
(lp3140
g1073
ag1076
aa(lp3141
g1064
ag1065
aa(lp3142
g1056
ag1057
aa(lp3143
g1060
ag1061
aa(lp3144
g1058
ag1059
aa(lp3145
g1054
ag1055
aatp3146
Rp3147
ag2709
((lp3148
(lp3149
g1073
ag1102
aa(lp3150
g1064
ag1092
aa(lp3151
g1056
ag1087
aa(lp3152
g1060
ag1089
aa(lp3153
g1058
ag1088
aa(lp3154
g1054
ag1086
aatp3155
Rp3156
ag2709
((lp3157
(lp3158
g1073
ag1126
aa(lp3159
g1064
ag1065
aa(lp3160
g1056
ag1112
aa(lp3161
g1060
ag1114
aa(lp3162
g1058
ag1113
aa(lp3163
g1054
ag1111
aatp3164
Rp3165
ag2709
((lp3166
(lp3167
g1073
ag1150
aa(lp3168
g1064
ag1092
aa(lp3169
g1056
ag1136
aa(lp3170
g1060
ag1138
aa(lp3171
g1058
ag1137
aa(lp3172
g1054
ag1135
aatp3173
Rp3174
ag2709
((lp3175
(lp3176
g1073
ag1174
aa(lp3177
g1064
ag1065
aa(lp3178
g1056
ag1160
aa(lp3179
g1060
ag1162
aa(lp3180
g1058
ag1161
aa(lp3181
g1054
ag1159
aatp3182
Rp3183
ag2709
((lp3184
(lp3185
g1073
ag1198
aa(lp3186
g1064
ag1092
aa(lp3187
g1056
ag1184
aa(lp3188
g1060
ag1186
aa(lp3189
g1058
ag1185
aa(lp3190
g1054
ag1183
aatp3191
Rp3192
ag2709
((lp3193
(lp3194
g1073
ag1222
aa(lp3195
g1064
ag1065
aa(lp3196
g1056
ag1208
aa(lp3197
g1060
ag1210
aa(lp3198
g1058
ag1209
aa(lp3199
g1054
ag1207
aatp3200
Rp3201
ag2709
((lp3202
(lp3203
g1073
ag1245
aa(lp3204
g1064
ag1092
aa(lp3205
g1056
ag1232
aa(lp3206
g1060
ag1234
aa(lp3207
g1058
ag1233
aa(lp3208
g1054
ag1231
aatp3209
Rp3210
ag2709
((lp3211
(lp3212
g1073
ag1269
aa(lp3213
g1064
ag1065
aa(lp3214
g1056
ag1255
aa(lp3215
g1060
ag1257
aa(lp3216
g1058
ag1256
aa(lp3217
g1054
ag1254
aatp3218
Rp3219
ag2709
((lp3220
(lp3221
g1073
ag1293
aa(lp3222
g1064
ag1065
aa(lp3223
g1056
ag1279
aa(lp3224
g1060
ag1281
aa(lp3225
g1058
ag1280
aa(lp3226
g1054
ag1278
aatp3227
Rp3228
ag2709
((lp3229
(lp3230
g1073
ag1317
aa(lp3231
g1064
ag1092
aa(lp3232
g1056
ag1303
aa(lp3233
g1060
ag1305
aa(lp3234
g1058
ag1304
aa(lp3235
g1054
ag1302
aatp3236
Rp3237
ag2709
((lp3238
(lp3239
g1073
ag1341
aa(lp3240
g1064
ag1065
aa(lp3241
g1056
ag1327
aa(lp3242
g1060
ag1329
aa(lp3243
g1058
ag1328
aa(lp3244
g1054
ag1326
aatp3245
Rp3246
ag2709
((lp3247
(lp3248
g1073
ag1365
aa(lp3249
g1064
ag1092
aa(lp3250
g1056
ag1351
aa(lp3251
g1060
ag1353
aa(lp3252
g1058
ag1352
aa(lp3253
g1054
ag1350
aatp3254
Rp3255
ag2709
((lp3256
(lp3257
g1073
ag1389
aa(lp3258
g1064
ag1092
aa(lp3259
g1056
ag1375
aa(lp3260
g1060
ag1377
aa(lp3261
g1058
ag1376
aa(lp3262
g1054
ag1374
aatp3263
Rp3264
ag2709
((lp3265
(lp3266
g1073
ag1413
aa(lp3267
g1064
ag1092
aa(lp3268
g1056
ag1399
aa(lp3269
g1060
ag1401
aa(lp3270
g1058
ag1400
aa(lp3271
g1054
ag1398
aatp3272
Rp3273
ag2709
((lp3274
(lp3275
g1073
ag1437
aa(lp3276
g1064
ag1065
aa(lp3277
g1056
ag1423
aa(lp3278
g1060
ag1425
aa(lp3279
g1058
ag1424
aa(lp3280
g1054
ag1422
aatp3281
Rp3282
ag2709
((lp3283
(lp3284
g1073
ag1461
aa(lp3285
g1064
ag1065
aa(lp3286
g1056
ag1447
aa(lp3287
g1060
ag1449
aa(lp3288
g1058
ag1448
aa(lp3289
g1054
ag1446
aatp3290
Rp3291
ag2709
((lp3292
(lp3293
g1073
ag1485
aa(lp3294
g1064
ag1092
aa(lp3295
g1056
ag1471
aa(lp3296
g1060
ag1473
aa(lp3297
g1058
ag1472
aa(lp3298
g1054
ag1470
aatp3299
Rp3300
asg159
Nsg160
g1489
sg164
I18
sg165
I0
sg166
I18
sbag232
ag0
(g55
g2
Ntp3301
Rp3302
(dp3303
g59
Nsg60
(lp3304
sg61
I346892112
sg11
g2738
sg6
I-1
sg63
I1
sg28
I01
sg29
g30
sg64
g0
(g65
g66
(dp3305
g68
g69
(g70
g71
g72
g73
tp3306
Rp3307
(I1
(I4
I1
tp3308
g79
I00
S'\x00\x00\x80?\x00\x00\x80?\x00\x00\x80?\x00\x00\x80?'
p3309
S'\x00\x00\x00\x00'
p3310
Ntp3311
bsg22
g69
(g70
g71
g72
g73
tp3312
Rp3313
(I1
(I4
I1
tp3314
g79
I00
S'\x8bj\x8dA<k\xc4A\x0c\xacKA\x18v\x91@'
p3315
S'\x00\x00\x00\x00'
p3316
Ntp3317
bsg123
g69
(g70
g71
g72
g73
tp3318
Rp3319
(I1
(I4
I1
tp3320
g79
I00
S'\x00\x00\x00@\x00\x00@@\x00\x00\x00\x00\x00\x00\x80?'
p3321
S'\x00\x00\x00\x00'
p3322
Ntp3323
bsg21
g91
(g71
(I0
tp3324
g73
tp3325
Rp3326
(I1
(I4
I1
tp3327
g98
I00
(lp3328
g1578
ag1602
ag1528
ag1554
atp3329
bstp3330
Rp3331
(dp3332
g133
(dp3333
g68
I01
sg22
I01
sg123
I01
sg21
I00
ssg135
g3302
sg136
(lp3334
g68
ag123
ag21
ag22
asg138
(lp3335
I4
aI1
asbsg140
g141
sg142
g91
(g71
(I0
tp3336
g73
tp3337
Rp3338
(I1
(I4
I1
tp3339
g149
I00
S'\x02\x00\x00\x00\x03\x00\x00\x00\x00\x00\x00\x00\x01\x00\x00\x00'
p3340
tp3341
bsg154
I01
sg155
I1
sg156
I-1
sg157
(lp3342
g2709
((lp3343
(lp3344
g1534
ag1586
aa(lp3345
g1522
ag1523
aa(lp3346
g1509
ag1569
aa(lp3347
g1513
ag1571
aa(lp3348
g1511
ag1570
aa(lp3349
g1507
ag1568
aatp3350
Rp3351
ag2709
((lp3352
(lp3353
g1534
ag1610
aa(lp3354
g1522
ag1523
aa(lp3355
g1509
ag1593
aa(lp3356
g1513
ag1595
aa(lp3357
g1511
ag1594
aa(lp3358
g1507
ag1592
aatp3359
Rp3360
ag2709
((lp3361
(lp3362
g1534
ag1537
aa(lp3363
g1522
ag1523
aa(lp3364
g1509
ag1510
aa(lp3365
g1513
ag1514
aa(lp3366
g1511
ag1512
aa(lp3367
g1507
ag1508
aatp3368
Rp3369
ag2709
((lp3370
(lp3371
g1534
ag1562
aa(lp3372
g1522
ag1523
aa(lp3373
g1509
ag1545
aa(lp3374
g1513
ag1547
aa(lp3375
g1511
ag1546
aa(lp3376
g1507
ag1544
aatp3377
Rp3378
asg159
Nsg160
g1606
sg164
I4
sg165
I0
sg166
I4
sbag0
(g55
g2
Ntp3379
Rp3380
(dp3381
g59
Nsg60
(lp3382
sg61
I346892112
sg11
g2817
sg6
I-1
sg63
I1
sg28
I01
sg29
g30
sg64
g0
(g65
g66
(dp3383
g68
g69
(g70
g71
g72
g73
tp3384
Rp3385
(I1
(I18
I1
tp3386
g79
I00
S'\x00\x00\x80?\x00\x00\x80?\x00\x00\x80?\x00\x00\x80?\x00\x00\x80?\x00\x00\x80?\x00\x00\x80?\x00\x00\x80?\x00\x00\x80?\x00\x00\x80?\x00\x00\x80?\x00\x00\x80?\x00\x00\x80?\x00\x00\x80?\x00\x00\x80?\x00\x00\x80?\x00\x00\x80?\x00\x00\x80?'
p3387
S'\x00\x00\x00\x00\x00\x00\x00\x00\x00\x00\x00\x00\x00\x00\x00\x00\x00\x00'
p3388
Ntp3389
bsg22
g69
(g70
g71
g72
g73
tp3390
Rp3391
(I1
(I18
I1
tp3392
g79
I00
S'\x82\xacVA\xce\xb7\xbdA\xce\xdb\x93A\x94\x01\xb7A\x13X\xf6@Py6A\x17\xf6\x98@\xc4\xcb\x1dA\xc0\xca\xd4A\xf8\xdb?AG\xfa\x91A>\xfaw@\x99I\x98A\xb0\x1f\x94A5\xe2\x01A\x7f\xb72ALbC@W\x0ey@'
p3393
S'\x00\x00\x00\x00\x00\x00\x00\x00\x00\x00\x00\x00\x00\x00\x00\x00\x00\x00'
p3394
Ntp3395
bsg123
g69
(g70
g71
g72
g73
tp3396
Rp3397
(I1
(I18
I1
tp3398
g79
I00
S'\x00\x00\x00\x00\x00\x00\x80?\x00\x00\x00@\x00\x00@@\x00\x00\x80@\x00\x00\xa0@\x00\x00\xc0@\x00\x00\xe0@\x00\x00\x00A\x00\x00\x10A\x00\x00 A\x00\x000A\x00\x00@A\x00\x00PA\x00\x00`A\x00\x00pA\x00\x00\x80A\x00\x00\x88A'
p3399
S'\x00\x00\x00\x00\x00\x00\x00\x00\x00\x00\x00\x00\x00\x00\x00\x00\x00\x00'
p3400
Ntp3401
bsg21
g91
(g71
(I0
tp3402
g73
tp3403
Rp3404
(I1
(I18
I1
tp3405
g98
I00
(lp3406
g1632
ag1658
ag1683
ag1707
ag1731
ag1755
ag1779
ag1803
ag1827
ag1851
ag1875
ag1899
ag1923
ag1947
ag1971
ag1995
ag2019
ag2043
atp3407
bstp3408
Rp3409
(dp3410
g133
(dp3411
g68
I01
sg22
I01
sg123
I01
sg21
I00
ssg135
g3380
sg136
(lp3412
g68
ag123
ag21
ag22
asg138
(lp3413
I18
aI1
asbsg140
g2849
sg142
g91
(g71
(I0
tp3414
g73
tp3415
Rp3416
(I1
(I18
I1
tp3417
g149
I00
S'\x00\x00\x00\x00\x01\x00\x00\x00\x02\x00\x00\x00\x03\x00\x00\x00\x04\x00\x00\x00\x05\x00\x00\x00\x06\x00\x00\x00\x07\x00\x00\x00\x08\x00\x00\x00\t\x00\x00\x00\n\x00\x00\x00\x0b\x00\x00\x00\x0c\x00\x00\x00\r\x00\x00\x00\x0e\x00\x00\x00\x0f\x00\x00\x00\x10\x00\x00\x00\x11\x00\x00\x00'
p3418
tp3419
bsg154
I01
sg155
I1
sg156
I-1
sg157
(lp3420
g2709
((lp3421
(lp3422
g1634
ag1637
aa(lp3423
g1625
ag1626
aa(lp3424
g1617
ag1618
aa(lp3425
g1621
ag1622
aa(lp3426
g1619
ag1620
aa(lp3427
g1615
ag1616
aatp3428
Rp3429
ag2709
((lp3430
(lp3431
g1634
ag1662
aa(lp3432
g1625
ag1626
aa(lp3433
g1617
ag1648
aa(lp3434
g1621
ag1650
aa(lp3435
g1619
ag1649
aa(lp3436
g1615
ag1647
aatp3437
Rp3438
ag2709
((lp3439
(lp3440
g1634
ag1687
aa(lp3441
g1625
ag1677
aa(lp3442
g1617
ag1672
aa(lp3443
g1621
ag1674
aa(lp3444
g1619
ag1673
aa(lp3445
g1615
ag1671
aatp3446
Rp3447
ag2709
((lp3448
(lp3449
g1634
ag1711
aa(lp3450
g1625
ag1677
aa(lp3451
g1617
ag1697
aa(lp3452
g1621
ag1699
aa(lp3453
g1619
ag1698
aa(lp3454
g1615
ag1696
aatp3455
Rp3456
ag2709
((lp3457
(lp3458
g1634
ag1735
aa(lp3459
g1625
ag1677
aa(lp3460
g1617
ag1721
aa(lp3461
g1621
ag1723
aa(lp3462
g1619
ag1722
aa(lp3463
g1615
ag1720
aatp3464
Rp3465
ag2709
((lp3466
(lp3467
g1634
ag1759
aa(lp3468
g1625
ag1626
aa(lp3469
g1617
ag1745
aa(lp3470
g1621
ag1747
aa(lp3471
g1619
ag1746
aa(lp3472
g1615
ag1744
aatp3473
Rp3474
ag2709
((lp3475
(lp3476
g1634
ag1783
aa(lp3477
g1625
ag1677
aa(lp3478
g1617
ag1769
aa(lp3479
g1621
ag1771
aa(lp3480
g1619
ag1770
aa(lp3481
g1615
ag1768
aatp3482
Rp3483
ag2709
((lp3484
(lp3485
g1634
ag1807
aa(lp3486
g1625
ag1626
aa(lp3487
g1617
ag1793
aa(lp3488
g1621
ag1795
aa(lp3489
g1619
ag1794
aa(lp3490
g1615
ag1792
aatp3491
Rp3492
ag2709
((lp3493
(lp3494
g1634
ag1831
aa(lp3495
g1625
ag1677
aa(lp3496
g1617
ag1817
aa(lp3497
g1621
ag1819
aa(lp3498
g1619
ag1818
aa(lp3499
g1615
ag1816
aatp3500
Rp3501
ag2709
((lp3502
(lp3503
g1634
ag1855
aa(lp3504
g1625
ag1626
aa(lp3505
g1617
ag1841
aa(lp3506
g1621
ag1843
aa(lp3507
g1619
ag1842
aa(lp3508
g1615
ag1840
aatp3509
Rp3510
ag2709
((lp3511
(lp3512
g1634
ag1879
aa(lp3513
g1625
ag1677
aa(lp3514
g1617
ag1865
aa(lp3515
g1621
ag1867
aa(lp3516
g1619
ag1866
aa(lp3517
g1615
ag1864
aatp3518
Rp3519
ag2709
((lp3520
(lp3521
g1634
ag1903
aa(lp3522
g1625
ag1626
aa(lp3523
g1617
ag1889
aa(lp3524
g1621
ag1891
aa(lp3525
g1619
ag1890
aa(lp3526
g1615
ag1888
aatp3527
Rp3528
ag2709
((lp3529
(lp3530
g1634
ag1927
aa(lp3531
g1625
ag1626
aa(lp3532
g1617
ag1913
aa(lp3533
g1621
ag1915
aa(lp3534
g1619
ag1914
aa(lp3535
g1615
ag1912
aatp3536
Rp3537
ag2709
((lp3538
(lp3539
g1634
ag1951
aa(lp3540
g1625
ag1677
aa(lp3541
g1617
ag1937
aa(lp3542
g1621
ag1939
aa(lp3543
g1619
ag1938
aa(lp3544
g1615
ag1936
aatp3545
Rp3546
ag2709
((lp3547
(lp3548
g1634
ag1975
aa(lp3549
g1625
ag1626
aa(lp3550
g1617
ag1961
aa(lp3551
g1621
ag1963
aa(lp3552
g1619
ag1962
aa(lp3553
g1615
ag1960
aatp3554
Rp3555
ag2709
((lp3556
(lp3557
g1634
ag1999
aa(lp3558
g1625
ag1677
aa(lp3559
g1617
ag1985
aa(lp3560
g1621
ag1987
aa(lp3561
g1619
ag1986
aa(lp3562
g1615
ag1984
aatp3563
Rp3564
ag2709
((lp3565
(lp3566
g1634
ag2023
aa(lp3567
g1625
ag1626
aa(lp3568
g1617
ag2009
aa(lp3569
g1621
ag2011
aa(lp3570
g1619
ag2010
aa(lp3571
g1615
ag2008
aatp3572
Rp3573
ag2709
((lp3574
(lp3575
g1634
ag2047
aa(lp3576
g1625
ag1677
aa(lp3577
g1617
ag2033
aa(lp3578
g1621
ag2035
aa(lp3579
g1619
ag2034
aa(lp3580
g1615
ag2032
aatp3581
Rp3582
asg159
Nsg160
g2051
sg164
I18
sg165
I0
sg166
I18
sbag296
ag0
(g55
g2
Ntp3583
Rp3584
(dp3585
g59
Nsg60
(lp3586
sg61
I346892112
sg11
g2738
sg6
I-1
sg63
I1
sg28
I01
sg29
g30
sg64
g0
(g65
g66
(dp3587
g68
g69
(g70
g71
g72
g73
tp3588
Rp3589
(I1
(I4
I1
tp3590
g79
I00
S'\x00\x00\x80?\x00\x00\x80?\x00\x00\x80?\x00\x00\x80?'
p3591
S'\x00\x00\x00\x00'
p3592
Ntp3593
bsg22
g69
(g70
g71
g72
g73
tp3594
Rp3595
(I1
(I4
I1
tp3596
g79
I00
S'|\xc2\x0eA\xacL\x0fA\xb6\xbd\x95@\xd4\xeaRA'
p3597
S'\x00\x00\x00\x00'
p3598
Ntp3599
bsg123
g69
(g70
g71
g72
g73
tp3600
Rp3601
(I1
(I4
I1
tp3602
g79
I00
S'\x00\x00\x00@\x00\x00\x80?\x00\x00\x00\x00\x00\x00@@'
p3603
S'\x00\x00\x00\x00'
p3604
Ntp3605
bsg21
g91
(g71
(I0
tp3606
g73
tp3607
Rp3608
(I1
(I4
I1
tp3609
g98
I00
(lp3610
g2140
ag2116
ag2090
ag2164
atp3611
bstp3612
Rp3613
(dp3614
g133
(dp3615
g68
I01
sg22
I01
sg123
I01
sg21
I00
ssg135
g3584
sg136
(lp3616
g68
ag123
ag21
ag22
asg138
(lp3617
I4
aI1
asbsg140
g141
sg142
g91
(g71
(I0
tp3618
g73
tp3619
Rp3620
(I1
(I4
I1
tp3621
g149
I00
S'\x02\x00\x00\x00\x01\x00\x00\x00\x00\x00\x00\x00\x03\x00\x00\x00'
p3622
tp3623
bsg154
I01
sg155
I1
sg156
I-1
sg157
(lp3624
g2709
((lp3625
(lp3626
g2096
ag2148
aa(lp3627
g2084
ag2085
aa(lp3628
g2071
ag2131
aa(lp3629
g2075
ag2133
aa(lp3630
g2073
ag2132
aa(lp3631
g2069
ag2130
aatp3632
Rp3633
ag2709
((lp3634
(lp3635
g2096
ag2124
aa(lp3636
g2084
ag2085
aa(lp3637
g2071
ag2107
aa(lp3638
g2075
ag2109
aa(lp3639
g2073
ag2108
aa(lp3640
g2069
ag2106
aatp3641
Rp3642
ag2709
((lp3643
(lp3644
g2096
ag2099
aa(lp3645
g2084
ag2085
aa(lp3646
g2071
ag2072
aa(lp3647
g2075
ag2076
aa(lp3648
g2073
ag2074
aa(lp3649
g2069
ag2070
aatp3650
Rp3651
ag2709
((lp3652
(lp3653
g2096
ag2172
aa(lp3654
g2084
ag2085
aa(lp3655
g2071
ag2155
aa(lp3656
g2075
ag2157
aa(lp3657
g2073
ag2156
aa(lp3658
g2069
ag2154
aatp3659
Rp3660
asg159
Nsg160
g2168
sg164
I4
sg165
I0
sg166
I4
sbag0
(g55
g2
Ntp3661
Rp3662
(dp3663
g59
Nsg60
(lp3664
sg61
I346892112
sg11
g2817
sg6
I-1
sg63
I1
sg28
I01
sg29
g30
sg64
g0
(g65
g66
(dp3665
g68
g69
(g70
g71
g72
g73
tp3666
Rp3667
(I1
(I18
I1
tp3668
g79
I00
S'\x00\x00\x80?\x00\x00\x80?\x00\x00\x80?\x00\x00\x80?\x00\x00\x80?\x00\x00\x80?\x00\x00\x80?\x00\x00\x80?\x00\x00\x80?\x00\x00\x80?\x00\x00\x80?\x00\x00\x80?\x00\x00\x80?\x00\x00\x80?\x00\x00\x80?\x00\x00\x80?\x00\x00\x80?\x00\x00\x80?'
p3669
S'\x00\x00\x00\x00\x00\x00\x00\x00\x00\x00\x00\x00\x00\x00\x00\x00\x00\x00'
p3670
Ntp3671
bsg22
g69
(g70
g71
g72
g73
tp3672
Rp3673
(I1
(I18
I1
tp3674
g79
I00
S'\xdfi\x82AG\x0e\xb4Aw\xfb\xdcAlf\x8bA\x9b\x90\x1aA=\xe78A$(9AP\xdd?A\xdb-^A\x9e\x81fAv\xc9EA\xd0\xbbtA\xe8\xc2\x0eAHn\xbbA\x85\xf3wA\xfac\x89Aj)\x9aA\x80\xf0\x8bA'
p3675
S'\x00\x00\x00\x00\x00\x00\x00\x00\x00\x00\x00\x00\x00\x00\x00\x00\x00\x00'
p3676
Ntp3677
bsg123
g69
(g70
g71
g72
g73
tp3678
Rp3679
(I1
(I18
I1
tp3680
g79
I00
S'\x00\x00\x00\x00\x00\x00\x80?\x00\x00\x00@\x00\x00@@\x00\x00\x80@\x00\x00\xa0@\x00\x00\xc0@\x00\x00\xe0@\x00\x00\x00A\x00\x00\x10A\x00\x00 A\x00\x000A\x00\x00@A\x00\x00PA\x00\x00`A\x00\x00pA\x00\x00\x80A\x00\x00\x88A'
p3681
S'\x00\x00\x00\x00\x00\x00\x00\x00\x00\x00\x00\x00\x00\x00\x00\x00\x00\x00'
p3682
Ntp3683
bsg21
g91
(g71
(I0
tp3684
g73
tp3685
Rp3686
(I1
(I18
I1
tp3687
g98
I00
(lp3688
g2194
ag2221
ag2245
ag2269
ag2293
ag2317
ag2341
ag2365
ag2389
ag2413
ag2437
ag2461
ag2485
ag2509
ag2533
ag2557
ag2581
ag2605
atp3689
bstp3690
Rp3691
(dp3692
g133
(dp3693
g68
I01
sg22
I01
sg123
I01
sg21
I00
ssg135
g3662
sg136
(lp3694
g68
ag123
ag21
ag22
asg138
(lp3695
I18
aI1
asbsg140
g2849
sg142
g91
(g71
(I0
tp3696
g73
tp3697
Rp3698
(I1
(I18
I1
tp3699
g149
I00
S'\x00\x00\x00\x00\x01\x00\x00\x00\x02\x00\x00\x00\x03\x00\x00\x00\x04\x00\x00\x00\x05\x00\x00\x00\x06\x00\x00\x00\x07\x00\x00\x00\x08\x00\x00\x00\t\x00\x00\x00\n\x00\x00\x00\x0b\x00\x00\x00\x0c\x00\x00\x00\r\x00\x00\x00\x0e\x00\x00\x00\x0f\x00\x00\x00\x10\x00\x00\x00\x11\x00\x00\x00'
p3700
tp3701
bsg154
I01
sg155
I1
sg156
I-1
sg157
(lp3702
g2709
((lp3703
(lp3704
g2196
ag2199
aa(lp3705
g2187
ag2188
aa(lp3706
g2179
ag2180
aa(lp3707
g2183
ag2184
aa(lp3708
g2181
ag2182
aa(lp3709
g2177
ag2178
aatp3710
Rp3711
ag2709
((lp3712
(lp3713
g2196
ag2225
aa(lp3714
g2187
ag2215
aa(lp3715
g2179
ag2210
aa(lp3716
g2183
ag2212
aa(lp3717
g2181
ag2211
aa(lp3718
g2177
ag2209
aatp3719
Rp3720
ag2709
((lp3721
(lp3722
g2196
ag2249
aa(lp3723
g2187
ag2215
aa(lp3724
g2179
ag2235
aa(lp3725
g2183
ag2237
aa(lp3726
g2181
ag2236
aa(lp3727
g2177
ag2234
aatp3728
Rp3729
ag2709
((lp3730
(lp3731
g2196
ag2273
aa(lp3732
g2187
ag2188
aa(lp3733
g2179
ag2259
aa(lp3734
g2183
ag2261
aa(lp3735
g2181
ag2260
aa(lp3736
g2177
ag2258
aatp3737
Rp3738
ag2709
((lp3739
(lp3740
g2196
ag2297
aa(lp3741
g2187
ag2215
aa(lp3742
g2179
ag2283
aa(lp3743
g2183
ag2285
aa(lp3744
g2181
ag2284
aa(lp3745
g2177
ag2282
aatp3746
Rp3747
ag2709
((lp3748
(lp3749
g2196
ag2321
aa(lp3750
g2187
ag2188
aa(lp3751
g2179
ag2307
aa(lp3752
g2183
ag2309
aa(lp3753
g2181
ag2308
aa(lp3754
g2177
ag2306
aatp3755
Rp3756
ag2709
((lp3757
(lp3758
g2196
ag2345
aa(lp3759
g2187
ag2215
aa(lp3760
g2179
ag2331
aa(lp3761
g2183
ag2333
aa(lp3762
g2181
ag2332
aa(lp3763
g2177
ag2330
aatp3764
Rp3765
ag2709
((lp3766
(lp3767
g2196
ag2369
aa(lp3768
g2187
ag2215
aa(lp3769
g2179
ag2355
aa(lp3770
g2183
ag2357
aa(lp3771
g2181
ag2356
aa(lp3772
g2177
ag2354
aatp3773
Rp3774
ag2709
((lp3775
(lp3776
g2196
ag2393
aa(lp3777
g2187
ag2188
aa(lp3778
g2179
ag2379
aa(lp3779
g2183
ag2381
aa(lp3780
g2181
ag2380
aa(lp3781
g2177
ag2378
aatp3782
Rp3783
ag2709
((lp3784
(lp3785
g2196
ag2417
aa(lp3786
g2187
ag2188
aa(lp3787
g2179
ag2403
aa(lp3788
g2183
ag2405
aa(lp3789
g2181
ag2404
aa(lp3790
g2177
ag2402
aatp3791
Rp3792
ag2709
((lp3793
(lp3794
g2196
ag2441
aa(lp3795
g2187
ag2215
aa(lp3796
g2179
ag2427
aa(lp3797
g2183
ag2429
aa(lp3798
g2181
ag2428
aa(lp3799
g2177
ag2426
aatp3800
Rp3801
ag2709
((lp3802
(lp3803
g2196
ag2465
aa(lp3804
g2187
ag2188
aa(lp3805
g2179
ag2451
aa(lp3806
g2183
ag2453
aa(lp3807
g2181
ag2452
aa(lp3808
g2177
ag2450
aatp3809
Rp3810
ag2709
((lp3811
(lp3812
g2196
ag2489
aa(lp3813
g2187
ag2215
aa(lp3814
g2179
ag2475
aa(lp3815
g2183
ag2477
aa(lp3816
g2181
ag2476
aa(lp3817
g2177
ag2474
aatp3818
Rp3819
ag2709
((lp3820
(lp3821
g2196
ag2513
aa(lp3822
g2187
ag2188
aa(lp3823
g2179
ag2499
aa(lp3824
g2183
ag2501
aa(lp3825
g2181
ag2500
aa(lp3826
g2177
ag2498
aatp3827
Rp3828
ag2709
((lp3829
(lp3830
g2196
ag2537
aa(lp3831
g2187
ag2188
aa(lp3832
g2179
ag2523
aa(lp3833
g2183
ag2525
aa(lp3834
g2181
ag2524
aa(lp3835
g2177
ag2522
aatp3836
Rp3837
ag2709
((lp3838
(lp3839
g2196
ag2561
aa(lp3840
g2187
ag2188
aa(lp3841
g2179
ag2547
aa(lp3842
g2183
ag2549
aa(lp3843
g2181
ag2548
aa(lp3844
g2177
ag2546
aatp3845
Rp3846
ag2709
((lp3847
(lp3848
g2196
ag2585
aa(lp3849
g2187
ag2215
aa(lp3850
g2179
ag2571
aa(lp3851
g2183
ag2573
aa(lp3852
g2181
ag2572
aa(lp3853
g2177
ag2570
aatp3854
Rp3855
ag2709
((lp3856
(lp3857
g2196
ag2609
aa(lp3858
g2187
ag2215
aa(lp3859
g2179
ag2595
aa(lp3860
g2183
ag2597
aa(lp3861
g2181
ag2596
aa(lp3862
g2177
ag2594
aatp3863
Rp3864
asg159
Nsg160
g2613
sg164
I18
sg165
I0
sg166
I18
sbasS'savePickle'
p3865
I00
sb.