ccopy_reg
_reconstructor
p0
(cpsychopy.data.experiment
ExperimentHandler
p1
c__builtin__
object
p2
Ntp3
Rp4
(dp5
S'originPath'
p6
VC:\u005cUsers\u005cadmin\u005cDocuments\u005cgit-repos\u005cguillermo\u005cGMM_2018_replication_sheb-pulv2013\u005cexp-scripts_psychopy\u005cpilot\u005csheb_replic_pilot_control.psyexp
p7
sS'dataFileName'
p8
VC:\u005cUsers\u005cadmin\u005cDocuments\u005cgit-repos\u005cguillermo\u005cGMM_2018_replication_sheb-pulv2013\u005cexp-scripts_psychopy\u005cpilot\u005cdata/900_sheb_replic_pilot_control_2018_Jun_08_1031
p9
sS'runtimeInfo'
p10
NsS'name'
p11
S'sheb_replic_pilot_control'
p12
sS'dataNames'
p13
(lp14
S'key_resp_6.keys'
p15
aS'key_resp_6.rt'
p16
aS'key_resp_2.keys'
p17
aS'key_resp_2.rt'
p18
aS'key_resp_8.keys'
p19
aS'key_resp_8.rt'
p20
aS'key_resp_7.keys'
p21
aS'key_resp_7.rt'
p22
aS'key_resp_3.keys'
p23
asS'autoLog'
p24
I01
sS'extraInfo'
p25
(dp26
S'date'
p27
V2018_Jun_08_1031
p28
sS'frameRate'
p29
cnumpy.core.multiarray
scalar
p30
(cnumpy
dtype
p31
(S'f8'
p32
I0
I1
tp33
Rp34
(I3
S'<'
p35
NNNI-1
I-1
I0
tp36
bS'X1\xff:s\xc8M@'
p37
tp38
Rp39
sS'expName'
p40
g12
sVsession
p41
V001
p42
sVparticipant
p43
g0
(cfuture.types.newstr
newstr
p44
c__builtin__
unicode
p45
V900
p46
tp47
Rp48
ssS'loopsUnfinished'
p49
(lp50
g0
(cpsychopy.data.trial
TrialHandler
p51
g2
Ntp52
Rp53
(dp54
S'origin'
p55
NsS'thisTrial'
p56
NsS'_exp'
p57
I359429008
sg11
S'training_block'
p58
sg6
I-1
sS'thisRepN'
p59
I2
sg24
I01
sg25
g26
sS'data'
p60
g0
(cpsychopy.data.base
DataHandler
p61
c__builtin__
dict
p62
(dp63
S'ran'
p64
cnumpy.ma.core
_mareconstruct
p65
(cnumpy.ma.core
MaskedArray
p66
cnumpy
ndarray
p67
(I0
tp68
S'b'
p69
tp70
Rp71
(I1
(I1
I5
tp72
g31
(S'f4'
p73
I0
I1
tp74
Rp75
(I3
S'<'
p76
NNNI-1
I-1
I0
tp77
bI00
S'\x00\x00\x80?\x00\x00\x80?\x00\x00\x80?\x00\x00\x00\x00\x00\x00\x00\x00'
p78
S'\x00\x00\x00\x00\x00'
p79
Ntp80
bsg20
g65
(g66
g67
g68
g69
tp81
Rp82
(I1
(I1
I5
tp83
g75
I00
S'\xaa\xff\xa0@\xf0g\xacA\x03\xbb\xd5A\x00\x00\x00\x00\x00\x00\x00\x00'
p84
S'\x00\x00\x00\x01\x01'
p85
Ntp86
bsg19
cnumpy.core.multiarray
_reconstruct
p87
(g67
(I0
tp88
g69
tp89
Rp90
(I1
(I1
I5
tp91
g31
(S'O4'
p92
I0
I1
tp93
Rp94
(I3
S'|'
p95
NNNI-1
I-1
I63
tp96
bI00
(lp97
S'p'
p98
aS'p'
p99
aS's'
p100
aS'--'
p101
aS'--'
p102
atp103
bsS'order'
p104
g65
(g66
g67
g68
g69
tp105
Rp106
(I1
(I1
I5
tp107
g75
I00
S'\x00\x00\x00\x00\x00\x00\x80?\x00\x00\x00@\x00\x00\x00\x00\x00\x00\x00\x00'
p108
S'\x00\x00\x00\x01\x01'
p109
Ntp110
bstp111
Rp112
(dp113
S'isNumeric'
p114
(dp115
g64
I01
sg20
I01
sg19
I00
sg104
I01
ssS'trials'
p116
g53
sS'dataTypes'
p117
(lp118
g64
ag104
ag19
ag20
asS'dataShape'
p119
(lp120
I1
aI5
asbsS'method'
p121
S'random'
p122
sS'sequenceIndices'
p123
g87
(g67
(I0
tp124
g69
tp125
Rp126
(I1
(I1
I5
tp127
g31
(S'i4'
p128
I0
I1
tp129
Rp130
(I3
S'<'
p131
NNNI-1
I-1
I0
tp132
bI00
S'\x00\x00\x00\x00\x00\x00\x00\x00\x00\x00\x00\x00\x00\x00\x00\x00\x00\x00\x00\x00'
p133
tp134
bsS'finished'
p135
I00
sS'nReps'
p136
I5
sS'nRemaining'
p137
I2
sS'trialList'
p138
(lp139
NasS'seed'
p140
NsS'thisIndex'
p141
g30
(g130
S'\x00\x00\x00\x00'
p142
tp143
Rp144
sS'thisN'
p145
I2
sS'thisTrialN'
p146
I0
sS'nTotal'
p147
I5
sbasS'saveWideText'
p148
I00
sS'thisEntry'
p149
(dp150
sS'version'
p151
S''
p152
sS'_paramNamesSoFar'
p153
(lp154
S'item'
p155
aS'type'
p156
aS'word1'
p157
aS'word2'
p158
aS'word3'
p159
aS'word4'
p160
aS'word_duration'
p161
aS'follow_blank'
p162
aS'SOA'
p163
asS'entries'
p164
(lp165
(dp166
g41
g42
sg40
g12
sg43
g48
sg27
g28
sg15
S'space'
p167
sg29
g39
sg16
F4.04215860663453
sa(dp168
S'training_block.thisRepN'
p169
I0
sg18
F9.945584413224424
sS'training_block.thisN'
p170
I0
sS'word_presentation_training.thisTrialN'
p171
I0
sg41
g42
sg160
Vsigh
p172
sS'word_presentation_training.thisRepN'
p173
I0
sg43
g48
sg29
g39
sS'training_block.thisTrialN'
p174
I0
sg17
S'space'
p175
sg155
g30
(g31
(S'i8'
p176
I0
I1
tp177
Rp178
(I3
S'<'
p179
NNNI-1
I-1
I0
tp180
bS'\x01\x00\x00\x00\x00\x00\x00\x00'
p181
tp182
Rp183
sg40
g12
sg157
Vwait
p184
sS'word_presentation_training.thisIndex'
p185
g30
(g130
S'\x00\x00\x00\x00'
p186
tp187
Rp188
sg159
Vblush
p189
sg158
Vbless
p190
sg27
g28
sS'word_presentation_training.thisN'
p191
I0
sg156
Vtraining
p192
sS'training_block.thisIndex'
p193
g30
(g130
S'\x00\x00\x00\x00'
p194
tp195
Rp196
sa(dp197
S'training_block.thisRepN'
p198
I0
sg18
F8.033615623442074
sS'training_block.thisN'
p199
I0
sS'word_presentation_training.thisTrialN'
p200
I1
sg41
g42
sg160
Vyell
p201
sS'word_presentation_training.thisRepN'
p202
I0
sg43
g48
sg29
g39
sS'training_block.thisTrialN'
p203
I0
sg17
S'space'
p204
sg155
g30
(g178
S'\x02\x00\x00\x00\x00\x00\x00\x00'
p205
tp206
Rp207
sg40
g12
sg157
Vlike
p208
sS'word_presentation_training.thisIndex'
p209
g30
(g130
S'\x01\x00\x00\x00'
p210
tp211
Rp212
sg159
Vstare
p213
sg158
Vthank
p214
sg27
g28
sS'word_presentation_training.thisN'
p215
I1
sg156
g192
sS'training_block.thisIndex'
p216
g196
sa(dp217
S'training_block.thisRepN'
p218
I0
sg18
F8.603724032641821
sS'training_block.thisN'
p219
I0
sS'word_presentation_training.thisTrialN'
p220
I2
sg41
g42
sg160
Vprint
p221
sS'word_presentation_training.thisRepN'
p222
I0
sg43
g48
sg29
g39
sS'training_block.thisTrialN'
p223
I0
sg17
S'space'
p224
sg155
g30
(g178
S'\x04\x00\x00\x00\x00\x00\x00\x00'
p225
tp226
Rp227
sg40
g12
sg157
Vsave
p228
sS'word_presentation_training.thisIndex'
p229
g30
(g130
S'\x03\x00\x00\x00'
p230
tp231
Rp232
sg159
Vstay
p233
sg158
Vlook
p234
sg27
g28
sS'word_presentation_training.thisN'
p235
I2
sg156
g192
sS'training_block.thisIndex'
p236
g196
sa(dp237
S'training_block.thisRepN'
p238
I0
sg18
F11.23650653544928
sS'training_block.thisN'
p239
I0
sS'word_presentation_training.thisTrialN'
p240
I3
sg41
g42
sg160
Vsoothe
p241
sS'word_presentation_training.thisRepN'
p242
I0
sg43
g48
sg29
g39
sS'training_block.thisTrialN'
p243
I0
sg17
S'space'
p244
sg155
g30
(g178
S'\x03\x00\x00\x00\x00\x00\x00\x00'
p245
tp246
Rp247
sg40
g12
sg157
Vlick
p248
sS'word_presentation_training.thisIndex'
p249
g30
(g130
S'\x02\x00\x00\x00'
p250
tp251
Rp252
sg159
Vchew
p253
sg158
Vruin
p254
sg27
g28
sS'word_presentation_training.thisN'
p255
I3
sg156
g192
sS'training_block.thisIndex'
p256
g196
sa(dp257
S'training_block.thisRepN'
p258
I0
sS'training_block.thisN'
p259
I0
sg41
g42
sg29
g39
sS'training_block.thisTrialN'
p260
I0
sg20
F5.031209032440984
sg40
g12
sg19
g98
sg27
g28
sg43
g48
sS'training_block.thisIndex'
p261
g196
sa(dp262
S'training_block.thisRepN'
p263
I1
sg18
F4.881109426203238
sS'training_block.thisN'
p264
I1
sS'word_presentation_training.thisTrialN'
p265
I0
sg41
g42
sS'word4'
p266
Vprint
p267
sS'word_presentation_training.thisRepN'
p268
I0
sg43
g48
sg29
g39
sS'training_block.thisTrialN'
p269
I0
sg17
S'space'
p270
sS'item'
p271
g30
(g178
S'\x04\x00\x00\x00\x00\x00\x00\x00'
p272
tp273
Rp274
sg40
g12
sS'word1'
p275
Vsave
p276
sS'word_presentation_training.thisIndex'
p277
g30
(g130
S'\x03\x00\x00\x00'
p278
tp279
Rp280
sS'word3'
p281
Vstay
p282
sS'word2'
p283
Vlook
p284
sg27
g28
sS'word_presentation_training.thisN'
p285
I0
sS'type'
p286
Vtraining
p287
sS'training_block.thisIndex'
p288
g30
(g130
S'\x00\x00\x00\x00'
p289
tp290
Rp291
sa(dp292
S'training_block.thisRepN'
p293
I1
sg18
F4.075413893351197
sS'training_block.thisN'
p294
I1
sS'word_presentation_training.thisTrialN'
p295
I1
sg41
g42
sg266
Vsoothe
p296
sS'word_presentation_training.thisRepN'
p297
I0
sg43
g48
sg29
g39
sS'training_block.thisTrialN'
p298
I0
sg17
S'space'
p299
sg271
g30
(g178
S'\x03\x00\x00\x00\x00\x00\x00\x00'
p300
tp301
Rp302
sg40
g12
sg275
Vlick
p303
sS'word_presentation_training.thisIndex'
p304
g30
(g130
S'\x02\x00\x00\x00'
p305
tp306
Rp307
sg281
Vchew
p308
sg283
Vruin
p309
sg27
g28
sS'word_presentation_training.thisN'
p310
I1
sg286
g287
sS'training_block.thisIndex'
p311
g291
sa(dp312
S'training_block.thisRepN'
p313
I1
sg18
F3.7232748286619426
sS'training_block.thisN'
p314
I1
sS'word_presentation_training.thisTrialN'
p315
I2
sg41
g42
sg266
Vyell
p316
sS'word_presentation_training.thisRepN'
p317
I0
sg43
g48
sg29
g39
sS'training_block.thisTrialN'
p318
I0
sg17
S'space'
p319
sg271
g30
(g178
S'\x02\x00\x00\x00\x00\x00\x00\x00'
p320
tp321
Rp322
sg40
g12
sg275
Vlike
p323
sS'word_presentation_training.thisIndex'
p324
g30
(g130
S'\x01\x00\x00\x00'
p325
tp326
Rp327
sg281
Vstare
p328
sg283
Vthank
p329
sg27
g28
sS'word_presentation_training.thisN'
p330
I2
sg286
g287
sS'training_block.thisIndex'
p331
g291
sa(dp332
S'training_block.thisRepN'
p333
I1
sg18
F16.77059470573704
sS'training_block.thisN'
p334
I1
sS'word_presentation_training.thisTrialN'
p335
I3
sg41
g42
sg266
Vsigh
p336
sS'word_presentation_training.thisRepN'
p337
I0
sg43
g48
sg29
g39
sS'training_block.thisTrialN'
p338
I0
sg17
S'space'
p339
sg271
g30
(g178
S'\x01\x00\x00\x00\x00\x00\x00\x00'
p340
tp341
Rp342
sg40
g12
sg275
Vwait
p343
sS'word_presentation_training.thisIndex'
p344
g30
(g130
S'\x00\x00\x00\x00'
p345
tp346
Rp347
sg281
Vblush
p348
sg283
Vbless
p349
sg27
g28
sS'word_presentation_training.thisN'
p350
I3
sg286
g287
sS'training_block.thisIndex'
p351
g291
sa(dp352
S'training_block.thisRepN'
p353
I1
sS'training_block.thisN'
p354
I1
sg41
g42
sg29
g39
sS'training_block.thisTrialN'
p355
I0
sg20
F21.550751373190906
sg40
g12
sg19
g99
sg27
g28
sg43
g48
sS'training_block.thisIndex'
p356
g291
sa(dp357
S'training_block.thisRepN'
p358
I2
sg18
F12.880289976238146
sS'training_block.thisN'
p359
I2
sS'word_presentation_training.thisTrialN'
p360
I0
sg41
g42
sS'word4'
p361
Vsigh
p362
sS'word_presentation_training.thisRepN'
p363
I0
sg43
g48
sg29
g39
sS'training_block.thisTrialN'
p364
I0
sg17
S'space'
p365
sS'item'
p366
g30
(g178
S'\x01\x00\x00\x00\x00\x00\x00\x00'
p367
tp368
Rp369
sg40
g12
sS'word1'
p370
Vwait
p371
sS'word_presentation_training.thisIndex'
p372
g30
(g130
S'\x00\x00\x00\x00'
p373
tp374
Rp375
sS'word3'
p376
Vblush
p377
sS'word2'
p378
Vbless
p379
sg27
g28
sS'word_presentation_training.thisN'
p380
I0
sS'type'
p381
Vtraining
p382
sS'training_block.thisIndex'
p383
g144
sa(dp384
S'training_block.thisRepN'
p385
I2
sg18
F4.8302885143461936
sS'training_block.thisN'
p386
I2
sS'word_presentation_training.thisTrialN'
p387
I1
sg41
g42
sg361
Vprint
p388
sS'word_presentation_training.thisRepN'
p389
I0
sg43
g48
sg29
g39
sS'training_block.thisTrialN'
p390
I0
sg17
S'space'
p391
sg366
g30
(g178
S'\x04\x00\x00\x00\x00\x00\x00\x00'
p392
tp393
Rp394
sg40
g12
sg370
Vsave
p395
sS'word_presentation_training.thisIndex'
p396
g30
(g130
S'\x03\x00\x00\x00'
p397
tp398
Rp399
sg376
Vstay
p400
sg378
Vlook
p401
sg27
g28
sS'word_presentation_training.thisN'
p402
I1
sg381
g382
sS'training_block.thisIndex'
p403
g144
sa(dp404
S'training_block.thisRepN'
p405
I2
sg18
F11.688696726862418
sS'training_block.thisN'
p406
I2
sS'word_presentation_training.thisTrialN'
p407
I2
sg41
g42
sg361
Vyell
p408
sS'word_presentation_training.thisRepN'
p409
I0
sg43
g48
sg29
g39
sS'training_block.thisTrialN'
p410
I0
sg17
S'space'
p411
sg366
g30
(g178
S'\x02\x00\x00\x00\x00\x00\x00\x00'
p412
tp413
Rp414
sg40
g12
sg370
Vlike
p415
sS'word_presentation_training.thisIndex'
p416
g30
(g130
S'\x01\x00\x00\x00'
p417
tp418
Rp419
sg376
Vstare
p420
sg378
Vthank
p421
sg27
g28
sS'word_presentation_training.thisN'
p422
I2
sg381
g382
sS'training_block.thisIndex'
p423
g144
sa(dp424
S'training_block.thisRepN'
p425
I2
sg18
F4.059366660792875
sS'training_block.thisN'
p426
I2
sS'word_presentation_training.thisTrialN'
p427
I3
sg41
g42
sg361
Vsoothe
p428
sS'word_presentation_training.thisRepN'
p429
I0
sg43
g48
sg29
g39
sS'training_block.thisTrialN'
p430
I0
sg17
S'space'
p431
sg366
g30
(g178
S'\x03\x00\x00\x00\x00\x00\x00\x00'
p432
tp433
Rp434
sg40
g12
sg370
Vlick
p435
sS'word_presentation_training.thisIndex'
p436
g30
(g130
S'\x02\x00\x00\x00'
p437
tp438
Rp439
sg376
Vchew
p440
sg378
Vruin
p441
sg27
g28
sS'word_presentation_training.thisN'
p442
I3
sg381
g382
sS'training_block.thisIndex'
p443
g144
sa(dp444
S'training_block.thisRepN'
p445
I2
sS'training_block.thisN'
p446
I2
sg41
g42
sg22
F3.3546835477045533
sg29
g39
sS'training_block.thisTrialN'
p447
I0
sg20
F26.71631464033908
sg40
g12
sg19
g100
sg21
S'space'
p448
sg27
g28
sg43
g48
sS'training_block.thisIndex'
p449
g144
sa(dp450
S'training_block.thisRepN'
p451
I2
sg162
g30
(g34
S'\x9a\x99\x99\x99\x99\x99\xd9?'
p452
tp453
Rp454
sg29
g39
sS'word4'
p455
Vpolish
p456
sS'experimental_blocks.thisN'
p457
I0
sg41
g42
sS'word1'
p458
Vdelve
p459
sS'word3'
p460
Vbraid
p461
sS'word2'
p462
Vclean
p463
sS'experimental_blocks.thisIndex'
p464
g30
(g130
S'\x04\x00\x00\x00'
p465
tp466
Rp467
sS'word_presentation.thisRepN'
p468
I0
sS'experimental_blocks.thisRepN'
p469
I0
sg43
g48
sg161
g30
(g34
S'ffffff\xd6?'
p470
tp471
Rp472
sS'type'
p473
Varm
p474
sS'training_block.thisIndex'
p475
g144
sg163
g30
(g34
S'\x00\x00\x00\x00\x00\x00\xe8?'
p476
tp477
Rp478
sg18
F4.226924028216672
sS'experimental_blocks.thisTrialN'
p479
I0
sS'training_block.thisN'
p480
I2
sS'word_presentation.thisN'
p481
I0
sS'training_block.thisTrialN'
p482
I0
sg17
S'space'
p483
sg27
g28
sS'word_presentation.thisTrialN'
p484
I0
sg40
g12
sS'word_presentation.thisIndex'
p485
g30
(g130
S'\x00\x00\x00\x00'
p486
tp487
Rp488
sa(dp489
S'training_block.thisRepN'
p490
I2
sg162
g454
sg29
g39
sg455
Vdance
p491
sS'experimental_blocks.thisN'
p492
I0
sg41
g42
sg458
Vstumble
p493
sg460
Vkneel
p494
sg462
Vwander
p495
sS'experimental_blocks.thisIndex'
p496
g467
sS'word_presentation.thisRepN'
p497
I0
sS'experimental_blocks.thisRepN'
p498
I0
sg43
g48
sg161
g472
sg473
Vleg
p499
sS'training_block.thisIndex'
p500
g144
sg163
g478
sg18
F5.652203150891637
sS'experimental_blocks.thisTrialN'
p501
I0
sS'training_block.thisN'
p502
I2
sS'word_presentation.thisN'
p503
I1
sS'training_block.thisTrialN'
p504
I0
sg17
S'space'
p505
sg27
g28
sS'word_presentation.thisTrialN'
p506
I1
sg40
g12
sS'word_presentation.thisIndex'
p507
g30
(g130
S'\x01\x00\x00\x00'
p508
tp509
Rp510
sa(dp511
S'training_block.thisRepN'
p512
I2
sg162
g454
sg29
g39
sg455
Vstrut
p513
sS'experimental_blocks.thisN'
p514
I0
sg41
g42
sg458
Vslide
p515
sg460
Vstroll
p516
sg462
Vroam
p517
sS'experimental_blocks.thisIndex'
p518
g467
sS'word_presentation.thisRepN'
p519
I0
sS'experimental_blocks.thisRepN'
p520
I0
sg43
g48
sg161
g472
sg473
g499
sS'training_block.thisIndex'
p521
g144
sg163
g478
sg18
F10.280787256723215
sS'experimental_blocks.thisTrialN'
p522
I0
sS'training_block.thisN'
p523
I2
sS'word_presentation.thisN'
p524
I2
sS'training_block.thisTrialN'
p525
I0
sg17
S'space'
p526
sg27
g28
sS'word_presentation.thisTrialN'
p527
I2
sg40
g12
sS'word_presentation.thisIndex'
p528
g30
(g130
S'\x02\x00\x00\x00'
p529
tp530
Rp531
sa(dp532
S'training_block.thisRepN'
p533
I2
sg162
g454
sg29
g39
sg455
Vstamp
p534
sS'experimental_blocks.thisN'
p535
I0
sg41
g42
sg458
Vinch
p536
sg460
Vtraipse
p537
sg462
Vscuff
p538
sS'experimental_blocks.thisIndex'
p539
g467
sS'word_presentation.thisRepN'
p540
I0
sS'experimental_blocks.thisRepN'
p541
I0
sg43
g48
sg161
g472
sg473
g499
sS'training_block.thisIndex'
p542
g144
sg163
g478
sg18
F5.433938662155015
sS'experimental_blocks.thisTrialN'
p543
I0
sS'training_block.thisN'
p544
I2
sS'word_presentation.thisN'
p545
I3
sS'training_block.thisTrialN'
p546
I0
sg17
S'space'
p547
sg27
g28
sS'word_presentation.thisTrialN'
p548
I3
sg40
g12
sS'word_presentation.thisIndex'
p549
g30
(g130
S'\x03\x00\x00\x00'
p550
tp551
Rp552
sa(dp553
S'training_block.thisRepN'
p554
I2
sg162
g454
sg29
g39
sg455
Vsqueeze
p555
sS'experimental_blocks.thisN'
p556
I0
sg41
g42
sg458
Vsnatch
p557
sg460
Vscratch
p558
sg462
Vwrap
p559
sS'experimental_blocks.thisIndex'
p560
g467
sS'word_presentation.thisRepN'
p561
I0
sS'experimental_blocks.thisRepN'
p562
I0
sg43
g48
sg161
g472
sg473
g474
sS'training_block.thisIndex'
p563
g144
sg163
g478
sg18
F6.457116373748249
sS'experimental_blocks.thisTrialN'
p564
I0
sS'training_block.thisN'
p565
I2
sS'word_presentation.thisN'
p566
I4
sS'training_block.thisTrialN'
p567
I0
sg17
S'space'
p568
sg27
g28
sS'word_presentation.thisTrialN'
p569
I4
sg40
g12
sS'word_presentation.thisIndex'
p570
g30
(g130
S'\x04\x00\x00\x00'
p571
tp572
Rp573
sa(dp574
S'training_block.thisRepN'
p575
I2
sg162
g454
sg29
g39
sg455
Vslip
p576
sS'experimental_blocks.thisN'
p577
I0
sg41
g42
sg458
Vplod
p578
sg460
Vstep
p579
sg462
Vhop
p580
sS'experimental_blocks.thisIndex'
p581
g467
sS'word_presentation.thisRepN'
p582
I0
sS'experimental_blocks.thisRepN'
p583
I0
sg43
g48
sg161
g472
sg473
g499
sS'training_block.thisIndex'
p584
g144
sg163
g478
sg18
F7.27871769118974
sS'experimental_blocks.thisTrialN'
p585
I0
sS'training_block.thisN'
p586
I2
sS'word_presentation.thisN'
p587
I5
sS'training_block.thisTrialN'
p588
I0
sg17
S'space'
p589
sg27
g28
sS'word_presentation.thisTrialN'
p590
I5
sg40
g12
sS'word_presentation.thisIndex'
p591
g30
(g130
S'\x05\x00\x00\x00'
p592
tp593
Rp594
sa(dp595
S'training_block.thisRepN'
p596
I2
sg162
g454
sg29
g39
sg455
Vwobble
p597
sS'experimental_blocks.thisN'
p598
I0
sg41
g42
sg458
Vwalk
p599
sg460
Vjog
p600
sg462
Vskate
p601
sS'experimental_blocks.thisIndex'
p602
g467
sS'word_presentation.thisRepN'
p603
I0
sS'experimental_blocks.thisRepN'
p604
I0
sg43
g48
sg161
g472
sg473
g499
sS'training_block.thisIndex'
p605
g144
sg163
g478
sg18
F5.501217716871906
sS'experimental_blocks.thisTrialN'
p606
I0
sS'training_block.thisN'
p607
I2
sS'word_presentation.thisN'
p608
I6
sS'training_block.thisTrialN'
p609
I0
sg17
S'space'
p610
sg27
g28
sS'word_presentation.thisTrialN'
p611
I6
sg40
g12
sS'word_presentation.thisIndex'
p612
g30
(g130
S'\x06\x00\x00\x00'
p613
tp614
Rp615
sa(dp616
S'training_block.thisRepN'
p617
I2
sg162
g454
sg29
g39
sg455
Vknock
p618
sS'experimental_blocks.thisN'
p619
I0
sg41
g42
sg458
Vcarve
p620
sg460
Vscrub
p621
sg462
Vthrow
p622
sS'experimental_blocks.thisIndex'
p623
g467
sS'word_presentation.thisRepN'
p624
I0
sS'experimental_blocks.thisRepN'
p625
I0
sg43
g48
sg161
g472
sg473
g474
sS'training_block.thisIndex'
p626
g144
sg163
g478
sg18
F9.073336820802979
sS'experimental_blocks.thisTrialN'
p627
I0
sS'training_block.thisN'
p628
I2
sS'word_presentation.thisN'
p629
I7
sS'training_block.thisTrialN'
p630
I0
sg17
S'space'
p631
sg27
g28
sS'word_presentation.thisTrialN'
p632
I7
sg40
g12
sS'word_presentation.thisIndex'
p633
g30
(g130
S'\x07\x00\x00\x00'
p634
tp635
Rp636
sa(dp637
S'training_block.thisRepN'
p638
I2
sg162
g454
sg29
g39
sg455
Vpat
p639
sS'experimental_blocks.thisN'
p640
I0
sg41
g42
sg458
Vshake
p641
sg460
Vskim
p642
sg462
Vbrush
p643
sS'experimental_blocks.thisIndex'
p644
g467
sS'word_presentation.thisRepN'
p645
I0
sS'experimental_blocks.thisRepN'
p646
I0
sg43
g48
sg161
g472
sg473
g474
sS'training_block.thisIndex'
p647
g144
sg163
g478
sg18
F4.847131885611816
sS'experimental_blocks.thisTrialN'
p648
I0
sS'training_block.thisN'
p649
I2
sS'word_presentation.thisN'
p650
I8
sS'training_block.thisTrialN'
p651
I0
sg17
S'space'
p652
sg27
g28
sS'word_presentation.thisTrialN'
p653
I8
sg40
g12
sS'word_presentation.thisIndex'
p654
g30
(g130
S'\x08\x00\x00\x00'
p655
tp656
Rp657
sa(dp658
S'training_block.thisRepN'
p659
I2
sg162
g454
sg29
g39
sg455
Vchop
p660
sS'experimental_blocks.thisN'
p661
I0
sg41
g42
sg458
Vtug
p662
sg460
Vrub
p663
sg462
Vpinch
p664
sS'experimental_blocks.thisIndex'
p665
g467
sS'word_presentation.thisRepN'
p666
I0
sS'experimental_blocks.thisRepN'
p667
I0
sg43
g48
sg161
g472
sg473
g474
sS'training_block.thisIndex'
p668
g144
sg163
g478
sg18
F7.26208688698307
sS'experimental_blocks.thisTrialN'
p669
I0
sS'training_block.thisN'
p670
I2
sS'word_presentation.thisN'
p671
I9
sS'training_block.thisTrialN'
p672
I0
sg17
S'space'
p673
sg27
g28
sS'word_presentation.thisTrialN'
p674
I9
sg40
g12
sS'word_presentation.thisIndex'
p675
g30
(g130
S'\t\x00\x00\x00'
p676
tp677
Rp678
sa(dp679
S'training_block.thisRepN'
p680
I2
sg162
g454
sg29
g39
sg455
Vmount
p681
sS'experimental_blocks.thisN'
p682
I0
sg41
g42
sg458
Vcrawl
p683
sg460
Vslither
p684
sg462
Vsprint
p685
sS'experimental_blocks.thisIndex'
p686
g467
sS'word_presentation.thisRepN'
p687
I0
sS'experimental_blocks.thisRepN'
p688
I0
sg43
g48
sg161
g472
sg473
g499
sS'training_block.thisIndex'
p689
g144
sg163
g478
sg18
F4.495028380468284
sS'experimental_blocks.thisTrialN'
p690
I0
sS'training_block.thisN'
p691
I2
sS'word_presentation.thisN'
p692
I10
sS'training_block.thisTrialN'
p693
I0
sg17
S'space'
p694
sg27
g28
sS'word_presentation.thisTrialN'
p695
I10
sg40
g12
sS'word_presentation.thisIndex'
p696
g30
(g130
S'\n\x00\x00\x00'
p697
tp698
Rp699
sa(dp700
S'training_block.thisRepN'
p701
I2
sg162
g454
sg29
g39
sg455
Vtrip
p702
sS'experimental_blocks.thisN'
p703
I0
sg41
g42
sg458
Vbounce
p704
sg460
Vrun
p705
sg462
Vglide
p706
sS'experimental_blocks.thisIndex'
p707
g467
sS'word_presentation.thisRepN'
p708
I0
sS'experimental_blocks.thisRepN'
p709
I0
sg43
g48
sg161
g472
sg473
g499
sS'training_block.thisIndex'
p710
g144
sg163
g478
sg18
F4.6964246062570965
sS'experimental_blocks.thisTrialN'
p711
I0
sS'training_block.thisN'
p712
I2
sS'word_presentation.thisN'
p713
I11
sS'training_block.thisTrialN'
p714
I0
sg17
S'space'
p715
sg27
g28
sS'word_presentation.thisTrialN'
p716
I11
sg40
g12
sS'word_presentation.thisIndex'
p717
g30
(g130
S'\x0b\x00\x00\x00'
p718
tp719
Rp720
sa(dp721
S'training_block.thisRepN'
p722
I2
sg162
g454
sg29
g39
sg455
Vclaw
p723
sS'experimental_blocks.thisN'
p724
I0
sg41
g42
sg458
Vgrip
p725
sg460
Vnip
p726
sg462
Vbash
p727
sS'experimental_blocks.thisIndex'
p728
g467
sS'word_presentation.thisRepN'
p729
I0
sS'experimental_blocks.thisRepN'
p730
I0
sg43
g48
sg161
g472
sg473
g474
sS'training_block.thisIndex'
p731
g144
sg163
g478
sg18
F5.736175831678338
sS'experimental_blocks.thisTrialN'
p732
I0
sS'training_block.thisN'
p733
I2
sS'word_presentation.thisN'
p734
I12
sS'training_block.thisTrialN'
p735
I0
sg17
S'space'
p736
sg27
g28
sS'word_presentation.thisTrialN'
p737
I12
sg40
g12
sS'word_presentation.thisIndex'
p738
g30
(g130
S'\x0c\x00\x00\x00'
p739
tp740
Rp741
sa(dp742
S'training_block.thisRepN'
p743
I2
sg162
g454
sg29
g39
sg455
Vhack
p744
sS'experimental_blocks.thisN'
p745
I0
sg41
g42
sg458
Vstir
p746
sg460
Vpush
p747
sg462
Vbind
p748
sS'experimental_blocks.thisIndex'
p749
g467
sS'word_presentation.thisRepN'
p750
I0
sS'experimental_blocks.thisRepN'
p751
I0
sg43
g48
sg161
g472
sg473
g474
sS'training_block.thisIndex'
p752
g144
sg163
g478
sg18
F3.6725025148502937
sS'experimental_blocks.thisTrialN'
p753
I0
sS'training_block.thisN'
p754
I2
sS'word_presentation.thisN'
p755
I13
sS'training_block.thisTrialN'
p756
I0
sg17
S'space'
p757
sg27
g28
sS'word_presentation.thisTrialN'
p758
I13
sg40
g12
sS'word_presentation.thisIndex'
p759
g30
(g130
S'\r\x00\x00\x00'
p760
tp761
Rp762
sa(dp763
S'training_block.thisRepN'
p764
I2
sg162
g454
sg29
g39
sg455
Vprance
p765
sS'experimental_blocks.thisN'
p766
I0
sg41
g42
sg458
Vroll
p767
sg460
Vtread
p768
sg462
Vstomp
p769
sS'experimental_blocks.thisIndex'
p770
g467
sS'word_presentation.thisRepN'
p771
I0
sS'experimental_blocks.thisRepN'
p772
I0
sg43
g48
sg161
g472
sg473
g499
sS'training_block.thisIndex'
p773
g144
sg163
g478
sg18
F4.813558933624336
sS'experimental_blocks.thisTrialN'
p774
I0
sS'training_block.thisN'
p775
I2
sS'word_presentation.thisN'
p776
I14
sS'training_block.thisTrialN'
p777
I0
sg17
S'space'
p778
sg27
g28
sS'word_presentation.thisTrialN'
p779
I14
sg40
g12
sS'word_presentation.thisIndex'
p780
g30
(g130
S'\x0e\x00\x00\x00'
p781
tp782
Rp783
sa(dp784
S'training_block.thisRepN'
p785
I2
sg162
g454
sg29
g39
sg455
Vslap
p786
sS'experimental_blocks.thisN'
p787
I0
sg41
g42
sg458
Vwhip
p788
sg460
Vswitch
p789
sg462
Vgrate
p790
sS'experimental_blocks.thisIndex'
p791
g467
sS'word_presentation.thisRepN'
p792
I0
sS'experimental_blocks.thisRepN'
p793
I0
sg43
g48
sg161
g472
sg473
g474
sS'training_block.thisIndex'
p794
g144
sg163
g478
sg18
F5.099326897318861
sS'experimental_blocks.thisTrialN'
p795
I0
sS'training_block.thisN'
p796
I2
sS'word_presentation.thisN'
p797
I15
sS'training_block.thisTrialN'
p798
I0
sg17
S'space'
p799
sg27
g28
sS'word_presentation.thisTrialN'
p800
I15
sg40
g12
sS'word_presentation.thisIndex'
p801
g30
(g130
S'\x0f\x00\x00\x00'
p802
tp803
Rp804
sa(dp805
S'training_block.thisRepN'
p806
I2
sg162
g454
sg29
g39
sg455
Vcatch
p807
sS'experimental_blocks.thisN'
p808
I0
sg41
g42
sg458
Vdig
p809
sg460
Vdunk
p810
sg462
Vpunch
p811
sS'experimental_blocks.thisIndex'
p812
g467
sS'word_presentation.thisRepN'
p813
I0
sS'experimental_blocks.thisRepN'
p814
I0
sg43
g48
sg161
g472
sg473
g474
sS'training_block.thisIndex'
p815
g144
sg163
g478
sg18
F6.960285124335769
sS'experimental_blocks.thisTrialN'
p816
I0
sS'training_block.thisN'
p817
I2
sS'word_presentation.thisN'
p818
I16
sS'training_block.thisTrialN'
p819
I0
sg17
S'space'
p820
sg27
g28
sS'word_presentation.thisTrialN'
p821
I16
sg40
g12
sS'word_presentation.thisIndex'
p822
g30
(g130
S'\x10\x00\x00\x00'
p823
tp824
Rp825
sa(dp826
S'training_block.thisRepN'
p827
I2
sg162
g454
sg29
g39
sg455
Vclimb
p828
sS'experimental_blocks.thisN'
p829
I0
sg41
g42
sg458
Vsneak
p830
sg460
Vstagger
p831
sg462
Vcreep
p832
sS'experimental_blocks.thisIndex'
p833
g467
sS'word_presentation.thisRepN'
p834
I0
sS'experimental_blocks.thisRepN'
p835
I0
sg43
g48
sg161
g472
sg473
g499
sS'training_block.thisIndex'
p836
g144
sg163
g478
sg18
F5.1824674847471215
sS'experimental_blocks.thisTrialN'
p837
I0
sS'training_block.thisN'
p838
I2
sS'word_presentation.thisN'
p839
I17
sS'training_block.thisTrialN'
p840
I0
sg17
S'space'
p841
sg27
g28
sS'word_presentation.thisTrialN'
p842
I17
sg40
g12
sS'word_presentation.thisIndex'
p843
g30
(g130
S'\x11\x00\x00\x00'
p844
tp845
Rp846
sa(dp847
S'training_block.thisRepN'
p848
I2
sg162
g454
sg29
g39
sg455
Vmarch
p849
sS'experimental_blocks.thisN'
p850
I0
sg41
g42
sg458
Vrush
p851
sg460
Vtrudge
p852
sg462
Vtiptoe
p853
sS'experimental_blocks.thisIndex'
p854
g467
sS'word_presentation.thisRepN'
p855
I0
sS'experimental_blocks.thisRepN'
p856
I0
sg43
g48
sg161
g472
sg473
g499
sS'training_block.thisIndex'
p857
g144
sg163
g478
sg18
F3.992283183575182
sS'experimental_blocks.thisTrialN'
p858
I0
sS'training_block.thisN'
p859
I2
sS'word_presentation.thisN'
p860
I18
sS'training_block.thisTrialN'
p861
I0
sg17
S'space'
p862
sg27
g28
sS'word_presentation.thisTrialN'
p863
I18
sg40
g12
sS'word_presentation.thisIndex'
p864
g30
(g130
S'\x12\x00\x00\x00'
p865
tp866
Rp867
sa(dp868
S'training_block.thisRepN'
p869
I2
sg162
g454
sg29
g39
sg455
Vclutch
p870
sS'experimental_blocks.thisN'
p871
I0
sg41
g42
sg458
Vseize
p872
sg460
Vgrab
p873
sg462
Vlift
p874
sS'experimental_blocks.thisIndex'
p875
g467
sS'word_presentation.thisRepN'
p876
I0
sS'experimental_blocks.thisRepN'
p877
I0
sg43
g48
sg161
g472
sg473
g474
sS'training_block.thisIndex'
p878
g144
sg163
g478
sg18
F5.098625979171629
sS'experimental_blocks.thisTrialN'
p879
I0
sS'training_block.thisN'
p880
I2
sS'word_presentation.thisN'
p881
I19
sS'training_block.thisTrialN'
p882
I0
sg17
S'space'
p883
sg27
g28
sS'word_presentation.thisTrialN'
p884
I19
sg40
g12
sS'word_presentation.thisIndex'
p885
g30
(g130
S'\x13\x00\x00\x00'
p886
tp887
Rp888
sa(dp889
S'training_block.thisRepN'
p890
I2
sg162
g454
sg29
g39
sg455
Vpoke
p891
sS'experimental_blocks.thisN'
p892
I0
sg41
g42
sg458
Vscoop
p893
sg460
Vtoss
p894
sg462
Vwipe
p895
sS'experimental_blocks.thisIndex'
p896
g467
sS'word_presentation.thisRepN'
p897
I0
sS'experimental_blocks.thisRepN'
p898
I0
sg43
g48
sg161
g472
sg473
g474
sS'training_block.thisIndex'
p899
g144
sg163
g478
sg18
F5.366999398648204
sS'experimental_blocks.thisTrialN'
p900
I0
sS'training_block.thisN'
p901
I2
sS'word_presentation.thisN'
p902
I20
sS'training_block.thisTrialN'
p903
I0
sg17
S'space'
p904
sg27
g28
sS'word_presentation.thisTrialN'
p905
I20
sg40
g12
sS'word_presentation.thisIndex'
p906
g30
(g130
S'\x14\x00\x00\x00'
p907
tp908
Rp909
sa(dp910
S'training_block.thisRepN'
p911
I2
sg162
g454
sg29
g39
sg455
Vlimp
p912
sS'experimental_blocks.thisN'
p913
I0
sg41
g42
sg458
Vleap
p914
sg460
Vstride
p915
sg462
Vhike
p916
sS'experimental_blocks.thisIndex'
p917
g467
sS'word_presentation.thisRepN'
p918
I0
sS'experimental_blocks.thisRepN'
p919
I0
sg43
g48
sg161
g472
sg473
g499
sS'training_block.thisIndex'
p920
g144
sg163
g478
sg18
F5.9538018290249966
sS'experimental_blocks.thisTrialN'
p921
I0
sS'training_block.thisN'
p922
I2
sS'word_presentation.thisN'
p923
I21
sS'training_block.thisTrialN'
p924
I0
sg17
S'space'
p925
sg27
g28
sS'word_presentation.thisTrialN'
p926
I21
sg40
g12
sS'word_presentation.thisIndex'
p927
g30
(g130
S'\x15\x00\x00\x00'
p928
tp929
Rp930
sa(dp931
S'training_block.thisRepN'
p932
I2
sg162
g454
sg29
g39
sg455
Vpull
p933
sS'experimental_blocks.thisN'
p934
I0
sg41
g42
sg458
Vfile
p935
sg460
Vclap
p936
sg462
Vstab
p937
sS'experimental_blocks.thisIndex'
p938
g467
sS'word_presentation.thisRepN'
p939
I0
sS'experimental_blocks.thisRepN'
p940
I0
sg43
g48
sg161
g472
sg473
g474
sS'training_block.thisIndex'
p941
g144
sg163
g478
sg18
F5.920428800703121
sS'experimental_blocks.thisTrialN'
p942
I0
sS'training_block.thisN'
p943
I2
sS'word_presentation.thisN'
p944
I22
sS'training_block.thisTrialN'
p945
I0
sg17
S'space'
p946
sg27
g28
sS'word_presentation.thisTrialN'
p947
I22
sg40
g12
sS'word_presentation.thisIndex'
p948
g30
(g130
S'\x16\x00\x00\x00'
p949
tp950
Rp951
sa(dp952
S'training_block.thisRepN'
p953
I2
sg162
g454
sg29
g39
sg455
Vjump
p954
sS'experimental_blocks.thisN'
p955
I0
sg41
g42
sg458
Vskip
p956
sg460
Vtrek
p957
sg462
Vstray
p958
sS'experimental_blocks.thisIndex'
p959
g467
sS'word_presentation.thisRepN'
p960
I0
sS'experimental_blocks.thisRepN'
p961
I0
sg43
g48
sg161
g472
sg473
g499
sS'training_block.thisIndex'
p962
g144
sg163
g478
sg18
F6.523955280315931
sS'experimental_blocks.thisTrialN'
p963
I0
sS'training_block.thisN'
p964
I2
sS'word_presentation.thisN'
p965
I23
sS'training_block.thisTrialN'
p966
I0
sg17
S'space'
p967
sg27
g28
sS'word_presentation.thisTrialN'
p968
I23
sg40
g12
sS'word_presentation.thisIndex'
p969
g30
(g130
S'\x17\x00\x00\x00'
p970
tp971
Rp972
sa(dp973
S'training_block.thisRepN'
p974
I2
sg162
g454
sg29
g39
sg455
Vclick
p975
sS'experimental_blocks.thisN'
p976
I0
sg41
g42
sg458
Vcut
p977
sg460
Vfold
p978
sg462
Vpeel
p979
sS'experimental_blocks.thisIndex'
p980
g467
sS'word_presentation.thisRepN'
p981
I0
sS'experimental_blocks.thisRepN'
p982
I0
sg43
g48
sg161
g472
sg473
g474
sS'training_block.thisIndex'
p983
g144
sg163
g478
sg18
F7.010484929469385
sS'experimental_blocks.thisTrialN'
p984
I0
sS'training_block.thisN'
p985
I2
sS'word_presentation.thisN'
p986
I24
sS'training_block.thisTrialN'
p987
I0
sg17
S'space'
p988
sg27
g28
sS'word_presentation.thisTrialN'
p989
I24
sg40
g12
sS'word_presentation.thisIndex'
p990
g30
(g130
S'\x18\x00\x00\x00'
p991
tp992
Rp993
sa(dp994
S'training_block.thisRepN'
p995
I2
sg162
g454
sg29
g39
sg455
Vflee
p996
sS'experimental_blocks.thisN'
p997
I0
sg41
g42
sg458
Vramble
p998
sg460
Vflit
p999
sg462
Vwade
p1000
sS'experimental_blocks.thisIndex'
p1001
g467
sS'word_presentation.thisRepN'
p1002
I0
sS'experimental_blocks.thisRepN'
p1003
I0
sg43
g48
sg161
g472
sg473
g499
sS'training_block.thisIndex'
p1004
g144
sg163
g478
sg18
F7.110126331211177
sS'experimental_blocks.thisTrialN'
p1005
I0
sS'training_block.thisN'
p1006
I2
sS'word_presentation.thisN'
p1007
I25
sS'training_block.thisTrialN'
p1008
I0
sg17
S'space'
p1009
sg27
g28
sS'word_presentation.thisTrialN'
p1010
I25
sg40
g12
sS'word_presentation.thisIndex'
p1011
g30
(g130
S'\x19\x00\x00\x00'
p1012
tp1013
Rp1014
sa(dp1015
S'training_block.thisRepN'
p1016
I2
sg162
g454
sg29
g39
sg455
Vpace
p1017
sS'experimental_blocks.thisN'
p1018
I0
sg41
g42
sg458
Vsway
p1019
sg460
Vtrot
p1020
sg462
Vkick
p1021
sS'experimental_blocks.thisIndex'
p1022
g467
sS'word_presentation.thisRepN'
p1023
I0
sS'experimental_blocks.thisRepN'
p1024
I0
sg43
g48
sg161
g472
sg473
g499
sS'training_block.thisIndex'
p1025
g144
sg163
g478
sg18
F5.283270498299771
sS'experimental_blocks.thisTrialN'
p1026
I0
sS'training_block.thisN'
p1027
I2
sS'word_presentation.thisN'
p1028
I26
sS'training_block.thisTrialN'
p1029
I0
sg17
S'space'
p1030
sg27
g28
sS'word_presentation.thisTrialN'
p1031
I26
sg40
g12
sS'word_presentation.thisIndex'
p1032
g30
(g130
S'\x1a\x00\x00\x00'
p1033
tp1034
Rp1035
sa(dp1036
S'training_block.thisRepN'
p1037
I2
sg162
g454
sg29
g39
sg455
Vwash
p1038
sS'experimental_blocks.thisN'
p1039
I0
sg41
g42
sg458
Vgrasp
p1040
sg460
Vscrape
p1041
sg462
Vtwine
p1042
sS'experimental_blocks.thisIndex'
p1043
g467
sS'word_presentation.thisRepN'
p1044
I0
sS'experimental_blocks.thisRepN'
p1045
I0
sg43
g48
sg161
g472
sg473
g474
sS'training_block.thisIndex'
p1046
g144
sg163
g478
sg18
F4.998059634147467
sS'experimental_blocks.thisTrialN'
p1047
I0
sS'training_block.thisN'
p1048
I2
sS'word_presentation.thisN'
p1049
I27
sS'training_block.thisTrialN'
p1050
I0
sg17
S'space'
p1051
sg27
g28
sS'word_presentation.thisTrialN'
p1052
I27
sg40
g12
sS'word_presentation.thisIndex'
p1053
g30
(g130
S'\x1b\x00\x00\x00'
p1054
tp1055
Rp1056
sa(dp1057
S'training_block.thisRepN'
p1058
I2
sg162
g454
sS'experimental_blocks.thisRepN'
p1059
I0
sS'experimental_blocks.thisTrialN'
p1060
I0
sS'training_block.thisN'
p1061
I2
sg41
g42
sg40
g12
sg29
g39
sS'training_block.thisTrialN'
p1062
I0
sg43
g48
sS'experimental_blocks.thisN'
p1063
I0
sg163
g478
sg27
g28
sS'experimental_blocks.thisIndex'
p1064
g467
sg161
g472
sS'training_block.thisIndex'
p1065
g144
sa(dp1066
S'training_block.thisRepN'
p1067
I2
sg162
g30
(g34
S'\x9a\x99\x99\x99\x99\x99\xd9?'
p1068
tp1069
Rp1070
sg29
g39
sS'word4'
p1071
Vfile
p1072
sS'experimental_blocks.thisN'
p1073
I1
sg41
g42
sS'word1'
p1074
Vgrab
p1075
sS'word3'
p1076
Vlift
p1077
sS'word2'
p1078
Vdunk
p1079
sS'experimental_blocks.thisIndex'
p1080
g30
(g130
S'\x01\x00\x00\x00'
p1081
tp1082
Rp1083
sS'word_presentation.thisRepN'
p1084
I0
sS'experimental_blocks.thisRepN'
p1085
I0
sg43
g48
sg161
g30
(g34
S'\x9a\x99\x99\x99\x99\x99\xc9?'
p1086
tp1087
Rp1088
sS'type'
p1089
Varm
p1090
sS'training_block.thisIndex'
p1091
g144
sg163
g30
(g34
S'333333\xe3?'
p1092
tp1093
Rp1094
sg18
F3.9754919663087094
sS'experimental_blocks.thisTrialN'
p1095
I1
sS'training_block.thisN'
p1096
I2
sS'word_presentation.thisN'
p1097
I0
sS'training_block.thisTrialN'
p1098
I0
sg17
S'space'
p1099
sg27
g28
sS'word_presentation.thisTrialN'
p1100
I0
sg40
g12
sS'word_presentation.thisIndex'
p1101
g30
(g130
S'\x00\x00\x00\x00'
p1102
tp1103
Rp1104
sa(dp1105
S'training_block.thisRepN'
p1106
I2
sg162
g1070
sg29
g39
sg1071
Vtwine
p1107
sS'experimental_blocks.thisN'
p1108
I1
sg41
g42
sg1074
Vfold
p1109
sg1076
Vwhip
p1110
sg1078
Vclutch
p1111
sS'experimental_blocks.thisIndex'
p1112
g1083
sS'word_presentation.thisRepN'
p1113
I0
sS'experimental_blocks.thisRepN'
p1114
I0
sg43
g48
sg161
g1088
sg1089
g1090
sS'training_block.thisIndex'
p1115
g144
sg163
g1094
sg18
F5.618617160404483
sS'experimental_blocks.thisTrialN'
p1116
I1
sS'training_block.thisN'
p1117
I2
sS'word_presentation.thisN'
p1118
I1
sS'training_block.thisTrialN'
p1119
I0
sg17
S'space'
p1120
sg27
g28
sS'word_presentation.thisTrialN'
p1121
I1
sg40
g12
sS'word_presentation.thisIndex'
p1122
g30
(g130
S'\x01\x00\x00\x00'
p1123
tp1124
Rp1125
sa(dp1126
S'training_block.thisRepN'
p1127
I2
sg162
g1070
sg29
g39
sg1071
Vrub
p1128
sS'experimental_blocks.thisN'
p1129
I1
sg41
g42
sg1074
Vnip
p1130
sg1076
Vpinch
p1131
sg1078
Vthrow
p1132
sS'experimental_blocks.thisIndex'
p1133
g1083
sS'word_presentation.thisRepN'
p1134
I0
sS'experimental_blocks.thisRepN'
p1135
I0
sg43
g48
sg161
g1088
sg1089
g1090
sS'training_block.thisIndex'
p1136
g144
sg163
g1094
sg18
F3.454934993199913
sS'experimental_blocks.thisTrialN'
p1137
I1
sS'training_block.thisN'
p1138
I2
sS'word_presentation.thisN'
p1139
I2
sS'training_block.thisTrialN'
p1140
I0
sg17
S'space'
p1141
sg27
g28
sS'word_presentation.thisTrialN'
p1142
I2
sg40
g12
sS'word_presentation.thisIndex'
p1143
g30
(g130
S'\x02\x00\x00\x00'
p1144
tp1145
Rp1146
sa(dp1147
S'training_block.thisRepN'
p1148
I2
sg162
g1070
sg29
g39
sg1071
Vlimp
p1149
sS'experimental_blocks.thisN'
p1150
I1
sg41
g42
sg1074
Vwander
p1151
sg1076
Vstride
p1152
sg1078
Vstep
p1153
sS'experimental_blocks.thisIndex'
p1154
g1083
sS'word_presentation.thisRepN'
p1155
I0
sS'experimental_blocks.thisRepN'
p1156
I0
sg43
g48
sg161
g1088
sg1089
Vleg
p1157
sS'training_block.thisIndex'
p1158
g144
sg163
g1094
sg18
F4.4282131802638105
sS'experimental_blocks.thisTrialN'
p1159
I1
sS'training_block.thisN'
p1160
I2
sS'word_presentation.thisN'
p1161
I3
sS'training_block.thisTrialN'
p1162
I0
sg17
S'space'
p1163
sg27
g28
sS'word_presentation.thisTrialN'
p1164
I3
sg40
g12
sS'word_presentation.thisIndex'
p1165
g30
(g130
S'\x03\x00\x00\x00'
p1166
tp1167
Rp1168
sa(dp1169
S'training_block.thisRepN'
p1170
I2
sg162
g1070
sg29
g39
sg1071
Vprance
p1171
sS'experimental_blocks.thisN'
p1172
I1
sg41
g42
sg1074
Vplod
p1173
sg1076
Vscuff
p1174
sg1078
Vslide
p1175
sS'experimental_blocks.thisIndex'
p1176
g1083
sS'word_presentation.thisRepN'
p1177
I0
sS'experimental_blocks.thisRepN'
p1178
I0
sg43
g48
sg161
g1088
sg1089
g1157
sS'training_block.thisIndex'
p1179
g144
sg163
g1094
sg18
F8.31874074957932
sS'experimental_blocks.thisTrialN'
p1180
I1
sS'training_block.thisN'
p1181
I2
sS'word_presentation.thisN'
p1182
I4
sS'training_block.thisTrialN'
p1183
I0
sg17
S'space'
p1184
sg27
g28
sS'word_presentation.thisTrialN'
p1185
I4
sg40
g12
sS'word_presentation.thisIndex'
p1186
g30
(g130
S'\x04\x00\x00\x00'
p1187
tp1188
Rp1189
sa(dp1190
S'training_block.thisRepN'
p1191
I2
sg162
g1070
sg29
g39
sg1071
Vwrap
p1192
sS'experimental_blocks.thisN'
p1193
I1
sg41
g42
sg1074
Vscrub
p1194
sg1076
Vtug
p1195
sg1078
Vpat
p1196
sS'experimental_blocks.thisIndex'
p1197
g1083
sS'word_presentation.thisRepN'
p1198
I0
sS'experimental_blocks.thisRepN'
p1199
I0
sg43
g48
sg161
g1088
sg1089
g1090
sS'training_block.thisIndex'
p1200
g144
sg163
g1094
sg18
F5.552472060075161
sS'experimental_blocks.thisTrialN'
p1201
I1
sS'training_block.thisN'
p1202
I2
sS'word_presentation.thisN'
p1203
I5
sS'training_block.thisTrialN'
p1204
I0
sg17
S'space'
p1205
sg27
g28
sS'word_presentation.thisTrialN'
p1206
I5
sg40
g12
sS'word_presentation.thisIndex'
p1207
g30
(g130
S'\x05\x00\x00\x00'
p1208
tp1209
Rp1210
sa(dp1211
S'training_block.thisRepN'
p1212
I2
sg162
g1070
sg29
g39
sg1071
Vsway
p1213
sS'experimental_blocks.thisN'
p1214
I1
sg41
g42
sg1074
Vstomp
p1215
sg1076
Vclimb
p1216
sg1078
Vkick
p1217
sS'experimental_blocks.thisIndex'
p1218
g1083
sS'word_presentation.thisRepN'
p1219
I0
sS'experimental_blocks.thisRepN'
p1220
I0
sg43
g48
sg161
g1088
sg1089
g1157
sS'training_block.thisIndex'
p1221
g144
sg163
g1094
sg18
F8.419485682541563
sS'experimental_blocks.thisTrialN'
p1222
I1
sS'training_block.thisN'
p1223
I2
sS'word_presentation.thisN'
p1224
I6
sS'training_block.thisTrialN'
p1225
I0
sg17
S'space'
p1226
sg27
g28
sS'word_presentation.thisTrialN'
p1227
I6
sg40
g12
sS'word_presentation.thisIndex'
p1228
g30
(g130
S'\x06\x00\x00\x00'
p1229
tp1230
Rp1231
sa(dp1232
S'training_block.thisRepN'
p1233
I2
sg162
g1070
sg29
g39
sg1071
Vwalk
p1234
sS'experimental_blocks.thisN'
p1235
I1
sg41
g42
sg1074
Vdance
p1236
sg1076
Vinch
p1237
sg1078
Vstrut
p1238
sS'experimental_blocks.thisIndex'
p1239
g1083
sS'word_presentation.thisRepN'
p1240
I0
sS'experimental_blocks.thisRepN'
p1241
I0
sg43
g48
sg161
g1088
sg1089
g1157
sS'training_block.thisIndex'
p1242
g144
sg163
g1094
sg18
F4.394094981916169
sS'experimental_blocks.thisTrialN'
p1243
I1
sS'training_block.thisN'
p1244
I2
sS'word_presentation.thisN'
p1245
I7
sS'training_block.thisTrialN'
p1246
I0
sg17
S'space'
p1247
sg27
g28
sS'word_presentation.thisTrialN'
p1248
I7
sg40
g12
sS'word_presentation.thisIndex'
p1249
g30
(g130
S'\x07\x00\x00\x00'
p1250
tp1251
Rp1252
sa(dp1253
S'training_block.thisRepN'
p1254
I2
sg162
g1070
sg29
g39
sg1071
Vslither
p1255
sS'experimental_blocks.thisN'
p1256
I1
sg41
g42
sg1074
Vtread
p1257
sg1076
Vtraipse
p1258
sg1078
Vleap
p1259
sS'experimental_blocks.thisIndex'
p1260
g1083
sS'word_presentation.thisRepN'
p1261
I0
sS'experimental_blocks.thisRepN'
p1262
I0
sg43
g48
sg161
g1088
sg1089
g1157
sS'training_block.thisIndex'
p1263
g144
sg163
g1094
sg18
F10.163246365221767
sS'experimental_blocks.thisTrialN'
p1264
I1
sS'training_block.thisN'
p1265
I2
sS'word_presentation.thisN'
p1266
I8
sS'training_block.thisTrialN'
p1267
I0
sg17
S'space'
p1268
sg27
g28
sS'word_presentation.thisTrialN'
p1269
I8
sg40
g12
sS'word_presentation.thisIndex'
p1270
g30
(g130
S'\x08\x00\x00\x00'
p1271
tp1272
Rp1273
sa(dp1274
S'training_block.thisRepN'
p1275
I2
sg162
g1070
sg29
g39
sg1071
Vseize
p1276
sS'experimental_blocks.thisN'
p1277
I1
sg41
g42
sg1074
Vgrip
p1278
sg1076
Vbind
p1279
sg1078
Vgrasp
p1280
sS'experimental_blocks.thisIndex'
p1281
g1083
sS'word_presentation.thisRepN'
p1282
I0
sS'experimental_blocks.thisRepN'
p1283
I0
sg43
g48
sg161
g1088
sg1089
g1090
sS'training_block.thisIndex'
p1284
g144
sg163
g1094
sg18
F4.914454797101371
sS'experimental_blocks.thisTrialN'
p1285
I1
sS'training_block.thisN'
p1286
I2
sS'word_presentation.thisN'
p1287
I9
sS'training_block.thisTrialN'
p1288
I0
sg17
S'space'
p1289
sg27
g28
sS'word_presentation.thisTrialN'
p1290
I9
sg40
g12
sS'word_presentation.thisIndex'
p1291
g30
(g130
S'\t\x00\x00\x00'
p1292
tp1293
Rp1294
sa(dp1295
S'training_block.thisRepN'
p1296
I2
sg162
g1070
sg29
g39
sg1071
Vpeel
p1297
sS'experimental_blocks.thisN'
p1298
I1
sg41
g42
sg1074
Vclean
p1299
sg1076
Vcatch
p1300
sg1078
Vtoss
p1301
sS'experimental_blocks.thisIndex'
p1302
g1083
sS'word_presentation.thisRepN'
p1303
I0
sS'experimental_blocks.thisRepN'
p1304
I0
sg43
g48
sg161
g1088
sg1089
g1090
sS'training_block.thisIndex'
p1305
g144
sg163
g1094
sg18
F27.42084445227647
sS'experimental_blocks.thisTrialN'
p1306
I1
sS'training_block.thisN'
p1307
I2
sS'word_presentation.thisN'
p1308
I10
sS'training_block.thisTrialN'
p1309
I0
sg17
S'space'
p1310
sg27
g28
sS'word_presentation.thisTrialN'
p1311
I10
sg40
g12
sS'word_presentation.thisIndex'
p1312
g30
(g130
S'\n\x00\x00\x00'
p1313
tp1314
Rp1315
sa(dp1316
S'training_block.thisRepN'
p1317
I2
sg162
g1070
sg29
g39
sg1071
Vrun
p1318
sS'experimental_blocks.thisN'
p1319
I1
sg41
g42
sg1074
Vskate
p1320
sg1076
Vslip
p1321
sg1078
Vbounce
p1322
sS'experimental_blocks.thisIndex'
p1323
g1083
sS'word_presentation.thisRepN'
p1324
I0
sS'experimental_blocks.thisRepN'
p1325
I0
sg43
g48
sg161
g1088
sg1089
g1157
sS'training_block.thisIndex'
p1326
g144
sg163
g1094
sg18
F8.38548522579913
sS'experimental_blocks.thisTrialN'
p1327
I1
sS'training_block.thisN'
p1328
I2
sS'word_presentation.thisN'
p1329
I11
sS'training_block.thisTrialN'
p1330
I0
sg17
S'space'
p1331
sg27
g28
sS'word_presentation.thisTrialN'
p1332
I11
sg40
g12
sS'word_presentation.thisIndex'
p1333
g30
(g130
S'\x0b\x00\x00\x00'
p1334
tp1335
Rp1336
sa(dp1337
S'training_block.thisRepN'
p1338
I2
sg162
g1070
sg29
g39
sg1071
Vhack
p1339
sS'experimental_blocks.thisN'
p1340
I1
sg41
g42
sg1074
Vstir
p1341
sg1076
Vshake
p1342
sg1078
Vcut
p1343
sS'experimental_blocks.thisIndex'
p1344
g1083
sS'word_presentation.thisRepN'
p1345
I0
sS'experimental_blocks.thisRepN'
p1346
I0
sg43
g48
sg161
g1088
sg1089
g1090
sS'training_block.thisIndex'
p1347
g144
sg163
g1094
sg18
F7.564104377538115
sS'experimental_blocks.thisTrialN'
p1348
I1
sS'training_block.thisN'
p1349
I2
sS'word_presentation.thisN'
p1350
I12
sS'training_block.thisTrialN'
p1351
I0
sg17
S'space'
p1352
sg27
g28
sS'word_presentation.thisTrialN'
p1353
I12
sg40
g12
sS'word_presentation.thisIndex'
p1354
g30
(g130
S'\x0c\x00\x00\x00'
p1355
tp1356
Rp1357
sa(dp1358
S'training_block.thisRepN'
p1359
I2
sg162
g1070
sg29
g39
sg1071
Vsqueeze
p1360
sS'experimental_blocks.thisN'
p1361
I1
sg41
g42
sg1074
Vscratch
p1362
sg1076
Vswitch
p1363
sg1078
Vdig
p1364
sS'experimental_blocks.thisIndex'
p1365
g1083
sS'word_presentation.thisRepN'
p1366
I0
sS'experimental_blocks.thisRepN'
p1367
I0
sg43
g48
sg161
g1088
sg1089
g1090
sS'training_block.thisIndex'
p1368
g144
sg163
g1094
sg18
F9.810650953035292
sS'experimental_blocks.thisTrialN'
p1369
I1
sS'training_block.thisN'
p1370
I2
sS'word_presentation.thisN'
p1371
I13
sS'training_block.thisTrialN'
p1372
I0
sg17
S'space'
p1373
sg27
g28
sS'word_presentation.thisTrialN'
p1374
I13
sg40
g12
sS'word_presentation.thisIndex'
p1375
g30
(g130
S'\r\x00\x00\x00'
p1376
tp1377
Rp1378
sa(dp1379
S'training_block.thisRepN'
p1380
I2
sg162
g1070
sg29
g39
sg1071
Vclick
p1381
sS'experimental_blocks.thisN'
p1382
I1
sg41
g42
sg1074
Vpush
p1383
sg1076
Vknock
p1384
sg1078
Vwash
p1385
sS'experimental_blocks.thisIndex'
p1386
g1083
sS'word_presentation.thisRepN'
p1387
I0
sS'experimental_blocks.thisRepN'
p1388
I0
sg43
g48
sg161
g1088
sg1089
g1090
sS'training_block.thisIndex'
p1389
g144
sg163
g1094
sg18
F6.35676575663183
sS'experimental_blocks.thisTrialN'
p1390
I1
sS'training_block.thisN'
p1391
I2
sS'word_presentation.thisN'
p1392
I14
sS'training_block.thisTrialN'
p1393
I0
sg17
S'space'
p1394
sg27
g28
sS'word_presentation.thisTrialN'
p1395
I14
sg40
g12
sS'word_presentation.thisIndex'
p1396
g30
(g130
S'\x0e\x00\x00\x00'
p1397
tp1398
Rp1399
sa(dp1400
S'training_block.thisRepN'
p1401
I2
sg162
g1070
sg29
g39
sg1071
Vtrip
p1402
sS'experimental_blocks.thisN'
p1403
I1
sg41
g42
sg1074
Vhop
p1404
sg1076
Vroll
p1405
sg1078
Vpace
p1406
sS'experimental_blocks.thisIndex'
p1407
g1083
sS'word_presentation.thisRepN'
p1408
I0
sS'experimental_blocks.thisRepN'
p1409
I0
sg43
g48
sg161
g1088
sg1089
g1157
sS'training_block.thisIndex'
p1410
g144
sg163
g1094
sg18
F6.340105319471149
sS'experimental_blocks.thisTrialN'
p1411
I1
sS'training_block.thisN'
p1412
I2
sS'word_presentation.thisN'
p1413
I15
sS'training_block.thisTrialN'
p1414
I0
sg17
S'space'
p1415
sg27
g28
sS'word_presentation.thisTrialN'
p1416
I15
sg40
g12
sS'word_presentation.thisIndex'
p1417
g30
(g130
S'\x0f\x00\x00\x00'
p1418
tp1419
Rp1420
sa(dp1421
S'training_block.thisRepN'
p1422
I2
sg162
g1070
sg29
g39
sg1071
Vmount
p1423
sS'experimental_blocks.thisN'
p1424
I1
sg41
g42
sg1074
Vstamp
p1425
sg1076
Vsprint
p1426
sg1078
Vstagger
p1427
sS'experimental_blocks.thisIndex'
p1428
g1083
sS'word_presentation.thisRepN'
p1429
I0
sS'experimental_blocks.thisRepN'
p1430
I0
sg43
g48
sg161
g1088
sg1089
g1157
sS'training_block.thisIndex'
p1431
g144
sg163
g1094
sg18
F7.748551738743117
sS'experimental_blocks.thisTrialN'
p1432
I1
sS'training_block.thisN'
p1433
I2
sS'word_presentation.thisN'
p1434
I16
sS'training_block.thisTrialN'
p1435
I0
sg17
S'space'
p1436
sg27
g28
sS'word_presentation.thisTrialN'
p1437
I16
sg40
g12
sS'word_presentation.thisIndex'
p1438
g30
(g130
S'\x10\x00\x00\x00'
p1439
tp1440
Rp1441
sa(dp1442
S'training_block.thisRepN'
p1443
I2
sg162
g1070
sg29
g39
sg1071
Vwipe
p1444
sS'experimental_blocks.thisN'
p1445
I1
sg41
g42
sg1074
Vbash
p1446
sg1076
Vskim
p1447
sg1078
Vpolish
p1448
sS'experimental_blocks.thisIndex'
p1449
g1083
sS'word_presentation.thisRepN'
p1450
I0
sS'experimental_blocks.thisRepN'
p1451
I0
sg43
g48
sg161
g1088
sg1089
g1090
sS'training_block.thisIndex'
p1452
g144
sg163
g1094
sg18
F6.943343371661285
sS'experimental_blocks.thisTrialN'
p1453
I1
sS'training_block.thisN'
p1454
I2
sS'word_presentation.thisN'
p1455
I17
sS'training_block.thisTrialN'
p1456
I0
sg17
S'space'
p1457
sg27
g28
sS'word_presentation.thisTrialN'
p1458
I17
sg40
g12
sS'word_presentation.thisIndex'
p1459
g30
(g130
S'\x11\x00\x00\x00'
p1460
tp1461
Rp1462
sa(dp1463
S'training_block.thisRepN'
p1464
I2
sg162
g1070
sg29
g39
sg1071
Vsnatch
p1465
sS'experimental_blocks.thisN'
p1466
I1
sg41
g42
sg1074
Vcarve
p1467
sg1076
Vpunch
p1468
sg1078
Vclap
p1469
sS'experimental_blocks.thisIndex'
p1470
g1083
sS'word_presentation.thisRepN'
p1471
I0
sS'experimental_blocks.thisRepN'
p1472
I0
sg43
g48
sg161
g1088
sg1089
g1090
sS'training_block.thisIndex'
p1473
g144
sg163
g1094
sg18
F11.438116513616023
sS'experimental_blocks.thisTrialN'
p1474
I1
sS'training_block.thisN'
p1475
I2
sS'word_presentation.thisN'
p1476
I18
sS'training_block.thisTrialN'
p1477
I0
sg17
S'space'
p1478
sg27
g28
sS'word_presentation.thisTrialN'
p1479
I18
sg40
g12
sS'word_presentation.thisIndex'
p1480
g30
(g130
S'\x12\x00\x00\x00'
p1481
tp1482
Rp1483
sa(dp1484
S'training_block.thisRepN'
p1485
I2
sg162
g1070
sg29
g39
sg1071
Vscrape
p1486
sS'experimental_blocks.thisN'
p1487
I1
sg41
g42
sg1074
Vdelve
p1488
sg1076
Vscoop
p1489
sg1078
Vclaw
p1490
sS'experimental_blocks.thisIndex'
p1491
g1083
sS'word_presentation.thisRepN'
p1492
I0
sS'experimental_blocks.thisRepN'
p1493
I0
sg43
g48
sg161
g1088
sg1089
g1090
sS'training_block.thisIndex'
p1494
g144
sg163
g1094
sg18
F4.662498824559407
sS'experimental_blocks.thisTrialN'
p1495
I1
sS'training_block.thisN'
p1496
I2
sS'word_presentation.thisN'
p1497
I19
sS'training_block.thisTrialN'
p1498
I0
sg17
S'space'
p1499
sg27
g28
sS'word_presentation.thisTrialN'
p1500
I19
sg40
g12
sS'word_presentation.thisIndex'
p1501
g30
(g130
S'\x13\x00\x00\x00'
p1502
tp1503
Rp1504
sa(dp1505
S'training_block.thisRepN'
p1506
I2
sg162
g1070
sg29
g39
sg1071
Vrush
p1507
sS'experimental_blocks.thisN'
p1508
I1
sg41
g42
sg1074
Vsneak
p1509
sg1076
Vskip
p1510
sg1078
Vhike
p1511
sS'experimental_blocks.thisIndex'
p1512
g1083
sS'word_presentation.thisRepN'
p1513
I0
sS'experimental_blocks.thisRepN'
p1514
I0
sg43
g48
sg161
g1088
sg1089
g1157
sS'training_block.thisIndex'
p1515
g144
sg163
g1094
sg18
F6.222157468729165
sS'experimental_blocks.thisTrialN'
p1516
I1
sS'training_block.thisN'
p1517
I2
sS'word_presentation.thisN'
p1518
I20
sS'training_block.thisTrialN'
p1519
I0
sg17
S'space'
p1520
sg27
g28
sS'word_presentation.thisTrialN'
p1521
I20
sg40
g12
sS'word_presentation.thisIndex'
p1522
g30
(g130
S'\x14\x00\x00\x00'
p1523
tp1524
Rp1525
sa(dp1526
S'training_block.thisRepN'
p1527
I2
sg162
g1070
sg29
g39
sg1071
Vgrate
p1528
sS'experimental_blocks.thisN'
p1529
I1
sg41
g42
sg1074
Vstab
p1530
sg1076
Vchop
p1531
sg1078
Vpoke
p1532
sS'experimental_blocks.thisIndex'
p1533
g1083
sS'word_presentation.thisRepN'
p1534
I0
sS'experimental_blocks.thisRepN'
p1535
I0
sg43
g48
sg161
g1088
sg1089
g1090
sS'training_block.thisIndex'
p1536
g144
sg163
g1094
sg18
F10.163415470614837
sS'experimental_blocks.thisTrialN'
p1537
I1
sS'training_block.thisN'
p1538
I2
sS'word_presentation.thisN'
p1539
I21
sS'training_block.thisTrialN'
p1540
I0
sg17
S'space'
p1541
sg27
g28
sS'word_presentation.thisTrialN'
p1542
I21
sg40
g12
sS'word_presentation.thisIndex'
p1543
g30
(g130
S'\x15\x00\x00\x00'
p1544
tp1545
Rp1546
sa(dp1547
S'training_block.thisRepN'
p1548
I2
sg162
g1070
sg29
g39
sg1071
Vstroll
p1549
sS'experimental_blocks.thisN'
p1550
I1
sg41
g42
sg1074
Vkneel
p1551
sg1076
Vflee
p1552
sg1078
Vwobble
p1553
sS'experimental_blocks.thisIndex'
p1554
g1083
sS'word_presentation.thisRepN'
p1555
I0
sS'experimental_blocks.thisRepN'
p1556
I0
sg43
g48
sg161
g1088
sg1089
g1157
sS'training_block.thisIndex'
p1557
g144
sg163
g1094
sg18
F9.141189174410101
sS'experimental_blocks.thisTrialN'
p1558
I1
sS'training_block.thisN'
p1559
I2
sS'word_presentation.thisN'
p1560
I22
sS'training_block.thisTrialN'
p1561
I0
sg17
S'space'
p1562
sg27
g28
sS'word_presentation.thisTrialN'
p1563
I22
sg40
g12
sS'word_presentation.thisIndex'
p1564
g30
(g130
S'\x16\x00\x00\x00'
p1565
tp1566
Rp1567
sa(dp1568
S'training_block.thisRepN'
p1569
I2
sg162
g1070
sg29
g39
sg1071
Vstray
p1570
sS'experimental_blocks.thisN'
p1571
I1
sg41
g42
sg1074
Vtrek
p1572
sg1076
Vwade
p1573
sg1078
Vtrudge
p1574
sS'experimental_blocks.thisIndex'
p1575
g1083
sS'word_presentation.thisRepN'
p1576
I0
sS'experimental_blocks.thisRepN'
p1577
I0
sg43
g48
sg161
g1088
sg1089
g1157
sS'training_block.thisIndex'
p1578
g144
sg163
g1094
sg18
F14.088470568154662
sS'experimental_blocks.thisTrialN'
p1579
I1
sS'training_block.thisN'
p1580
I2
sS'word_presentation.thisN'
p1581
I23
sS'training_block.thisTrialN'
p1582
I0
sg17
S'space'
p1583
sg27
g28
sS'word_presentation.thisTrialN'
p1584
I23
sg40
g12
sS'word_presentation.thisIndex'
p1585
g30
(g130
S'\x17\x00\x00\x00'
p1586
tp1587
Rp1588
sa(dp1589
S'training_block.thisRepN'
p1590
I2
sg162
g1070
sg29
g39
sg1071
Vbraid
p1591
sS'experimental_blocks.thisN'
p1592
I1
sg41
g42
sg1074
Vbrush
p1593
sg1076
Vpull
p1594
sg1078
Vslap
p1595
sS'experimental_blocks.thisIndex'
p1596
g1083
sS'word_presentation.thisRepN'
p1597
I0
sS'experimental_blocks.thisRepN'
p1598
I0
sg43
g48
sg161
g1088
sg1089
g1090
sS'training_block.thisIndex'
p1599
g144
sg163
g1094
sg18
F7.9664622124519155
sS'experimental_blocks.thisTrialN'
p1600
I1
sS'training_block.thisN'
p1601
I2
sS'word_presentation.thisN'
p1602
I24
sS'training_block.thisTrialN'
p1603
I0
sg17
S'space'
p1604
sg27
g28
sS'word_presentation.thisTrialN'
p1605
I24
sg40
g12
sS'word_presentation.thisIndex'
p1606
g30
(g130
S'\x18\x00\x00\x00'
p1607
tp1608
Rp1609
sa(dp1610
S'training_block.thisRepN'
p1611
I2
sg162
g1070
sg29
g39
sg1071
Vstumble
p1612
sS'experimental_blocks.thisN'
p1613
I1
sg41
g42
sg1074
Vflit
p1614
sg1076
Vcreep
p1615
sg1078
Vramble
p1616
sS'experimental_blocks.thisIndex'
p1617
g1083
sS'word_presentation.thisRepN'
p1618
I0
sS'experimental_blocks.thisRepN'
p1619
I0
sg43
g48
sg161
g1088
sg1089
g1157
sS'training_block.thisIndex'
p1620
g144
sg163
g1094
sg18
F9.17390000497835
sS'experimental_blocks.thisTrialN'
p1621
I1
sS'training_block.thisN'
p1622
I2
sS'word_presentation.thisN'
p1623
I25
sS'training_block.thisTrialN'
p1624
I0
sg17
S'space'
p1625
sg27
g28
sS'word_presentation.thisTrialN'
p1626
I25
sg40
g12
sS'word_presentation.thisIndex'
p1627
g30
(g130
S'\x19\x00\x00\x00'
p1628
tp1629
Rp1630
sa(dp1631
S'training_block.thisRepN'
p1632
I2
sg162
g1070
sg29
g39
sg1071
Vglide
p1633
sS'experimental_blocks.thisN'
p1634
I1
sg41
g42
sg1074
Vjump
p1635
sg1076
Vmarch
p1636
sg1078
Vroam
p1637
sS'experimental_blocks.thisIndex'
p1638
g1083
sS'word_presentation.thisRepN'
p1639
I0
sS'experimental_blocks.thisRepN'
p1640
I0
sg43
g48
sg161
g1088
sg1089
g1157
sS'training_block.thisIndex'
p1641
g144
sg163
g1094
sg18
F5.165652956222857
sS'experimental_blocks.thisTrialN'
p1642
I1
sS'training_block.thisN'
p1643
I2
sS'word_presentation.thisN'
p1644
I26
sS'training_block.thisTrialN'
p1645
I0
sg17
S'space'
p1646
sg27
g28
sS'word_presentation.thisTrialN'
p1647
I26
sg40
g12
sS'word_presentation.thisIndex'
p1648
g30
(g130
S'\x1a\x00\x00\x00'
p1649
tp1650
Rp1651
sa(dp1652
S'training_block.thisRepN'
p1653
I2
sg162
g1070
sg29
g39
sg1071
Vtiptoe
p1654
sS'experimental_blocks.thisN'
p1655
I1
sg41
g42
sg1074
Vcrawl
p1656
sg1076
Vtrot
p1657
sg1078
Vjog
p1658
sS'experimental_blocks.thisIndex'
p1659
g1083
sS'word_presentation.thisRepN'
p1660
I0
sS'experimental_blocks.thisRepN'
p1661
I0
sg43
g48
sg161
g1088
sg1089
g1157
sS'training_block.thisIndex'
p1662
g144
sg163
g1094
sg18
F6.708659460458875
sS'experimental_blocks.thisTrialN'
p1663
I1
sS'training_block.thisN'
p1664
I2
sS'word_presentation.thisN'
p1665
I27
sS'training_block.thisTrialN'
p1666
I0
sg17
S'space'
p1667
sg27
g28
sS'word_presentation.thisTrialN'
p1668
I27
sg40
g12
sS'word_presentation.thisIndex'
p1669
g30
(g130
S'\x1b\x00\x00\x00'
p1670
tp1671
Rp1672
sa(dp1673
S'training_block.thisRepN'
p1674
I2
sg162
g1070
sS'experimental_blocks.thisRepN'
p1675
I0
sS'experimental_blocks.thisTrialN'
p1676
I1
sS'training_block.thisN'
p1677
I2
sg41
g42
sg40
g12
sg29
g39
sS'training_block.thisTrialN'
p1678
I0
sg43
g48
sS'experimental_blocks.thisN'
p1679
I1
sg163
g1094
sg27
g28
sS'experimental_blocks.thisIndex'
p1680
g1083
sg161
g1088
sS'training_block.thisIndex'
p1681
g144
sa(dp1682
S'training_block.thisRepN'
p1683
I2
sg162
g30
(g34
S'\x9a\x99\x99\x99\x99\x99\xd9?'
p1684
tp1685
Rp1686
sg29
g39
sS'word4'
p1687
Vwrap
p1688
sS'experimental_blocks.thisN'
p1689
I2
sg41
g42
sS'word1'
p1690
Vwhip
p1691
sS'word3'
p1692
Vslap
p1693
sS'word2'
p1694
Vhack
p1695
sS'experimental_blocks.thisIndex'
p1696
g30
(g130
S'\x00\x00\x00\x00'
p1697
tp1698
Rp1699
sS'word_presentation.thisRepN'
p1700
I0
sS'experimental_blocks.thisRepN'
p1701
I0
sg43
g48
sg161
g30
(g34
S'\x9a\x99\x99\x99\x99\x99\xb9?'
p1702
tp1703
Rp1704
sS'type'
p1705
Varm
p1706
sS'training_block.thisIndex'
p1707
g144
sg163
g30
(g34
S'\x00\x00\x00\x00\x00\x00\xe0?'
p1708
tp1709
Rp1710
sg18
F9.258485100155667
sS'experimental_blocks.thisTrialN'
p1711
I2
sS'training_block.thisN'
p1712
I2
sS'word_presentation.thisN'
p1713
I0
sS'training_block.thisTrialN'
p1714
I0
sg17
S'space'
p1715
sg27
g28
sS'word_presentation.thisTrialN'
p1716
I0
sg40
g12
sS'word_presentation.thisIndex'
p1717
g30
(g130
S'\x00\x00\x00\x00'
p1718
tp1719
Rp1720
sa(dp1721
S'training_block.thisRepN'
p1722
I2
sg162
g1686
sg29
g39
sg1687
Vsway
p1723
sS'experimental_blocks.thisN'
p1724
I2
sg41
g42
sg1690
Vstrut
p1725
sg1692
Vroll
p1726
sg1694
Vtrip
p1727
sS'experimental_blocks.thisIndex'
p1728
g1699
sS'word_presentation.thisRepN'
p1729
I0
sS'experimental_blocks.thisRepN'
p1730
I0
sg43
g48
sg161
g1704
sg1705
Vleg
p1731
sS'training_block.thisIndex'
p1732
g144
sg163
g1710
sg18
F5.752797548446324
sS'experimental_blocks.thisTrialN'
p1733
I2
sS'training_block.thisN'
p1734
I2
sS'word_presentation.thisN'
p1735
I1
sS'training_block.thisTrialN'
p1736
I0
sg17
S'space'
p1737
sg27
g28
sS'word_presentation.thisTrialN'
p1738
I1
sg40
g12
sS'word_presentation.thisIndex'
p1739
g30
(g130
S'\x01\x00\x00\x00'
p1740
tp1741
Rp1742
sa(dp1743
S'training_block.thisRepN'
p1744
I2
sg162
g1686
sg29
g39
sg1687
Vsqueeze
p1745
sS'experimental_blocks.thisN'
p1746
I2
sg41
g42
sg1690
Vfold
p1747
sg1692
Vdig
p1748
sg1694
Vstab
p1749
sS'experimental_blocks.thisIndex'
p1750
g1699
sS'word_presentation.thisRepN'
p1751
I0
sS'experimental_blocks.thisRepN'
p1752
I0
sg43
g48
sg161
g1704
sg1705
g1706
sS'training_block.thisIndex'
p1753
g144
sg163
g1710
sg18
F3.220519754117049
sS'experimental_blocks.thisTrialN'
p1754
I2
sS'training_block.thisN'
p1755
I2
sS'word_presentation.thisN'
p1756
I2
sS'training_block.thisTrialN'
p1757
I0
sg17
S'space'
p1758
sg27
g28
sS'word_presentation.thisTrialN'
p1759
I2
sg40
g12
sS'word_presentation.thisIndex'
p1760
g30
(g130
S'\x02\x00\x00\x00'
p1761
tp1762
Rp1763
sa(dp1764
S'training_block.thisRepN'
p1765
I2
sg162
g1686
sg29
g39
sg1687
Vbrush
p1766
sS'experimental_blocks.thisN'
p1767
I2
sg41
g42
sg1690
Vcut
p1768
sg1692
Vswitch
p1769
sg1694
Vpolish
p1770
sS'experimental_blocks.thisIndex'
p1771
g1699
sS'word_presentation.thisRepN'
p1772
I0
sS'experimental_blocks.thisRepN'
p1773
I0
sg43
g48
sg161
g1704
sg1705
g1706
sS'training_block.thisIndex'
p1774
g144
sg163
g1710
sg18
F13.852335827506067
sS'experimental_blocks.thisTrialN'
p1775
I2
sS'training_block.thisN'
p1776
I2
sS'word_presentation.thisN'
p1777
I3
sS'training_block.thisTrialN'
p1778
I0
sg17
S'space'
p1779
sg27
g28
sS'word_presentation.thisTrialN'
p1780
I3
sg40
g12
sS'word_presentation.thisIndex'
p1781
g30
(g130
S'\x03\x00\x00\x00'
p1782
tp1783
Rp1784
sa(dp1785
S'training_block.thisRepN'
p1786
I2
sg162
g1686
sg29
g39
sg1687
Vgrasp
p1787
sS'experimental_blocks.thisN'
p1788
I2
sg41
g42
sg1690
Vthrow
p1789
sg1692
Vcarve
p1790
sg1694
Vgrip
p1791
sS'experimental_blocks.thisIndex'
p1792
g1699
sS'word_presentation.thisRepN'
p1793
I0
sS'experimental_blocks.thisRepN'
p1794
I0
sg43
g48
sg161
g1704
sg1705
g1706
sS'training_block.thisIndex'
p1795
g144
sg163
g1710
sg18
F10.448194088739001
sS'experimental_blocks.thisTrialN'
p1796
I2
sS'training_block.thisN'
p1797
I2
sS'word_presentation.thisN'
p1798
I4
sS'training_block.thisTrialN'
p1799
I0
sg17
S'space'
p1800
sg27
g28
sS'word_presentation.thisTrialN'
p1801
I4
sg40
g12
sS'word_presentation.thisIndex'
p1802
g30
(g130
S'\x04\x00\x00\x00'
p1803
tp1804
Rp1805
sa(dp1806
S'training_block.thisRepN'
p1807
I2
sg162
g1686
sg29
g39
sg1687
Vpace
p1808
sS'experimental_blocks.thisN'
p1809
I2
sg41
g42
sg1690
Vtread
p1810
sg1692
Vsprint
p1811
sg1694
Vskate
p1812
sS'experimental_blocks.thisIndex'
p1813
g1699
sS'word_presentation.thisRepN'
p1814
I0
sS'experimental_blocks.thisRepN'
p1815
I0
sg43
g48
sg161
g1704
sg1705
g1731
sS'training_block.thisIndex'
p1816
g144
sg163
g1710
sg18
F10.465379621851753
sS'experimental_blocks.thisTrialN'
p1817
I2
sS'training_block.thisN'
p1818
I2
sS'word_presentation.thisN'
p1819
I5
sS'training_block.thisTrialN'
p1820
I0
sg17
S'space'
p1821
sg27
g28
sS'word_presentation.thisTrialN'
p1822
I5
sg40
g12
sS'word_presentation.thisIndex'
p1823
g30
(g130
S'\x05\x00\x00\x00'
p1824
tp1825
Rp1826
sa(dp1827
S'training_block.thisRepN'
p1828
I2
sg162
g1686
sg29
g39
sg1687
Vstroll
p1829
sS'experimental_blocks.thisN'
p1830
I2
sg41
g42
sg1690
Vslither
p1831
sg1692
Vrun
p1832
sg1694
Vplod
p1833
sS'experimental_blocks.thisIndex'
p1834
g1699
sS'word_presentation.thisRepN'
p1835
I0
sS'experimental_blocks.thisRepN'
p1836
I0
sg43
g48
sg161
g1704
sg1705
g1731
sS'training_block.thisIndex'
p1837
g144
sg163
g1710
sg18
F8.335628767829803
sS'experimental_blocks.thisTrialN'
p1838
I2
sS'training_block.thisN'
p1839
I2
sS'word_presentation.thisN'
p1840
I6
sS'training_block.thisTrialN'
p1841
I0
sg17
S'space'
p1842
sg27
g28
sS'word_presentation.thisTrialN'
p1843
I6
sg40
g12
sS'word_presentation.thisIndex'
p1844
g30
(g130
S'\x06\x00\x00\x00'
p1845
tp1846
Rp1847
sa(dp1848
S'training_block.thisRepN'
p1849
I2
sg162
g1686
sg29
g39
sg1687
Vtwine
p1850
sS'experimental_blocks.thisN'
p1851
I2
sg41
g42
sg1690
Vchop
p1852
sg1692
Vscoop
p1853
sg1694
Vpat
p1854
sS'experimental_blocks.thisIndex'
p1855
g1699
sS'word_presentation.thisRepN'
p1856
I0
sS'experimental_blocks.thisRepN'
p1857
I0
sg43
g48
sg161
g1704
sg1705
g1706
sS'training_block.thisIndex'
p1858
g144
sg163
g1710
sg18
F4.998280893540141
sS'experimental_blocks.thisTrialN'
p1859
I2
sS'training_block.thisN'
p1860
I2
sS'word_presentation.thisN'
p1861
I7
sS'training_block.thisTrialN'
p1862
I0
sg17
S'space'
p1863
sg27
g28
sS'word_presentation.thisTrialN'
p1864
I7
sg40
g12
sS'word_presentation.thisIndex'
p1865
g30
(g130
S'\x07\x00\x00\x00'
p1866
tp1867
Rp1868
sa(dp1869
S'training_block.thisRepN'
p1870
I2
sg162
g1686
sg29
g39
sg1687
Vtiptoe
p1871
sS'experimental_blocks.thisN'
p1872
I2
sg41
g42
sg1690
Vskip
p1873
sg1692
Vwander
p1874
sg1694
Vleap
p1875
sS'experimental_blocks.thisIndex'
p1876
g1699
sS'word_presentation.thisRepN'
p1877
I0
sS'experimental_blocks.thisRepN'
p1878
I0
sg43
g48
sg161
g1704
sg1705
g1731
sS'training_block.thisIndex'
p1879
g144
sg163
g1710
sg18
F4.192981256958774
sS'experimental_blocks.thisTrialN'
p1880
I2
sS'training_block.thisN'
p1881
I2
sS'word_presentation.thisN'
p1882
I8
sS'training_block.thisTrialN'
p1883
I0
sg17
S'space'
p1884
sg27
g28
sS'word_presentation.thisTrialN'
p1885
I8
sg40
g12
sS'word_presentation.thisIndex'
p1886
g30
(g130
S'\x08\x00\x00\x00'
p1887
tp1888
Rp1889
sa(dp1890
S'training_block.thisRepN'
p1891
I2
sg162
g1686
sg29
g39
sg1687
Vclimb
p1892
sS'experimental_blocks.thisN'
p1893
I2
sg41
g42
sg1690
Vwade
p1894
sg1692
Vtrot
p1895
sg1694
Vsneak
p1896
sS'experimental_blocks.thisIndex'
p1897
g1699
sS'word_presentation.thisRepN'
p1898
I0
sS'experimental_blocks.thisRepN'
p1899
I0
sg43
g48
sg161
g1704
sg1705
g1731
sS'training_block.thisIndex'
p1900
g144
sg163
g1710
sg18
F6.423339942140956
sS'experimental_blocks.thisTrialN'
p1901
I2
sS'training_block.thisN'
p1902
I2
sS'word_presentation.thisN'
p1903
I9
sS'training_block.thisTrialN'
p1904
I0
sg17
S'space'
p1905
sg27
g28
sS'word_presentation.thisTrialN'
p1906
I9
sg40
g12
sS'word_presentation.thisIndex'
p1907
g30
(g130
S'\t\x00\x00\x00'
p1908
tp1909
Rp1910
sa(dp1911
S'training_block.thisRepN'
p1912
I2
sg162
g1686
sg29
g39
sg1687
Vdelve
p1913
sS'experimental_blocks.thisN'
p1914
I2
sg41
g42
sg1690
Vscrape
p1915
sg1692
Vtug
p1916
sg1694
Vnip
p1917
sS'experimental_blocks.thisIndex'
p1918
g1699
sS'word_presentation.thisRepN'
p1919
I0
sS'experimental_blocks.thisRepN'
p1920
I0
sg43
g48
sg161
g1704
sg1705
g1706
sS'training_block.thisIndex'
p1921
g144
sg163
g1710
sg18
F10.565619214165054
sS'experimental_blocks.thisTrialN'
p1922
I2
sS'training_block.thisN'
p1923
I2
sS'word_presentation.thisN'
p1924
I10
sS'training_block.thisTrialN'
p1925
I0
sg17
S'space'
p1926
sg27
g28
sS'word_presentation.thisTrialN'
p1927
I10
sg40
g12
sS'word_presentation.thisIndex'
p1928
g30
(g130
S'\n\x00\x00\x00'
p1929
tp1930
Rp1931
sa(dp1932
S'training_block.thisRepN'
p1933
I2
sg162
g1686
sg29
g39
sg1687
Vscrub
p1934
sS'experimental_blocks.thisN'
p1935
I2
sg41
g42
sg1690
Vbash
p1936
sg1692
Vgrab
p1937
sg1694
Vclutch
p1938
sS'experimental_blocks.thisIndex'
p1939
g1699
sS'word_presentation.thisRepN'
p1940
I0
sS'experimental_blocks.thisRepN'
p1941
I0
sg43
g48
sg161
g1704
sg1705
g1706
sS'training_block.thisIndex'
p1942
g144
sg163
g1710
sg18
F9.492568055043193
sS'experimental_blocks.thisTrialN'
p1943
I2
sS'training_block.thisN'
p1944
I2
sS'word_presentation.thisN'
p1945
I11
sS'training_block.thisTrialN'
p1946
I0
sg17
S'space'
p1947
sg27
g28
sS'word_presentation.thisTrialN'
p1948
I11
sg40
g12
sS'word_presentation.thisIndex'
p1949
g30
(g130
S'\x0b\x00\x00\x00'
p1950
tp1951
Rp1952
sa(dp1953
S'training_block.thisRepN'
p1954
I2
sg162
g1686
sg29
g39
sg1687
Vprance
p1955
sS'experimental_blocks.thisN'
p1956
I2
sg41
g42
sg1690
Vtraipse
p1957
sg1692
Vmount
p1958
sg1694
Vhop
p1959
sS'experimental_blocks.thisIndex'
p1960
g1699
sS'word_presentation.thisRepN'
p1961
I0
sS'experimental_blocks.thisRepN'
p1962
I0
sg43
g48
sg161
g1704
sg1705
g1731
sS'training_block.thisIndex'
p1963
g144
sg163
g1710
sg18
F7.59755642707205
sS'experimental_blocks.thisTrialN'
p1964
I2
sS'training_block.thisN'
p1965
I2
sS'word_presentation.thisN'
p1966
I12
sS'training_block.thisTrialN'
p1967
I0
sg17
S'space'
p1968
sg27
g28
sS'word_presentation.thisTrialN'
p1969
I12
sg40
g12
sS'word_presentation.thisIndex'
p1970
g30
(g130
S'\x0c\x00\x00\x00'
p1971
tp1972
Rp1973
sa(dp1974
S'training_block.thisRepN'
p1975
I2
sg162
g1686
sg29
g39
sg1687
Vdance
p1976
sS'experimental_blocks.thisN'
p1977
I2
sg41
g42
sg1690
Vstomp
p1978
sg1692
Vwalk
p1979
sg1694
Vlimp
p1980
sS'experimental_blocks.thisIndex'
p1981
g1699
sS'word_presentation.thisRepN'
p1982
I0
sS'experimental_blocks.thisRepN'
p1983
I0
sg43
g48
sg161
g1704
sg1705
g1731
sS'training_block.thisIndex'
p1984
g144
sg163
g1710
sg18
F4.796476918299049
sS'experimental_blocks.thisTrialN'
p1985
I2
sS'training_block.thisN'
p1986
I2
sS'word_presentation.thisN'
p1987
I13
sS'training_block.thisTrialN'
p1988
I0
sg17
S'space'
p1989
sg27
g28
sS'word_presentation.thisTrialN'
p1990
I13
sg40
g12
sS'word_presentation.thisIndex'
p1991
g30
(g130
S'\r\x00\x00\x00'
p1992
tp1993
Rp1994
sa(dp1995
S'training_block.thisRepN'
p1996
I2
sg162
g1686
sg29
g39
sg1687
Vclaw
p1997
sS'experimental_blocks.thisN'
p1998
I2
sg41
g42
sg1690
Vlift
p1999
sg1692
Vshake
p2000
sg1694
Vsnatch
p2001
sS'experimental_blocks.thisIndex'
p2002
g1699
sS'word_presentation.thisRepN'
p2003
I0
sS'experimental_blocks.thisRepN'
p2004
I0
sg43
g48
sg161
g1704
sg1705
g1706
sS'training_block.thisIndex'
p2005
g144
sg163
g1710
sg18
F11.035463929582875
sS'experimental_blocks.thisTrialN'
p2006
I2
sS'training_block.thisN'
p2007
I2
sS'word_presentation.thisN'
p2008
I14
sS'training_block.thisTrialN'
p2009
I0
sg17
S'space'
p2010
sg27
g28
sS'word_presentation.thisTrialN'
p2011
I14
sg40
g12
sS'word_presentation.thisIndex'
p2012
g30
(g130
S'\x0e\x00\x00\x00'
p2013
tp2014
Rp2015
sa(dp2016
S'training_block.thisRepN'
p2017
I2
sg162
g1686
sg29
g39
sg1687
Vtrek
p2018
sS'experimental_blocks.thisN'
p2019
I2
sg41
g42
sg1690
Vstride
p2020
sg1692
Vscuff
p2021
sg1694
Vwobble
p2022
sS'experimental_blocks.thisIndex'
p2023
g1699
sS'word_presentation.thisRepN'
p2024
I0
sS'experimental_blocks.thisRepN'
p2025
I0
sg43
g48
sg161
g1704
sg1705
g1731
sS'training_block.thisIndex'
p2026
g144
sg163
g1710
sg18
F7.581382365468926
sS'experimental_blocks.thisTrialN'
p2027
I2
sS'training_block.thisN'
p2028
I2
sS'word_presentation.thisN'
p2029
I15
sS'training_block.thisTrialN'
p2030
I0
sg17
S'space'
p2031
sg27
g28
sS'word_presentation.thisTrialN'
p2032
I15
sg40
g12
sS'word_presentation.thisIndex'
p2033
g30
(g130
S'\x0f\x00\x00\x00'
p2034
tp2035
Rp2036
sa(dp2037
S'training_block.thisRepN'
p2038
I2
sg162
g1686
sg29
g39
sg1687
Vtoss
p2039
sS'experimental_blocks.thisN'
p2040
I2
sg41
g42
sg1690
Vcatch
p2041
sg1692
Vpull
p2042
sg1694
Vknock
p2043
sS'experimental_blocks.thisIndex'
p2044
g1699
sS'word_presentation.thisRepN'
p2045
I0
sS'experimental_blocks.thisRepN'
p2046
I0
sg43
g48
sg161
g1704
sg1705
g1706
sS'training_block.thisIndex'
p2047
g144
sg163
g1710
sg18
F3.555453925497204
sS'experimental_blocks.thisTrialN'
p2048
I2
sS'training_block.thisN'
p2049
I2
sS'word_presentation.thisN'
p2050
I16
sS'training_block.thisTrialN'
p2051
I0
sg17
S'space'
p2052
sg27
g28
sS'word_presentation.thisTrialN'
p2053
I16
sg40
g12
sS'word_presentation.thisIndex'
p2054
g30
(g130
S'\x10\x00\x00\x00'
p2055
tp2056
Rp2057
sa(dp2058
S'training_block.thisRepN'
p2059
I2
sg162
g1686
sg29
g39
sg1687
Vbind
p2060
sS'experimental_blocks.thisN'
p2061
I2
sg41
g42
sg1690
Vpoke
p2062
sg1692
Vgrate
p2063
sg1694
Vclick
p2064
sS'experimental_blocks.thisIndex'
p2065
g1699
sS'word_presentation.thisRepN'
p2066
I0
sS'experimental_blocks.thisRepN'
p2067
I0
sg43
g48
sg161
g1704
sg1705
g1706
sS'training_block.thisIndex'
p2068
g144
sg163
g1710
sg18
F4.813347156777127
sS'experimental_blocks.thisTrialN'
p2069
I2
sS'training_block.thisN'
p2070
I2
sS'word_presentation.thisN'
p2071
I17
sS'training_block.thisTrialN'
p2072
I0
sg17
S'space'
p2073
sg27
g28
sS'word_presentation.thisTrialN'
p2074
I17
sg40
g12
sS'word_presentation.thisIndex'
p2075
g30
(g130
S'\x11\x00\x00\x00'
p2076
tp2077
Rp2078
sa(dp2079
S'training_block.thisRepN'
p2080
I2
sg162
g1686
sg29
g39
sg1687
Vstray
p2081
sS'experimental_blocks.thisN'
p2082
I2
sg41
g42
sg1690
Vinch
p2083
sg1692
Vslip
p2084
sg1694
Vstagger
p2085
sS'experimental_blocks.thisIndex'
p2086
g1699
sS'word_presentation.thisRepN'
p2087
I0
sS'experimental_blocks.thisRepN'
p2088
I0
sg43
g48
sg161
g1704
sg1705
g1731
sS'training_block.thisIndex'
p2089
g144
sg163
g1710
sg18
F8.100622054977975
sS'experimental_blocks.thisTrialN'
p2090
I2
sS'training_block.thisN'
p2091
I2
sS'word_presentation.thisN'
p2092
I18
sS'training_block.thisTrialN'
p2093
I0
sg17
S'space'
p2094
sg27
g28
sS'word_presentation.thisTrialN'
p2095
I18
sg40
g12
sS'word_presentation.thisIndex'
p2096
g30
(g130
S'\x12\x00\x00\x00'
p2097
tp2098
Rp2099
sa(dp2100
S'training_block.thisRepN'
p2101
I2
sg162
g1686
sg29
g39
sg1687
Vkneel
p2102
sS'experimental_blocks.thisN'
p2103
I2
sg41
g42
sg1690
Vmarch
p2104
sg1692
Vcreep
p2105
sg1694
Vcrawl
p2106
sS'experimental_blocks.thisIndex'
p2107
g1699
sS'word_presentation.thisRepN'
p2108
I0
sS'experimental_blocks.thisRepN'
p2109
I0
sg43
g48
sg161
g1704
sg1705
g1731
sS'training_block.thisIndex'
p2110
g144
sg163
g1710
sg18
F24.2006921467937
sS'experimental_blocks.thisTrialN'
p2111
I2
sS'training_block.thisN'
p2112
I2
sS'word_presentation.thisN'
p2113
I19
sS'training_block.thisTrialN'
p2114
I0
sg17
S'space'
p2115
sg27
g28
sS'word_presentation.thisTrialN'
p2116
I19
sg40
g12
sS'word_presentation.thisIndex'
p2117
g30
(g130
S'\x13\x00\x00\x00'
p2118
tp2119
Rp2120
sa(dp2121
S'training_block.thisRepN'
p2122
I2
sg162
g1686
sg29
g39
sg1687
Vroam
p2123
sS'experimental_blocks.thisN'
p2124
I2
sg41
g42
sg1690
Vramble
p2125
sg1692
Vstep
p2126
sg1694
Vbounce
p2127
sS'experimental_blocks.thisIndex'
p2128
g1699
sS'word_presentation.thisRepN'
p2129
I0
sS'experimental_blocks.thisRepN'
p2130
I0
sg43
g48
sg161
g1704
sg1705
g1731
sS'training_block.thisIndex'
p2131
g144
sg163
g1710
sg18
F5.5514309556110675
sS'experimental_blocks.thisTrialN'
p2132
I2
sS'training_block.thisN'
p2133
I2
sS'word_presentation.thisN'
p2134
I20
sS'training_block.thisTrialN'
p2135
I0
sg17
S'space'
p2136
sg27
g28
sS'word_presentation.thisTrialN'
p2137
I20
sg40
g12
sS'word_presentation.thisIndex'
p2138
g30
(g130
S'\x14\x00\x00\x00'
p2139
tp2140
Rp2141
sa(dp2142
S'training_block.thisRepN'
p2143
I2
sg162
g1686
sg29
g39
sg1687
Vpush
p2144
sS'experimental_blocks.thisN'
p2145
I2
sg41
g42
sg1690
Vscratch
p2146
sg1692
Vskim
p2147
sg1694
Vstir
p2148
sS'experimental_blocks.thisIndex'
p2149
g1699
sS'word_presentation.thisRepN'
p2150
I0
sS'experimental_blocks.thisRepN'
p2151
I0
sg43
g48
sg161
g1704
sg1705
g1706
sS'training_block.thisIndex'
p2152
g144
sg163
g1710
sg18
F6.507918320514364
sS'experimental_blocks.thisTrialN'
p2153
I2
sS'training_block.thisN'
p2154
I2
sS'word_presentation.thisN'
p2155
I21
sS'training_block.thisTrialN'
p2156
I0
sg17
S'space'
p2157
sg27
g28
sS'word_presentation.thisTrialN'
p2158
I21
sg40
g12
sS'word_presentation.thisIndex'
p2159
g30
(g130
S'\x15\x00\x00\x00'
p2160
tp2161
Rp2162
sa(dp2163
S'training_block.thisRepN'
p2164
I2
sg162
g1686
sg29
g39
sg1687
Vrush
p2165
sS'experimental_blocks.thisN'
p2166
I2
sg41
g42
sg1690
Vglide
p2167
sg1692
Vjump
p2168
sg1694
Vtrudge
p2169
sS'experimental_blocks.thisIndex'
p2170
g1699
sS'word_presentation.thisRepN'
p2171
I0
sS'experimental_blocks.thisRepN'
p2172
I0
sg43
g48
sg161
g1704
sg1705
g1731
sS'training_block.thisIndex'
p2173
g144
sg163
g1710
sg18
F11.906201426649204
sS'experimental_blocks.thisTrialN'
p2174
I2
sS'training_block.thisN'
p2175
I2
sS'word_presentation.thisN'
p2176
I22
sS'training_block.thisTrialN'
p2177
I0
sg17
S'space'
p2178
sg27
g28
sS'word_presentation.thisTrialN'
p2179
I22
sg40
g12
sS'word_presentation.thisIndex'
p2180
g30
(g130
S'\x16\x00\x00\x00'
p2181
tp2182
Rp2183
sa(dp2184
S'training_block.thisRepN'
p2185
I2
sg162
g1686
sg29
g39
sg1687
Vflee
p2186
sS'experimental_blocks.thisN'
p2187
I2
sg41
g42
sg1690
Vhike
p2188
sg1692
Vstamp
p2189
sg1694
Vstumble
p2190
sS'experimental_blocks.thisIndex'
p2191
g1699
sS'word_presentation.thisRepN'
p2192
I0
sS'experimental_blocks.thisRepN'
p2193
I0
sg43
g48
sg161
g1704
sg1705
g1731
sS'training_block.thisIndex'
p2194
g144
sg163
g1710
sg18
F10.348560589119188
sS'experimental_blocks.thisTrialN'
p2195
I2
sS'training_block.thisN'
p2196
I2
sS'word_presentation.thisN'
p2197
I23
sS'training_block.thisTrialN'
p2198
I0
sg17
S'space'
p2199
sg27
g28
sS'word_presentation.thisTrialN'
p2200
I23
sg40
g12
sS'word_presentation.thisIndex'
p2201
g30
(g130
S'\x17\x00\x00\x00'
p2202
tp2203
Rp2204
sa(dp2205
S'training_block.thisRepN'
p2206
I2
sg162
g1686
sg29
g39
sg1687
Vjog
p2207
sS'experimental_blocks.thisN'
p2208
I2
sg41
g42
sg1690
Vkick
p2209
sg1692
Vslide
p2210
sg1694
Vflit
p2211
sS'experimental_blocks.thisIndex'
p2212
g1699
sS'word_presentation.thisRepN'
p2213
I0
sS'experimental_blocks.thisRepN'
p2214
I0
sg43
g48
sg161
g1704
sg1705
g1731
sS'training_block.thisIndex'
p2215
g144
sg163
g1710
sg18
F7.211905256728642
sS'experimental_blocks.thisTrialN'
p2216
I2
sS'training_block.thisN'
p2217
I2
sS'word_presentation.thisN'
p2218
I24
sS'training_block.thisTrialN'
p2219
I0
sg17
S'space'
p2220
sg27
g28
sS'word_presentation.thisTrialN'
p2221
I24
sg40
g12
sS'word_presentation.thisIndex'
p2222
g30
(g130
S'\x18\x00\x00\x00'
p2223
tp2224
Rp2225
sa(dp2226
S'training_block.thisRepN'
p2227
I2
sg162
g1686
sg29
g39
sg1687
Vwipe
p2228
sS'experimental_blocks.thisN'
p2229
I2
sg41
g42
sg1690
Vwash
p2230
sg1692
Vpinch
p2231
sg1694
Vclean
p2232
sS'experimental_blocks.thisIndex'
p2233
g1699
sS'word_presentation.thisRepN'
p2234
I0
sS'experimental_blocks.thisRepN'
p2235
I0
sg43
g48
sg161
g1704
sg1705
g1706
sS'training_block.thisIndex'
p2236
g144
sg163
g1710
sg18
F6.272663481058771
sS'experimental_blocks.thisTrialN'
p2237
I2
sS'training_block.thisN'
p2238
I2
sS'word_presentation.thisN'
p2239
I25
sS'training_block.thisTrialN'
p2240
I0
sg17
S'space'
p2241
sg27
g28
sS'word_presentation.thisTrialN'
p2242
I25
sg40
g12
sS'word_presentation.thisIndex'
p2243
g30
(g130
S'\x19\x00\x00\x00'
p2244
tp2245
Rp2246
sa(dp2247
S'training_block.thisRepN'
p2248
I2
sg162
g1686
sg29
g39
sg1687
Vdunk
p2249
sS'experimental_blocks.thisN'
p2250
I2
sg41
g42
sg1690
Vrub
p2251
sg1692
Vbraid
p2252
sg1694
Vpeel
p2253
sS'experimental_blocks.thisIndex'
p2254
g1699
sS'word_presentation.thisRepN'
p2255
I0
sS'experimental_blocks.thisRepN'
p2256
I0
sg43
g48
sg161
g1704
sg1705
g1706
sS'training_block.thisIndex'
p2257
g144
sg163
g1710
sg18
F5.417220144403473
sS'experimental_blocks.thisTrialN'
p2258
I2
sS'training_block.thisN'
p2259
I2
sS'word_presentation.thisN'
p2260
I26
sS'training_block.thisTrialN'
p2261
I0
sg17
S'space'
p2262
sg27
g28
sS'word_presentation.thisTrialN'
p2263
I26
sg40
g12
sS'word_presentation.thisIndex'
p2264
g30
(g130
S'\x1a\x00\x00\x00'
p2265
tp2266
Rp2267
sa(dp2268
S'training_block.thisRepN'
p2269
I2
sg162
g1686
sg29
g39
sg1687
Vpunch
p2270
sS'experimental_blocks.thisN'
p2271
I2
sg41
g42
sg1690
Vseize
p2272
sg1692
Vfile
p2273
sg1694
Vclap
p2274
sS'experimental_blocks.thisIndex'
p2275
g1699
sS'word_presentation.thisRepN'
p2276
I0
sS'experimental_blocks.thisRepN'
p2277
I0
sg43
g48
sg161
g1704
sg1705
g1706
sS'training_block.thisIndex'
p2278
g144
sg163
g1710
sg18
F14.876050488232067
sS'experimental_blocks.thisTrialN'
p2279
I2
sS'training_block.thisN'
p2280
I2
sS'word_presentation.thisN'
p2281
I27
sS'training_block.thisTrialN'
p2282
I0
sg17
S'space'
p2283
sg27
g28
sS'word_presentation.thisTrialN'
p2284
I27
sg40
g12
sS'word_presentation.thisIndex'
p2285
g30
(g130
S'\x1b\x00\x00\x00'
p2286
tp2287
Rp2288
sa(dp2289
S'training_block.thisRepN'
p2290
I2
sg162
g1686
sS'experimental_blocks.thisRepN'
p2291
I0
sS'experimental_blocks.thisTrialN'
p2292
I2
sS'training_block.thisN'
p2293
I2
sg41
g42
sg40
g12
sg29
g39
sS'training_block.thisTrialN'
p2294
I0
sg43
g48
sS'experimental_blocks.thisN'
p2295
I2
sg163
g1710
sg27
g28
sS'experimental_blocks.thisIndex'
p2296
g1699
sg161
g1704
sS'training_block.thisIndex'
p2297
g144
sa(dp2298
S'training_block.thisRepN'
p2299
I2
sg162
g30
(g34
S'\x9a\x99\x99\x99\x99\x99\xd9?'
p2300
tp2301
Rp2302
sg29
g39
sS'word4'
p2303
Vscoop
p2304
sS'experimental_blocks.thisN'
p2305
I3
sg41
g42
sS'word1'
p2306
Vgrip
p2307
sS'word3'
p2308
Vchop
p2309
sS'word2'
p2310
Vpat
p2311
sS'experimental_blocks.thisIndex'
p2312
g30
(g130
S'\x03\x00\x00\x00'
p2313
tp2314
Rp2315
sS'word_presentation.thisRepN'
p2316
I0
sS'experimental_blocks.thisRepN'
p2317
I0
sg43
g48
sg161
g30
(g34
S'333333\xd3?'
p2318
tp2319
Rp2320
sS'type'
p2321
Varm
p2322
sS'training_block.thisIndex'
p2323
g144
sg163
g30
(g34
S'ffffff\xe6?'
p2324
tp2325
Rp2326
sg18
F8.402396950414186
sS'experimental_blocks.thisTrialN'
p2327
I3
sS'training_block.thisN'
p2328
I2
sS'word_presentation.thisN'
p2329
I0
sS'training_block.thisTrialN'
p2330
I0
sg17
S'space'
p2331
sg27
g28
sS'word_presentation.thisTrialN'
p2332
I0
sg40
g12
sS'word_presentation.thisIndex'
p2333
g30
(g130
S'\x00\x00\x00\x00'
p2334
tp2335
Rp2336
sa(dp2337
S'training_block.thisRepN'
p2338
I2
sg162
g2302
sg29
g39
sg2303
Vscrape
p2339
sS'experimental_blocks.thisN'
p2340
I3
sg41
g42
sg2306
Vtoss
p2341
sg2308
Vbind
p2342
sg2310
Vwhip
p2343
sS'experimental_blocks.thisIndex'
p2344
g2315
sS'word_presentation.thisRepN'
p2345
I0
sS'experimental_blocks.thisRepN'
p2346
I0
sg43
g48
sg161
g2320
sg2321
g2322
sS'training_block.thisIndex'
p2347
g144
sg163
g2326
sg18
F3.1700532523946094
sS'experimental_blocks.thisTrialN'
p2348
I3
sS'training_block.thisN'
p2349
I2
sS'word_presentation.thisN'
p2350
I1
sS'training_block.thisTrialN'
p2351
I0
sg17
S'space'
p2352
sg27
g28
sS'word_presentation.thisTrialN'
p2353
I1
sg40
g12
sS'word_presentation.thisIndex'
p2354
g30
(g130
S'\x01\x00\x00\x00'
p2355
tp2356
Rp2357
sa(dp2358
S'training_block.thisRepN'
p2359
I2
sg162
g2302
sg29
g39
sg2303
Vslither
p2360
sS'experimental_blocks.thisN'
p2361
I3
sg41
g42
sg2306
Vflee
p2362
sg2308
Vcreep
p2363
sg2310
Vkick
p2364
sS'experimental_blocks.thisIndex'
p2365
g2315
sS'word_presentation.thisRepN'
p2366
I0
sS'experimental_blocks.thisRepN'
p2367
I0
sg43
g48
sg161
g2320
sg2321
Vleg
p2368
sS'training_block.thisIndex'
p2369
g144
sg163
g2326
sg18
F5.837128985533127
sS'experimental_blocks.thisTrialN'
p2370
I3
sS'training_block.thisN'
p2371
I2
sS'word_presentation.thisN'
p2372
I2
sS'training_block.thisTrialN'
p2373
I0
sg17
S'space'
p2374
sg27
g28
sS'word_presentation.thisTrialN'
p2375
I2
sg40
g12
sS'word_presentation.thisIndex'
p2376
g30
(g130
S'\x02\x00\x00\x00'
p2377
tp2378
Rp2379
sa(dp2380
S'training_block.thisRepN'
p2381
I2
sg162
g2302
sg29
g39
sg2303
Vdunk
p2382
sS'experimental_blocks.thisN'
p2383
I3
sg41
g42
sg2306
Vnip
p2384
sg2308
Vclutch
p2385
sg2310
Vstab
p2386
sS'experimental_blocks.thisIndex'
p2387
g2315
sS'word_presentation.thisRepN'
p2388
I0
sS'experimental_blocks.thisRepN'
p2389
I0
sg43
g48
sg161
g2320
sg2321
g2322
sS'training_block.thisIndex'
p2390
g144
sg163
g2326
sg18
F3.6569934167428073
sS'experimental_blocks.thisTrialN'
p2391
I3
sS'training_block.thisN'
p2392
I2
sS'word_presentation.thisN'
p2393
I3
sS'training_block.thisTrialN'
p2394
I0
sg17
S'space'
p2395
sg27
g28
sS'word_presentation.thisTrialN'
p2396
I3
sg40
g12
sS'word_presentation.thisIndex'
p2397
g30
(g130
S'\x03\x00\x00\x00'
p2398
tp2399
Rp2400
sa(dp2401
S'training_block.thisRepN'
p2402
I2
sg162
g2302
sg29
g39
sg2303
Vtrip
p2403
sS'experimental_blocks.thisN'
p2404
I3
sg41
g42
sg2306
Vinch
p2405
sg2308
Vhike
p2406
sg2310
Vkneel
p2407
sS'experimental_blocks.thisIndex'
p2408
g2315
sS'word_presentation.thisRepN'
p2409
I0
sS'experimental_blocks.thisRepN'
p2410
I0
sg43
g48
sg161
g2320
sg2321
g2368
sS'training_block.thisIndex'
p2411
g144
sg163
g2326
sg18
F5.852780321822138
sS'experimental_blocks.thisTrialN'
p2412
I3
sS'training_block.thisN'
p2413
I2
sS'word_presentation.thisN'
p2414
I4
sS'training_block.thisTrialN'
p2415
I0
sg17
S'space'
p2416
sg27
g28
sS'word_presentation.thisTrialN'
p2417
I4
sg40
g12
sS'word_presentation.thisIndex'
p2418
g30
(g130
S'\x04\x00\x00\x00'
p2419
tp2420
Rp2421
sa(dp2422
S'training_block.thisRepN'
p2423
I2
sg162
g2302
sg29
g39
sg2303
Vscrub
p2424
sS'experimental_blocks.thisN'
p2425
I3
sg41
g42
sg2306
Vpeel
p2426
sg2308
Vclap
p2427
sg2310
Vdelve
p2428
sS'experimental_blocks.thisIndex'
p2429
g2315
sS'word_presentation.thisRepN'
p2430
I0
sS'experimental_blocks.thisRepN'
p2431
I0
sg43
g48
sg161
g2320
sg2321
g2322
sS'training_block.thisIndex'
p2432
g144
sg163
g2326
sg18
F10.230712305104134
sS'experimental_blocks.thisTrialN'
p2433
I3
sS'training_block.thisN'
p2434
I2
sS'word_presentation.thisN'
p2435
I5
sS'training_block.thisTrialN'
p2436
I0
sg17
S'space'
p2437
sg27
g28
sS'word_presentation.thisTrialN'
p2438
I5
sg40
g12
sS'word_presentation.thisIndex'
p2439
g30
(g130
S'\x05\x00\x00\x00'
p2440
tp2441
Rp2442
sa(dp2443
S'training_block.thisRepN'
p2444
I2
sg162
g2302
sg29
g39
sg2303
Vskate
p2445
sS'experimental_blocks.thisN'
p2446
I3
sg41
g42
sg2306
Vrun
p2447
sg2308
Vroll
p2448
sg2310
Vclimb
p2449
sS'experimental_blocks.thisIndex'
p2450
g2315
sS'word_presentation.thisRepN'
p2451
I0
sS'experimental_blocks.thisRepN'
p2452
I0
sg43
g48
sg161
g2320
sg2321
g2368
sS'training_block.thisIndex'
p2453
g144
sg163
g2326
sg18
F5.215096133254519
sS'experimental_blocks.thisTrialN'
p2454
I3
sS'training_block.thisN'
p2455
I2
sS'word_presentation.thisN'
p2456
I6
sS'training_block.thisTrialN'
p2457
I0
sg17
S'space'
p2458
sg27
g28
sS'word_presentation.thisTrialN'
p2459
I6
sg40
g12
sS'word_presentation.thisIndex'
p2460
g30
(g130
S'\x06\x00\x00\x00'
p2461
tp2462
Rp2463
sa(dp2464
S'training_block.thisRepN'
p2465
I2
sg162
g2302
sg29
g39
sg2303
Vtread
p2466
sS'experimental_blocks.thisN'
p2467
I3
sg41
g42
sg2306
Vtiptoe
p2468
sg2308
Vbounce
p2469
sg2310
Vprance
p2470
sS'experimental_blocks.thisIndex'
p2471
g2315
sS'word_presentation.thisRepN'
p2472
I0
sS'experimental_blocks.thisRepN'
p2473
I0
sg43
g48
sg161
g2320
sg2321
g2368
sS'training_block.thisIndex'
p2474
g144
sg163
g2326
sg18
F14.808933426999829
sS'experimental_blocks.thisTrialN'
p2475
I3
sS'training_block.thisN'
p2476
I2
sS'word_presentation.thisN'
p2477
I7
sS'training_block.thisTrialN'
p2478
I0
sg17
S'space'
p2479
sg27
g28
sS'word_presentation.thisTrialN'
p2480
I7
sg40
g12
sS'word_presentation.thisIndex'
p2481
g30
(g130
S'\x07\x00\x00\x00'
p2482
tp2483
Rp2484
sa(dp2485
S'training_block.thisRepN'
p2486
I2
sg162
g2302
sg29
g39
sg2303
Vknock
p2487
sS'experimental_blocks.thisN'
p2488
I3
sg41
g42
sg2306
Vswitch
p2489
sg2308
Vfile
p2490
sg2310
Vclick
p2491
sS'experimental_blocks.thisIndex'
p2492
g2315
sS'word_presentation.thisRepN'
p2493
I0
sS'experimental_blocks.thisRepN'
p2494
I0
sg43
g48
sg161
g2320
sg2321
g2322
sS'training_block.thisIndex'
p2495
g144
sg163
g2326
sg18
F3.84080070613345
sS'experimental_blocks.thisTrialN'
p2496
I3
sS'training_block.thisN'
p2497
I2
sS'word_presentation.thisN'
p2498
I8
sS'training_block.thisTrialN'
p2499
I0
sg17
S'space'
p2500
sg27
g28
sS'word_presentation.thisTrialN'
p2501
I8
sg40
g12
sS'word_presentation.thisIndex'
p2502
g30
(g130
S'\x08\x00\x00\x00'
p2503
tp2504
Rp2505
sa(dp2506
S'training_block.thisRepN'
p2507
I2
sg162
g2302
sg29
g39
sg2303
Vtrek
p2508
sS'experimental_blocks.thisN'
p2509
I3
sg41
g42
sg2306
Vmount
p2510
sg2308
Vwobble
p2511
sg2310
Vtraipse
p2512
sS'experimental_blocks.thisIndex'
p2513
g2315
sS'word_presentation.thisRepN'
p2514
I0
sS'experimental_blocks.thisRepN'
p2515
I0
sg43
g48
sg161
g2320
sg2321
g2368
sS'training_block.thisIndex'
p2516
g144
sg163
g2326
sg18
F5.703256385111672
sS'experimental_blocks.thisTrialN'
p2517
I3
sS'training_block.thisN'
p2518
I2
sS'word_presentation.thisN'
p2519
I9
sS'training_block.thisTrialN'
p2520
I0
sg17
S'space'
p2521
sg27
g28
sS'word_presentation.thisTrialN'
p2522
I9
sg40
g12
sS'word_presentation.thisIndex'
p2523
g30
(g130
S'\t\x00\x00\x00'
p2524
tp2525
Rp2526
sa(dp2527
S'training_block.thisRepN'
p2528
I2
sg162
g2302
sg29
g39
sg2303
Vpace
p2529
sS'experimental_blocks.thisN'
p2530
I3
sg41
g42
sg2306
Vlimp
p2531
sg2308
Vtrudge
p2532
sg2310
Vstray
p2533
sS'experimental_blocks.thisIndex'
p2534
g2315
sS'word_presentation.thisRepN'
p2535
I0
sS'experimental_blocks.thisRepN'
p2536
I0
sg43
g48
sg161
g2320
sg2321
g2368
sS'training_block.thisIndex'
p2537
g144
sg163
g2326
sg18
F10.834938912652433
sS'experimental_blocks.thisTrialN'
p2538
I3
sS'training_block.thisN'
p2539
I2
sS'word_presentation.thisN'
p2540
I10
sS'training_block.thisTrialN'
p2541
I0
sg17
S'space'
p2542
sg27
g28
sS'word_presentation.thisTrialN'
p2543
I10
sg40
g12
sS'word_presentation.thisIndex'
p2544
g30
(g130
S'\n\x00\x00\x00'
p2545
tp2546
Rp2547
sa(dp2548
S'training_block.thisRepN'
p2549
I2
sg162
g2302
sg29
g39
sg2303
Vshake
p2550
sS'experimental_blocks.thisN'
p2551
I3
sg41
g42
sg2306
Vclaw
p2552
sg2308
Vgrasp
p2553
sg2310
Vcatch
p2554
sS'experimental_blocks.thisIndex'
p2555
g2315
sS'word_presentation.thisRepN'
p2556
I0
sS'experimental_blocks.thisRepN'
p2557
I0
sg43
g48
sg161
g2320
sg2321
g2322
sS'training_block.thisIndex'
p2558
g144
sg163
g2326
sg18
F9.643542426092608
sS'experimental_blocks.thisTrialN'
p2559
I3
sS'training_block.thisN'
p2560
I2
sS'word_presentation.thisN'
p2561
I11
sS'training_block.thisTrialN'
p2562
I0
sg17
S'space'
p2563
sg27
g28
sS'word_presentation.thisTrialN'
p2564
I11
sg40
g12
sS'word_presentation.thisIndex'
p2565
g30
(g130
S'\x0b\x00\x00\x00'
p2566
tp2567
Rp2568
sa(dp2569
S'training_block.thisRepN'
p2570
I2
sg162
g2302
sg29
g39
sg2303
Vbash
p2571
sS'experimental_blocks.thisN'
p2572
I3
sg41
g42
sg2306
Vpunch
p2573
sg2308
Vseize
p2574
sg2310
Vcut
p2575
sS'experimental_blocks.thisIndex'
p2576
g2315
sS'word_presentation.thisRepN'
p2577
I0
sS'experimental_blocks.thisRepN'
p2578
I0
sg43
g48
sg161
g2320
sg2321
g2322
sS'training_block.thisIndex'
p2579
g144
sg163
g2326
sg18
F11.08604738269878
sS'experimental_blocks.thisTrialN'
p2580
I3
sS'training_block.thisN'
p2581
I2
sS'word_presentation.thisN'
p2582
I12
sS'training_block.thisTrialN'
p2583
I0
sg17
S'space'
p2584
sg27
g28
sS'word_presentation.thisTrialN'
p2585
I12
sg40
g12
sS'word_presentation.thisIndex'
p2586
g30
(g130
S'\x0c\x00\x00\x00'
p2587
tp2588
Rp2589
sa(dp2590
S'training_block.thisRepN'
p2591
I2
sg162
g2302
sg29
g39
sg2303
Vwander
p2592
sS'experimental_blocks.thisN'
p2593
I3
sg41
g42
sg2306
Vcrawl
p2594
sg2308
Vstride
p2595
sg2310
Vstamp
p2596
sS'experimental_blocks.thisIndex'
p2597
g2315
sS'word_presentation.thisRepN'
p2598
I0
sS'experimental_blocks.thisRepN'
p2599
I0
sg43
g48
sg161
g2320
sg2321
g2368
sS'training_block.thisIndex'
p2600
g144
sg163
g2326
sg18
F9.023216431986839
sS'experimental_blocks.thisTrialN'
p2601
I3
sS'training_block.thisN'
p2602
I2
sS'word_presentation.thisN'
p2603
I13
sS'training_block.thisTrialN'
p2604
I0
sg17
S'space'
p2605
sg27
g28
sS'word_presentation.thisTrialN'
p2606
I13
sg40
g12
sS'word_presentation.thisIndex'
p2607
g30
(g130
S'\r\x00\x00\x00'
p2608
tp2609
Rp2610
sa(dp2611
S'training_block.thisRepN'
p2612
I2
sg162
g2302
sg29
g39
sg2303
Vstroll
p2613
sS'experimental_blocks.thisN'
p2614
I3
sg41
g42
sg2306
Vjump
p2615
sg2308
Vstumble
p2616
sg2310
Vglide
p2617
sS'experimental_blocks.thisIndex'
p2618
g2315
sS'word_presentation.thisRepN'
p2619
I0
sS'experimental_blocks.thisRepN'
p2620
I0
sg43
g48
sg161
g2320
sg2321
g2368
sS'training_block.thisIndex'
p2621
g144
sg163
g2326
sg18
F8.26848760512803
sS'experimental_blocks.thisTrialN'
p2622
I3
sS'training_block.thisN'
p2623
I2
sS'word_presentation.thisN'
p2624
I14
sS'training_block.thisTrialN'
p2625
I0
sg17
S'space'
p2626
sg27
g28
sS'word_presentation.thisTrialN'
p2627
I14
sg40
g12
sS'word_presentation.thisIndex'
p2628
g30
(g130
S'\x0e\x00\x00\x00'
p2629
tp2630
Rp2631
sa(dp2632
S'training_block.thisRepN'
p2633
I2
sg162
g2302
sg29
g39
sg2303
Vsnatch
p2634
sS'experimental_blocks.thisN'
p2635
I3
sg41
g42
sg2306
Vwash
p2636
sg2308
Vclean
p2637
sg2310
Vlift
p2638
sS'experimental_blocks.thisIndex'
p2639
g2315
sS'word_presentation.thisRepN'
p2640
I0
sS'experimental_blocks.thisRepN'
p2641
I0
sg43
g48
sg161
g2320
sg2321
g2322
sS'training_block.thisIndex'
p2642
g144
sg163
g2326
sg18
F5.333354142252574
sS'experimental_blocks.thisTrialN'
p2643
I3
sS'training_block.thisN'
p2644
I2
sS'word_presentation.thisN'
p2645
I15
sS'training_block.thisTrialN'
p2646
I0
sg17
S'space'
p2647
sg27
g28
sS'word_presentation.thisTrialN'
p2648
I15
sg40
g12
sS'word_presentation.thisIndex'
p2649
g30
(g130
S'\x0f\x00\x00\x00'
p2650
tp2651
Rp2652
sa(dp2653
S'training_block.thisRepN'
p2654
I2
sg162
g2302
sg29
g39
sg2303
Vsneak
p2655
sS'experimental_blocks.thisN'
p2656
I3
sg41
g42
sg2306
Vhop
p2657
sg2308
Vplod
p2658
sg2310
Vsway
p2659
sS'experimental_blocks.thisIndex'
p2660
g2315
sS'word_presentation.thisRepN'
p2661
I0
sS'experimental_blocks.thisRepN'
p2662
I0
sg43
g48
sg161
g2320
sg2321
g2368
sS'training_block.thisIndex'
p2663
g144
sg163
g2326
sg18
F4.51159754812943
sS'experimental_blocks.thisTrialN'
p2664
I3
sS'training_block.thisN'
p2665
I2
sS'word_presentation.thisN'
p2666
I16
sS'training_block.thisTrialN'
p2667
I0
sg17
S'space'
p2668
sg27
g28
sS'word_presentation.thisTrialN'
p2669
I16
sg40
g12
sS'word_presentation.thisIndex'
p2670
g30
(g130
S'\x10\x00\x00\x00'
p2671
tp2672
Rp2673
sa(dp2674
S'training_block.thisRepN'
p2675
I2
sg162
g2302
sg29
g39
sg2303
Vgrate
p2676
sS'experimental_blocks.thisN'
p2677
I3
sg41
g42
sg2306
Vhack
p2678
sg2308
Vbraid
p2679
sg2310
Vgrab
p2680
sS'experimental_blocks.thisIndex'
p2681
g2315
sS'word_presentation.thisRepN'
p2682
I0
sS'experimental_blocks.thisRepN'
p2683
I0
sg43
g48
sg161
g2320
sg2321
g2322
sS'training_block.thisIndex'
p2684
g144
sg163
g2326
sg18
F22.523753381119604
sS'experimental_blocks.thisTrialN'
p2685
I3
sS'training_block.thisN'
p2686
I2
sS'word_presentation.thisN'
p2687
I17
sS'training_block.thisTrialN'
p2688
I0
sg17
S'space'
p2689
sg27
g28
sS'word_presentation.thisTrialN'
p2690
I17
sg40
g12
sS'word_presentation.thisIndex'
p2691
g30
(g130
S'\x11\x00\x00\x00'
p2692
tp2693
Rp2694
sa(dp2695
S'training_block.thisRepN'
p2696
I2
sg162
g2302
sg29
g39
sg2303
Vjog
p2697
sS'experimental_blocks.thisN'
p2698
I3
sg41
g42
sg2306
Vramble
p2699
sg2308
Vdance
p2700
sg2310
Vstagger
p2701
sS'experimental_blocks.thisIndex'
p2702
g2315
sS'word_presentation.thisRepN'
p2703
I0
sS'experimental_blocks.thisRepN'
p2704
I0
sg43
g48
sg161
g2320
sg2321
g2368
sS'training_block.thisIndex'
p2705
g144
sg163
g2326
sg18
F5.1489585399413045
sS'experimental_blocks.thisTrialN'
p2706
I3
sS'training_block.thisN'
p2707
I2
sS'word_presentation.thisN'
p2708
I18
sS'training_block.thisTrialN'
p2709
I0
sg17
S'space'
p2710
sg27
g28
sS'word_presentation.thisTrialN'
p2711
I18
sg40
g12
sS'word_presentation.thisIndex'
p2712
g30
(g130
S'\x12\x00\x00\x00'
p2713
tp2714
Rp2715
sa(dp2716
S'training_block.thisRepN'
p2717
I2
sg162
g2302
sg29
g39
sg2303
Vbrush
p2718
sS'experimental_blocks.thisN'
p2719
I3
sg41
g42
sg2306
Vskim
p2720
sg2308
Vpull
p2721
sg2310
Vwrap
p2722
sS'experimental_blocks.thisIndex'
p2723
g2315
sS'word_presentation.thisRepN'
p2724
I0
sS'experimental_blocks.thisRepN'
p2725
I0
sg43
g48
sg161
g2320
sg2321
g2322
sS'training_block.thisIndex'
p2726
g144
sg163
g2326
sg18
F8.369087139060866
sS'experimental_blocks.thisTrialN'
p2727
I3
sS'training_block.thisN'
p2728
I2
sS'word_presentation.thisN'
p2729
I19
sS'training_block.thisTrialN'
p2730
I0
sg17
S'space'
p2731
sg27
g28
sS'word_presentation.thisTrialN'
p2732
I19
sg40
g12
sS'word_presentation.thisIndex'
p2733
g30
(g130
S'\x13\x00\x00\x00'
p2734
tp2735
Rp2736
sa(dp2737
S'training_block.thisRepN'
p2738
I2
sg162
g2302
sg29
g39
sg2303
Vpinch
p2739
sS'experimental_blocks.thisN'
p2740
I3
sg41
g42
sg2306
Vscratch
p2741
sg2308
Vpush
p2742
sg2310
Vpoke
p2743
sS'experimental_blocks.thisIndex'
p2744
g2315
sS'word_presentation.thisRepN'
p2745
I0
sS'experimental_blocks.thisRepN'
p2746
I0
sg43
g48
sg161
g2320
sg2321
g2322
sS'training_block.thisIndex'
p2747
g144
sg163
g2326
sg18
F7.3964636427363075
sS'experimental_blocks.thisTrialN'
p2748
I3
sS'training_block.thisN'
p2749
I2
sS'word_presentation.thisN'
p2750
I20
sS'training_block.thisTrialN'
p2751
I0
sg17
S'space'
p2752
sg27
g28
sS'word_presentation.thisTrialN'
p2753
I20
sg40
g12
sS'word_presentation.thisIndex'
p2754
g30
(g130
S'\x14\x00\x00\x00'
p2755
tp2756
Rp2757
sa(dp2758
S'training_block.thisRepN'
p2759
I2
sg162
g2302
sg29
g39
sg2303
Vslap
p2760
sS'experimental_blocks.thisN'
p2761
I3
sg41
g42
sg2306
Vtug
p2762
sg2308
Vrub
p2763
sg2310
Vstir
p2764
sS'experimental_blocks.thisIndex'
p2765
g2315
sS'word_presentation.thisRepN'
p2766
I0
sS'experimental_blocks.thisRepN'
p2767
I0
sg43
g48
sg161
g2320
sg2321
g2322
sS'training_block.thisIndex'
p2768
g144
sg163
g2326
sg18
F12.494378431001678
sS'experimental_blocks.thisTrialN'
p2769
I3
sS'training_block.thisN'
p2770
I2
sS'word_presentation.thisN'
p2771
I21
sS'training_block.thisTrialN'
p2772
I0
sg17
S'space'
p2773
sg27
g28
sS'word_presentation.thisTrialN'
p2774
I21
sg40
g12
sS'word_presentation.thisIndex'
p2775
g30
(g130
S'\x15\x00\x00\x00'
p2776
tp2777
Rp2778
sa(dp2779
S'training_block.thisRepN'
p2780
I2
sg162
g2302
sg29
g39
sg2303
Vwade
p2781
sS'experimental_blocks.thisN'
p2782
I3
sg41
g42
sg2306
Vtrot
p2783
sg2308
Vwalk
p2784
sg2310
Vslip
p2785
sS'experimental_blocks.thisIndex'
p2786
g2315
sS'word_presentation.thisRepN'
p2787
I0
sS'experimental_blocks.thisRepN'
p2788
I0
sg43
g48
sg161
g2320
sg2321
g2368
sS'training_block.thisIndex'
p2789
g144
sg163
g2326
sg18
F3.8911024486305905
sS'experimental_blocks.thisTrialN'
p2790
I3
sS'training_block.thisN'
p2791
I2
sS'word_presentation.thisN'
p2792
I22
sS'training_block.thisTrialN'
p2793
I0
sg17
S'space'
p2794
sg27
g28
sS'word_presentation.thisTrialN'
p2795
I22
sg40
g12
sS'word_presentation.thisIndex'
p2796
g30
(g130
S'\x16\x00\x00\x00'
p2797
tp2798
Rp2799
sa(dp2800
S'training_block.thisRepN'
p2801
I2
sg162
g2302
sg29
g39
sg2303
Vstrut
p2802
sS'experimental_blocks.thisN'
p2803
I3
sg41
g42
sg2306
Vmarch
p2804
sg2308
Vrush
p2805
sg2310
Vroam
p2806
sS'experimental_blocks.thisIndex'
p2807
g2315
sS'word_presentation.thisRepN'
p2808
I0
sS'experimental_blocks.thisRepN'
p2809
I0
sg43
g48
sg161
g2320
sg2321
g2368
sS'training_block.thisIndex'
p2810
g144
sg163
g2326
sg18
F9.526174591045674
sS'experimental_blocks.thisTrialN'
p2811
I3
sS'training_block.thisN'
p2812
I2
sS'word_presentation.thisN'
p2813
I23
sS'training_block.thisTrialN'
p2814
I0
sg17
S'space'
p2815
sg27
g28
sS'word_presentation.thisTrialN'
p2816
I23
sg40
g12
sS'word_presentation.thisIndex'
p2817
g30
(g130
S'\x17\x00\x00\x00'
p2818
tp2819
Rp2820
sa(dp2821
S'training_block.thisRepN'
p2822
I2
sg162
g2302
sg29
g39
sg2303
Vflit
p2823
sS'experimental_blocks.thisN'
p2824
I3
sg41
g42
sg2306
Vleap
p2825
sg2308
Vstomp
p2826
sg2310
Vscuff
p2827
sS'experimental_blocks.thisIndex'
p2828
g2315
sS'word_presentation.thisRepN'
p2829
I0
sS'experimental_blocks.thisRepN'
p2830
I0
sg43
g48
sg161
g2320
sg2321
g2368
sS'training_block.thisIndex'
p2831
g144
sg163
g2326
sg18
F8.73785661285092
sS'experimental_blocks.thisTrialN'
p2832
I3
sS'training_block.thisN'
p2833
I2
sS'word_presentation.thisN'
p2834
I24
sS'training_block.thisTrialN'
p2835
I0
sg17
S'space'
p2836
sg27
g28
sS'word_presentation.thisTrialN'
p2837
I24
sg40
g12
sS'word_presentation.thisIndex'
p2838
g30
(g130
S'\x18\x00\x00\x00'
p2839
tp2840
Rp2841
sa(dp2842
S'training_block.thisRepN'
p2843
I2
sg162
g2302
sg29
g39
sg2303
Vcarve
p2844
sS'experimental_blocks.thisN'
p2845
I3
sg41
g42
sg2306
Vwipe
p2846
sg2308
Vsqueeze
p2847
sg2310
Vthrow
p2848
sS'experimental_blocks.thisIndex'
p2849
g2315
sS'word_presentation.thisRepN'
p2850
I0
sS'experimental_blocks.thisRepN'
p2851
I0
sg43
g48
sg161
g2320
sg2321
g2322
sS'training_block.thisIndex'
p2852
g144
sg163
g2326
sg18
F11.036067651639314
sS'experimental_blocks.thisTrialN'
p2853
I3
sS'training_block.thisN'
p2854
I2
sS'word_presentation.thisN'
p2855
I25
sS'training_block.thisTrialN'
p2856
I0
sg17
S'space'
p2857
sg27
g28
sS'word_presentation.thisTrialN'
p2858
I25
sg40
g12
sS'word_presentation.thisIndex'
p2859
g30
(g130
S'\x19\x00\x00\x00'
p2860
tp2861
Rp2862
sa(dp2863
S'training_block.thisRepN'
p2864
I2
sg162
g2302
sg29
g39
sg2303
Vskip
p2865
sS'experimental_blocks.thisN'
p2866
I3
sg41
g42
sg2306
Vslide
p2867
sg2308
Vsprint
p2868
sg2310
Vstep
p2869
sS'experimental_blocks.thisIndex'
p2870
g2315
sS'word_presentation.thisRepN'
p2871
I0
sS'experimental_blocks.thisRepN'
p2872
I0
sg43
g48
sg161
g2320
sg2321
g2368
sS'training_block.thisIndex'
p2873
g144
sg163
g2326
sg18
F4.209649201135107
sS'experimental_blocks.thisTrialN'
p2874
I3
sS'training_block.thisN'
p2875
I2
sS'word_presentation.thisN'
p2876
I26
sS'training_block.thisTrialN'
p2877
I0
sg17
S'space'
p2878
sg27
g28
sS'word_presentation.thisTrialN'
p2879
I26
sg40
g12
sS'word_presentation.thisIndex'
p2880
g30
(g130
S'\x1a\x00\x00\x00'
p2881
tp2882
Rp2883
sa(dp2884
S'training_block.thisRepN'
p2885
I2
sg162
g2302
sg29
g39
sg2303
Vpolish
p2886
sS'experimental_blocks.thisN'
p2887
I3
sg41
g42
sg2306
Vfold
p2888
sg2308
Vtwine
p2889
sg2310
Vdig
p2890
sS'experimental_blocks.thisIndex'
p2891
g2315
sS'word_presentation.thisRepN'
p2892
I0
sS'experimental_blocks.thisRepN'
p2893
I0
sg43
g48
sg161
g2320
sg2321
g2322
sS'training_block.thisIndex'
p2894
g144
sg163
g2326
sg18
F4.8648492314796385
sS'experimental_blocks.thisTrialN'
p2895
I3
sS'training_block.thisN'
p2896
I2
sS'word_presentation.thisN'
p2897
I27
sS'training_block.thisTrialN'
p2898
I0
sg17
S'space'
p2899
sg27
g28
sS'word_presentation.thisTrialN'
p2900
I27
sg40
g12
sS'word_presentation.thisIndex'
p2901
g30
(g130
S'\x1b\x00\x00\x00'
p2902
tp2903
Rp2904
sa(dp2905
S'training_block.thisRepN'
p2906
I2
sg162
g2302
sS'experimental_blocks.thisRepN'
p2907
I0
sS'experimental_blocks.thisTrialN'
p2908
I3
sS'training_block.thisN'
p2909
I2
sg41
g42
sg40
g12
sg29
g39
sS'training_block.thisTrialN'
p2910
I0
sg43
g48
sS'experimental_blocks.thisN'
p2911
I3
sg163
g2326
sg27
g28
sS'experimental_blocks.thisIndex'
p2912
g2315
sg161
g2320
sS'training_block.thisIndex'
p2913
g144
sa(dp2914
S'training_block.thisRepN'
p2915
I2
sg162
g30
(g34
S'\x9a\x99\x99\x99\x99\x99\xd9?'
p2916
tp2917
Rp2918
sg29
g39
sS'word4'
p2919
Vknock
p2920
sS'experimental_blocks.thisN'
p2921
I4
sg41
g42
sS'word1'
p2922
Vpinch
p2923
sS'word3'
p2924
Vclick
p2925
sS'word2'
p2926
Vclutch
p2927
sS'experimental_blocks.thisIndex'
p2928
g30
(g130
S'\x02\x00\x00\x00'
p2929
tp2930
Rp2931
sS'word_presentation.thisRepN'
p2932
I0
sS'experimental_blocks.thisRepN'
p2933
I0
sg43
g48
sg161
g30
(g34
S'\x00\x00\x00\x00\x00\x00\xd0?'
p2934
tp2935
Rp2936
sS'type'
p2937
Varm
p2938
sS'training_block.thisIndex'
p2939
g144
sg163
g30
(g34
S'\xcd\xcc\xcc\xcc\xcc\xcc\xe4?'
p2940
tp2941
Rp2942
sg18
F9.056590645627693
sS'experimental_blocks.thisTrialN'
p2943
I4
sS'training_block.thisN'
p2944
I2
sS'word_presentation.thisN'
p2945
I0
sS'training_block.thisTrialN'
p2946
I0
sg17
S'space'
p2947
sg27
g28
sS'word_presentation.thisTrialN'
p2948
I0
sg40
g12
sS'word_presentation.thisIndex'
p2949
g30
(g130
S'\x00\x00\x00\x00'
p2950
tp2951
Rp2952
sa(dp2953
S'training_block.thisRepN'
p2954
I2
sg162
g2918
sg29
g39
sg2919
Vsqueeze
p2955
sS'experimental_blocks.thisN'
p2956
I4
sg41
g42
sg2922
Vbash
p2957
sg2924
Vgrip
p2958
sg2926
Vscratch
p2959
sS'experimental_blocks.thisIndex'
p2960
g2931
sS'word_presentation.thisRepN'
p2961
I0
sS'experimental_blocks.thisRepN'
p2962
I0
sg43
g48
sg161
g2936
sg2937
g2938
sS'training_block.thisIndex'
p2963
g144
sg163
g2942
sg18
F8.352275376279067
sS'experimental_blocks.thisTrialN'
p2964
I4
sS'training_block.thisN'
p2965
I2
sS'word_presentation.thisN'
p2966
I1
sS'training_block.thisTrialN'
p2967
I0
sg17
S'space'
p2968
sg27
g28
sS'word_presentation.thisTrialN'
p2969
I1
sg40
g12
sS'word_presentation.thisIndex'
p2970
g30
(g130
S'\x01\x00\x00\x00'
p2971
tp2972
Rp2973
sa(dp2974
S'training_block.thisRepN'
p2975
I2
sg162
g2918
sg29
g39
sg2919
Vstride
p2976
sS'experimental_blocks.thisN'
p2977
I4
sg41
g42
sg2922
Vstagger
p2978
sg2924
Vtrot
p2979
sg2926
Vramble
p2980
sS'experimental_blocks.thisIndex'
p2981
g2931
sS'word_presentation.thisRepN'
p2982
I0
sS'experimental_blocks.thisRepN'
p2983
I0
sg43
g48
sg161
g2936
sg2937
Vleg
p2984
sS'training_block.thisIndex'
p2985
g144
sg163
g2942
sg18
F10.23011253410732
sS'experimental_blocks.thisTrialN'
p2986
I4
sS'training_block.thisN'
p2987
I2
sS'word_presentation.thisN'
p2988
I2
sS'training_block.thisTrialN'
p2989
I0
sg17
S'space'
p2990
sg27
g28
sS'word_presentation.thisTrialN'
p2991
I2
sg40
g12
sS'word_presentation.thisIndex'
p2992
g30
(g130
S'\x02\x00\x00\x00'
p2993
tp2994
Rp2995
sa(dp2996
S'training_block.thisRepN'
p2997
I2
sg162
g2918
sg29
g39
sg2919
Vseize
p2998
sS'experimental_blocks.thisN'
p2999
I4
sg41
g42
sg2922
Vpunch
p3000
sg2924
Vdig
p3001
sg2926
Vstir
p3002
sS'experimental_blocks.thisIndex'
p3003
g2931
sS'word_presentation.thisRepN'
p3004
I0
sS'experimental_blocks.thisRepN'
p3005
I0
sg43
g48
sg161
g2936
sg2937
g2938
sS'training_block.thisIndex'
p3006
g144
sg163
g2942
sg18
F3.9413548028696823
sS'experimental_blocks.thisTrialN'
p3007
I4
sS'training_block.thisN'
p3008
I2
sS'word_presentation.thisN'
p3009
I3
sS'training_block.thisTrialN'
p3010
I0
sg17
S'space'
p3011
sg27
g28
sS'word_presentation.thisTrialN'
p3012
I3
sg40
g12
sS'word_presentation.thisIndex'
p3013
g30
(g130
S'\x03\x00\x00\x00'
p3014
tp3015
Rp3016
sa(dp3017
S'training_block.thisRepN'
p3018
I2
sg162
g2918
sg29
g39
sg2919
Vstep
p3019
sS'experimental_blocks.thisN'
p3020
I4
sg41
g42
sg2922
Vpace
p3021
sg2924
Vroll
p3022
sg2926
Vkneel
p3023
sS'experimental_blocks.thisIndex'
p3024
g2931
sS'word_presentation.thisRepN'
p3025
I0
sS'experimental_blocks.thisRepN'
p3026
I0
sg43
g48
sg161
g2936
sg2937
g2984
sS'training_block.thisIndex'
p3027
g144
sg163
g2942
sg18
F3.3382431846184772
sS'experimental_blocks.thisTrialN'
p3028
I4
sS'training_block.thisN'
p3029
I2
sS'word_presentation.thisN'
p3030
I4
sS'training_block.thisTrialN'
p3031
I0
sg17
S'space'
p3032
sg27
g28
sS'word_presentation.thisTrialN'
p3033
I4
sg40
g12
sS'word_presentation.thisIndex'
p3034
g30
(g130
S'\x04\x00\x00\x00'
p3035
tp3036
Rp3037
sa(dp3038
S'training_block.thisRepN'
p3039
I2
sg162
g2918
sg29
g39
sg2919
Vgrab
p3040
sS'experimental_blocks.thisN'
p3041
I4
sg41
g42
sg2922
Vgrate
p3042
sg2924
Vscrape
p3043
sg2926
Vstab
p3044
sS'experimental_blocks.thisIndex'
p3045
g2931
sS'word_presentation.thisRepN'
p3046
I0
sS'experimental_blocks.thisRepN'
p3047
I0
sg43
g48
sg161
g2936
sg2937
g2938
sS'training_block.thisIndex'
p3048
g144
sg163
g2942
sg18
F6.138202172608544
sS'experimental_blocks.thisTrialN'
p3049
I4
sS'training_block.thisN'
p3050
I2
sS'word_presentation.thisN'
p3051
I5
sS'training_block.thisTrialN'
p3052
I0
sg17
S'space'
p3053
sg27
g28
sS'word_presentation.thisTrialN'
p3054
I5
sg40
g12
sS'word_presentation.thisIndex'
p3055
g30
(g130
S'\x05\x00\x00\x00'
p3056
tp3057
Rp3058
sa(dp3059
S'training_block.thisRepN'
p3060
I2
sg162
g2918
sg29
g39
sg2919
Vtread
p3061
sS'experimental_blocks.thisN'
p3062
I4
sg41
g42
sg2922
Vstumble
p3063
sg2924
Vwalk
p3064
sg2926
Vglide
p3065
sS'experimental_blocks.thisIndex'
p3066
g2931
sS'word_presentation.thisRepN'
p3067
I0
sS'experimental_blocks.thisRepN'
p3068
I0
sg43
g48
sg161
g2936
sg2937
g2984
sS'training_block.thisIndex'
p3069
g144
sg163
g2942
sg18
F8.117535755122844
sS'experimental_blocks.thisTrialN'
p3070
I4
sS'training_block.thisN'
p3071
I2
sS'word_presentation.thisN'
p3072
I6
sS'training_block.thisTrialN'
p3073
I0
sg17
S'space'
p3074
sg27
g28
sS'word_presentation.thisTrialN'
p3075
I6
sg40
g12
sS'word_presentation.thisIndex'
p3076
g30
(g130
S'\x06\x00\x00\x00'
p3077
tp3078
Rp3079
sa(dp3080
S'training_block.thisRepN'
p3081
I2
sg162
g2918
sg29
g39
sg2919
Vclean
p3082
sS'experimental_blocks.thisN'
p3083
I4
sg41
g42
sg2922
Vpolish
p3084
sg2924
Vrub
p3085
sg2926
Vslap
p3086
sS'experimental_blocks.thisIndex'
p3087
g2931
sS'word_presentation.thisRepN'
p3088
I0
sS'experimental_blocks.thisRepN'
p3089
I0
sg43
g48
sg161
g2936
sg2937
g2938
sS'training_block.thisIndex'
p3090
g144
sg163
g2942
sg18
F4.8638077319101285
sS'experimental_blocks.thisTrialN'
p3091
I4
sS'training_block.thisN'
p3092
I2
sS'word_presentation.thisN'
p3093
I7
sS'training_block.thisTrialN'
p3094
I0
sg17
S'space'
p3095
sg27
g28
sS'word_presentation.thisTrialN'
p3096
I7
sg40
g12
sS'word_presentation.thisIndex'
p3097
g30
(g130
S'\x07\x00\x00\x00'
p3098
tp3099
Rp3100
sa(dp3101
S'training_block.thisRepN'
p3102
I2
sg162
g2918
sg29
g39
sg2919
Vpoke
p3103
sS'experimental_blocks.thisN'
p3104
I4
sg41
g42
sg2922
Vshake
p3105
sg2924
Vtoss
p3106
sg2926
Vpat
p3107
sS'experimental_blocks.thisIndex'
p3108
g2931
sS'word_presentation.thisRepN'
p3109
I0
sS'experimental_blocks.thisRepN'
p3110
I0
sg43
g48
sg161
g2936
sg2937
g2938
sS'training_block.thisIndex'
p3111
g144
sg163
g2942
sg18
F6.255857644867319
sS'experimental_blocks.thisTrialN'
p3112
I4
sS'training_block.thisN'
p3113
I2
sS'word_presentation.thisN'
p3114
I8
sS'training_block.thisTrialN'
p3115
I0
sg17
S'space'
p3116
sg27
g28
sS'word_presentation.thisTrialN'
p3117
I8
sg40
g12
sS'word_presentation.thisIndex'
p3118
g30
(g130
S'\x08\x00\x00\x00'
p3119
tp3120
Rp3121
sa(dp3122
S'training_block.thisRepN'
p3123
I2
sg162
g2918
sg29
g39
sg2919
Vskim
p3124
sS'experimental_blocks.thisN'
p3125
I4
sg41
g42
sg2922
Vdunk
p3126
sg2924
Vfile
p3127
sg2926
Vclap
p3128
sS'experimental_blocks.thisIndex'
p3129
g2931
sS'word_presentation.thisRepN'
p3130
I0
sS'experimental_blocks.thisRepN'
p3131
I0
sg43
g48
sg161
g2936
sg2937
g2938
sS'training_block.thisIndex'
p3132
g144
sg163
g2942
sg18
F5.517913713578309
sS'experimental_blocks.thisTrialN'
p3133
I4
sS'training_block.thisN'
p3134
I2
sS'word_presentation.thisN'
p3135
I9
sS'training_block.thisTrialN'
p3136
I0
sg17
S'space'
p3137
sg27
g28
sS'word_presentation.thisTrialN'
p3138
I9
sg40
g12
sS'word_presentation.thisIndex'
p3139
g30
(g130
S'\t\x00\x00\x00'
p3140
tp3141
Rp3142
sa(dp3143
S'training_block.thisRepN'
p3144
I2
sg162
g2918
sg29
g39
sg2919
Vslip
p3145
sS'experimental_blocks.thisN'
p3146
I4
sg41
g42
sg2922
Vrun
p3147
sg2924
Vclimb
p3148
sg2926
Vtrudge
p3149
sS'experimental_blocks.thisIndex'
p3150
g2931
sS'word_presentation.thisRepN'
p3151
I0
sS'experimental_blocks.thisRepN'
p3152
I0
sg43
g48
sg161
g2936
sg2937
g2984
sS'training_block.thisIndex'
p3153
g144
sg163
g2942
sg18
F13.51751505156517
sS'experimental_blocks.thisTrialN'
p3154
I4
sS'training_block.thisN'
p3155
I2
sS'word_presentation.thisN'
p3156
I10
sS'training_block.thisTrialN'
p3157
I0
sg17
S'space'
p3158
sg27
g28
sS'word_presentation.thisTrialN'
p3159
I10
sg40
g12
sS'word_presentation.thisIndex'
p3160
g30
(g130
S'\n\x00\x00\x00'
p3161
tp3162
Rp3163
sa(dp3164
S'training_block.thisRepN'
p3165
I2
sg162
g2918
sg29
g39
sg2919
Vcrawl
p3166
sS'experimental_blocks.thisN'
p3167
I4
sg41
g42
sg2922
Vstrut
p3168
sg2924
Vtrek
p3169
sg2926
Vsneak
p3170
sS'experimental_blocks.thisIndex'
p3171
g2931
sS'word_presentation.thisRepN'
p3172
I0
sS'experimental_blocks.thisRepN'
p3173
I0
sg43
g48
sg161
g2936
sg2937
g2984
sS'training_block.thisIndex'
p3174
g144
sg163
g2942
sg18
F10.801464342072904
sS'experimental_blocks.thisTrialN'
p3175
I4
sS'training_block.thisN'
p3176
I2
sS'word_presentation.thisN'
p3177
I11
sS'training_block.thisTrialN'
p3178
I0
sg17
S'space'
p3179
sg27
g28
sS'word_presentation.thisTrialN'
p3180
I11
sg40
g12
sS'word_presentation.thisIndex'
p3181
g30
(g130
S'\x0b\x00\x00\x00'
p3182
tp3183
Rp3184
sa(dp3185
S'training_block.thisRepN'
p3186
I2
sg162
g2918
sg29
g39
sg2919
Vhop
p3187
sS'experimental_blocks.thisN'
p3188
I4
sg41
g42
sg2922
Vbounce
p3189
sg2924
Vskate
p3190
sg2926
Vjump
p3191
sS'experimental_blocks.thisIndex'
p3192
g2931
sS'word_presentation.thisRepN'
p3193
I0
sS'experimental_blocks.thisRepN'
p3194
I0
sg43
g48
sg161
g2936
sg2937
g2984
sS'training_block.thisIndex'
p3195
g144
sg163
g2942
sg18
F11.386017433659617
sS'experimental_blocks.thisTrialN'
p3196
I4
sS'training_block.thisN'
p3197
I2
sS'word_presentation.thisN'
p3198
I12
sS'training_block.thisTrialN'
p3199
I0
sg17
S'space'
p3200
sg27
g28
sS'word_presentation.thisTrialN'
p3201
I12
sg40
g12
sS'word_presentation.thisIndex'
p3202
g30
(g130
S'\x0c\x00\x00\x00'
p3203
tp3204
Rp3205
sa(dp3206
S'training_block.thisRepN'
p3207
I2
sg162
g2918
sg29
g39
sg2919
Vswitch
p3208
sS'experimental_blocks.thisN'
p3209
I4
sg41
g42
sg2922
Vcarve
p3210
sg2924
Vtug
p3211
sg2926
Vsnatch
p3212
sS'experimental_blocks.thisIndex'
p3213
g2931
sS'word_presentation.thisRepN'
p3214
I0
sS'experimental_blocks.thisRepN'
p3215
I0
sg43
g48
sg161
g2936
sg2937
g2938
sS'training_block.thisIndex'
p3216
g144
sg163
g2942
sg18
F4.798359993773374
sS'experimental_blocks.thisTrialN'
p3217
I4
sS'training_block.thisN'
p3218
I2
sS'word_presentation.thisN'
p3219
I13
sS'training_block.thisTrialN'
p3220
I0
sg17
S'space'
p3221
sg27
g28
sS'word_presentation.thisTrialN'
p3222
I13
sg40
g12
sS'word_presentation.thisIndex'
p3223
g30
(g130
S'\r\x00\x00\x00'
p3224
tp3225
Rp3226
sa(dp3227
S'training_block.thisRepN'
p3228
I2
sg162
g2918
sg29
g39
sg2919
Vmarch
p3229
sS'experimental_blocks.thisN'
p3230
I4
sg41
g42
sg2922
Vdance
p3231
sg2924
Vprance
p3232
sg2926
Vstamp
p3233
sS'experimental_blocks.thisIndex'
p3234
g2931
sS'word_presentation.thisRepN'
p3235
I0
sS'experimental_blocks.thisRepN'
p3236
I0
sg43
g48
sg161
g2936
sg2937
g2984
sS'training_block.thisIndex'
p3237
g144
sg163
g2942
sg18
F13.165467651481777
sS'experimental_blocks.thisTrialN'
p3238
I4
sS'training_block.thisN'
p3239
I2
sS'word_presentation.thisN'
p3240
I14
sS'training_block.thisTrialN'
p3241
I0
sg17
S'space'
p3242
sg27
g28
sS'word_presentation.thisTrialN'
p3243
I14
sg40
g12
sS'word_presentation.thisIndex'
p3244
g30
(g130
S'\x0e\x00\x00\x00'
p3245
tp3246
Rp3247
sa(dp3248
S'training_block.thisRepN'
p3249
I2
sg162
g2918
sg29
g39
sg2919
Vslither
p3250
sS'experimental_blocks.thisN'
p3251
I4
sg41
g42
sg2922
Vwade
p3252
sg2924
Vmount
p3253
sg2926
Vsway
p3254
sS'experimental_blocks.thisIndex'
p3255
g2931
sS'word_presentation.thisRepN'
p3256
I0
sS'experimental_blocks.thisRepN'
p3257
I0
sg43
g48
sg161
g2936
sg2937
g2984
sS'training_block.thisIndex'
p3258
g144
sg163
g2942
sg18
F9.777640632074508
sS'experimental_blocks.thisTrialN'
p3259
I4
sS'training_block.thisN'
p3260
I2
sS'word_presentation.thisN'
p3261
I15
sS'training_block.thisTrialN'
p3262
I0
sg17
S'space'
p3263
sg27
g28
sS'word_presentation.thisTrialN'
p3264
I15
sg40
g12
sS'word_presentation.thisIndex'
p3265
g30
(g130
S'\x0f\x00\x00\x00'
p3266
tp3267
Rp3268
sa(dp3269
S'training_block.thisRepN'
p3270
I2
sg162
g2918
sg29
g39
sg2919
Vdelve
p3271
sS'experimental_blocks.thisN'
p3272
I4
sg41
g42
sg2922
Vgrasp
p3273
sg2924
Vpush
p3274
sg2926
Vwhip
p3275
sS'experimental_blocks.thisIndex'
p3276
g2931
sS'word_presentation.thisRepN'
p3277
I0
sS'experimental_blocks.thisRepN'
p3278
I0
sg43
g48
sg161
g2936
sg2937
g2938
sS'training_block.thisIndex'
p3279
g144
sg163
g2942
sg18
F5.937046961515989
sS'experimental_blocks.thisTrialN'
p3280
I4
sS'training_block.thisN'
p3281
I2
sS'word_presentation.thisN'
p3282
I16
sS'training_block.thisTrialN'
p3283
I0
sg17
S'space'
p3284
sg27
g28
sS'word_presentation.thisTrialN'
p3285
I16
sg40
g12
sS'word_presentation.thisIndex'
p3286
g30
(g130
S'\x10\x00\x00\x00'
p3287
tp3288
Rp3289
sa(dp3290
S'training_block.thisRepN'
p3291
I2
sg162
g2918
sg29
g39
sg2919
Vwrap
p3292
sS'experimental_blocks.thisN'
p3293
I4
sg41
g42
sg2922
Vclaw
p3294
sg2924
Vpull
p3295
sg2926
Vtwine
p3296
sS'experimental_blocks.thisIndex'
p3297
g2931
sS'word_presentation.thisRepN'
p3298
I0
sS'experimental_blocks.thisRepN'
p3299
I0
sg43
g48
sg161
g2936
sg2937
g2938
sS'training_block.thisIndex'
p3300
g144
sg163
g2942
sg18
F6.088371396534058
sS'experimental_blocks.thisTrialN'
p3301
I4
sS'training_block.thisN'
p3302
I2
sS'word_presentation.thisN'
p3303
I17
sS'training_block.thisTrialN'
p3304
I0
sg17
S'space'
p3305
sg27
g28
sS'word_presentation.thisTrialN'
p3306
I17
sg40
g12
sS'word_presentation.thisIndex'
p3307
g30
(g130
S'\x11\x00\x00\x00'
p3308
tp3309
Rp3310
sa(dp3311
S'training_block.thisRepN'
p3312
I2
sg162
g2918
sg29
g39
sg2919
Vstray
p3313
sS'experimental_blocks.thisN'
p3314
I4
sg41
g42
sg2922
Vinch
p3315
sg2924
Vroam
p3316
sg2926
Vstomp
p3317
sS'experimental_blocks.thisIndex'
p3318
g2931
sS'word_presentation.thisRepN'
p3319
I0
sS'experimental_blocks.thisRepN'
p3320
I0
sg43
g48
sg161
g2936
sg2937
g2984
sS'training_block.thisIndex'
p3321
g144
sg163
g2942
sg18
F46.67373524575214
sS'experimental_blocks.thisTrialN'
p3322
I4
sS'training_block.thisN'
p3323
I2
sS'word_presentation.thisN'
p3324
I18
sS'training_block.thisTrialN'
p3325
I0
sg17
S'space'
p3326
sg27
g28
sS'word_presentation.thisTrialN'
p3327
I18
sg40
g12
sS'word_presentation.thisIndex'
p3328
g30
(g130
S'\x12\x00\x00\x00'
p3329
tp3330
Rp3331
sa(dp3332
S'training_block.thisRepN'
p3333
I2
sg162
g2918
sg29
g39
sg2919
Vcut
p3334
sS'experimental_blocks.thisN'
p3335
I4
sg41
g42
sg2922
Vpeel
p3336
sg2924
Vbrush
p3337
sg2926
Vbraid
p3338
sS'experimental_blocks.thisIndex'
p3339
g2931
sS'word_presentation.thisRepN'
p3340
I0
sS'experimental_blocks.thisRepN'
p3341
I0
sg43
g48
sg161
g2936
sg2937
g2938
sS'training_block.thisIndex'
p3342
g144
sg163
g2942
sg18
F3.5390044749710796
sS'experimental_blocks.thisTrialN'
p3343
I4
sS'training_block.thisN'
p3344
I2
sS'word_presentation.thisN'
p3345
I19
sS'training_block.thisTrialN'
p3346
I0
sg17
S'space'
p3347
sg27
g28
sS'word_presentation.thisTrialN'
p3348
I19
sg40
g12
sS'word_presentation.thisIndex'
p3349
g30
(g130
S'\x13\x00\x00\x00'
p3350
tp3351
Rp3352
sa(dp3353
S'training_block.thisRepN'
p3354
I2
sg162
g2918
sg29
g39
sg2919
Vcatch
p3355
sS'experimental_blocks.thisN'
p3356
I4
sg41
g42
sg2922
Vwash
p3357
sg2924
Vscrub
p3358
sg2926
Vscoop
p3359
sS'experimental_blocks.thisIndex'
p3360
g2931
sS'word_presentation.thisRepN'
p3361
I0
sS'experimental_blocks.thisRepN'
p3362
I0
sg43
g48
sg161
g2936
sg2937
g2938
sS'training_block.thisIndex'
p3363
g144
sg163
g2942
sg18
F10.616206223236986
sS'experimental_blocks.thisTrialN'
p3364
I4
sS'training_block.thisN'
p3365
I2
sS'word_presentation.thisN'
p3366
I20
sS'training_block.thisTrialN'
p3367
I0
sg17
S'space'
p3368
sg27
g28
sS'word_presentation.thisTrialN'
p3369
I20
sg40
g12
sS'word_presentation.thisIndex'
p3370
g30
(g130
S'\x14\x00\x00\x00'
p3371
tp3372
Rp3373
sa(dp3374
S'training_block.thisRepN'
p3375
I2
sg162
g2918
sg29
g39
sg2919
Vwobble
p3376
sS'experimental_blocks.thisN'
p3377
I4
sg41
g42
sg2922
Vrush
p3378
sg2924
Vkick
p3379
sg2926
Vleap
p3380
sS'experimental_blocks.thisIndex'
p3381
g2931
sS'word_presentation.thisRepN'
p3382
I0
sS'experimental_blocks.thisRepN'
p3383
I0
sg43
g48
sg161
g2936
sg2937
g2984
sS'training_block.thisIndex'
p3384
g144
sg163
g2942
sg18
F7.599005676092929
sS'experimental_blocks.thisTrialN'
p3385
I4
sS'training_block.thisN'
p3386
I2
sS'word_presentation.thisN'
p3387
I21
sS'training_block.thisTrialN'
p3388
I0
sg17
S'space'
p3389
sg27
g28
sS'word_presentation.thisTrialN'
p3390
I21
sg40
g12
sS'word_presentation.thisIndex'
p3391
g30
(g130
S'\x15\x00\x00\x00'
p3392
tp3393
Rp3394
sa(dp3395
S'training_block.thisRepN'
p3396
I2
sg162
g2918
sg29
g39
sg2919
Vfold
p3397
sS'experimental_blocks.thisN'
p3398
I4
sg41
g42
sg2922
Vhack
p3399
sg2924
Vbind
p3400
sg2926
Vchop
p3401
sS'experimental_blocks.thisIndex'
p3402
g2931
sS'word_presentation.thisRepN'
p3403
I0
sS'experimental_blocks.thisRepN'
p3404
I0
sg43
g48
sg161
g2936
sg2937
g2938
sS'training_block.thisIndex'
p3405
g144
sg163
g2942
sg18
F4.075725632031208
sS'experimental_blocks.thisTrialN'
p3406
I4
sS'training_block.thisN'
p3407
I2
sS'word_presentation.thisN'
p3408
I22
sS'training_block.thisTrialN'
p3409
I0
sg17
S'space'
p3410
sg27
g28
sS'word_presentation.thisTrialN'
p3411
I22
sg40
g12
sS'word_presentation.thisIndex'
p3412
g30
(g130
S'\x16\x00\x00\x00'
p3413
tp3414
Rp3415
sa(dp3416
S'training_block.thisRepN'
p3417
I2
sg162
g2918
sg29
g39
sg2919
Vtiptoe
p3418
sS'experimental_blocks.thisN'
p3419
I4
sg41
g42
sg2922
Vtraipse
p3420
sg2924
Vstroll
p3421
sg2926
Vlimp
p3422
sS'experimental_blocks.thisIndex'
p3423
g2931
sS'word_presentation.thisRepN'
p3424
I0
sS'experimental_blocks.thisRepN'
p3425
I0
sg43
g48
sg161
g2936
sg2937
g2984
sS'training_block.thisIndex'
p3426
g144
sg163
g2942
sg18
F11.287159132125453
sS'experimental_blocks.thisTrialN'
p3427
I4
sS'training_block.thisN'
p3428
I2
sS'word_presentation.thisN'
p3429
I23
sS'training_block.thisTrialN'
p3430
I0
sg17
S'space'
p3431
sg27
g28
sS'word_presentation.thisTrialN'
p3432
I23
sg40
g12
sS'word_presentation.thisIndex'
p3433
g30
(g130
S'\x17\x00\x00\x00'
p3434
tp3435
Rp3436
sa(dp3437
S'training_block.thisRepN'
p3438
I2
sg162
g2918
sg29
g39
sg2919
Vnip
p3439
sS'experimental_blocks.thisN'
p3440
I4
sg41
g42
sg2922
Vthrow
p3441
sg2924
Vwipe
p3442
sg2926
Vlift
p3443
sS'experimental_blocks.thisIndex'
p3444
g2931
sS'word_presentation.thisRepN'
p3445
I0
sS'experimental_blocks.thisRepN'
p3446
I0
sg43
g48
sg161
g2936
sg2937
g2938
sS'training_block.thisIndex'
p3447
g144
sg163
g2942
sg18
F4.192986393337378
sS'experimental_blocks.thisTrialN'
p3448
I4
sS'training_block.thisN'
p3449
I2
sS'word_presentation.thisN'
p3450
I24
sS'training_block.thisTrialN'
p3451
I0
sg17
S'space'
p3452
sg27
g28
sS'word_presentation.thisTrialN'
p3453
I24
sg40
g12
sS'word_presentation.thisIndex'
p3454
g30
(g130
S'\x18\x00\x00\x00'
p3455
tp3456
Rp3457
sa(dp3458
S'training_block.thisRepN'
p3459
I2
sg162
g2918
sg29
g39
sg2919
Vtrip
p3460
sS'experimental_blocks.thisN'
p3461
I4
sg41
g42
sg2922
Vsprint
p3462
sg2924
Vskip
p3463
sg2926
Vjog
p3464
sS'experimental_blocks.thisIndex'
p3465
g2931
sS'word_presentation.thisRepN'
p3466
I0
sS'experimental_blocks.thisRepN'
p3467
I0
sg43
g48
sg161
g2936
sg2937
g2984
sS'training_block.thisIndex'
p3468
g144
sg163
g2942
sg18
F6.523929993528327
sS'experimental_blocks.thisTrialN'
p3469
I4
sS'training_block.thisN'
p3470
I2
sS'word_presentation.thisN'
p3471
I25
sS'training_block.thisTrialN'
p3472
I0
sg17
S'space'
p3473
sg27
g28
sS'word_presentation.thisTrialN'
p3474
I25
sg40
g12
sS'word_presentation.thisIndex'
p3475
g30
(g130
S'\x19\x00\x00\x00'
p3476
tp3477
Rp3478
sa(dp3479
S'training_block.thisRepN'
p3480
I2
sg162
g2918
sg29
g39
sg2919
Vslide
p3481
sS'experimental_blocks.thisN'
p3482
I4
sg41
g42
sg2922
Vscuff
p3483
sg2924
Vcreep
p3484
sg2926
Vflit
p3485
sS'experimental_blocks.thisIndex'
p3486
g2931
sS'word_presentation.thisRepN'
p3487
I0
sS'experimental_blocks.thisRepN'
p3488
I0
sg43
g48
sg161
g2936
sg2937
g2984
sS'training_block.thisIndex'
p3489
g144
sg163
g2942
sg18
F8.016806626402285
sS'experimental_blocks.thisTrialN'
p3490
I4
sS'training_block.thisN'
p3491
I2
sS'word_presentation.thisN'
p3492
I26
sS'training_block.thisTrialN'
p3493
I0
sg17
S'space'
p3494
sg27
g28
sS'word_presentation.thisTrialN'
p3495
I26
sg40
g12
sS'word_presentation.thisIndex'
p3496
g30
(g130
S'\x1a\x00\x00\x00'
p3497
tp3498
Rp3499
sa(dp3500
S'training_block.thisRepN'
p3501
I2
sg162
g2918
sg29
g39
sg2919
Vplod
p3502
sS'experimental_blocks.thisN'
p3503
I4
sg41
g42
sg2922
Vhike
p3504
sg2924
Vflee
p3505
sg2926
Vwander
p3506
sS'experimental_blocks.thisIndex'
p3507
g2931
sS'word_presentation.thisRepN'
p3508
I0
sS'experimental_blocks.thisRepN'
p3509
I0
sg43
g48
sg161
g2936
sg2937
g2984
sS'training_block.thisIndex'
p3510
g144
sg163
g2942
sg18
F4.511514970963617
sS'experimental_blocks.thisTrialN'
p3511
I4
sS'training_block.thisN'
p3512
I2
sS'word_presentation.thisN'
p3513
I27
sS'training_block.thisTrialN'
p3514
I0
sg17
S'space'
p3515
sg27
g28
sS'word_presentation.thisTrialN'
p3516
I27
sg40
g12
sS'word_presentation.thisIndex'
p3517
g30
(g130
S'\x1b\x00\x00\x00'
p3518
tp3519
Rp3520
sa(dp3521
S'training_block.thisRepN'
p3522
I2
sg162
g2918
sS'experimental_blocks.thisRepN'
p3523
I0
sS'experimental_blocks.thisTrialN'
p3524
I4
sS'training_block.thisN'
p3525
I2
sg41
g42
sg40
g12
sg29
g39
sS'training_block.thisTrialN'
p3526
I0
sg43
g48
sS'experimental_blocks.thisN'
p3527
I4
sg163
g2942
sg27
g28
sS'experimental_blocks.thisIndex'
p3528
g2931
sg161
g2936
sS'training_block.thisIndex'
p3529
g144
sa(dp3530
S'training_block.thisRepN'
p3531
I2
sg162
g30
(g34
S'\x9a\x99\x99\x99\x99\x99\xd9?'
p3532
tp3533
Rp3534
sg29
g39
sS'word4'
p3535
Vslap
p3536
sS'experimental_blocks.thisN'
p3537
I5
sg41
g42
sS'word1'
p3538
Vrub
p3539
sS'word3'
p3540
Vskim
p3541
sS'word2'
p3542
Vwrap
p3543
sS'experimental_blocks.thisIndex'
p3544
g30
(g130
S'\x05\x00\x00\x00'
p3545
tp3546
Rp3547
sS'word_presentation.thisRepN'
p3548
I0
sS'experimental_blocks.thisRepN'
p3549
I0
sg43
g48
sg161
g30
(g34
S'\x9a\x99\x99\x99\x99\x99\xd9?'
p3550
tp3551
Rp3552
sS'type'
p3553
Varm
p3554
sS'training_block.thisIndex'
p3555
g144
sg163
g30
(g34
S'\x9a\x99\x99\x99\x99\x99\xe9?'
p3556
tp3557
Rp3558
sg18
F7.530595432731388
sS'experimental_blocks.thisTrialN'
p3559
I5
sS'training_block.thisN'
p3560
I2
sS'word_presentation.thisN'
p3561
I0
sS'training_block.thisTrialN'
p3562
I0
sg17
S'space'
p3563
sg27
g28
sS'word_presentation.thisTrialN'
p3564
I0
sg40
g12
sS'word_presentation.thisIndex'
p3565
g30
(g130
S'\x00\x00\x00\x00'
p3566
tp3567
Rp3568
sa(dp3569
S'training_block.thisRepN'
p3570
I2
sg162
g3534
sg29
g39
sg3535
Vsnatch
p3571
sS'experimental_blocks.thisN'
p3572
I5
sg41
g42
sg3538
Vtwine
p3573
sg3540
Vnip
p3574
sg3542
Vwhip
p3575
sS'experimental_blocks.thisIndex'
p3576
g3547
sS'word_presentation.thisRepN'
p3577
I0
sS'experimental_blocks.thisRepN'
p3578
I0
sg43
g48
sg161
g3552
sg3553
g3554
sS'training_block.thisIndex'
p3579
g144
sg163
g3558
sg18
F4.7632216315823825
sS'experimental_blocks.thisTrialN'
p3580
I5
sS'training_block.thisN'
p3581
I2
sS'word_presentation.thisN'
p3582
I1
sS'training_block.thisTrialN'
p3583
I0
sg17
S'space'
p3584
sg27
g28
sS'word_presentation.thisTrialN'
p3585
I1
sg40
g12
sS'word_presentation.thisIndex'
p3586
g30
(g130
S'\x01\x00\x00\x00'
p3587
tp3588
Rp3589
sa(dp3590
S'training_block.thisRepN'
p3591
I2
sg162
g3534
sg29
g39
sg3535
Vsprint
p3592
sS'experimental_blocks.thisN'
p3593
I5
sg41
g42
sg3538
Vslide
p3594
sg3540
Vtiptoe
p3595
sg3542
Vtraipse
p3596
sS'experimental_blocks.thisIndex'
p3597
g3547
sS'word_presentation.thisRepN'
p3598
I0
sS'experimental_blocks.thisRepN'
p3599
I0
sg43
g48
sg161
g3552
sg3553
Vleg
p3600
sS'training_block.thisIndex'
p3601
g144
sg163
g3558
sg18
F8.788397789619012
sS'experimental_blocks.thisTrialN'
p3602
I5
sS'training_block.thisN'
p3603
I2
sS'word_presentation.thisN'
p3604
I2
sS'training_block.thisTrialN'
p3605
I0
sg17
S'space'
p3606
sg27
g28
sS'word_presentation.thisTrialN'
p3607
I2
sg40
g12
sS'word_presentation.thisIndex'
p3608
g30
(g130
S'\x02\x00\x00\x00'
p3609
tp3610
Rp3611
sa(dp3612
S'training_block.thisRepN'
p3613
I2
sg162
g3534
sg29
g39
sg3535
Vbraid
p3614
sS'experimental_blocks.thisN'
p3615
I5
sg41
g42
sg3538
Vpunch
p3616
sg3540
Vclap
p3617
sg3542
Vcut
p3618
sS'experimental_blocks.thisIndex'
p3619
g3547
sS'word_presentation.thisRepN'
p3620
I0
sS'experimental_blocks.thisRepN'
p3621
I0
sg43
g48
sg161
g3552
sg3553
g3554
sS'training_block.thisIndex'
p3622
g144
sg163
g3558
sg18
F8.586888563497268
sS'experimental_blocks.thisTrialN'
p3623
I5
sS'training_block.thisN'
p3624
I2
sS'word_presentation.thisN'
p3625
I3
sS'training_block.thisTrialN'
p3626
I0
sg17
S'space'
p3627
sg27
g28
sS'word_presentation.thisTrialN'
p3628
I3
sg40
g12
sS'word_presentation.thisIndex'
p3629
g30
(g130
S'\x03\x00\x00\x00'
p3630
tp3631
Rp3632
sa(dp3633
S'training_block.thisRepN'
p3634
I2
sg162
g3534
sg29
g39
sg3535
Vwade
p3635
sS'experimental_blocks.thisN'
p3636
I5
sg41
g42
sg3538
Vbounce
p3637
sg3540
Vsway
p3638
sg3542
Vskip
p3639
sS'experimental_blocks.thisIndex'
p3640
g3547
sS'word_presentation.thisRepN'
p3641
I0
sS'experimental_blocks.thisRepN'
p3642
I0
sg43
g48
sg161
g3552
sg3553
g3600
sS'training_block.thisIndex'
p3643
g144
sg163
g3558
sg18
F5.014877323519613
sS'experimental_blocks.thisTrialN'
p3644
I5
sS'training_block.thisN'
p3645
I2
sS'word_presentation.thisN'
p3646
I4
sS'training_block.thisTrialN'
p3647
I0
sg17
S'space'
p3648
sg27
g28
sS'word_presentation.thisTrialN'
p3649
I4
sg40
g12
sS'word_presentation.thisIndex'
p3650
g30
(g130
S'\x04\x00\x00\x00'
p3651
tp3652
Rp3653
sa(dp3654
S'training_block.thisRepN'
p3655
I2
sg162
g3534
sg29
g39
sg3535
Vrun
p3656
sS'experimental_blocks.thisN'
p3657
I5
sg41
g42
sg3538
Vleap
p3658
sg3540
Vclimb
p3659
sg3542
Vstomp
p3660
sS'experimental_blocks.thisIndex'
p3661
g3547
sS'word_presentation.thisRepN'
p3662
I0
sS'experimental_blocks.thisRepN'
p3663
I0
sg43
g48
sg161
g3552
sg3553
g3600
sS'training_block.thisIndex'
p3664
g144
sg163
g3558
sg18
F7.245310683746538
sS'experimental_blocks.thisTrialN'
p3665
I5
sS'training_block.thisN'
p3666
I2
sS'word_presentation.thisN'
p3667
I5
sS'training_block.thisTrialN'
p3668
I0
sg17
S'space'
p3669
sg27
g28
sS'word_presentation.thisTrialN'
p3670
I5
sg40
g12
sS'word_presentation.thisIndex'
p3671
g30
(g130
S'\x05\x00\x00\x00'
p3672
tp3673
Rp3674
sa(dp3675
S'training_block.thisRepN'
p3676
I2
sg162
g3534
sg29
g39
sg3535
Vsqueeze
p3677
sS'experimental_blocks.thisN'
p3678
I5
sg41
g42
sg3538
Vbind
p3679
sg3540
Vchop
p3680
sg3542
Vdelve
p3681
sS'experimental_blocks.thisIndex'
p3682
g3547
sS'word_presentation.thisRepN'
p3683
I0
sS'experimental_blocks.thisRepN'
p3684
I0
sg43
g48
sg161
g3552
sg3553
g3554
sS'training_block.thisIndex'
p3685
g144
sg163
g3558
sg18
F5.299923033339837
sS'experimental_blocks.thisTrialN'
p3686
I5
sS'training_block.thisN'
p3687
I2
sS'word_presentation.thisN'
p3688
I6
sS'training_block.thisTrialN'
p3689
I0
sg17
S'space'
p3690
sg27
g28
sS'word_presentation.thisTrialN'
p3691
I6
sg40
g12
sS'word_presentation.thisIndex'
p3692
g30
(g130
S'\x06\x00\x00\x00'
p3693
tp3694
Rp3695
sa(dp3696
S'training_block.thisRepN'
p3697
I2
sg162
g3534
sg29
g39
sg3535
Vstumble
p3698
sS'experimental_blocks.thisN'
p3699
I5
sg41
g42
sg3538
Vstray
p3700
sg3540
Vlimp
p3701
sg3542
Vrush
p3702
sS'experimental_blocks.thisIndex'
p3703
g3547
sS'word_presentation.thisRepN'
p3704
I0
sS'experimental_blocks.thisRepN'
p3705
I0
sg43
g48
sg161
g3552
sg3553
g3600
sS'training_block.thisIndex'
p3706
g144
sg163
g3558
sg18
F13.92085116907856
sS'experimental_blocks.thisTrialN'
p3707
I5
sS'training_block.thisN'
p3708
I2
sS'word_presentation.thisN'
p3709
I7
sS'training_block.thisTrialN'
p3710
I0
sg17
S'space'
p3711
sg27
g28
sS'word_presentation.thisTrialN'
p3712
I7
sg40
g12
sS'word_presentation.thisIndex'
p3713
g30
(g130
S'\x07\x00\x00\x00'
p3714
tp3715
Rp3716
sa(dp3717
S'training_block.thisRepN'
p3718
I2
sg162
g3534
sg29
g39
sg3535
Vhack
p3719
sS'experimental_blocks.thisN'
p3720
I5
sg41
g42
sg3538
Vfile
p3721
sg3540
Vpull
p3722
sg3542
Vscrub
p3723
sS'experimental_blocks.thisIndex'
p3724
g3547
sS'word_presentation.thisRepN'
p3725
I0
sS'experimental_blocks.thisRepN'
p3726
I0
sg43
g48
sg161
g3552
sg3553
g3554
sS'training_block.thisIndex'
p3727
g144
sg163
g3558
sg18
F5.753049231005207
sS'experimental_blocks.thisTrialN'
p3728
I5
sS'training_block.thisN'
p3729
I2
sS'word_presentation.thisN'
p3730
I8
sS'training_block.thisTrialN'
p3731
I0
sg17
S'space'
p3732
sg27
g28
sS'word_presentation.thisTrialN'
p3733
I8
sg40
g12
sS'word_presentation.thisIndex'
p3734
g30
(g130
S'\x08\x00\x00\x00'
p3735
tp3736
Rp3737
sa(dp3738
S'training_block.thisRepN'
p3739
I2
sg162
g3534
sg29
g39
sg3535
Vsneak
p3740
sS'experimental_blocks.thisN'
p3741
I5
sg41
g42
sg3538
Vwander
p3742
sg3540
Vstep
p3743
sg3542
Vflit
p3744
sS'experimental_blocks.thisIndex'
p3745
g3547
sS'word_presentation.thisRepN'
p3746
I0
sS'experimental_blocks.thisRepN'
p3747
I0
sg43
g48
sg161
g3552
sg3553
g3600
sS'training_block.thisIndex'
p3748
g144
sg163
g3558
sg18
F5.8034438234253685
sS'experimental_blocks.thisTrialN'
p3749
I5
sS'training_block.thisN'
p3750
I2
sS'word_presentation.thisN'
p3751
I9
sS'training_block.thisTrialN'
p3752
I0
sg17
S'space'
p3753
sg27
g28
sS'word_presentation.thisTrialN'
p3754
I9
sg40
g12
sS'word_presentation.thisIndex'
p3755
g30
(g130
S'\t\x00\x00\x00'
p3756
tp3757
Rp3758
sa(dp3759
S'training_block.thisRepN'
p3760
I2
sg162
g3534
sg29
g39
sg3535
Vroll
p3761
sS'experimental_blocks.thisN'
p3762
I5
sg41
g42
sg3538
Vjog
p3763
sg3540
Vtrek
p3764
sg3542
Vtread
p3765
sS'experimental_blocks.thisIndex'
p3766
g3547
sS'word_presentation.thisRepN'
p3767
I0
sS'experimental_blocks.thisRepN'
p3768
I0
sg43
g48
sg161
g3552
sg3553
g3600
sS'training_block.thisIndex'
p3769
g144
sg163
g3558
sg18
F9.526476452073439
sS'experimental_blocks.thisTrialN'
p3770
I5
sS'training_block.thisN'
p3771
I2
sS'word_presentation.thisN'
p3772
I10
sS'training_block.thisTrialN'
p3773
I0
sg17
S'space'
p3774
sg27
g28
sS'word_presentation.thisTrialN'
p3775
I10
sg40
g12
sS'word_presentation.thisIndex'
p3776
g30
(g130
S'\n\x00\x00\x00'
p3777
tp3778
Rp3779
sa(dp3780
S'training_block.thisRepN'
p3781
I2
sg162
g3534
sg29
g39
sg3535
Vdig
p3782
sS'experimental_blocks.thisN'
p3783
I5
sg41
g42
sg3538
Vthrow
p3784
sg3540
Vlift
p3785
sg3542
Vcatch
p3786
sS'experimental_blocks.thisIndex'
p3787
g3547
sS'word_presentation.thisRepN'
p3788
I0
sS'experimental_blocks.thisRepN'
p3789
I0
sg43
g48
sg161
g3552
sg3553
g3554
sS'training_block.thisIndex'
p3790
g144
sg163
g3558
sg18
F4.293677986982402
sS'experimental_blocks.thisTrialN'
p3791
I5
sS'training_block.thisN'
p3792
I2
sS'word_presentation.thisN'
p3793
I11
sS'training_block.thisTrialN'
p3794
I0
sg17
S'space'
p3795
sg27
g28
sS'word_presentation.thisTrialN'
p3796
I11
sg40
g12
sS'word_presentation.thisIndex'
p3797
g30
(g130
S'\x0b\x00\x00\x00'
p3798
tp3799
Rp3800
sa(dp3801
S'training_block.thisRepN'
p3802
I2
sg162
g3534
sg29
g39
sg3535
Vkick
p3803
sS'experimental_blocks.thisN'
p3804
I5
sg41
g42
sg3538
Vroam
p3805
sg3540
Vcreep
p3806
sg3542
Vhike
p3807
sS'experimental_blocks.thisIndex'
p3808
g3547
sS'word_presentation.thisRepN'
p3809
I0
sS'experimental_blocks.thisRepN'
p3810
I0
sg43
g48
sg161
g3552
sg3553
g3600
sS'training_block.thisIndex'
p3811
g144
sg163
g3558
sg18
F8.067124173141565
sS'experimental_blocks.thisTrialN'
p3812
I5
sS'training_block.thisN'
p3813
I2
sS'word_presentation.thisN'
p3814
I12
sS'training_block.thisTrialN'
p3815
I0
sg17
S'space'
p3816
sg27
g28
sS'word_presentation.thisTrialN'
p3817
I12
sg40
g12
sS'word_presentation.thisIndex'
p3818
g30
(g130
S'\x0c\x00\x00\x00'
p3819
tp3820
Rp3821
sa(dp3822
S'training_block.thisRepN'
p3823
I2
sg162
g3534
sg29
g39
sg3535
Vscrape
p3824
sS'experimental_blocks.thisN'
p3825
I5
sg41
g42
sg3538
Vpush
p3826
sg3540
Vdunk
p3827
sg3542
Vwash
p3828
sS'experimental_blocks.thisIndex'
p3829
g3547
sS'word_presentation.thisRepN'
p3830
I0
sS'experimental_blocks.thisRepN'
p3831
I0
sg43
g48
sg161
g3552
sg3553
g3554
sS'training_block.thisIndex'
p3832
g144
sg163
g3558
sg18
F4.847082892461003
sS'experimental_blocks.thisTrialN'
p3833
I5
sS'training_block.thisN'
p3834
I2
sS'word_presentation.thisN'
p3835
I13
sS'training_block.thisTrialN'
p3836
I0
sg17
S'space'
p3837
sg27
g28
sS'word_presentation.thisTrialN'
p3838
I13
sg40
g12
sS'word_presentation.thisIndex'
p3839
g30
(g130
S'\r\x00\x00\x00'
p3840
tp3841
Rp3842
sa(dp3843
S'training_block.thisRepN'
p3844
I2
sg162
g3534
sg29
g39
sg3535
Vslip
p3845
sS'experimental_blocks.thisN'
p3846
I5
sg41
g42
sg3538
Vtrudge
p3847
sg3540
Vkneel
p3848
sg3542
Vstroll
p3849
sS'experimental_blocks.thisIndex'
p3850
g3547
sS'word_presentation.thisRepN'
p3851
I0
sS'experimental_blocks.thisRepN'
p3852
I0
sg43
g48
sg161
g3552
sg3553
g3600
sS'training_block.thisIndex'
p3853
g144
sg163
g3558
sg18
F12.192833487292773
sS'experimental_blocks.thisTrialN'
p3854
I5
sS'training_block.thisN'
p3855
I2
sS'word_presentation.thisN'
p3856
I14
sS'training_block.thisTrialN'
p3857
I0
sg17
S'space'
p3858
sg27
g28
sS'word_presentation.thisTrialN'
p3859
I14
sg40
g12
sS'word_presentation.thisIndex'
p3860
g30
(g130
S'\x0e\x00\x00\x00'
p3861
tp3862
Rp3863
sa(dp3864
S'training_block.thisRepN'
p3865
I2
sg162
g3534
sg29
g39
sg3535
Vstir
p3866
sS'experimental_blocks.thisN'
p3867
I5
sg41
g42
sg3538
Vpoke
p3868
sg3540
Vclick
p3869
sg3542
Vfold
p3870
sS'experimental_blocks.thisIndex'
p3871
g3547
sS'word_presentation.thisRepN'
p3872
I0
sS'experimental_blocks.thisRepN'
p3873
I0
sg43
g48
sg161
g3552
sg3553
g3554
sS'training_block.thisIndex'
p3874
g144
sg163
g3558
sg18
F18.985508299992944
sS'experimental_blocks.thisTrialN'
p3875
I5
sS'training_block.thisN'
p3876
I2
sS'word_presentation.thisN'
p3877
I15
sS'training_block.thisTrialN'
p3878
I0
sg17
S'space'
p3879
sg27
g28
sS'word_presentation.thisTrialN'
p3880
I15
sg40
g12
sS'word_presentation.thisIndex'
p3881
g30
(g130
S'\x0f\x00\x00\x00'
p3882
tp3883
Rp3884
sa(dp3885
S'training_block.thisRepN'
p3886
I2
sg162
g3534
sg29
g39
sg3535
Vgrip
p3887
sS'experimental_blocks.thisN'
p3888
I5
sg41
g42
sg3538
Vpinch
p3889
sg3540
Vswitch
p3890
sg3542
Vclean
p3891
sS'experimental_blocks.thisIndex'
p3892
g3547
sS'word_presentation.thisRepN'
p3893
I0
sS'experimental_blocks.thisRepN'
p3894
I0
sg43
g48
sg161
g3552
sg3553
g3554
sS'training_block.thisIndex'
p3895
g144
sg163
g3558
sg18
F4.360770551639689
sS'experimental_blocks.thisTrialN'
p3896
I5
sS'training_block.thisN'
p3897
I2
sS'word_presentation.thisN'
p3898
I16
sS'training_block.thisTrialN'
p3899
I0
sg17
S'space'
p3900
sg27
g28
sS'word_presentation.thisTrialN'
p3901
I16
sg40
g12
sS'word_presentation.thisIndex'
p3902
g30
(g130
S'\x10\x00\x00\x00'
p3903
tp3904
Rp3905
sa(dp3906
S'training_block.thisRepN'
p3907
I2
sg162
g3534
sg29
g39
sg3535
Vgrasp
p3908
sS'experimental_blocks.thisN'
p3909
I5
sg41
g42
sg3538
Vknock
p3910
sg3540
Vshake
p3911
sg3542
Vpeel
p3912
sS'experimental_blocks.thisIndex'
p3913
g3547
sS'word_presentation.thisRepN'
p3914
I0
sS'experimental_blocks.thisRepN'
p3915
I0
sg43
g48
sg161
g3552
sg3553
g3554
sS'training_block.thisIndex'
p3916
g144
sg163
g3558
sg18
F5.166093104371612
sS'experimental_blocks.thisTrialN'
p3917
I5
sS'training_block.thisN'
p3918
I2
sS'word_presentation.thisN'
p3919
I17
sS'training_block.thisTrialN'
p3920
I0
sg17
S'space'
p3921
sg27
g28
sS'word_presentation.thisTrialN'
p3922
I17
sg40
g12
sS'word_presentation.thisIndex'
p3923
g30
(g130
S'\x11\x00\x00\x00'
p3924
tp3925
Rp3926
sa(dp3927
S'training_block.thisRepN'
p3928
I2
sg162
g3534
sg29
g39
sg3535
Vjump
p3929
sS'experimental_blocks.thisN'
p3930
I5
sg41
g42
sg3538
Vtrot
p3931
sg3540
Vprance
p3932
sg3542
Vstamp
p3933
sS'experimental_blocks.thisIndex'
p3934
g3547
sS'word_presentation.thisRepN'
p3935
I0
sS'experimental_blocks.thisRepN'
p3936
I0
sg43
g48
sg161
g3552
sg3553
g3600
sS'training_block.thisIndex'
p3937
g144
sg163
g3558
sg18
F8.639024388317011
sS'experimental_blocks.thisTrialN'
p3938
I5
sS'training_block.thisN'
p3939
I2
sS'word_presentation.thisN'
p3940
I18
sS'training_block.thisTrialN'
p3941
I0
sg17
S'space'
p3942
sg27
g28
sS'word_presentation.thisTrialN'
p3943
I18
sg40
g12
sS'word_presentation.thisIndex'
p3944
g30
(g130
S'\x12\x00\x00\x00'
p3945
tp3946
Rp3947
sa(dp3948
S'training_block.thisRepN'
p3949
I2
sg162
g3534
sg29
g39
sg3535
Vwobble
p3950
sS'experimental_blocks.thisN'
p3951
I5
sg41
g42
sg3538
Vcrawl
p3952
sg3540
Vslither
p3953
sg3542
Vstrut
p3954
sS'experimental_blocks.thisIndex'
p3955
g3547
sS'word_presentation.thisRepN'
p3956
I0
sS'experimental_blocks.thisRepN'
p3957
I0
sg43
g48
sg161
g3552
sg3553
g3600
sS'training_block.thisIndex'
p3958
g144
sg163
g3558
sg18
F10.750488548641442
sS'experimental_blocks.thisTrialN'
p3959
I5
sS'training_block.thisN'
p3960
I2
sS'word_presentation.thisN'
p3961
I19
sS'training_block.thisTrialN'
p3962
I0
sg17
S'space'
p3963
sg27
g28
sS'word_presentation.thisTrialN'
p3964
I19
sg40
g12
sS'word_presentation.thisIndex'
p3965
g30
(g130
S'\x13\x00\x00\x00'
p3966
tp3967
Rp3968
sa(dp3969
S'training_block.thisRepN'
p3970
I2
sg162
g3534
sg29
g39
sg3535
Vbrush
p3971
sS'experimental_blocks.thisN'
p3972
I5
sg41
g42
sg3538
Vseize
p3973
sg3540
Vwipe
p3974
sg3542
Vbash
p3975
sS'experimental_blocks.thisIndex'
p3976
g3547
sS'word_presentation.thisRepN'
p3977
I0
sS'experimental_blocks.thisRepN'
p3978
I0
sg43
g48
sg161
g3552
sg3553
g3554
sS'training_block.thisIndex'
p3979
g144
sg163
g3558
sg18
F5.116194765160799
sS'experimental_blocks.thisTrialN'
p3980
I5
sS'training_block.thisN'
p3981
I2
sS'word_presentation.thisN'
p3982
I20
sS'training_block.thisTrialN'
p3983
I0
sg17
S'space'
p3984
sg27
g28
sS'word_presentation.thisTrialN'
p3985
I20
sg40
g12
sS'word_presentation.thisIndex'
p3986
g30
(g130
S'\x14\x00\x00\x00'
p3987
tp3988
Rp3989
sa(dp3990
S'training_block.thisRepN'
p3991
I2
sg162
g3534
sg29
g39
sg3535
Vstagger
p3992
sS'experimental_blocks.thisN'
p3993
I5
sg41
g42
sg3538
Vglide
p3994
sg3540
Vstride
p3995
sg3542
Vplod
p3996
sS'experimental_blocks.thisIndex'
p3997
g3547
sS'word_presentation.thisRepN'
p3998
I0
sS'experimental_blocks.thisRepN'
p3999
I0
sg43
g48
sg161
g3552
sg3553
g3600
sS'training_block.thisIndex'
p4000
g144
sg163
g3558
sg18
F12.980996583912201
sS'experimental_blocks.thisTrialN'
p4001
I5
sS'training_block.thisN'
p4002
I2
sS'word_presentation.thisN'
p4003
I21
sS'training_block.thisTrialN'
p4004
I0
sg17
S'space'
p4005
sg27
g28
sS'word_presentation.thisTrialN'
p4006
I21
sg40
g12
sS'word_presentation.thisIndex'
p4007
g30
(g130
S'\x15\x00\x00\x00'
p4008
tp4009
Rp4010
sa(dp4011
S'training_block.thisRepN'
p4012
I2
sg162
g3534
sg29
g39
sg3535
Vscoop
p4013
sS'experimental_blocks.thisN'
p4014
I5
sg41
g42
sg3538
Vclaw
p4015
sg3540
Vtug
p4016
sg3542
Vcarve
p4017
sS'experimental_blocks.thisIndex'
p4018
g3547
sS'word_presentation.thisRepN'
p4019
I0
sS'experimental_blocks.thisRepN'
p4020
I0
sg43
g48
sg161
g3552
sg3553
g3554
sS'training_block.thisIndex'
p4021
g144
sg163
g3558
sg18
F3.9751059476893715
sS'experimental_blocks.thisTrialN'
p4022
I5
sS'training_block.thisN'
p4023
I2
sS'word_presentation.thisN'
p4024
I22
sS'training_block.thisTrialN'
p4025
I0
sg17
S'space'
p4026
sg27
g28
sS'word_presentation.thisTrialN'
p4027
I22
sg40
g12
sS'word_presentation.thisIndex'
p4028
g30
(g130
S'\x16\x00\x00\x00'
p4029
tp4030
Rp4031
sa(dp4032
S'training_block.thisRepN'
p4033
I2
sg162
g3534
sg29
g39
sg3535
Vpolish
p4034
sS'experimental_blocks.thisN'
p4035
I5
sg41
g42
sg3538
Vgrab
p4036
sg3540
Vgrate
p4037
sg3542
Vpat
p4038
sS'experimental_blocks.thisIndex'
p4039
g3547
sS'word_presentation.thisRepN'
p4040
I0
sS'experimental_blocks.thisRepN'
p4041
I0
sg43
g48
sg161
g3552
sg3553
g3554
sS'training_block.thisIndex'
p4042
g144
sg163
g3558
sg18
F14.875815400127976
sS'experimental_blocks.thisTrialN'
p4043
I5
sS'training_block.thisN'
p4044
I2
sS'word_presentation.thisN'
p4045
I23
sS'training_block.thisTrialN'
p4046
I0
sg17
S'space'
p4047
sg27
g28
sS'word_presentation.thisTrialN'
p4048
I23
sg40
g12
sS'word_presentation.thisIndex'
p4049
g30
(g130
S'\x17\x00\x00\x00'
p4050
tp4051
Rp4052
sa(dp4053
S'training_block.thisRepN'
p4054
I2
sg162
g3534
sg29
g39
sg3535
Vclutch
p4055
sS'experimental_blocks.thisN'
p4056
I5
sg41
g42
sg3538
Vtoss
p4057
sg3540
Vscratch
p4058
sg3542
Vstab
p4059
sS'experimental_blocks.thisIndex'
p4060
g3547
sS'word_presentation.thisRepN'
p4061
I0
sS'experimental_blocks.thisRepN'
p4062
I0
sg43
g48
sg161
g3552
sg3553
g3554
sS'training_block.thisIndex'
p4063
g144
sg163
g3558
sg18
F9.794461877401773
sS'experimental_blocks.thisTrialN'
p4064
I5
sS'training_block.thisN'
p4065
I2
sS'word_presentation.thisN'
p4066
I24
sS'training_block.thisTrialN'
p4067
I0
sg17
S'space'
p4068
sg27
g28
sS'word_presentation.thisTrialN'
p4069
I24
sg40
g12
sS'word_presentation.thisIndex'
p4070
g30
(g130
S'\x18\x00\x00\x00'
p4071
tp4072
Rp4073
sa(dp4074
S'training_block.thisRepN'
p4075
I2
sg162
g3534
sg29
g39
sg3535
Vpace
p4076
sS'experimental_blocks.thisN'
p4077
I5
sg41
g42
sg3538
Vinch
p4078
sg3540
Vmount
p4079
sg3542
Vflee
p4080
sS'experimental_blocks.thisIndex'
p4081
g3547
sS'word_presentation.thisRepN'
p4082
I0
sS'experimental_blocks.thisRepN'
p4083
I0
sg43
g48
sg161
g3552
sg3553
g3600
sS'training_block.thisIndex'
p4084
g144
sg163
g3558
sg18
F5.686177925740594
sS'experimental_blocks.thisTrialN'
p4085
I5
sS'training_block.thisN'
p4086
I2
sS'word_presentation.thisN'
p4087
I25
sS'training_block.thisTrialN'
p4088
I0
sg17
S'space'
p4089
sg27
g28
sS'word_presentation.thisTrialN'
p4090
I25
sg40
g12
sS'word_presentation.thisIndex'
p4091
g30
(g130
S'\x19\x00\x00\x00'
p4092
tp4093
Rp4094
sa(dp4095
S'training_block.thisRepN'
p4096
I2
sg162
g3534
sg29
g39
sg3535
Vskate
p4097
sS'experimental_blocks.thisN'
p4098
I5
sg41
g42
sg3538
Vscuff
p4099
sg3540
Vdance
p4100
sg3542
Vramble
p4101
sS'experimental_blocks.thisIndex'
p4102
g3547
sS'word_presentation.thisRepN'
p4103
I0
sS'experimental_blocks.thisRepN'
p4104
I0
sg43
g48
sg161
g3552
sg3553
g3600
sS'training_block.thisIndex'
p4105
g144
sg163
g3558
sg18
F8.083859285347899
sS'experimental_blocks.thisTrialN'
p4106
I5
sS'training_block.thisN'
p4107
I2
sS'word_presentation.thisN'
p4108
I26
sS'training_block.thisTrialN'
p4109
I0
sg17
S'space'
p4110
sg27
g28
sS'word_presentation.thisTrialN'
p4111
I26
sg40
g12
sS'word_presentation.thisIndex'
p4112
g30
(g130
S'\x1a\x00\x00\x00'
p4113
tp4114
Rp4115
sa(dp4116
S'training_block.thisRepN'
p4117
I2
sg162
g3534
sg29
g39
sg3535
Vwalk
p4118
sS'experimental_blocks.thisN'
p4119
I5
sg41
g42
sg3538
Vtrip
p4120
sg3540
Vhop
p4121
sg3542
Vmarch
p4122
sS'experimental_blocks.thisIndex'
p4123
g3547
sS'word_presentation.thisRepN'
p4124
I0
sS'experimental_blocks.thisRepN'
p4125
I0
sg43
g48
sg161
g3552
sg3553
g3600
sS'training_block.thisIndex'
p4126
g144
sg163
g3558
sg18
F4.008586049752921
sS'experimental_blocks.thisTrialN'
p4127
I5
sS'training_block.thisN'
p4128
I2
sS'word_presentation.thisN'
p4129
I27
sS'training_block.thisTrialN'
p4130
I0
sg17
S'space'
p4131
sg27
g28
sS'word_presentation.thisTrialN'
p4132
I27
sg40
g12
sS'word_presentation.thisIndex'
p4133
g30
(g130
S'\x1b\x00\x00\x00'
p4134
tp4135
Rp4136
sa(dp4137
S'training_block.thisRepN'
p4138
I2
sg162
g3534
sS'experimental_blocks.thisRepN'
p4139
I0
sS'experimental_blocks.thisTrialN'
p4140
I5
sS'training_block.thisN'
p4141
I2
sg41
g42
sg40
g12
sg29
g39
sS'training_block.thisTrialN'
p4142
I0
sg43
g48
sS'experimental_blocks.thisN'
p4143
I5
sg163
g3558
sg27
g28
sS'experimental_blocks.thisIndex'
p4144
g3547
sg161
g3552
sS'training_block.thisIndex'
p4145
g144
sa(dp4146
S'training_block.thisRepN'
p4147
I2
sS'training_block.thisN'
p4148
I2
sg41
g42
sg43
g48
sg29
g39
sS'training_block.thisTrialN'
p4149
I0
sg40
g12
sg27
g28
sg23
NsS'training_block.thisIndex'
p4150
g144
sasS'loops'
p4151
(lp4152
g53
ag0
(g51
g2
Ntp4153
Rp4154
(dp4155
g55
Nsg56
(lp4156
sg57
I359429008
sg11
S'word_presentation_training'
p4157
sg6
I-1
sg59
I1
sg24
I01
sg25
g26
sg60
g0
(g61
g62
(dp4158
g64
g65
(g66
g67
g68
g69
tp4159
Rp4160
(I1
(I4
I1
tp4161
g75
I00
S'\x00\x00\x80?\x00\x00\x80?\x00\x00\x80?\x00\x00\x80?'
p4162
S'\x00\x00\x00\x00'
p4163
Ntp4164
bsg18
g65
(g66
g67
g68
g69
tp4165
Rp4166
(I1
(I4
I1
tp4167
g75
I00
S'\x1d!\x1fA\xb1\x89\x00A\xbb\xc83A\xdb\xa8\tA'
p4168
S'\x00\x00\x00\x00'
p4169
Ntp4170
bsg104
g65
(g66
g67
g68
g69
tp4171
Rp4172
(I1
(I4
I1
tp4173
g75
I00
S'\x00\x00\x00\x00\x00\x00\x80?\x00\x00@@\x00\x00\x00@'
p4174
S'\x00\x00\x00\x00'
p4175
Ntp4176
bsg17
g87
(g67
(I0
tp4177
g69
tp4178
Rp4179
(I1
(I4
I1
tp4180
g94
I00
(lp4181
g175
ag204
ag244
ag224
atp4182
bstp4183
Rp4184
(dp4185
g114
(dp4186
g64
I01
sg18
I01
sg104
I01
sg17
I00
ssg116
g4154
sg117
(lp4187
g64
ag104
ag17
ag18
asg119
(lp4188
I4
aI1
asbsg121
g122
sg123
g87
(g67
(I0
tp4189
g69
tp4190
Rp4191
(I1
(I4
I1
tp4192
g130
I00
S'\x00\x00\x00\x00\x01\x00\x00\x00\x03\x00\x00\x00\x02\x00\x00\x00'
p4193
tp4194
bsg135
I01
sg136
I1
sg137
I-1
sg138
(lp4195
ccollections
OrderedDict
p4196
((lp4197
(lp4198
g155
ag183
aa(lp4199
g156
ag192
aa(lp4200
g157
ag184
aa(lp4201
g158
ag190
aa(lp4202
g159
ag189
aa(lp4203
g160
ag172
aatp4204
Rp4205
ag4196
((lp4206
(lp4207
g155
ag207
aa(lp4208
g156
ag192
aa(lp4209
g157
ag208
aa(lp4210
g158
ag214
aa(lp4211
g159
ag213
aa(lp4212
g160
ag201
aatp4213
Rp4214
ag4196
((lp4215
(lp4216
g155
ag247
aa(lp4217
g156
ag192
aa(lp4218
g157
ag248
aa(lp4219
g158
ag254
aa(lp4220
g159
ag253
aa(lp4221
g160
ag241
aatp4222
Rp4223
ag4196
((lp4224
(lp4225
g155
ag227
aa(lp4226
g156
ag192
aa(lp4227
g157
ag228
aa(lp4228
g158
ag234
aa(lp4229
g159
ag233
aa(lp4230
g160
ag221
aatp4231
Rp4232
asg140
Nsg141
g252
sg145
I4
sg146
I0
sg147
I4
sbag0
(g51
g2
Ntp4233
Rp4234
(dp4235
g55
Nsg56
(lp4236
sg57
I359429008
sg11
g4157
sg6
I-1
sg59
I1
sg24
I01
sg25
g26
sg60
g0
(g61
g62
(dp4237
g64
g65
(g66
g67
g68
g69
tp4238
Rp4239
(I1
(I4
I1
tp4240
g75
I00
S'\x00\x00\x80?\x00\x00\x80?\x00\x00\x80?\x00\x00\x80?'
p4241
S'\x00\x00\x00\x00'
p4242
Ntp4243
bsg18
g65
(g66
g67
g68
g69
tp4244
Rp4245
(I1
(I4
I1
tp4246
g75
I00
S'.*\x86A#Jn@\xcai\x82@\x0c2\x9c@'
p4247
S'\x00\x00\x00\x00'
p4248
Ntp4249
bsg104
g65
(g66
g67
g68
g69
tp4250
Rp4251
(I1
(I4
I1
tp4252
g75
I00
S'\x00\x00@@\x00\x00\x00@\x00\x00\x80?\x00\x00\x00\x00'
p4253
S'\x00\x00\x00\x00'
p4254
Ntp4255
bsg17
g87
(g67
(I0
tp4256
g69
tp4257
Rp4258
(I1
(I4
I1
tp4259
g94
I00
(lp4260
g339
ag319
ag299
ag270
atp4261
bstp4262
Rp4263
(dp4264
g114
(dp4265
g64
I01
sg18
I01
sg104
I01
sg17
I00
ssg116
g4234
sg117
(lp4266
g64
ag104
ag17
ag18
asg119
(lp4267
I4
aI1
asbsg121
g122
sg123
g87
(g67
(I0
tp4268
g69
tp4269
Rp4270
(I1
(I4
I1
tp4271
g130
I00
S'\x03\x00\x00\x00\x02\x00\x00\x00\x01\x00\x00\x00\x00\x00\x00\x00'
p4272
tp4273
bsg135
I01
sg136
I1
sg137
I-1
sg138
(lp4274
g4196
((lp4275
(lp4276
g271
ag342
aa(lp4277
g286
ag287
aa(lp4278
g275
ag343
aa(lp4279
g283
ag349
aa(lp4280
g281
ag348
aa(lp4281
g266
ag336
aatp4282
Rp4283
ag4196
((lp4284
(lp4285
g271
ag322
aa(lp4286
g286
ag287
aa(lp4287
g275
ag323
aa(lp4288
g283
ag329
aa(lp4289
g281
ag328
aa(lp4290
g266
ag316
aatp4291
Rp4292
ag4196
((lp4293
(lp4294
g271
ag302
aa(lp4295
g286
ag287
aa(lp4296
g275
ag303
aa(lp4297
g283
ag309
aa(lp4298
g281
ag308
aa(lp4299
g266
ag296
aatp4300
Rp4301
ag4196
((lp4302
(lp4303
g271
ag274
aa(lp4304
g286
ag287
aa(lp4305
g275
ag276
aa(lp4306
g283
ag284
aa(lp4307
g281
ag282
aa(lp4308
g266
ag267
aatp4309
Rp4310
asg140
Nsg141
g347
sg145
I4
sg146
I0
sg147
I4
sbag0
(g51
g2
Ntp4311
Rp4312
(dp4313
g55
Nsg56
(lp4314
sg57
I359429008
sg11
g4157
sg6
I-1
sg59
I1
sg24
I01
sg25
g26
sg60
g0
(g61
g62
(dp4315
g64
g65
(g66
g67
g68
g69
tp4316
Rp4317
(I1
(I4
I1
tp4318
g75
I00
S'\x00\x00\x80?\x00\x00\x80?\x00\x00\x80?\x00\x00\x80?'
p4319
S'\x00\x00\x00\x00'
p4320
Ntp4321
bsg18
g65
(g66
g67
g68
g69
tp4322
Rp4323
(I1
(I4
I1
tp4324
g75
I00
S'\xab\x15NA\xe7\x04;AU\xe6\x81@\xb9\x91\x9a@'
p4325
S'\x00\x00\x00\x00'
p4326
Ntp4327
bsg104
g65
(g66
g67
g68
g69
tp4328
Rp4329
(I1
(I4
I1
tp4330
g75
I00
S'\x00\x00\x00\x00\x00\x00\x00@\x00\x00@@\x00\x00\x80?'
p4331
S'\x00\x00\x00\x00'
p4332
Ntp4333
bsg17
g87
(g67
(I0
tp4334
g69
tp4335
Rp4336
(I1
(I4
I1
tp4337
g94
I00
(lp4338
g365
ag411
ag431
ag391
atp4339
bstp4340
Rp4341
(dp4342
g114
(dp4343
g64
I01
sg18
I01
sg104
I01
sg17
I00
ssg116
g4312
sg117
(lp4344
g64
ag104
ag17
ag18
asg119
(lp4345
I4
aI1
asbsg121
g122
sg123
g87
(g67
(I0
tp4346
g69
tp4347
Rp4348
(I1
(I4
I1
tp4349
g130
I00
S'\x00\x00\x00\x00\x03\x00\x00\x00\x01\x00\x00\x00\x02\x00\x00\x00'
p4350
tp4351
bsg135
I01
sg136
I1
sg137
I-1
sg138
(lp4352
g4196
((lp4353
(lp4354
g366
ag369
aa(lp4355
g381
ag382
aa(lp4356
g370
ag371
aa(lp4357
g378
ag379
aa(lp4358
g376
ag377
aa(lp4359
g361
ag362
aatp4360
Rp4361
ag4196
((lp4362
(lp4363
g366
ag414
aa(lp4364
g381
ag382
aa(lp4365
g370
ag415
aa(lp4366
g378
ag421
aa(lp4367
g376
ag420
aa(lp4368
g361
ag408
aatp4369
Rp4370
ag4196
((lp4371
(lp4372
g366
ag434
aa(lp4373
g381
ag382
aa(lp4374
g370
ag435
aa(lp4375
g378
ag441
aa(lp4376
g376
ag440
aa(lp4377
g361
ag428
aatp4378
Rp4379
ag4196
((lp4380
(lp4381
g366
ag394
aa(lp4382
g381
ag382
aa(lp4383
g370
ag395
aa(lp4384
g378
ag401
aa(lp4385
g376
ag400
aa(lp4386
g361
ag388
aatp4387
Rp4388
asg140
Nsg141
g439
sg145
I4
sg146
I0
sg147
I4
sbag0
(g51
g2
Ntp4389
Rp4390
(dp4391
g55
Nsg56
(lp4392
sg57
I359429008
sg11
S'experimental_blocks'
p4393
sg6
I-1
sg59
I1
sg24
I01
sg25
g26
sg60
g0
(g61
g62
(dp4394
g64
g65
(g66
g67
g68
g69
tp4395
Rp4396
(I1
(I6
I1
tp4397
g75
I00
S'\x00\x00\x80?\x00\x00\x80?\x00\x00\x80?\x00\x00\x80?\x00\x00\x80?\x00\x00\x80?'
p4398
S'\x00\x00\x00\x00\x00\x00'
p4399
Ntp4400
bsg104
g65
(g66
g67
g68
g69
tp4401
Rp4402
(I1
(I6
I1
tp4403
g75
I00
S'\x00\x00\x00@\x00\x00\x80?\x00\x00\x80@\x00\x00@@\x00\x00\x00\x00\x00\x00\xa0@'
p4404
S'\x00\x00\x00\x00\x00\x00'
p4405
Ntp4406
bstp4407
Rp4408
(dp4409
g114
(dp4410
g64
I01
sg104
I01
ssg116
g4390
sg117
(lp4411
g64
ag104
asg119
(lp4412
I6
aI1
asbsg121
g122
sg123
g87
(g67
(I0
tp4413
g69
tp4414
Rp4415
(I1
(I6
I1
tp4416
g130
I00
S'\x04\x00\x00\x00\x01\x00\x00\x00\x00\x00\x00\x00\x03\x00\x00\x00\x02\x00\x00\x00\x05\x00\x00\x00'
p4417
tp4418
bsg135
I01
sg136
I1
sg137
I-1
sg138
(lp4419
g4196
((lp4420
(lp4421
g161
ag1704
aa(lp4422
g162
ag1686
aa(lp4423
g163
ag1710
aatp4424
Rp4425
ag4196
((lp4426
(lp4427
g161
ag1088
aa(lp4428
g162
ag1070
aa(lp4429
g163
ag1094
aatp4430
Rp4431
ag4196
((lp4432
(lp4433
g161
ag2936
aa(lp4434
g162
ag2918
aa(lp4435
g163
ag2942
aatp4436
Rp4437
ag4196
((lp4438
(lp4439
g161
ag2320
aa(lp4440
g162
ag2302
aa(lp4441
g163
ag2326
aatp4442
Rp4443
ag4196
((lp4444
(lp4445
g161
ag472
aa(lp4446
g162
ag454
aa(lp4447
g163
ag478
aatp4448
Rp4449
ag4196
((lp4450
(lp4451
g161
ag3552
aa(lp4452
g162
ag3534
aa(lp4453
g163
ag3558
aatp4454
Rp4455
asg140
Nsg141
g3547
sg145
I6
sg146
I0
sg147
I6
sbag0
(g51
g2
Ntp4456
Rp4457
(dp4458
g55
Nsg56
(lp4459
sg57
I359429008
sg11
S'word_presentation'
p4460
sg6
I-1
sg59
I1
sg24
I01
sg25
g26
sg60
g0
(g61
g62
(dp4461
g64
g65
(g66
g67
g68
g69
tp4462
Rp4463
(I1
(I28
I1
tp4464
g75
I00
S'\x00\x00\x80?\x00\x00\x80?\x00\x00\x80?\x00\x00\x80?\x00\x00\x80?\x00\x00\x80?\x00\x00\x80?\x00\x00\x80?\x00\x00\x80?\x00\x00\x80?\x00\x00\x80?\x00\x00\x80?\x00\x00\x80?\x00\x00\x80?\x00\x00\x80?\x00\x00\x80?\x00\x00\x80?\x00\x00\x80?\x00\x00\x80?\x00\x00\x80?\x00\x00\x80?\x00\x00\x80?\x00\x00\x80?\x00\x00\x80?\x00\x00\x80?\x00\x00\x80?\x00\x00\x80?\x00\x00\x80?'
p4465
S'\x00\x00\x00\x00\x00\x00\x00\x00\x00\x00\x00\x00\x00\x00\x00\x00\x00\x00\x00\x00\x00\x00\x00\x00\x00\x00\x00\x00'
p4466
Ntp4467
bsg18
g65
(g66
g67
g68
g69
tp4468
Rp4469
(I1
(I28
I1
tp4470
g75
I00
S"\xf6B\x87@\xd9\xde\xb4@\x1b~$A\xd3\xe2\xad@\xb3\xa0\xce@A\xeb\xe8@\xfa\t\xb0@c,\x11A\xb4\x1b\x9b@\x04c\xe8@F\xd7\x8f@\x1cI\x96@\xc1\x8e\xb7@H\nk@\xad\x08\x9a@\xb0-\xa3@\xa8\xba\xde@\xc6\xd6\xa5@\x91\x81\x7f@\xf2'\xa3@v\xbe\xab@\x8b\x85\xbe@'t\xbd@>\xc4\xd0@\xe4U\xe0@(\x86\xe3@\x8d\x10\xa9@\x1b\xf0\x9f@"
p4471
S'\x00\x00\x00\x00\x00\x00\x00\x00\x00\x00\x00\x00\x00\x00\x00\x00\x00\x00\x00\x00\x00\x00\x00\x00\x00\x00\x00\x00'
p4472
Ntp4473
bsg104
g65
(g66
g67
g68
g69
tp4474
Rp4475
(I1
(I28
I1
tp4476
g75
I00
S'\x00\x00\x00\x00\x00\x00\x80?\x00\x00\x00@\x00\x00@@\x00\x00\x80@\x00\x00\xa0@\x00\x00\xc0@\x00\x00\xe0@\x00\x00\x00A\x00\x00\x10A\x00\x00 A\x00\x000A\x00\x00@A\x00\x00PA\x00\x00`A\x00\x00pA\x00\x00\x80A\x00\x00\x88A\x00\x00\x90A\x00\x00\x98A\x00\x00\xa0A\x00\x00\xa8A\x00\x00\xb0A\x00\x00\xb8A\x00\x00\xc0A\x00\x00\xc8A\x00\x00\xd0A\x00\x00\xd8A'
p4477
S'\x00\x00\x00\x00\x00\x00\x00\x00\x00\x00\x00\x00\x00\x00\x00\x00\x00\x00\x00\x00\x00\x00\x00\x00\x00\x00\x00\x00'
p4478
Ntp4479
bsg17
g87
(g67
(I0
tp4480
g69
tp4481
Rp4482
(I1
(I28
I1
tp4483
g94
I00
(lp4484
g483
ag505
ag526
ag547
ag568
ag589
ag610
ag631
ag652
ag673
ag694
ag715
ag736
ag757
ag778
ag799
ag820
ag841
ag862
ag883
ag904
ag925
ag946
ag967
ag988
ag1009
ag1030
ag1051
atp4485
bstp4486
Rp4487
(dp4488
g114
(dp4489
g64
I01
sg18
I01
sg104
I01
sg17
I00
ssg116
g4457
sg117
(lp4490
g64
ag104
ag17
ag18
asg119
(lp4491
I28
aI1
asbsg121
S'sequential'
p4492
sg123
g87
(g67
(I0
tp4493
g69
tp4494
Rp4495
(I1
(I28
I1
tp4496
g130
I00
S'\x00\x00\x00\x00\x01\x00\x00\x00\x02\x00\x00\x00\x03\x00\x00\x00\x04\x00\x00\x00\x05\x00\x00\x00\x06\x00\x00\x00\x07\x00\x00\x00\x08\x00\x00\x00\t\x00\x00\x00\n\x00\x00\x00\x0b\x00\x00\x00\x0c\x00\x00\x00\r\x00\x00\x00\x0e\x00\x00\x00\x0f\x00\x00\x00\x10\x00\x00\x00\x11\x00\x00\x00\x12\x00\x00\x00\x13\x00\x00\x00\x14\x00\x00\x00\x15\x00\x00\x00\x16\x00\x00\x00\x17\x00\x00\x00\x18\x00\x00\x00\x19\x00\x00\x00\x1a\x00\x00\x00\x1b\x00\x00\x00'
p4497
tp4498
bsg135
I01
sg136
I1
sg137
I-1
sg138
(lp4499
g4196
((lp4500
(lp4501
g473
ag474
aa(lp4502
g458
ag459
aa(lp4503
g462
ag463
aa(lp4504
g460
ag461
aa(lp4505
g455
ag456
aatp4506
Rp4507
ag4196
((lp4508
(lp4509
g473
ag499
aa(lp4510
g458
ag493
aa(lp4511
g462
ag495
aa(lp4512
g460
ag494
aa(lp4513
g455
ag491
aatp4514
Rp4515
ag4196
((lp4516
(lp4517
g473
ag499
aa(lp4518
g458
ag515
aa(lp4519
g462
ag517
aa(lp4520
g460
ag516
aa(lp4521
g455
ag513
aatp4522
Rp4523
ag4196
((lp4524
(lp4525
g473
ag499
aa(lp4526
g458
ag536
aa(lp4527
g462
ag538
aa(lp4528
g460
ag537
aa(lp4529
g455
ag534
aatp4530
Rp4531
ag4196
((lp4532
(lp4533
g473
ag474
aa(lp4534
g458
ag557
aa(lp4535
g462
ag559
aa(lp4536
g460
ag558
aa(lp4537
g455
ag555
aatp4538
Rp4539
ag4196
((lp4540
(lp4541
g473
ag499
aa(lp4542
g458
ag578
aa(lp4543
g462
ag580
aa(lp4544
g460
ag579
aa(lp4545
g455
ag576
aatp4546
Rp4547
ag4196
((lp4548
(lp4549
g473
ag499
aa(lp4550
g458
ag599
aa(lp4551
g462
ag601
aa(lp4552
g460
ag600
aa(lp4553
g455
ag597
aatp4554
Rp4555
ag4196
((lp4556
(lp4557
g473
ag474
aa(lp4558
g458
ag620
aa(lp4559
g462
ag622
aa(lp4560
g460
ag621
aa(lp4561
g455
ag618
aatp4562
Rp4563
ag4196
((lp4564
(lp4565
g473
ag474
aa(lp4566
g458
ag641
aa(lp4567
g462
ag643
aa(lp4568
g460
ag642
aa(lp4569
g455
ag639
aatp4570
Rp4571
ag4196
((lp4572
(lp4573
g473
ag474
aa(lp4574
g458
ag662
aa(lp4575
g462
ag664
aa(lp4576
g460
ag663
aa(lp4577
g455
ag660
aatp4578
Rp4579
ag4196
((lp4580
(lp4581
g473
ag499
aa(lp4582
g458
ag683
aa(lp4583
g462
ag685
aa(lp4584
g460
ag684
aa(lp4585
g455
ag681
aatp4586
Rp4587
ag4196
((lp4588
(lp4589
g473
ag499
aa(lp4590
g458
ag704
aa(lp4591
g462
ag706
aa(lp4592
g460
ag705
aa(lp4593
g455
ag702
aatp4594
Rp4595
ag4196
((lp4596
(lp4597
g473
ag474
aa(lp4598
g458
ag725
aa(lp4599
g462
ag727
aa(lp4600
g460
ag726
aa(lp4601
g455
ag723
aatp4602
Rp4603
ag4196
((lp4604
(lp4605
g473
ag474
aa(lp4606
g458
ag746
aa(lp4607
g462
ag748
aa(lp4608
g460
ag747
aa(lp4609
g455
ag744
aatp4610
Rp4611
ag4196
((lp4612
(lp4613
g473
ag499
aa(lp4614
g458
ag767
aa(lp4615
g462
ag769
aa(lp4616
g460
ag768
aa(lp4617
g455
ag765
aatp4618
Rp4619
ag4196
((lp4620
(lp4621
g473
ag474
aa(lp4622
g458
ag788
aa(lp4623
g462
ag790
aa(lp4624
g460
ag789
aa(lp4625
g455
ag786
aatp4626
Rp4627
ag4196
((lp4628
(lp4629
g473
ag474
aa(lp4630
g458
ag809
aa(lp4631
g462
ag811
aa(lp4632
g460
ag810
aa(lp4633
g455
ag807
aatp4634
Rp4635
ag4196
((lp4636
(lp4637
g473
ag499
aa(lp4638
g458
ag830
aa(lp4639
g462
ag832
aa(lp4640
g460
ag831
aa(lp4641
g455
ag828
aatp4642
Rp4643
ag4196
((lp4644
(lp4645
g473
ag499
aa(lp4646
g458
ag851
aa(lp4647
g462
ag853
aa(lp4648
g460
ag852
aa(lp4649
g455
ag849
aatp4650
Rp4651
ag4196
((lp4652
(lp4653
g473
ag474
aa(lp4654
g458
ag872
aa(lp4655
g462
ag874
aa(lp4656
g460
ag873
aa(lp4657
g455
ag870
aatp4658
Rp4659
ag4196
((lp4660
(lp4661
g473
ag474
aa(lp4662
g458
ag893
aa(lp4663
g462
ag895
aa(lp4664
g460
ag894
aa(lp4665
g455
ag891
aatp4666
Rp4667
ag4196
((lp4668
(lp4669
g473
ag499
aa(lp4670
g458
ag914
aa(lp4671
g462
ag916
aa(lp4672
g460
ag915
aa(lp4673
g455
ag912
aatp4674
Rp4675
ag4196
((lp4676
(lp4677
g473
ag474
aa(lp4678
g458
ag935
aa(lp4679
g462
ag937
aa(lp4680
g460
ag936
aa(lp4681
g455
ag933
aatp4682
Rp4683
ag4196
((lp4684
(lp4685
g473
ag499
aa(lp4686
g458
ag956
aa(lp4687
g462
ag958
aa(lp4688
g460
ag957
aa(lp4689
g455
ag954
aatp4690
Rp4691
ag4196
((lp4692
(lp4693
g473
ag474
aa(lp4694
g458
ag977
aa(lp4695
g462
ag979
aa(lp4696
g460
ag978
aa(lp4697
g455
ag975
aatp4698
Rp4699
ag4196
((lp4700
(lp4701
g473
ag499
aa(lp4702
g458
ag998
aa(lp4703
g462
ag1000
aa(lp4704
g460
ag999
aa(lp4705
g455
ag996
aatp4706
Rp4707
ag4196
((lp4708
(lp4709
g473
ag499
aa(lp4710
g458
ag1019
aa(lp4711
g462
ag1021
aa(lp4712
g460
ag1020
aa(lp4713
g455
ag1017
aatp4714
Rp4715
ag4196
((lp4716
(lp4717
g473
ag474
aa(lp4718
g458
ag1040
aa(lp4719
g462
ag1042
aa(lp4720
g460
ag1041
aa(lp4721
g455
ag1038
aatp4722
Rp4723
asg140
Nsg141
g1056
sg145
I28
sg146
I0
sg147
I28
sbag0
(g51
g2
Ntp4724
Rp4725
(dp4726
g55
Nsg56
(lp4727
sg57
I359429008
sg11
g4460
sg6
I-1
sg59
I1
sg24
I01
sg25
g26
sg60
g0
(g61
g62
(dp4728
g64
g65
(g66
g67
g68
g69
tp4729
Rp4730
(I1
(I28
I1
tp4731
g75
I00
S'\x00\x00\x80?\x00\x00\x80?\x00\x00\x80?\x00\x00\x80?\x00\x00\x80?\x00\x00\x80?\x00\x00\x80?\x00\x00\x80?\x00\x00\x80?\x00\x00\x80?\x00\x00\x80?\x00\x00\x80?\x00\x00\x80?\x00\x00\x80?\x00\x00\x80?\x00\x00\x80?\x00\x00\x80?\x00\x00\x80?\x00\x00\x80?\x00\x00\x80?\x00\x00\x80?\x00\x00\x80?\x00\x00\x80?\x00\x00\x80?\x00\x00\x80?\x00\x00\x80?\x00\x00\x80?\x00\x00\x80?'
p4732
S'\x00\x00\x00\x00\x00\x00\x00\x00\x00\x00\x00\x00\x00\x00\x00\x00\x00\x00\x00\x00\x00\x00\x00\x00\x00\x00\x00\x00'
p4733
Ntp4734
bsg18
g65
(g66
g67
g68
g69
tp4735
Rp4736
(I1
(I28
I1
tp4737
g75
I00
S'vn~@\xb6\xcb\xb3@\xa8\x1d]@\xec\xb3\x8d@\x90\x19\x05A\xda\xad\xb1@7\xb6\x06Am\x9c\x8c@\xa8\x9c"A7C\x9d@\xe4]\xdbA\xf3*\x06A%\r\xf2@m\xf8\x1cA\xa0j\xcb@%\xe2\xca@#\xf4\xf7@\xde/\xde@\x86\x027A13\x95@\xea\x1b\xc7@Z\x9d"APB\x12A`jaAB\xed\xfe@K\xc8\x12A\x07M\xa5@W\xad\xd6@'
p4738
S'\x00\x00\x00\x00\x00\x00\x00\x00\x00\x00\x00\x00\x00\x00\x00\x00\x00\x00\x00\x00\x00\x00\x00\x00\x00\x00\x00\x00'
p4739
Ntp4740
bsg104
g65
(g66
g67
g68
g69
tp4741
Rp4742
(I1
(I28
I1
tp4743
g75
I00
S'\x00\x00\x00\x00\x00\x00\x80?\x00\x00\x00@\x00\x00@@\x00\x00\x80@\x00\x00\xa0@\x00\x00\xc0@\x00\x00\xe0@\x00\x00\x00A\x00\x00\x10A\x00\x00 A\x00\x000A\x00\x00@A\x00\x00PA\x00\x00`A\x00\x00pA\x00\x00\x80A\x00\x00\x88A\x00\x00\x90A\x00\x00\x98A\x00\x00\xa0A\x00\x00\xa8A\x00\x00\xb0A\x00\x00\xb8A\x00\x00\xc0A\x00\x00\xc8A\x00\x00\xd0A\x00\x00\xd8A'
p4744
S'\x00\x00\x00\x00\x00\x00\x00\x00\x00\x00\x00\x00\x00\x00\x00\x00\x00\x00\x00\x00\x00\x00\x00\x00\x00\x00\x00\x00'
p4745
Ntp4746
bsg17
g87
(g67
(I0
tp4747
g69
tp4748
Rp4749
(I1
(I28
I1
tp4750
g94
I00
(lp4751
g1099
ag1120
ag1141
ag1163
ag1184
ag1205
ag1226
ag1247
ag1268
ag1289
ag1310
ag1331
ag1352
ag1373
ag1394
ag1415
ag1436
ag1457
ag1478
ag1499
ag1520
ag1541
ag1562
ag1583
ag1604
ag1625
ag1646
ag1667
atp4752
bstp4753
Rp4754
(dp4755
g114
(dp4756
g64
I01
sg18
I01
sg104
I01
sg17
I00
ssg116
g4725
sg117
(lp4757
g64
ag104
ag17
ag18
asg119
(lp4758
I28
aI1
asbsg121
g4492
sg123
g87
(g67
(I0
tp4759
g69
tp4760
Rp4761
(I1
(I28
I1
tp4762
g130
I00
S'\x00\x00\x00\x00\x01\x00\x00\x00\x02\x00\x00\x00\x03\x00\x00\x00\x04\x00\x00\x00\x05\x00\x00\x00\x06\x00\x00\x00\x07\x00\x00\x00\x08\x00\x00\x00\t\x00\x00\x00\n\x00\x00\x00\x0b\x00\x00\x00\x0c\x00\x00\x00\r\x00\x00\x00\x0e\x00\x00\x00\x0f\x00\x00\x00\x10\x00\x00\x00\x11\x00\x00\x00\x12\x00\x00\x00\x13\x00\x00\x00\x14\x00\x00\x00\x15\x00\x00\x00\x16\x00\x00\x00\x17\x00\x00\x00\x18\x00\x00\x00\x19\x00\x00\x00\x1a\x00\x00\x00\x1b\x00\x00\x00'
p4763
tp4764
bsg135
I01
sg136
I1
sg137
I-1
sg138
(lp4765
g4196
((lp4766
(lp4767
g1089
ag1090
aa(lp4768
g1074
ag1075
aa(lp4769
g1078
ag1079
aa(lp4770
g1076
ag1077
aa(lp4771
g1071
ag1072
aatp4772
Rp4773
ag4196
((lp4774
(lp4775
g1089
ag1090
aa(lp4776
g1074
ag1109
aa(lp4777
g1078
ag1111
aa(lp4778
g1076
ag1110
aa(lp4779
g1071
ag1107
aatp4780
Rp4781
ag4196
((lp4782
(lp4783
g1089
ag1090
aa(lp4784
g1074
ag1130
aa(lp4785
g1078
ag1132
aa(lp4786
g1076
ag1131
aa(lp4787
g1071
ag1128
aatp4788
Rp4789
ag4196
((lp4790
(lp4791
g1089
ag1157
aa(lp4792
g1074
ag1151
aa(lp4793
g1078
ag1153
aa(lp4794
g1076
ag1152
aa(lp4795
g1071
ag1149
aatp4796
Rp4797
ag4196
((lp4798
(lp4799
g1089
ag1157
aa(lp4800
g1074
ag1173
aa(lp4801
g1078
ag1175
aa(lp4802
g1076
ag1174
aa(lp4803
g1071
ag1171
aatp4804
Rp4805
ag4196
((lp4806
(lp4807
g1089
ag1090
aa(lp4808
g1074
ag1194
aa(lp4809
g1078
ag1196
aa(lp4810
g1076
ag1195
aa(lp4811
g1071
ag1192
aatp4812
Rp4813
ag4196
((lp4814
(lp4815
g1089
ag1157
aa(lp4816
g1074
ag1215
aa(lp4817
g1078
ag1217
aa(lp4818
g1076
ag1216
aa(lp4819
g1071
ag1213
aatp4820
Rp4821
ag4196
((lp4822
(lp4823
g1089
ag1157
aa(lp4824
g1074
ag1236
aa(lp4825
g1078
ag1238
aa(lp4826
g1076
ag1237
aa(lp4827
g1071
ag1234
aatp4828
Rp4829
ag4196
((lp4830
(lp4831
g1089
ag1157
aa(lp4832
g1074
ag1257
aa(lp4833
g1078
ag1259
aa(lp4834
g1076
ag1258
aa(lp4835
g1071
ag1255
aatp4836
Rp4837
ag4196
((lp4838
(lp4839
g1089
ag1090
aa(lp4840
g1074
ag1278
aa(lp4841
g1078
ag1280
aa(lp4842
g1076
ag1279
aa(lp4843
g1071
ag1276
aatp4844
Rp4845
ag4196
((lp4846
(lp4847
g1089
ag1090
aa(lp4848
g1074
ag1299
aa(lp4849
g1078
ag1301
aa(lp4850
g1076
ag1300
aa(lp4851
g1071
ag1297
aatp4852
Rp4853
ag4196
((lp4854
(lp4855
g1089
ag1157
aa(lp4856
g1074
ag1320
aa(lp4857
g1078
ag1322
aa(lp4858
g1076
ag1321
aa(lp4859
g1071
ag1318
aatp4860
Rp4861
ag4196
((lp4862
(lp4863
g1089
ag1090
aa(lp4864
g1074
ag1341
aa(lp4865
g1078
ag1343
aa(lp4866
g1076
ag1342
aa(lp4867
g1071
ag1339
aatp4868
Rp4869
ag4196
((lp4870
(lp4871
g1089
ag1090
aa(lp4872
g1074
ag1362
aa(lp4873
g1078
ag1364
aa(lp4874
g1076
ag1363
aa(lp4875
g1071
ag1360
aatp4876
Rp4877
ag4196
((lp4878
(lp4879
g1089
ag1090
aa(lp4880
g1074
ag1383
aa(lp4881
g1078
ag1385
aa(lp4882
g1076
ag1384
aa(lp4883
g1071
ag1381
aatp4884
Rp4885
ag4196
((lp4886
(lp4887
g1089
ag1157
aa(lp4888
g1074
ag1404
aa(lp4889
g1078
ag1406
aa(lp4890
g1076
ag1405
aa(lp4891
g1071
ag1402
aatp4892
Rp4893
ag4196
((lp4894
(lp4895
g1089
ag1157
aa(lp4896
g1074
ag1425
aa(lp4897
g1078
ag1427
aa(lp4898
g1076
ag1426
aa(lp4899
g1071
ag1423
aatp4900
Rp4901
ag4196
((lp4902
(lp4903
g1089
ag1090
aa(lp4904
g1074
ag1446
aa(lp4905
g1078
ag1448
aa(lp4906
g1076
ag1447
aa(lp4907
g1071
ag1444
aatp4908
Rp4909
ag4196
((lp4910
(lp4911
g1089
ag1090
aa(lp4912
g1074
ag1467
aa(lp4913
g1078
ag1469
aa(lp4914
g1076
ag1468
aa(lp4915
g1071
ag1465
aatp4916
Rp4917
ag4196
((lp4918
(lp4919
g1089
ag1090
aa(lp4920
g1074
ag1488
aa(lp4921
g1078
ag1490
aa(lp4922
g1076
ag1489
aa(lp4923
g1071
ag1486
aatp4924
Rp4925
ag4196
((lp4926
(lp4927
g1089
ag1157
aa(lp4928
g1074
ag1509
aa(lp4929
g1078
ag1511
aa(lp4930
g1076
ag1510
aa(lp4931
g1071
ag1507
aatp4932
Rp4933
ag4196
((lp4934
(lp4935
g1089
ag1090
aa(lp4936
g1074
ag1530
aa(lp4937
g1078
ag1532
aa(lp4938
g1076
ag1531
aa(lp4939
g1071
ag1528
aatp4940
Rp4941
ag4196
((lp4942
(lp4943
g1089
ag1157
aa(lp4944
g1074
ag1551
aa(lp4945
g1078
ag1553
aa(lp4946
g1076
ag1552
aa(lp4947
g1071
ag1549
aatp4948
Rp4949
ag4196
((lp4950
(lp4951
g1089
ag1157
aa(lp4952
g1074
ag1572
aa(lp4953
g1078
ag1574
aa(lp4954
g1076
ag1573
aa(lp4955
g1071
ag1570
aatp4956
Rp4957
ag4196
((lp4958
(lp4959
g1089
ag1090
aa(lp4960
g1074
ag1593
aa(lp4961
g1078
ag1595
aa(lp4962
g1076
ag1594
aa(lp4963
g1071
ag1591
aatp4964
Rp4965
ag4196
((lp4966
(lp4967
g1089
ag1157
aa(lp4968
g1074
ag1614
aa(lp4969
g1078
ag1616
aa(lp4970
g1076
ag1615
aa(lp4971
g1071
ag1612
aatp4972
Rp4973
ag4196
((lp4974
(lp4975
g1089
ag1157
aa(lp4976
g1074
ag1635
aa(lp4977
g1078
ag1637
aa(lp4978
g1076
ag1636
aa(lp4979
g1071
ag1633
aatp4980
Rp4981
ag4196
((lp4982
(lp4983
g1089
ag1157
aa(lp4984
g1074
ag1656
aa(lp4985
g1078
ag1658
aa(lp4986
g1076
ag1657
aa(lp4987
g1071
ag1654
aatp4988
Rp4989
asg140
Nsg141
g1672
sg145
I28
sg146
I0
sg147
I28
sbag0
(g51
g2
Ntp4990
Rp4991
(dp4992
g55
Nsg56
(lp4993
sg57
I359429008
sg11
g4460
sg6
I-1
sg59
I1
sg24
I01
sg25
g26
sg60
g0
(g61
g62
(dp4994
g64
g65
(g66
g67
g68
g69
tp4995
Rp4996
(I1
(I28
I1
tp4997
g75
I00
S'\x00\x00\x80?\x00\x00\x80?\x00\x00\x80?\x00\x00\x80?\x00\x00\x80?\x00\x00\x80?\x00\x00\x80?\x00\x00\x80?\x00\x00\x80?\x00\x00\x80?\x00\x00\x80?\x00\x00\x80?\x00\x00\x80?\x00\x00\x80?\x00\x00\x80?\x00\x00\x80?\x00\x00\x80?\x00\x00\x80?\x00\x00\x80?\x00\x00\x80?\x00\x00\x80?\x00\x00\x80?\x00\x00\x80?\x00\x00\x80?\x00\x00\x80?\x00\x00\x80?\x00\x00\x80?\x00\x00\x80?'
p4998
S'\x00\x00\x00\x00\x00\x00\x00\x00\x00\x00\x00\x00\x00\x00\x00\x00\x00\x00\x00\x00\x00\x00\x00\x00\x00\x00\x00\x00'
p4999
Ntp5000
bsg18
g65
(g66
g67
g68
g69
tp5001
Rp5002
(I1
(I28
I1
tp5003
g75
I00
S'\xc1"\x14A\xeb\x16\xb8@\xff\x1cN@+\xa3]A\xce+\'A2r\'A\xbc^\x05A\xeb\xf1\x9f@\xe7,\x86@\x00\x8c\xcd@\xc7\x0c)A\x8f\xe1\x17A/\x1f\xf3@\xbd|\x99@C\x910A\xaf\x9a\xf2@\x8f\x8cc@\xf1\x06\x9a@&\x9c\x01A\x04\x9b\xc1AS\xa5\xb1@\xde@\xd0@\xcd\x7f>A\xb4\x93%A\xee\xc7\xe6@\xa9\xb9\xc8@\xdeY\xad@N\x04nA'
p5004
S'\x00\x00\x00\x00\x00\x00\x00\x00\x00\x00\x00\x00\x00\x00\x00\x00\x00\x00\x00\x00\x00\x00\x00\x00\x00\x00\x00\x00'
p5005
Ntp5006
bsg104
g65
(g66
g67
g68
g69
tp5007
Rp5008
(I1
(I28
I1
tp5009
g75
I00
S'\x00\x00\x00\x00\x00\x00\x80?\x00\x00\x00@\x00\x00@@\x00\x00\x80@\x00\x00\xa0@\x00\x00\xc0@\x00\x00\xe0@\x00\x00\x00A\x00\x00\x10A\x00\x00 A\x00\x000A\x00\x00@A\x00\x00PA\x00\x00`A\x00\x00pA\x00\x00\x80A\x00\x00\x88A\x00\x00\x90A\x00\x00\x98A\x00\x00\xa0A\x00\x00\xa8A\x00\x00\xb0A\x00\x00\xb8A\x00\x00\xc0A\x00\x00\xc8A\x00\x00\xd0A\x00\x00\xd8A'
p5010
S'\x00\x00\x00\x00\x00\x00\x00\x00\x00\x00\x00\x00\x00\x00\x00\x00\x00\x00\x00\x00\x00\x00\x00\x00\x00\x00\x00\x00'
p5011
Ntp5012
bsg17
g87
(g67
(I0
tp5013
g69
tp5014
Rp5015
(I1
(I28
I1
tp5016
g94
I00
(lp5017
g1715
ag1737
ag1758
ag1779
ag1800
ag1821
ag1842
ag1863
ag1884
ag1905
ag1926
ag1947
ag1968
ag1989
ag2010
ag2031
ag2052
ag2073
ag2094
ag2115
ag2136
ag2157
ag2178
ag2199
ag2220
ag2241
ag2262
ag2283
atp5018
bstp5019
Rp5020
(dp5021
g114
(dp5022
g64
I01
sg18
I01
sg104
I01
sg17
I00
ssg116
g4991
sg117
(lp5023
g64
ag104
ag17
ag18
asg119
(lp5024
I28
aI1
asbsg121
g4492
sg123
g87
(g67
(I0
tp5025
g69
tp5026
Rp5027
(I1
(I28
I1
tp5028
g130
I00
S'\x00\x00\x00\x00\x01\x00\x00\x00\x02\x00\x00\x00\x03\x00\x00\x00\x04\x00\x00\x00\x05\x00\x00\x00\x06\x00\x00\x00\x07\x00\x00\x00\x08\x00\x00\x00\t\x00\x00\x00\n\x00\x00\x00\x0b\x00\x00\x00\x0c\x00\x00\x00\r\x00\x00\x00\x0e\x00\x00\x00\x0f\x00\x00\x00\x10\x00\x00\x00\x11\x00\x00\x00\x12\x00\x00\x00\x13\x00\x00\x00\x14\x00\x00\x00\x15\x00\x00\x00\x16\x00\x00\x00\x17\x00\x00\x00\x18\x00\x00\x00\x19\x00\x00\x00\x1a\x00\x00\x00\x1b\x00\x00\x00'
p5029
tp5030
bsg135
I01
sg136
I1
sg137
I-1
sg138
(lp5031
g4196
((lp5032
(lp5033
g1705
ag1706
aa(lp5034
g1690
ag1691
aa(lp5035
g1694
ag1695
aa(lp5036
g1692
ag1693
aa(lp5037
g1687
ag1688
aatp5038
Rp5039
ag4196
((lp5040
(lp5041
g1705
ag1731
aa(lp5042
g1690
ag1725
aa(lp5043
g1694
ag1727
aa(lp5044
g1692
ag1726
aa(lp5045
g1687
ag1723
aatp5046
Rp5047
ag4196
((lp5048
(lp5049
g1705
ag1706
aa(lp5050
g1690
ag1747
aa(lp5051
g1694
ag1749
aa(lp5052
g1692
ag1748
aa(lp5053
g1687
ag1745
aatp5054
Rp5055
ag4196
((lp5056
(lp5057
g1705
ag1706
aa(lp5058
g1690
ag1768
aa(lp5059
g1694
ag1770
aa(lp5060
g1692
ag1769
aa(lp5061
g1687
ag1766
aatp5062
Rp5063
ag4196
((lp5064
(lp5065
g1705
ag1706
aa(lp5066
g1690
ag1789
aa(lp5067
g1694
ag1791
aa(lp5068
g1692
ag1790
aa(lp5069
g1687
ag1787
aatp5070
Rp5071
ag4196
((lp5072
(lp5073
g1705
ag1731
aa(lp5074
g1690
ag1810
aa(lp5075
g1694
ag1812
aa(lp5076
g1692
ag1811
aa(lp5077
g1687
ag1808
aatp5078
Rp5079
ag4196
((lp5080
(lp5081
g1705
ag1731
aa(lp5082
g1690
ag1831
aa(lp5083
g1694
ag1833
aa(lp5084
g1692
ag1832
aa(lp5085
g1687
ag1829
aatp5086
Rp5087
ag4196
((lp5088
(lp5089
g1705
ag1706
aa(lp5090
g1690
ag1852
aa(lp5091
g1694
ag1854
aa(lp5092
g1692
ag1853
aa(lp5093
g1687
ag1850
aatp5094
Rp5095
ag4196
((lp5096
(lp5097
g1705
ag1731
aa(lp5098
g1690
ag1873
aa(lp5099
g1694
ag1875
aa(lp5100
g1692
ag1874
aa(lp5101
g1687
ag1871
aatp5102
Rp5103
ag4196
((lp5104
(lp5105
g1705
ag1731
aa(lp5106
g1690
ag1894
aa(lp5107
g1694
ag1896
aa(lp5108
g1692
ag1895
aa(lp5109
g1687
ag1892
aatp5110
Rp5111
ag4196
((lp5112
(lp5113
g1705
ag1706
aa(lp5114
g1690
ag1915
aa(lp5115
g1694
ag1917
aa(lp5116
g1692
ag1916
aa(lp5117
g1687
ag1913
aatp5118
Rp5119
ag4196
((lp5120
(lp5121
g1705
ag1706
aa(lp5122
g1690
ag1936
aa(lp5123
g1694
ag1938
aa(lp5124
g1692
ag1937
aa(lp5125
g1687
ag1934
aatp5126
Rp5127
ag4196
((lp5128
(lp5129
g1705
ag1731
aa(lp5130
g1690
ag1957
aa(lp5131
g1694
ag1959
aa(lp5132
g1692
ag1958
aa(lp5133
g1687
ag1955
aatp5134
Rp5135
ag4196
((lp5136
(lp5137
g1705
ag1731
aa(lp5138
g1690
ag1978
aa(lp5139
g1694
ag1980
aa(lp5140
g1692
ag1979
aa(lp5141
g1687
ag1976
aatp5142
Rp5143
ag4196
((lp5144
(lp5145
g1705
ag1706
aa(lp5146
g1690
ag1999
aa(lp5147
g1694
ag2001
aa(lp5148
g1692
ag2000
aa(lp5149
g1687
ag1997
aatp5150
Rp5151
ag4196
((lp5152
(lp5153
g1705
ag1731
aa(lp5154
g1690
ag2020
aa(lp5155
g1694
ag2022
aa(lp5156
g1692
ag2021
aa(lp5157
g1687
ag2018
aatp5158
Rp5159
ag4196
((lp5160
(lp5161
g1705
ag1706
aa(lp5162
g1690
ag2041
aa(lp5163
g1694
ag2043
aa(lp5164
g1692
ag2042
aa(lp5165
g1687
ag2039
aatp5166
Rp5167
ag4196
((lp5168
(lp5169
g1705
ag1706
aa(lp5170
g1690
ag2062
aa(lp5171
g1694
ag2064
aa(lp5172
g1692
ag2063
aa(lp5173
g1687
ag2060
aatp5174
Rp5175
ag4196
((lp5176
(lp5177
g1705
ag1731
aa(lp5178
g1690
ag2083
aa(lp5179
g1694
ag2085
aa(lp5180
g1692
ag2084
aa(lp5181
g1687
ag2081
aatp5182
Rp5183
ag4196
((lp5184
(lp5185
g1705
ag1731
aa(lp5186
g1690
ag2104
aa(lp5187
g1694
ag2106
aa(lp5188
g1692
ag2105
aa(lp5189
g1687
ag2102
aatp5190
Rp5191
ag4196
((lp5192
(lp5193
g1705
ag1731
aa(lp5194
g1690
ag2125
aa(lp5195
g1694
ag2127
aa(lp5196
g1692
ag2126
aa(lp5197
g1687
ag2123
aatp5198
Rp5199
ag4196
((lp5200
(lp5201
g1705
ag1706
aa(lp5202
g1690
ag2146
aa(lp5203
g1694
ag2148
aa(lp5204
g1692
ag2147
aa(lp5205
g1687
ag2144
aatp5206
Rp5207
ag4196
((lp5208
(lp5209
g1705
ag1731
aa(lp5210
g1690
ag2167
aa(lp5211
g1694
ag2169
aa(lp5212
g1692
ag2168
aa(lp5213
g1687
ag2165
aatp5214
Rp5215
ag4196
((lp5216
(lp5217
g1705
ag1731
aa(lp5218
g1690
ag2188
aa(lp5219
g1694
ag2190
aa(lp5220
g1692
ag2189
aa(lp5221
g1687
ag2186
aatp5222
Rp5223
ag4196
((lp5224
(lp5225
g1705
ag1731
aa(lp5226
g1690
ag2209
aa(lp5227
g1694
ag2211
aa(lp5228
g1692
ag2210
aa(lp5229
g1687
ag2207
aatp5230
Rp5231
ag4196
((lp5232
(lp5233
g1705
ag1706
aa(lp5234
g1690
ag2230
aa(lp5235
g1694
ag2232
aa(lp5236
g1692
ag2231
aa(lp5237
g1687
ag2228
aatp5238
Rp5239
ag4196
((lp5240
(lp5241
g1705
ag1706
aa(lp5242
g1690
ag2251
aa(lp5243
g1694
ag2253
aa(lp5244
g1692
ag2252
aa(lp5245
g1687
ag2249
aatp5246
Rp5247
ag4196
((lp5248
(lp5249
g1705
ag1706
aa(lp5250
g1690
ag2272
aa(lp5251
g1694
ag2274
aa(lp5252
g1692
ag2273
aa(lp5253
g1687
ag2270
aatp5254
Rp5255
asg140
Nsg141
g2288
sg145
I28
sg146
I0
sg147
I28
sbag0
(g51
g2
Ntp5256
Rp5257
(dp5258
g55
Nsg56
(lp5259
sg57
I359429008
sg11
g4460
sg6
I-1
sg59
I1
sg24
I01
sg25
g26
sg60
g0
(g61
g62
(dp5260
g64
g65
(g66
g67
g68
g69
tp5261
Rp5262
(I1
(I28
I1
tp5263
g75
I00
S'\x00\x00\x80?\x00\x00\x80?\x00\x00\x80?\x00\x00\x80?\x00\x00\x80?\x00\x00\x80?\x00\x00\x80?\x00\x00\x80?\x00\x00\x80?\x00\x00\x80?\x00\x00\x80?\x00\x00\x80?\x00\x00\x80?\x00\x00\x80?\x00\x00\x80?\x00\x00\x80?\x00\x00\x80?\x00\x00\x80?\x00\x00\x80?\x00\x00\x80?\x00\x00\x80?\x00\x00\x80?\x00\x00\x80?\x00\x00\x80?\x00\x00\x80?\x00\x00\x80?\x00\x00\x80?\x00\x00\x80?'
p5264
S'\x00\x00\x00\x00\x00\x00\x00\x00\x00\x00\x00\x00\x00\x00\x00\x00\x00\x00\x00\x00\x00\x00\x00\x00\x00\x00\x00\x00'
p5265
Ntp5266
bsg18
g65
(g66
g67
g68
g69
tp5267
Rp5268
(I1
(I28
I1
tp5269
g75
I00
S"8p\x06A'\xe2J@\xc3\xc9\xba@.\x0cj@\xfaI\xbb@\xff\xb0#A\x11\xe2\xa6@d\xf1lA\xae\xcfu@\x14\x81\xb6@\xe9[-A\xf3K\x1aAs`1A\x18_\x10A\xbaK\x04A\xd6\xaa\xaa@\x02_\x90@\xa60\xb4AE\xc4\xa4@\xc8\xe7\x05A\xd5\xaf\xec@\xf9\xe8GA\xd3\x07y@6k\x18AC\xce\x0bA\xbc\x930Ar\xb5\x86@\xd8\xac\x9b@"
p5270
S'\x00\x00\x00\x00\x00\x00\x00\x00\x00\x00\x00\x00\x00\x00\x00\x00\x00\x00\x00\x00\x00\x00\x00\x00\x00\x00\x00\x00'
p5271
Ntp5272
bsg104
g65
(g66
g67
g68
g69
tp5273
Rp5274
(I1
(I28
I1
tp5275
g75
I00
S'\x00\x00\x00\x00\x00\x00\x80?\x00\x00\x00@\x00\x00@@\x00\x00\x80@\x00\x00\xa0@\x00\x00\xc0@\x00\x00\xe0@\x00\x00\x00A\x00\x00\x10A\x00\x00 A\x00\x000A\x00\x00@A\x00\x00PA\x00\x00`A\x00\x00pA\x00\x00\x80A\x00\x00\x88A\x00\x00\x90A\x00\x00\x98A\x00\x00\xa0A\x00\x00\xa8A\x00\x00\xb0A\x00\x00\xb8A\x00\x00\xc0A\x00\x00\xc8A\x00\x00\xd0A\x00\x00\xd8A'
p5276
S'\x00\x00\x00\x00\x00\x00\x00\x00\x00\x00\x00\x00\x00\x00\x00\x00\x00\x00\x00\x00\x00\x00\x00\x00\x00\x00\x00\x00'
p5277
Ntp5278
bsg17
g87
(g67
(I0
tp5279
g69
tp5280
Rp5281
(I1
(I28
I1
tp5282
g94
I00
(lp5283
g2331
ag2352
ag2374
ag2395
ag2416
ag2437
ag2458
ag2479
ag2500
ag2521
ag2542
ag2563
ag2584
ag2605
ag2626
ag2647
ag2668
ag2689
ag2710
ag2731
ag2752
ag2773
ag2794
ag2815
ag2836
ag2857
ag2878
ag2899
atp5284
bstp5285
Rp5286
(dp5287
g114
(dp5288
g64
I01
sg18
I01
sg104
I01
sg17
I00
ssg116
g5257
sg117
(lp5289
g64
ag104
ag17
ag18
asg119
(lp5290
I28
aI1
asbsg121
g4492
sg123
g87
(g67
(I0
tp5291
g69
tp5292
Rp5293
(I1
(I28
I1
tp5294
g130
I00
S'\x00\x00\x00\x00\x01\x00\x00\x00\x02\x00\x00\x00\x03\x00\x00\x00\x04\x00\x00\x00\x05\x00\x00\x00\x06\x00\x00\x00\x07\x00\x00\x00\x08\x00\x00\x00\t\x00\x00\x00\n\x00\x00\x00\x0b\x00\x00\x00\x0c\x00\x00\x00\r\x00\x00\x00\x0e\x00\x00\x00\x0f\x00\x00\x00\x10\x00\x00\x00\x11\x00\x00\x00\x12\x00\x00\x00\x13\x00\x00\x00\x14\x00\x00\x00\x15\x00\x00\x00\x16\x00\x00\x00\x17\x00\x00\x00\x18\x00\x00\x00\x19\x00\x00\x00\x1a\x00\x00\x00\x1b\x00\x00\x00'
p5295
tp5296
bsg135
I01
sg136
I1
sg137
I-1
sg138
(lp5297
g4196
((lp5298
(lp5299
g2321
ag2322
aa(lp5300
g2306
ag2307
aa(lp5301
g2310
ag2311
aa(lp5302
g2308
ag2309
aa(lp5303
g2303
ag2304
aatp5304
Rp5305
ag4196
((lp5306
(lp5307
g2321
ag2322
aa(lp5308
g2306
ag2341
aa(lp5309
g2310
ag2343
aa(lp5310
g2308
ag2342
aa(lp5311
g2303
ag2339
aatp5312
Rp5313
ag4196
((lp5314
(lp5315
g2321
ag2368
aa(lp5316
g2306
ag2362
aa(lp5317
g2310
ag2364
aa(lp5318
g2308
ag2363
aa(lp5319
g2303
ag2360
aatp5320
Rp5321
ag4196
((lp5322
(lp5323
g2321
ag2322
aa(lp5324
g2306
ag2384
aa(lp5325
g2310
ag2386
aa(lp5326
g2308
ag2385
aa(lp5327
g2303
ag2382
aatp5328
Rp5329
ag4196
((lp5330
(lp5331
g2321
ag2368
aa(lp5332
g2306
ag2405
aa(lp5333
g2310
ag2407
aa(lp5334
g2308
ag2406
aa(lp5335
g2303
ag2403
aatp5336
Rp5337
ag4196
((lp5338
(lp5339
g2321
ag2322
aa(lp5340
g2306
ag2426
aa(lp5341
g2310
ag2428
aa(lp5342
g2308
ag2427
aa(lp5343
g2303
ag2424
aatp5344
Rp5345
ag4196
((lp5346
(lp5347
g2321
ag2368
aa(lp5348
g2306
ag2447
aa(lp5349
g2310
ag2449
aa(lp5350
g2308
ag2448
aa(lp5351
g2303
ag2445
aatp5352
Rp5353
ag4196
((lp5354
(lp5355
g2321
ag2368
aa(lp5356
g2306
ag2468
aa(lp5357
g2310
ag2470
aa(lp5358
g2308
ag2469
aa(lp5359
g2303
ag2466
aatp5360
Rp5361
ag4196
((lp5362
(lp5363
g2321
ag2322
aa(lp5364
g2306
ag2489
aa(lp5365
g2310
ag2491
aa(lp5366
g2308
ag2490
aa(lp5367
g2303
ag2487
aatp5368
Rp5369
ag4196
((lp5370
(lp5371
g2321
ag2368
aa(lp5372
g2306
ag2510
aa(lp5373
g2310
ag2512
aa(lp5374
g2308
ag2511
aa(lp5375
g2303
ag2508
aatp5376
Rp5377
ag4196
((lp5378
(lp5379
g2321
ag2368
aa(lp5380
g2306
ag2531
aa(lp5381
g2310
ag2533
aa(lp5382
g2308
ag2532
aa(lp5383
g2303
ag2529
aatp5384
Rp5385
ag4196
((lp5386
(lp5387
g2321
ag2322
aa(lp5388
g2306
ag2552
aa(lp5389
g2310
ag2554
aa(lp5390
g2308
ag2553
aa(lp5391
g2303
ag2550
aatp5392
Rp5393
ag4196
((lp5394
(lp5395
g2321
ag2322
aa(lp5396
g2306
ag2573
aa(lp5397
g2310
ag2575
aa(lp5398
g2308
ag2574
aa(lp5399
g2303
ag2571
aatp5400
Rp5401
ag4196
((lp5402
(lp5403
g2321
ag2368
aa(lp5404
g2306
ag2594
aa(lp5405
g2310
ag2596
aa(lp5406
g2308
ag2595
aa(lp5407
g2303
ag2592
aatp5408
Rp5409
ag4196
((lp5410
(lp5411
g2321
ag2368
aa(lp5412
g2306
ag2615
aa(lp5413
g2310
ag2617
aa(lp5414
g2308
ag2616
aa(lp5415
g2303
ag2613
aatp5416
Rp5417
ag4196
((lp5418
(lp5419
g2321
ag2322
aa(lp5420
g2306
ag2636
aa(lp5421
g2310
ag2638
aa(lp5422
g2308
ag2637
aa(lp5423
g2303
ag2634
aatp5424
Rp5425
ag4196
((lp5426
(lp5427
g2321
ag2368
aa(lp5428
g2306
ag2657
aa(lp5429
g2310
ag2659
aa(lp5430
g2308
ag2658
aa(lp5431
g2303
ag2655
aatp5432
Rp5433
ag4196
((lp5434
(lp5435
g2321
ag2322
aa(lp5436
g2306
ag2678
aa(lp5437
g2310
ag2680
aa(lp5438
g2308
ag2679
aa(lp5439
g2303
ag2676
aatp5440
Rp5441
ag4196
((lp5442
(lp5443
g2321
ag2368
aa(lp5444
g2306
ag2699
aa(lp5445
g2310
ag2701
aa(lp5446
g2308
ag2700
aa(lp5447
g2303
ag2697
aatp5448
Rp5449
ag4196
((lp5450
(lp5451
g2321
ag2322
aa(lp5452
g2306
ag2720
aa(lp5453
g2310
ag2722
aa(lp5454
g2308
ag2721
aa(lp5455
g2303
ag2718
aatp5456
Rp5457
ag4196
((lp5458
(lp5459
g2321
ag2322
aa(lp5460
g2306
ag2741
aa(lp5461
g2310
ag2743
aa(lp5462
g2308
ag2742
aa(lp5463
g2303
ag2739
aatp5464
Rp5465
ag4196
((lp5466
(lp5467
g2321
ag2322
aa(lp5468
g2306
ag2762
aa(lp5469
g2310
ag2764
aa(lp5470
g2308
ag2763
aa(lp5471
g2303
ag2760
aatp5472
Rp5473
ag4196
((lp5474
(lp5475
g2321
ag2368
aa(lp5476
g2306
ag2783
aa(lp5477
g2310
ag2785
aa(lp5478
g2308
ag2784
aa(lp5479
g2303
ag2781
aatp5480
Rp5481
ag4196
((lp5482
(lp5483
g2321
ag2368
aa(lp5484
g2306
ag2804
aa(lp5485
g2310
ag2806
aa(lp5486
g2308
ag2805
aa(lp5487
g2303
ag2802
aatp5488
Rp5489
ag4196
((lp5490
(lp5491
g2321
ag2368
aa(lp5492
g2306
ag2825
aa(lp5493
g2310
ag2827
aa(lp5494
g2308
ag2826
aa(lp5495
g2303
ag2823
aatp5496
Rp5497
ag4196
((lp5498
(lp5499
g2321
ag2322
aa(lp5500
g2306
ag2846
aa(lp5501
g2310
ag2848
aa(lp5502
g2308
ag2847
aa(lp5503
g2303
ag2844
aatp5504
Rp5505
ag4196
((lp5506
(lp5507
g2321
ag2368
aa(lp5508
g2306
ag2867
aa(lp5509
g2310
ag2869
aa(lp5510
g2308
ag2868
aa(lp5511
g2303
ag2865
aatp5512
Rp5513
ag4196
((lp5514
(lp5515
g2321
ag2322
aa(lp5516
g2306
ag2888
aa(lp5517
g2310
ag2890
aa(lp5518
g2308
ag2889
aa(lp5519
g2303
ag2886
aatp5520
Rp5521
asg140
Nsg141
g2904
sg145
I28
sg146
I0
sg147
I28
sbag0
(g51
g2
Ntp5522
Rp5523
(dp5524
g55
Nsg56
(lp5525
sg57
I359429008
sg11
g4460
sg6
I-1
sg59
I1
sg24
I01
sg25
g26
sg60
g0
(g61
g62
(dp5526
g64
g65
(g66
g67
g68
g69
tp5527
Rp5528
(I1
(I28
I1
tp5529
g75
I00
S'\x00\x00\x80?\x00\x00\x80?\x00\x00\x80?\x00\x00\x80?\x00\x00\x80?\x00\x00\x80?\x00\x00\x80?\x00\x00\x80?\x00\x00\x80?\x00\x00\x80?\x00\x00\x80?\x00\x00\x80?\x00\x00\x80?\x00\x00\x80?\x00\x00\x80?\x00\x00\x80?\x00\x00\x80?\x00\x00\x80?\x00\x00\x80?\x00\x00\x80?\x00\x00\x80?\x00\x00\x80?\x00\x00\x80?\x00\x00\x80?\x00\x00\x80?\x00\x00\x80?\x00\x00\x80?\x00\x00\x80?'
p5530
S'\x00\x00\x00\x00\x00\x00\x00\x00\x00\x00\x00\x00\x00\x00\x00\x00\x00\x00\x00\x00\x00\x00\x00\x00\x00\x00\x00\x00'
p5531
Ntp5532
bsg18
g65
(g66
g67
g68
g69
tp5533
Rp5534
(I1
(I28
I1
tp5535
g75
I00
S"\xcc\xe7\x10A\xec\xa2\x05A\x8a\xae#A(?|@\xc7\xa5U@'l\xc4@m\xe1\x01AP\xa4\x9b@\xfc/\xc8@\xc0\x92\xb0@\xbeGXA\xcc\xd2,A!-6A*\x8c\x99@\xc1\xa5RA7q\x1cAJ\xfc\xbd@\xf0\xd3\xc2@\xe8\xb1:B\r\x7fb@\xfb\xdb)A\x0e+\xf3@Xl\x82@4\x984A\xf2,\x86@\t\xc4\xd0@\xd7D\x00AU^\x90@"
p5536
S'\x00\x00\x00\x00\x00\x00\x00\x00\x00\x00\x00\x00\x00\x00\x00\x00\x00\x00\x00\x00\x00\x00\x00\x00\x00\x00\x00\x00'
p5537
Ntp5538
bsg104
g65
(g66
g67
g68
g69
tp5539
Rp5540
(I1
(I28
I1
tp5541
g75
I00
S'\x00\x00\x00\x00\x00\x00\x80?\x00\x00\x00@\x00\x00@@\x00\x00\x80@\x00\x00\xa0@\x00\x00\xc0@\x00\x00\xe0@\x00\x00\x00A\x00\x00\x10A\x00\x00 A\x00\x000A\x00\x00@A\x00\x00PA\x00\x00`A\x00\x00pA\x00\x00\x80A\x00\x00\x88A\x00\x00\x90A\x00\x00\x98A\x00\x00\xa0A\x00\x00\xa8A\x00\x00\xb0A\x00\x00\xb8A\x00\x00\xc0A\x00\x00\xc8A\x00\x00\xd0A\x00\x00\xd8A'
p5542
S'\x00\x00\x00\x00\x00\x00\x00\x00\x00\x00\x00\x00\x00\x00\x00\x00\x00\x00\x00\x00\x00\x00\x00\x00\x00\x00\x00\x00'
p5543
Ntp5544
bsg17
g87
(g67
(I0
tp5545
g69
tp5546
Rp5547
(I1
(I28
I1
tp5548
g94
I00
(lp5549
g2947
ag2968
ag2990
ag3011
ag3032
ag3053
ag3074
ag3095
ag3116
ag3137
ag3158
ag3179
ag3200
ag3221
ag3242
ag3263
ag3284
ag3305
ag3326
ag3347
ag3368
ag3389
ag3410
ag3431
ag3452
ag3473
ag3494
ag3515
atp5550
bstp5551
Rp5552
(dp5553
g114
(dp5554
g64
I01
sg18
I01
sg104
I01
sg17
I00
ssg116
g5523
sg117
(lp5555
g64
ag104
ag17
ag18
asg119
(lp5556
I28
aI1
asbsg121
g4492
sg123
g87
(g67
(I0
tp5557
g69
tp5558
Rp5559
(I1
(I28
I1
tp5560
g130
I00
S'\x00\x00\x00\x00\x01\x00\x00\x00\x02\x00\x00\x00\x03\x00\x00\x00\x04\x00\x00\x00\x05\x00\x00\x00\x06\x00\x00\x00\x07\x00\x00\x00\x08\x00\x00\x00\t\x00\x00\x00\n\x00\x00\x00\x0b\x00\x00\x00\x0c\x00\x00\x00\r\x00\x00\x00\x0e\x00\x00\x00\x0f\x00\x00\x00\x10\x00\x00\x00\x11\x00\x00\x00\x12\x00\x00\x00\x13\x00\x00\x00\x14\x00\x00\x00\x15\x00\x00\x00\x16\x00\x00\x00\x17\x00\x00\x00\x18\x00\x00\x00\x19\x00\x00\x00\x1a\x00\x00\x00\x1b\x00\x00\x00'
p5561
tp5562
bsg135
I01
sg136
I1
sg137
I-1
sg138
(lp5563
g4196
((lp5564
(lp5565
g2937
ag2938
aa(lp5566
g2922
ag2923
aa(lp5567
g2926
ag2927
aa(lp5568
g2924
ag2925
aa(lp5569
g2919
ag2920
aatp5570
Rp5571
ag4196
((lp5572
(lp5573
g2937
ag2938
aa(lp5574
g2922
ag2957
aa(lp5575
g2926
ag2959
aa(lp5576
g2924
ag2958
aa(lp5577
g2919
ag2955
aatp5578
Rp5579
ag4196
((lp5580
(lp5581
g2937
ag2984
aa(lp5582
g2922
ag2978
aa(lp5583
g2926
ag2980
aa(lp5584
g2924
ag2979
aa(lp5585
g2919
ag2976
aatp5586
Rp5587
ag4196
((lp5588
(lp5589
g2937
ag2938
aa(lp5590
g2922
ag3000
aa(lp5591
g2926
ag3002
aa(lp5592
g2924
ag3001
aa(lp5593
g2919
ag2998
aatp5594
Rp5595
ag4196
((lp5596
(lp5597
g2937
ag2984
aa(lp5598
g2922
ag3021
aa(lp5599
g2926
ag3023
aa(lp5600
g2924
ag3022
aa(lp5601
g2919
ag3019
aatp5602
Rp5603
ag4196
((lp5604
(lp5605
g2937
ag2938
aa(lp5606
g2922
ag3042
aa(lp5607
g2926
ag3044
aa(lp5608
g2924
ag3043
aa(lp5609
g2919
ag3040
aatp5610
Rp5611
ag4196
((lp5612
(lp5613
g2937
ag2984
aa(lp5614
g2922
ag3063
aa(lp5615
g2926
ag3065
aa(lp5616
g2924
ag3064
aa(lp5617
g2919
ag3061
aatp5618
Rp5619
ag4196
((lp5620
(lp5621
g2937
ag2938
aa(lp5622
g2922
ag3084
aa(lp5623
g2926
ag3086
aa(lp5624
g2924
ag3085
aa(lp5625
g2919
ag3082
aatp5626
Rp5627
ag4196
((lp5628
(lp5629
g2937
ag2938
aa(lp5630
g2922
ag3105
aa(lp5631
g2926
ag3107
aa(lp5632
g2924
ag3106
aa(lp5633
g2919
ag3103
aatp5634
Rp5635
ag4196
((lp5636
(lp5637
g2937
ag2938
aa(lp5638
g2922
ag3126
aa(lp5639
g2926
ag3128
aa(lp5640
g2924
ag3127
aa(lp5641
g2919
ag3124
aatp5642
Rp5643
ag4196
((lp5644
(lp5645
g2937
ag2984
aa(lp5646
g2922
ag3147
aa(lp5647
g2926
ag3149
aa(lp5648
g2924
ag3148
aa(lp5649
g2919
ag3145
aatp5650
Rp5651
ag4196
((lp5652
(lp5653
g2937
ag2984
aa(lp5654
g2922
ag3168
aa(lp5655
g2926
ag3170
aa(lp5656
g2924
ag3169
aa(lp5657
g2919
ag3166
aatp5658
Rp5659
ag4196
((lp5660
(lp5661
g2937
ag2984
aa(lp5662
g2922
ag3189
aa(lp5663
g2926
ag3191
aa(lp5664
g2924
ag3190
aa(lp5665
g2919
ag3187
aatp5666
Rp5667
ag4196
((lp5668
(lp5669
g2937
ag2938
aa(lp5670
g2922
ag3210
aa(lp5671
g2926
ag3212
aa(lp5672
g2924
ag3211
aa(lp5673
g2919
ag3208
aatp5674
Rp5675
ag4196
((lp5676
(lp5677
g2937
ag2984
aa(lp5678
g2922
ag3231
aa(lp5679
g2926
ag3233
aa(lp5680
g2924
ag3232
aa(lp5681
g2919
ag3229
aatp5682
Rp5683
ag4196
((lp5684
(lp5685
g2937
ag2984
aa(lp5686
g2922
ag3252
aa(lp5687
g2926
ag3254
aa(lp5688
g2924
ag3253
aa(lp5689
g2919
ag3250
aatp5690
Rp5691
ag4196
((lp5692
(lp5693
g2937
ag2938
aa(lp5694
g2922
ag3273
aa(lp5695
g2926
ag3275
aa(lp5696
g2924
ag3274
aa(lp5697
g2919
ag3271
aatp5698
Rp5699
ag4196
((lp5700
(lp5701
g2937
ag2938
aa(lp5702
g2922
ag3294
aa(lp5703
g2926
ag3296
aa(lp5704
g2924
ag3295
aa(lp5705
g2919
ag3292
aatp5706
Rp5707
ag4196
((lp5708
(lp5709
g2937
ag2984
aa(lp5710
g2922
ag3315
aa(lp5711
g2926
ag3317
aa(lp5712
g2924
ag3316
aa(lp5713
g2919
ag3313
aatp5714
Rp5715
ag4196
((lp5716
(lp5717
g2937
ag2938
aa(lp5718
g2922
ag3336
aa(lp5719
g2926
ag3338
aa(lp5720
g2924
ag3337
aa(lp5721
g2919
ag3334
aatp5722
Rp5723
ag4196
((lp5724
(lp5725
g2937
ag2938
aa(lp5726
g2922
ag3357
aa(lp5727
g2926
ag3359
aa(lp5728
g2924
ag3358
aa(lp5729
g2919
ag3355
aatp5730
Rp5731
ag4196
((lp5732
(lp5733
g2937
ag2984
aa(lp5734
g2922
ag3378
aa(lp5735
g2926
ag3380
aa(lp5736
g2924
ag3379
aa(lp5737
g2919
ag3376
aatp5738
Rp5739
ag4196
((lp5740
(lp5741
g2937
ag2938
aa(lp5742
g2922
ag3399
aa(lp5743
g2926
ag3401
aa(lp5744
g2924
ag3400
aa(lp5745
g2919
ag3397
aatp5746
Rp5747
ag4196
((lp5748
(lp5749
g2937
ag2984
aa(lp5750
g2922
ag3420
aa(lp5751
g2926
ag3422
aa(lp5752
g2924
ag3421
aa(lp5753
g2919
ag3418
aatp5754
Rp5755
ag4196
((lp5756
(lp5757
g2937
ag2938
aa(lp5758
g2922
ag3441
aa(lp5759
g2926
ag3443
aa(lp5760
g2924
ag3442
aa(lp5761
g2919
ag3439
aatp5762
Rp5763
ag4196
((lp5764
(lp5765
g2937
ag2984
aa(lp5766
g2922
ag3462
aa(lp5767
g2926
ag3464
aa(lp5768
g2924
ag3463
aa(lp5769
g2919
ag3460
aatp5770
Rp5771
ag4196
((lp5772
(lp5773
g2937
ag2984
aa(lp5774
g2922
ag3483
aa(lp5775
g2926
ag3485
aa(lp5776
g2924
ag3484
aa(lp5777
g2919
ag3481
aatp5778
Rp5779
ag4196
((lp5780
(lp5781
g2937
ag2984
aa(lp5782
g2922
ag3504
aa(lp5783
g2926
ag3506
aa(lp5784
g2924
ag3505
aa(lp5785
g2919
ag3502
aatp5786
Rp5787
asg140
Nsg141
g3520
sg145
I28
sg146
I0
sg147
I28
sbag0
(g51
g2
Ntp5788
Rp5789
(dp5790
g55
Nsg56
(lp5791
sg57
I359429008
sg11
g4460
sg6
I-1
sg59
I1
sg24
I01
sg25
g26
sg60
g0
(g61
g62
(dp5792
g64
g65
(g66
g67
g68
g69
tp5793
Rp5794
(I1
(I28
I1
tp5795
g75
I00
S'\x00\x00\x80?\x00\x00\x80?\x00\x00\x80?\x00\x00\x80?\x00\x00\x80?\x00\x00\x80?\x00\x00\x80?\x00\x00\x80?\x00\x00\x80?\x00\x00\x80?\x00\x00\x80?\x00\x00\x80?\x00\x00\x80?\x00\x00\x80?\x00\x00\x80?\x00\x00\x80?\x00\x00\x80?\x00\x00\x80?\x00\x00\x80?\x00\x00\x80?\x00\x00\x80?\x00\x00\x80?\x00\x00\x80?\x00\x00\x80?\x00\x00\x80?\x00\x00\x80?\x00\x00\x80?\x00\x00\x80?'
p5796
S'\x00\x00\x00\x00\x00\x00\x00\x00\x00\x00\x00\x00\x00\x00\x00\x00\x00\x00\x00\x00\x00\x00\x00\x00\x00\x00\x00\x00'
p5797
Ntp5798
bsg18
g65
(g66
g67
g68
g69
tp5799
Rp5800
(I1
(I28
I1
tp5801
g75
I00
S'\xa3\xfa\xf0@Pl\x98@G\x9d\x0cA\xe5c\tA\xe0y\xa0@\x96\xd9\xe7@\xf8\x98\xa9@\xce\xbb^A\xfb\x18\xb8@\xd0\xb5\xb9@sl\x18A\xcfe\x89@\xf1\x12\x01AN\x1b\x9b@\xd9\x15CAR\xe2\x97Ao\x8b\x8b@\xa2P\xa5@r9\nA\x00\x02,A\xde\xb7\xa3@)\xb2OA#h~@W\x03nA\x1e\xb6\x1cA+\xf5\xb5@}W\x01AVF\x80@'
p5802
S'\x00\x00\x00\x00\x00\x00\x00\x00\x00\x00\x00\x00\x00\x00\x00\x00\x00\x00\x00\x00\x00\x00\x00\x00\x00\x00\x00\x00'
p5803
Ntp5804
bsg104
g65
(g66
g67
g68
g69
tp5805
Rp5806
(I1
(I28
I1
tp5807
g75
I00
S'\x00\x00\x00\x00\x00\x00\x80?\x00\x00\x00@\x00\x00@@\x00\x00\x80@\x00\x00\xa0@\x00\x00\xc0@\x00\x00\xe0@\x00\x00\x00A\x00\x00\x10A\x00\x00 A\x00\x000A\x00\x00@A\x00\x00PA\x00\x00`A\x00\x00pA\x00\x00\x80A\x00\x00\x88A\x00\x00\x90A\x00\x00\x98A\x00\x00\xa0A\x00\x00\xa8A\x00\x00\xb0A\x00\x00\xb8A\x00\x00\xc0A\x00\x00\xc8A\x00\x00\xd0A\x00\x00\xd8A'
p5808
S'\x00\x00\x00\x00\x00\x00\x00\x00\x00\x00\x00\x00\x00\x00\x00\x00\x00\x00\x00\x00\x00\x00\x00\x00\x00\x00\x00\x00'
p5809
Ntp5810
bsg17
g87
(g67
(I0
tp5811
g69
tp5812
Rp5813
(I1
(I28
I1
tp5814
g94
I00
(lp5815
g3563
ag3584
ag3606
ag3627
ag3648
ag3669
ag3690
ag3711
ag3732
ag3753
ag3774
ag3795
ag3816
ag3837
ag3858
ag3879
ag3900
ag3921
ag3942
ag3963
ag3984
ag4005
ag4026
ag4047
ag4068
ag4089
ag4110
ag4131
atp5816
bstp5817
Rp5818
(dp5819
g114
(dp5820
g64
I01
sg18
I01
sg104
I01
sg17
I00
ssg116
g5789
sg117
(lp5821
g64
ag104
ag17
ag18
asg119
(lp5822
I28
aI1
asbsg121
g4492
sg123
g87
(g67
(I0
tp5823
g69
tp5824
Rp5825
(I1
(I28
I1
tp5826
g130
I00
S'\x00\x00\x00\x00\x01\x00\x00\x00\x02\x00\x00\x00\x03\x00\x00\x00\x04\x00\x00\x00\x05\x00\x00\x00\x06\x00\x00\x00\x07\x00\x00\x00\x08\x00\x00\x00\t\x00\x00\x00\n\x00\x00\x00\x0b\x00\x00\x00\x0c\x00\x00\x00\r\x00\x00\x00\x0e\x00\x00\x00\x0f\x00\x00\x00\x10\x00\x00\x00\x11\x00\x00\x00\x12\x00\x00\x00\x13\x00\x00\x00\x14\x00\x00\x00\x15\x00\x00\x00\x16\x00\x00\x00\x17\x00\x00\x00\x18\x00\x00\x00\x19\x00\x00\x00\x1a\x00\x00\x00\x1b\x00\x00\x00'
p5827
tp5828
bsg135
I01
sg136
I1
sg137
I-1
sg138
(lp5829
g4196
((lp5830
(lp5831
g3553
ag3554
aa(lp5832
g3538
ag3539
aa(lp5833
g3542
ag3543
aa(lp5834
g3540
ag3541
aa(lp5835
g3535
ag3536
aatp5836
Rp5837
ag4196
((lp5838
(lp5839
g3553
ag3554
aa(lp5840
g3538
ag3573
aa(lp5841
g3542
ag3575
aa(lp5842
g3540
ag3574
aa(lp5843
g3535
ag3571
aatp5844
Rp5845
ag4196
((lp5846
(lp5847
g3553
ag3600
aa(lp5848
g3538
ag3594
aa(lp5849
g3542
ag3596
aa(lp5850
g3540
ag3595
aa(lp5851
g3535
ag3592
aatp5852
Rp5853
ag4196
((lp5854
(lp5855
g3553
ag3554
aa(lp5856
g3538
ag3616
aa(lp5857
g3542
ag3618
aa(lp5858
g3540
ag3617
aa(lp5859
g3535
ag3614
aatp5860
Rp5861
ag4196
((lp5862
(lp5863
g3553
ag3600
aa(lp5864
g3538
ag3637
aa(lp5865
g3542
ag3639
aa(lp5866
g3540
ag3638
aa(lp5867
g3535
ag3635
aatp5868
Rp5869
ag4196
((lp5870
(lp5871
g3553
ag3600
aa(lp5872
g3538
ag3658
aa(lp5873
g3542
ag3660
aa(lp5874
g3540
ag3659
aa(lp5875
g3535
ag3656
aatp5876
Rp5877
ag4196
((lp5878
(lp5879
g3553
ag3554
aa(lp5880
g3538
ag3679
aa(lp5881
g3542
ag3681
aa(lp5882
g3540
ag3680
aa(lp5883
g3535
ag3677
aatp5884
Rp5885
ag4196
((lp5886
(lp5887
g3553
ag3600
aa(lp5888
g3538
ag3700
aa(lp5889
g3542
ag3702
aa(lp5890
g3540
ag3701
aa(lp5891
g3535
ag3698
aatp5892
Rp5893
ag4196
((lp5894
(lp5895
g3553
ag3554
aa(lp5896
g3538
ag3721
aa(lp5897
g3542
ag3723
aa(lp5898
g3540
ag3722
aa(lp5899
g3535
ag3719
aatp5900
Rp5901
ag4196
((lp5902
(lp5903
g3553
ag3600
aa(lp5904
g3538
ag3742
aa(lp5905
g3542
ag3744
aa(lp5906
g3540
ag3743
aa(lp5907
g3535
ag3740
aatp5908
Rp5909
ag4196
((lp5910
(lp5911
g3553
ag3600
aa(lp5912
g3538
ag3763
aa(lp5913
g3542
ag3765
aa(lp5914
g3540
ag3764
aa(lp5915
g3535
ag3761
aatp5916
Rp5917
ag4196
((lp5918
(lp5919
g3553
ag3554
aa(lp5920
g3538
ag3784
aa(lp5921
g3542
ag3786
aa(lp5922
g3540
ag3785
aa(lp5923
g3535
ag3782
aatp5924
Rp5925
ag4196
((lp5926
(lp5927
g3553
ag3600
aa(lp5928
g3538
ag3805
aa(lp5929
g3542
ag3807
aa(lp5930
g3540
ag3806
aa(lp5931
g3535
ag3803
aatp5932
Rp5933
ag4196
((lp5934
(lp5935
g3553
ag3554
aa(lp5936
g3538
ag3826
aa(lp5937
g3542
ag3828
aa(lp5938
g3540
ag3827
aa(lp5939
g3535
ag3824
aatp5940
Rp5941
ag4196
((lp5942
(lp5943
g3553
ag3600
aa(lp5944
g3538
ag3847
aa(lp5945
g3542
ag3849
aa(lp5946
g3540
ag3848
aa(lp5947
g3535
ag3845
aatp5948
Rp5949
ag4196
((lp5950
(lp5951
g3553
ag3554
aa(lp5952
g3538
ag3868
aa(lp5953
g3542
ag3870
aa(lp5954
g3540
ag3869
aa(lp5955
g3535
ag3866
aatp5956
Rp5957
ag4196
((lp5958
(lp5959
g3553
ag3554
aa(lp5960
g3538
ag3889
aa(lp5961
g3542
ag3891
aa(lp5962
g3540
ag3890
aa(lp5963
g3535
ag3887
aatp5964
Rp5965
ag4196
((lp5966
(lp5967
g3553
ag3554
aa(lp5968
g3538
ag3910
aa(lp5969
g3542
ag3912
aa(lp5970
g3540
ag3911
aa(lp5971
g3535
ag3908
aatp5972
Rp5973
ag4196
((lp5974
(lp5975
g3553
ag3600
aa(lp5976
g3538
ag3931
aa(lp5977
g3542
ag3933
aa(lp5978
g3540
ag3932
aa(lp5979
g3535
ag3929
aatp5980
Rp5981
ag4196
((lp5982
(lp5983
g3553
ag3600
aa(lp5984
g3538
ag3952
aa(lp5985
g3542
ag3954
aa(lp5986
g3540
ag3953
aa(lp5987
g3535
ag3950
aatp5988
Rp5989
ag4196
((lp5990
(lp5991
g3553
ag3554
aa(lp5992
g3538
ag3973
aa(lp5993
g3542
ag3975
aa(lp5994
g3540
ag3974
aa(lp5995
g3535
ag3971
aatp5996
Rp5997
ag4196
((lp5998
(lp5999
g3553
ag3600
aa(lp6000
g3538
ag3994
aa(lp6001
g3542
ag3996
aa(lp6002
g3540
ag3995
aa(lp6003
g3535
ag3992
aatp6004
Rp6005
ag4196
((lp6006
(lp6007
g3553
ag3554
aa(lp6008
g3538
ag4015
aa(lp6009
g3542
ag4017
aa(lp6010
g3540
ag4016
aa(lp6011
g3535
ag4013
aatp6012
Rp6013
ag4196
((lp6014
(lp6015
g3553
ag3554
aa(lp6016
g3538
ag4036
aa(lp6017
g3542
ag4038
aa(lp6018
g3540
ag4037
aa(lp6019
g3535
ag4034
aatp6020
Rp6021
ag4196
((lp6022
(lp6023
g3553
ag3554
aa(lp6024
g3538
ag4057
aa(lp6025
g3542
ag4059
aa(lp6026
g3540
ag4058
aa(lp6027
g3535
ag4055
aatp6028
Rp6029
ag4196
((lp6030
(lp6031
g3553
ag3600
aa(lp6032
g3538
ag4078
aa(lp6033
g3542
ag4080
aa(lp6034
g3540
ag4079
aa(lp6035
g3535
ag4076
aatp6036
Rp6037
ag4196
((lp6038
(lp6039
g3553
ag3600
aa(lp6040
g3538
ag4099
aa(lp6041
g3542
ag4101
aa(lp6042
g3540
ag4100
aa(lp6043
g3535
ag4097
aatp6044
Rp6045
ag4196
((lp6046
(lp6047
g3553
ag3600
aa(lp6048
g3538
ag4120
aa(lp6049
g3542
ag4122
aa(lp6050
g3540
ag4121
aa(lp6051
g3535
ag4118
aatp6052
Rp6053
asg140
Nsg141
g4136
sg145
I28
sg146
I0
sg147
I28
sbasS'savePickle'
p6054
I00
sb.