ccopy_reg
_reconstructor
p0
(cpsychopy.data.experiment
ExperimentHandler
p1
c__builtin__
object
p2
Ntp3
Rp4
(dp5
S'originPath'
p6
VC:\u005cUsers\u005cadmin\u005cDocuments\u005cgit-repos\u005cguillermo\u005cGMM_2018_replication_sheb-pulv2013\u005cexp-scripts_psychopy\u005cpilot\u005csheb_replic_pilot_control.psyexp
p7
sS'dataFileName'
p8
VC:\u005cUsers\u005cadmin\u005cDocuments\u005cgit-repos\u005cguillermo\u005cGMM_2018_replication_sheb-pulv2013\u005cexp-scripts_psychopy\u005cpilot\u005cdata/901_sheb_replic_pilot_control_2018_Jun_08_1450
p9
sS'runtimeInfo'
p10
NsS'name'
p11
S'sheb_replic_pilot_control'
p12
sS'dataNames'
p13
(lp14
S'key_resp_6.keys'
p15
aS'key_resp_6.rt'
p16
aS'key_resp_2.keys'
p17
aS'key_resp_2.rt'
p18
aS'key_resp_8.keys'
p19
aS'key_resp_8.rt'
p20
aS'key_resp_7.keys'
p21
aS'key_resp_7.rt'
p22
aS'key_resp_3.keys'
p23
aS'key_resp_3.rt'
p24
asS'autoLog'
p25
I01
sS'extraInfo'
p26
(dp27
S'date'
p28
V2018_Jun_08_1450
p29
sS'frameRate'
p30
cnumpy.core.multiarray
scalar
p31
(cnumpy
dtype
p32
(S'f8'
p33
I0
I1
tp34
Rp35
(I3
S'<'
p36
NNNI-1
I-1
I0
tp37
bS'\x01\xd39\xee\xe5\x95M@'
p38
tp39
Rp40
sS'expName'
p41
g12
sVsession
p42
V001
p43
sVparticipant
p44
g0
(cfuture.types.newstr
newstr
p45
c__builtin__
unicode
p46
V901
p47
tp48
Rp49
ssS'loopsUnfinished'
p50
(lp51
g0
(cpsychopy.data.trial
TrialHandler
p52
g2
Ntp53
Rp54
(dp55
S'origin'
p56
NsS'thisTrial'
p57
NsS'_exp'
p58
I356610960
sg11
S'training_block'
p59
sg6
I-1
sS'thisRepN'
p60
I0
sg25
I01
sg26
g27
sS'data'
p61
g0
(cpsychopy.data.base
DataHandler
p62
c__builtin__
dict
p63
(dp64
S'ran'
p65
cnumpy.ma.core
_mareconstruct
p66
(cnumpy.ma.core
MaskedArray
p67
cnumpy
ndarray
p68
(I0
tp69
S'b'
p70
tp71
Rp72
(I1
(I1
I5
tp73
g32
(S'f4'
p74
I0
I1
tp75
Rp76
(I3
S'<'
p77
NNNI-1
I-1
I0
tp78
bI00
S'\x00\x00\x80?\x00\x00\x00\x00\x00\x00\x00\x00\x00\x00\x00\x00\x00\x00\x00\x00'
p79
S'\x00\x00\x00\x00\x00'
p80
Ntp81
bsg20
g66
(g67
g68
g69
g70
tp82
Rp83
(I1
(I1
I5
tp84
g76
I00
S'\xc2M&B\x00\x00\x00\x00\x00\x00\x00\x00\x00\x00\x00\x00\x00\x00\x00\x00'
p85
S'\x00\x01\x01\x01\x01'
p86
Ntp87
bsg19
cnumpy.core.multiarray
_reconstruct
p88
(g68
(I0
tp89
g70
tp90
Rp91
(I1
(I1
I5
tp92
g32
(S'O4'
p93
I0
I1
tp94
Rp95
(I3
S'|'
p96
NNNI-1
I-1
I63
tp97
bI00
(lp98
S's'
p99
aS'--'
p100
aS'--'
p101
aS'--'
p102
aS'--'
p103
atp104
bsS'order'
p105
g66
(g67
g68
g69
g70
tp106
Rp107
(I1
(I1
I5
tp108
g76
I00
S'\x00\x00\x00\x00\x00\x00\x00\x00\x00\x00\x00\x00\x00\x00\x00\x00\x00\x00\x00\x00'
p109
S'\x00\x01\x01\x01\x01'
p110
Ntp111
bstp112
Rp113
(dp114
S'isNumeric'
p115
(dp116
g65
I01
sg20
I01
sg19
I00
sg105
I01
ssS'trials'
p117
g54
sS'dataTypes'
p118
(lp119
g65
ag105
ag19
ag20
asS'dataShape'
p120
(lp121
I1
aI5
asbsS'method'
p122
S'random'
p123
sS'sequenceIndices'
p124
g88
(g68
(I0
tp125
g70
tp126
Rp127
(I1
(I1
I5
tp128
g32
(S'i4'
p129
I0
I1
tp130
Rp131
(I3
S'<'
p132
NNNI-1
I-1
I0
tp133
bI00
S'\x00\x00\x00\x00\x00\x00\x00\x00\x00\x00\x00\x00\x00\x00\x00\x00\x00\x00\x00\x00'
p134
tp135
bsS'finished'
p136
I00
sS'nReps'
p137
I5
sS'nRemaining'
p138
I4
sS'trialList'
p139
(lp140
NasS'seed'
p141
NsS'thisIndex'
p142
g31
(g131
S'\x00\x00\x00\x00'
p143
tp144
Rp145
sS'thisN'
p146
I0
sS'thisTrialN'
p147
I0
sS'nTotal'
p148
I5
sbasS'saveWideText'
p149
I00
sS'thisEntry'
p150
(dp151
sS'version'
p152
S''
p153
sS'_paramNamesSoFar'
p154
(lp155
S'item'
p156
aS'type'
p157
aS'word1'
p158
aS'word2'
p159
aS'word3'
p160
aS'word4'
p161
aS'word_duration'
p162
aS'follow_blank'
p163
aS'SOA'
p164
asS'entries'
p165
(lp166
(dp167
g42
g43
sg41
g12
sg44
g49
sg28
g29
sg15
S'space'
p168
sg30
g40
sg16
F4.109320709958411
sa(dp169
S'training_block.thisRepN'
p170
I0
sg18
F8.218147537343611
sS'training_block.thisN'
p171
I0
sS'word_presentation_training.thisTrialN'
p172
I0
sg42
g43
sg161
Vprint
p173
sS'word_presentation_training.thisRepN'
p174
I0
sg44
g49
sg30
g40
sS'training_block.thisTrialN'
p175
I0
sg17
S'space'
p176
sg156
g31
(g32
(S'i8'
p177
I0
I1
tp178
Rp179
(I3
S'<'
p180
NNNI-1
I-1
I0
tp181
bS'\x04\x00\x00\x00\x00\x00\x00\x00'
p182
tp183
Rp184
sg41
g12
sg158
Vsave
p185
sS'word_presentation_training.thisIndex'
p186
g31
(g131
S'\x03\x00\x00\x00'
p187
tp188
Rp189
sg160
Vstay
p190
sg159
Vlook
p191
sg28
g29
sS'word_presentation_training.thisN'
p192
I0
sg157
Vtraining
p193
sS'training_block.thisIndex'
p194
g145
sa(dp195
S'training_block.thisRepN'
p196
I0
sg18
F3.304185437496926
sS'training_block.thisN'
p197
I0
sS'word_presentation_training.thisTrialN'
p198
I1
sg42
g43
sg161
Vsigh
p199
sS'word_presentation_training.thisRepN'
p200
I0
sg44
g49
sg30
g40
sS'training_block.thisTrialN'
p201
I0
sg17
S'space'
p202
sg156
g31
(g179
S'\x01\x00\x00\x00\x00\x00\x00\x00'
p203
tp204
Rp205
sg41
g12
sg158
Vwait
p206
sS'word_presentation_training.thisIndex'
p207
g31
(g131
S'\x00\x00\x00\x00'
p208
tp209
Rp210
sg160
Vblush
p211
sg159
Vbless
p212
sg28
g29
sS'word_presentation_training.thisN'
p213
I1
sg157
g193
sS'training_block.thisIndex'
p214
g145
sa(dp215
S'training_block.thisRepN'
p216
I0
sg18
F5.4844636395755515
sS'training_block.thisN'
p217
I0
sS'word_presentation_training.thisTrialN'
p218
I2
sg42
g43
sg161
Vsoothe
p219
sS'word_presentation_training.thisRepN'
p220
I0
sg44
g49
sg30
g40
sS'training_block.thisTrialN'
p221
I0
sg17
S'space'
p222
sg156
g31
(g179
S'\x03\x00\x00\x00\x00\x00\x00\x00'
p223
tp224
Rp225
sg41
g12
sg158
Vlick
p226
sS'word_presentation_training.thisIndex'
p227
g31
(g131
S'\x02\x00\x00\x00'
p228
tp229
Rp230
sg160
Vchew
p231
sg159
Vruin
p232
sg28
g29
sS'word_presentation_training.thisN'
p233
I2
sg157
g193
sS'training_block.thisIndex'
p234
g145
sa(dp235
S'training_block.thisRepN'
p236
I0
sg18
F5.819774742132722
sS'training_block.thisN'
p237
I0
sS'word_presentation_training.thisTrialN'
p238
I3
sg42
g43
sg161
Vyell
p239
sS'word_presentation_training.thisRepN'
p240
I0
sg44
g49
sg30
g40
sS'training_block.thisTrialN'
p241
I0
sg17
S'space'
p242
sg156
g31
(g179
S'\x02\x00\x00\x00\x00\x00\x00\x00'
p243
tp244
Rp245
sg41
g12
sg158
Vlike
p246
sS'word_presentation_training.thisIndex'
p247
g31
(g131
S'\x01\x00\x00\x00'
p248
tp249
Rp250
sg160
Vstare
p251
sg159
Vthank
p252
sg28
g29
sS'word_presentation_training.thisN'
p253
I3
sg157
g193
sS'training_block.thisIndex'
p254
g145
sa(dp255
S'training_block.thisRepN'
p256
I0
sS'training_block.thisN'
p257
I0
sg42
g43
sg22
F1.4425934603605128
sg30
g40
sS'training_block.thisTrialN'
p258
I0
sg20
F41.57593345781788
sg41
g12
sg19
g99
sg21
S'space'
p259
sg28
g29
sg44
g49
sS'training_block.thisIndex'
p260
g145
sa(dp261
S'training_block.thisRepN'
p262
I0
sg163
g31
(g35
S'\x9a\x99\x99\x99\x99\x99\xd9?'
p263
tp264
Rp265
sg30
g40
sS'word4'
p266
Vcreep
p267
sS'experimental_blocks.thisN'
p268
I0
sg42
g43
sS'word1'
p269
Vskate
p270
sS'word3'
p271
Vdance
p272
sS'word2'
p273
Vslide
p274
sS'experimental_blocks.thisIndex'
p275
g31
(g131
S'\x03\x00\x00\x00'
p276
tp277
Rp278
sS'word_presentation.thisRepN'
p279
I0
sS'experimental_blocks.thisRepN'
p280
I0
sg44
g49
sg162
g31
(g35
S'333333\xd3?'
p281
tp282
Rp283
sS'type'
p284
Vleg
p285
sS'training_block.thisIndex'
p286
g145
sg164
g31
(g35
S'ffffff\xe6?'
p287
tp288
Rp289
sg18
F3.740268340228795
sS'experimental_blocks.thisTrialN'
p290
I0
sS'training_block.thisN'
p291
I0
sS'word_presentation.thisN'
p292
I0
sS'training_block.thisTrialN'
p293
I0
sg17
S'space'
p294
sg28
g29
sS'word_presentation.thisTrialN'
p295
I0
sg41
g12
sS'word_presentation.thisIndex'
p296
g31
(g131
S'\x00\x00\x00\x00'
p297
tp298
Rp299
sa(dp300
S'training_block.thisRepN'
p301
I0
sg163
g265
sg30
g40
sg266
Vstrut
p302
sS'experimental_blocks.thisN'
p303
I0
sg42
g43
sg269
Vrun
p304
sg271
Vhike
p305
sg273
Vjog
p306
sS'experimental_blocks.thisIndex'
p307
g278
sS'word_presentation.thisRepN'
p308
I0
sS'experimental_blocks.thisRepN'
p309
I0
sg44
g49
sg162
g283
sg284
g285
sS'training_block.thisIndex'
p310
g145
sg164
g289
sg18
F4.897272424834227
sS'experimental_blocks.thisTrialN'
p311
I0
sS'training_block.thisN'
p312
I0
sS'word_presentation.thisN'
p313
I1
sS'training_block.thisTrialN'
p314
I0
sg17
S'space'
p315
sg28
g29
sS'word_presentation.thisTrialN'
p316
I1
sg41
g12
sS'word_presentation.thisIndex'
p317
g31
(g131
S'\x01\x00\x00\x00'
p318
tp319
Rp320
sa(dp321
S'training_block.thisRepN'
p322
I0
sg163
g265
sg30
g40
sg266
Vstumble
p323
sS'experimental_blocks.thisN'
p324
I0
sg42
g43
sg269
Vroll
p325
sg271
Vtrudge
p326
sg273
Vsneak
p327
sS'experimental_blocks.thisIndex'
p328
g278
sS'word_presentation.thisRepN'
p329
I0
sS'experimental_blocks.thisRepN'
p330
I0
sg44
g49
sg162
g283
sg284
g285
sS'training_block.thisIndex'
p331
g145
sg164
g289
sg18
F4.7632757611136185
sS'experimental_blocks.thisTrialN'
p332
I0
sS'training_block.thisN'
p333
I0
sS'word_presentation.thisN'
p334
I2
sS'training_block.thisTrialN'
p335
I0
sg17
S'space'
p336
sg28
g29
sS'word_presentation.thisTrialN'
p337
I2
sg41
g12
sS'word_presentation.thisIndex'
p338
g31
(g131
S'\x02\x00\x00\x00'
p339
tp340
Rp341
sa(dp342
S'training_block.thisRepN'
p343
I0
sg163
g265
sg30
g40
sg266
Vclaw
p344
sS'experimental_blocks.thisN'
p345
I0
sg42
g43
sg269
Vtwine
p346
sg271
Vwash
p347
sg273
Vswitch
p348
sS'experimental_blocks.thisIndex'
p349
g278
sS'word_presentation.thisRepN'
p350
I0
sS'experimental_blocks.thisRepN'
p351
I0
sg44
g49
sg162
g283
sg284
Varm
p352
sS'training_block.thisIndex'
p353
g145
sg164
g289
sg18
F4.042806975678104
sS'experimental_blocks.thisTrialN'
p354
I0
sS'training_block.thisN'
p355
I0
sS'word_presentation.thisN'
p356
I3
sS'training_block.thisTrialN'
p357
I0
sg17
S'space'
p358
sg28
g29
sS'word_presentation.thisTrialN'
p359
I3
sg41
g12
sS'word_presentation.thisIndex'
p360
g31
(g131
S'\x03\x00\x00\x00'
p361
tp362
Rp363
sa(dp364
S'training_block.thisRepN'
p365
I0
sg163
g265
sg30
g40
sg266
Vhop
p366
sS'experimental_blocks.thisN'
p367
I0
sg42
g43
sg269
Vmarch
p368
sg271
Vlimp
p369
sg273
Vstroll
p370
sS'experimental_blocks.thisIndex'
p371
g278
sS'word_presentation.thisRepN'
p372
I0
sS'experimental_blocks.thisRepN'
p373
I0
sg44
g49
sg162
g283
sg284
g285
sS'training_block.thisIndex'
p374
g145
sg164
g289
sg18
F6.859717198887665
sS'experimental_blocks.thisTrialN'
p375
I0
sS'training_block.thisN'
p376
I0
sS'word_presentation.thisN'
p377
I4
sS'training_block.thisTrialN'
p378
I0
sg17
S'space'
p379
sg28
g29
sS'word_presentation.thisTrialN'
p380
I4
sg41
g12
sS'word_presentation.thisIndex'
p381
g31
(g131
S'\x04\x00\x00\x00'
p382
tp383
Rp384
sa(dp385
S'training_block.thisRepN'
p386
I0
sg163
g265
sg30
g40
sg266
Vslap
p387
sS'experimental_blocks.thisN'
p388
I0
sg42
g43
sg269
Vpunch
p389
sg271
Vtoss
p390
sg273
Vscratch
p391
sS'experimental_blocks.thisIndex'
p392
g278
sS'word_presentation.thisRepN'
p393
I0
sS'experimental_blocks.thisRepN'
p394
I0
sg44
g49
sg162
g283
sg284
g352
sS'training_block.thisIndex'
p395
g145
sg164
g289
sg18
F4.544629599924519
sS'experimental_blocks.thisTrialN'
p396
I0
sS'training_block.thisN'
p397
I0
sS'word_presentation.thisN'
p398
I5
sS'training_block.thisTrialN'
p399
I0
sg17
S'space'
p400
sg28
g29
sS'word_presentation.thisTrialN'
p401
I5
sg41
g12
sS'word_presentation.thisIndex'
p402
g31
(g131
S'\x05\x00\x00\x00'
p403
tp404
Rp405
sa(dp406
S'training_block.thisRepN'
p407
I0
sg163
g265
sg30
g40
sg266
Vgrasp
p408
sS'experimental_blocks.thisN'
p409
I0
sg42
g43
sg269
Vbrush
p410
sg271
Vhack
p411
sg273
Vwhip
p412
sS'experimental_blocks.thisIndex'
p413
g278
sS'word_presentation.thisRepN'
p414
I0
sS'experimental_blocks.thisRepN'
p415
I0
sg44
g49
sg162
g283
sg284
g352
sS'training_block.thisIndex'
p416
g145
sg164
g289
sg18
F3.5729630504720262
sS'experimental_blocks.thisTrialN'
p417
I0
sS'training_block.thisN'
p418
I0
sS'word_presentation.thisN'
p419
I6
sS'training_block.thisTrialN'
p420
I0
sg17
S'space'
p421
sg28
g29
sS'word_presentation.thisTrialN'
p422
I6
sg41
g12
sS'word_presentation.thisIndex'
p423
g31
(g131
S'\x06\x00\x00\x00'
p424
tp425
Rp426
sa(dp427
S'training_block.thisRepN'
p428
I0
sg163
g265
sg30
g40
sg266
Vscrape
p429
sS'experimental_blocks.thisN'
p430
I0
sg42
g43
sg269
Vdig
p431
sg271
Vscrub
p432
sg273
Vrub
p433
sS'experimental_blocks.thisIndex'
p434
g278
sS'word_presentation.thisRepN'
p435
I0
sS'experimental_blocks.thisRepN'
p436
I0
sg44
g49
sg162
g283
sg284
g352
sS'training_block.thisIndex'
p437
g145
sg164
g289
sg18
F4.86471133946543
sS'experimental_blocks.thisTrialN'
p438
I0
sS'training_block.thisN'
p439
I0
sS'word_presentation.thisN'
p440
I7
sS'training_block.thisTrialN'
p441
I0
sg17
S'space'
p442
sg28
g29
sS'word_presentation.thisTrialN'
p443
I7
sg41
g12
sS'word_presentation.thisIndex'
p444
g31
(g131
S'\x07\x00\x00\x00'
p445
tp446
Rp447
sa(dp448
S'training_block.thisRepN'
p449
I0
sg163
g265
sg30
g40
sg266
Vsway
p450
sS'experimental_blocks.thisN'
p451
I0
sg42
g43
sg269
Vflit
p452
sg271
Vjump
p453
sg273
Vscuff
p454
sS'experimental_blocks.thisIndex'
p455
g278
sS'word_presentation.thisRepN'
p456
I0
sS'experimental_blocks.thisRepN'
p457
I0
sg44
g49
sg162
g283
sg284
g285
sS'training_block.thisIndex'
p458
g145
sg164
g289
sg18
F4.5802322117342555
sS'experimental_blocks.thisTrialN'
p459
I0
sS'training_block.thisN'
p460
I0
sS'word_presentation.thisN'
p461
I8
sS'training_block.thisTrialN'
p462
I0
sg17
S'space'
p463
sg28
g29
sS'word_presentation.thisTrialN'
p464
I8
sg41
g12
sS'word_presentation.thisIndex'
p465
g31
(g131
S'\x08\x00\x00\x00'
p466
tp467
Rp468
sa(dp469
S'training_block.thisRepN'
p470
I0
sg163
g265
sg30
g40
sg266
Vwade
p471
sS'experimental_blocks.thisN'
p472
I0
sg42
g43
sg269
Vplod
p473
sg271
Vkick
p474
sg273
Vglide
p475
sS'experimental_blocks.thisIndex'
p476
g278
sS'word_presentation.thisRepN'
p477
I0
sS'experimental_blocks.thisRepN'
p478
I0
sg44
g49
sg162
g283
sg284
g285
sS'training_block.thisIndex'
p479
g145
sg164
g289
sg18
F4.3941439750669815
sS'experimental_blocks.thisTrialN'
p480
I0
sS'training_block.thisN'
p481
I0
sS'word_presentation.thisN'
p482
I9
sS'training_block.thisTrialN'
p483
I0
sg17
S'space'
p484
sg28
g29
sS'word_presentation.thisTrialN'
p485
I9
sg41
g12
sS'word_presentation.thisIndex'
p486
g31
(g131
S'\t\x00\x00\x00'
p487
tp488
Rp489
sa(dp490
S'training_block.thisRepN'
p491
I0
sg163
g265
sg30
g40
sg266
Vgrab
p492
sS'experimental_blocks.thisN'
p493
I0
sg42
g43
sg269
Vseize
p494
sg271
Vfold
p495
sg273
Vcut
p496
sS'experimental_blocks.thisIndex'
p497
g278
sS'word_presentation.thisRepN'
p498
I0
sS'experimental_blocks.thisRepN'
p499
I0
sg44
g49
sg162
g283
sg284
g352
sS'training_block.thisIndex'
p500
g145
sg164
g289
sg18
F4.008105205681204
sS'experimental_blocks.thisTrialN'
p501
I0
sS'training_block.thisN'
p502
I0
sS'word_presentation.thisN'
p503
I10
sS'training_block.thisTrialN'
p504
I0
sg17
S'space'
p505
sg28
g29
sS'word_presentation.thisTrialN'
p506
I10
sg41
g12
sS'word_presentation.thisIndex'
p507
g31
(g131
S'\n\x00\x00\x00'
p508
tp509
Rp510
sa(dp511
S'training_block.thisRepN'
p512
I0
sg163
g265
sg30
g40
sg266
Vstir
p513
sS'experimental_blocks.thisN'
p514
I0
sg42
g43
sg269
Vclutch
p515
sg271
Vlift
p516
sg273
Vdelve
p517
sS'experimental_blocks.thisIndex'
p518
g278
sS'word_presentation.thisRepN'
p519
I0
sS'experimental_blocks.thisRepN'
p520
I0
sg44
g49
sg162
g283
sg284
g352
sS'training_block.thisIndex'
p521
g145
sg164
g289
sg18
F4.830298392000259
sS'experimental_blocks.thisTrialN'
p522
I0
sS'training_block.thisN'
p523
I0
sS'word_presentation.thisN'
p524
I11
sS'training_block.thisTrialN'
p525
I0
sg17
S'space'
p526
sg28
g29
sS'word_presentation.thisTrialN'
p527
I11
sg41
g12
sS'word_presentation.thisIndex'
p528
g31
(g131
S'\x0b\x00\x00\x00'
p529
tp530
Rp531
sa(dp532
S'training_block.thisRepN'
p533
I0
sg163
g265
sg30
g40
sg266
Vroam
p534
sS'experimental_blocks.thisN'
p535
I0
sg42
g43
sg269
Vstep
p536
sg271
Vclimb
p537
sg273
Vtread
p538
sS'experimental_blocks.thisIndex'
p539
g278
sS'word_presentation.thisRepN'
p540
I0
sS'experimental_blocks.thisRepN'
p541
I0
sg44
g49
sg162
g283
sg284
g285
sS'training_block.thisIndex'
p542
g145
sg164
g289
sg18
F6.440302240331221
sS'experimental_blocks.thisTrialN'
p543
I0
sS'training_block.thisN'
p544
I0
sS'word_presentation.thisN'
p545
I12
sS'training_block.thisTrialN'
p546
I0
sg17
S'space'
p547
sg28
g29
sS'word_presentation.thisTrialN'
p548
I12
sg41
g12
sS'word_presentation.thisIndex'
p549
g31
(g131
S'\x0c\x00\x00\x00'
p550
tp551
Rp552
sa(dp553
S'training_block.thisRepN'
p554
I0
sg163
g265
sg30
g40
sg266
Vbounce
p555
sS'experimental_blocks.thisN'
p556
I0
sg42
g43
sg269
Vleap
p557
sg271
Vtrip
p558
sg273
Vpace
p559
sS'experimental_blocks.thisIndex'
p560
g278
sS'word_presentation.thisRepN'
p561
I0
sS'experimental_blocks.thisRepN'
p562
I0
sg44
g49
sg162
g283
sg284
g285
sS'training_block.thisIndex'
p563
g145
sg164
g289
sg18
F13.183106766351557
sS'experimental_blocks.thisTrialN'
p564
I0
sS'training_block.thisN'
p565
I0
sS'word_presentation.thisN'
p566
I13
sS'training_block.thisTrialN'
p567
I0
sg17
S'space'
p568
sg28
g29
sS'word_presentation.thisTrialN'
p569
I13
sg41
g12
sS'word_presentation.thisIndex'
p570
g31
(g131
S'\r\x00\x00\x00'
p571
tp572
Rp573
sa(dp574
S'training_block.thisRepN'
p575
I0
sg163
g265
sg30
g40
sg266
Vskim
p576
sS'experimental_blocks.thisN'
p577
I0
sg42
g43
sg269
Vpinch
p578
sg271
Vpull
p579
sg273
Vclick
p580
sS'experimental_blocks.thisIndex'
p581
g278
sS'word_presentation.thisRepN'
p582
I0
sS'experimental_blocks.thisRepN'
p583
I0
sg44
g49
sg162
g283
sg284
g352
sS'training_block.thisIndex'
p584
g145
sg164
g289
sg18
F4.31046209233682
sS'experimental_blocks.thisTrialN'
p585
I0
sS'training_block.thisN'
p586
I0
sS'word_presentation.thisN'
p587
I14
sS'training_block.thisTrialN'
p588
I0
sg17
S'space'
p589
sg28
g29
sS'word_presentation.thisTrialN'
p590
I14
sg41
g12
sS'word_presentation.thisIndex'
p591
g31
(g131
S'\x0e\x00\x00\x00'
p592
tp593
Rp594
sa(dp595
S'training_block.thisRepN'
p596
I0
sg163
g265
sg30
g40
sg266
Vbraid
p597
sS'experimental_blocks.thisN'
p598
I0
sg42
g43
sg269
Vbash
p599
sg271
Vscoop
p600
sg273
Vsnatch
p601
sS'experimental_blocks.thisIndex'
p602
g278
sS'word_presentation.thisRepN'
p603
I0
sS'experimental_blocks.thisRepN'
p604
I0
sg44
g49
sg162
g283
sg284
g352
sS'training_block.thisIndex'
p605
g145
sg164
g289
sg18
F4.579553419527656
sS'experimental_blocks.thisTrialN'
p606
I0
sS'training_block.thisN'
p607
I0
sS'word_presentation.thisN'
p608
I15
sS'training_block.thisTrialN'
p609
I0
sg17
S'space'
p610
sg28
g29
sS'word_presentation.thisTrialN'
p611
I15
sg41
g12
sS'word_presentation.thisIndex'
p612
g31
(g131
S'\x0f\x00\x00\x00'
p613
tp614
Rp615
sa(dp616
S'training_block.thisRepN'
p617
I0
sg163
g265
sg30
g40
sg266
Vchop
p618
sS'experimental_blocks.thisN'
p619
I0
sg42
g43
sg269
Vstab
p620
sg271
Vclap
p621
sg273
Vsqueeze
p622
sS'experimental_blocks.thisIndex'
p623
g278
sS'word_presentation.thisRepN'
p624
I0
sS'experimental_blocks.thisRepN'
p625
I0
sg44
g49
sg162
g283
sg284
g352
sS'training_block.thisIndex'
p626
g145
sg164
g289
sg18
F4.494850977847818
sS'experimental_blocks.thisTrialN'
p627
I0
sS'training_block.thisN'
p628
I0
sS'word_presentation.thisN'
p629
I16
sS'training_block.thisTrialN'
p630
I0
sg17
S'space'
p631
sg28
g29
sS'word_presentation.thisTrialN'
p632
I16
sg41
g12
sS'word_presentation.thisIndex'
p633
g31
(g131
S'\x10\x00\x00\x00'
p634
tp635
Rp636
sa(dp637
S'training_block.thisRepN'
p638
I0
sg163
g265
sg30
g40
sg266
Vwander
p639
sS'experimental_blocks.thisN'
p640
I0
sg42
g43
sg269
Vmount
p641
sg271
Vprance
p642
sg273
Vwalk
p643
sS'experimental_blocks.thisIndex'
p644
g278
sS'word_presentation.thisRepN'
p645
I0
sS'experimental_blocks.thisRepN'
p646
I0
sg44
g49
sg162
g283
sg284
g285
sS'training_block.thisIndex'
p647
g145
sg164
g289
sg18
F5.450751215146738
sS'experimental_blocks.thisTrialN'
p648
I0
sS'training_block.thisN'
p649
I0
sS'word_presentation.thisN'
p650
I17
sS'training_block.thisTrialN'
p651
I0
sg17
S'space'
p652
sg28
g29
sS'word_presentation.thisTrialN'
p653
I17
sg41
g12
sS'word_presentation.thisIndex'
p654
g31
(g131
S'\x11\x00\x00\x00'
p655
tp656
Rp657
sa(dp658
S'training_block.thisRepN'
p659
I0
sg163
g265
sg30
g40
sg266
Vcatch
p660
sS'experimental_blocks.thisN'
p661
I0
sg42
g43
sg269
Vfile
p662
sg271
Vgrate
p663
sg273
Vnip
p664
sS'experimental_blocks.thisIndex'
p665
g278
sS'word_presentation.thisRepN'
p666
I0
sS'experimental_blocks.thisRepN'
p667
I0
sg44
g49
sg162
g283
sg284
g352
sS'training_block.thisIndex'
p668
g145
sg164
g289
sg18
F5.618806811311515
sS'experimental_blocks.thisTrialN'
p669
I0
sS'training_block.thisN'
p670
I0
sS'word_presentation.thisN'
p671
I18
sS'training_block.thisTrialN'
p672
I0
sg17
S'space'
p673
sg28
g29
sS'word_presentation.thisTrialN'
p674
I18
sg41
g12
sS'word_presentation.thisIndex'
p675
g31
(g131
S'\x12\x00\x00\x00'
p676
tp677
Rp678
sa(dp679
S'training_block.thisRepN'
p680
I0
sg163
g265
sg30
g40
sg266
Vsprint
p681
sS'experimental_blocks.thisN'
p682
I0
sg42
g43
sg269
Vstray
p683
sg271
Vtrek
p684
sg273
Vslither
p685
sS'experimental_blocks.thisIndex'
p686
g278
sS'word_presentation.thisRepN'
p687
I0
sS'experimental_blocks.thisRepN'
p688
I0
sg44
g49
sg162
g283
sg284
g285
sS'training_block.thisIndex'
p689
g145
sg164
g289
sg18
F5.652137958390085
sS'experimental_blocks.thisTrialN'
p690
I0
sS'training_block.thisN'
p691
I0
sS'word_presentation.thisN'
p692
I19
sS'training_block.thisTrialN'
p693
I0
sg17
S'space'
p694
sg28
g29
sS'word_presentation.thisTrialN'
p695
I19
sg41
g12
sS'word_presentation.thisIndex'
p696
g31
(g131
S'\x13\x00\x00\x00'
p697
tp698
Rp699
sa(dp700
S'training_block.thisRepN'
p701
I0
sg163
g265
sg30
g40
sg266
Vpush
p702
sS'experimental_blocks.thisN'
p703
I0
sg42
g43
sg269
Vgrip
p704
sg271
Vthrow
p705
sg273
Vpoke
p706
sS'experimental_blocks.thisIndex'
p707
g278
sS'word_presentation.thisRepN'
p708
I0
sS'experimental_blocks.thisRepN'
p709
I0
sg44
g49
sg162
g283
sg284
g352
sS'training_block.thisIndex'
p710
g145
sg164
g289
sg18
F5.803559589501674
sS'experimental_blocks.thisTrialN'
p711
I0
sS'training_block.thisN'
p712
I0
sS'word_presentation.thisN'
p713
I20
sS'training_block.thisTrialN'
p714
I0
sg17
S'space'
p715
sg28
g29
sS'word_presentation.thisTrialN'
p716
I20
sg41
g12
sS'word_presentation.thisIndex'
p717
g31
(g131
S'\x14\x00\x00\x00'
p718
tp719
Rp720
sa(dp721
S'training_block.thisRepN'
p722
I0
sg163
g265
sg30
g40
sg266
Vslip
p723
sS'experimental_blocks.thisN'
p724
I0
sg42
g43
sg269
Vtrot
p725
sg271
Vcrawl
p726
sg273
Vtraipse
p727
sS'experimental_blocks.thisIndex'
p728
g278
sS'word_presentation.thisRepN'
p729
I0
sS'experimental_blocks.thisRepN'
p730
I0
sg44
g49
sg162
g283
sg284
g285
sS'training_block.thisIndex'
p731
g145
sg164
g289
sg18
F4.360751191441523
sS'experimental_blocks.thisTrialN'
p732
I0
sS'training_block.thisN'
p733
I0
sS'word_presentation.thisN'
p734
I21
sS'training_block.thisTrialN'
p735
I0
sg17
S'space'
p736
sg28
g29
sS'word_presentation.thisTrialN'
p737
I21
sg41
g12
sS'word_presentation.thisIndex'
p738
g31
(g131
S'\x15\x00\x00\x00'
p739
tp740
Rp741
sa(dp742
S'training_block.thisRepN'
p743
I0
sg163
g265
sg30
g40
sg266
Vstamp
p744
sS'experimental_blocks.thisN'
p745
I0
sg42
g43
sg269
Vstagger
p746
sg271
Vinch
p747
sg273
Vflee
p748
sS'experimental_blocks.thisIndex'
p749
g278
sS'word_presentation.thisRepN'
p750
I0
sS'experimental_blocks.thisRepN'
p751
I0
sg44
g49
sg162
g283
sg284
g285
sS'training_block.thisIndex'
p752
g145
sg164
g289
sg18
F4.630332055032341
sS'experimental_blocks.thisTrialN'
p753
I0
sS'training_block.thisN'
p754
I0
sS'word_presentation.thisN'
p755
I22
sS'training_block.thisTrialN'
p756
I0
sg17
S'space'
p757
sg28
g29
sS'word_presentation.thisTrialN'
p758
I22
sg41
g12
sS'word_presentation.thisIndex'
p759
g31
(g131
S'\x16\x00\x00\x00'
p760
tp761
Rp762
sa(dp763
S'training_block.thisRepN'
p764
I0
sg163
g265
sg30
g40
sg266
Vramble
p765
sS'experimental_blocks.thisN'
p766
I0
sg42
g43
sg269
Vwobble
p767
sg271
Vstomp
p768
sg273
Vrush
p769
sS'experimental_blocks.thisIndex'
p770
g278
sS'word_presentation.thisRepN'
p771
I0
sS'experimental_blocks.thisRepN'
p772
I0
sg44
g49
sg162
g283
sg284
g285
sS'training_block.thisIndex'
p773
g145
sg164
g289
sg18
F4.293685098891729
sS'experimental_blocks.thisTrialN'
p774
I0
sS'training_block.thisN'
p775
I0
sS'word_presentation.thisN'
p776
I23
sS'training_block.thisTrialN'
p777
I0
sg17
S'space'
p778
sg28
g29
sS'word_presentation.thisTrialN'
p779
I23
sg41
g12
sS'word_presentation.thisIndex'
p780
g31
(g131
S'\x17\x00\x00\x00'
p781
tp782
Rp783
sa(dp784
S'training_block.thisRepN'
p785
I0
sg163
g265
sg30
g40
sg266
Vpeel
p786
sS'experimental_blocks.thisN'
p787
I0
sg42
g43
sg269
Vwrap
p788
sg271
Vdunk
p789
sg273
Vclean
p790
sS'experimental_blocks.thisIndex'
p791
g278
sS'word_presentation.thisRepN'
p792
I0
sS'experimental_blocks.thisRepN'
p793
I0
sg44
g49
sg162
g283
sg284
g352
sS'training_block.thisIndex'
p794
g145
sg164
g289
sg18
F4.7799010338349035
sS'experimental_blocks.thisTrialN'
p795
I0
sS'training_block.thisN'
p796
I0
sS'word_presentation.thisN'
p797
I24
sS'training_block.thisTrialN'
p798
I0
sg17
S'space'
p799
sg28
g29
sS'word_presentation.thisTrialN'
p800
I24
sg41
g12
sS'word_presentation.thisIndex'
p801
g31
(g131
S'\x18\x00\x00\x00'
p802
tp803
Rp804
sa(dp805
S'training_block.thisRepN'
p806
I0
sg163
g265
sg30
g40
sg266
Vskip
p807
sS'experimental_blocks.thisN'
p808
I0
sg42
g43
sg269
Vkneel
p809
sg271
Vstride
p810
sg273
Vtiptoe
p811
sS'experimental_blocks.thisIndex'
p812
g278
sS'word_presentation.thisRepN'
p813
I0
sS'experimental_blocks.thisRepN'
p814
I0
sg44
g49
sg162
g283
sg284
g285
sS'training_block.thisIndex'
p815
g145
sg164
g289
sg18
F4.427805825918767
sS'experimental_blocks.thisTrialN'
p816
I0
sS'training_block.thisN'
p817
I0
sS'word_presentation.thisN'
p818
I25
sS'training_block.thisTrialN'
p819
I0
sg17
S'space'
p820
sg28
g29
sS'word_presentation.thisTrialN'
p821
I25
sg41
g12
sS'word_presentation.thisIndex'
p822
g31
(g131
S'\x19\x00\x00\x00'
p823
tp824
Rp825
sa(dp826
S'training_block.thisRepN'
p827
I0
sg163
g265
sg30
g40
sg266
Vtug
p828
sS'experimental_blocks.thisN'
p829
I0
sg42
g43
sg269
Vbind
p830
sg271
Vpolish
p831
sg273
Vcarve
p832
sS'experimental_blocks.thisIndex'
p833
g278
sS'word_presentation.thisRepN'
p834
I0
sS'experimental_blocks.thisRepN'
p835
I0
sg44
g49
sg162
g283
sg284
g352
sS'training_block.thisIndex'
p836
g145
sg164
g289
sg18
F5.870074113994633
sS'experimental_blocks.thisTrialN'
p837
I0
sS'training_block.thisN'
p838
I0
sS'word_presentation.thisN'
p839
I26
sS'training_block.thisTrialN'
p840
I0
sg17
S'space'
p841
sg28
g29
sS'word_presentation.thisTrialN'
p842
I26
sg41
g12
sS'word_presentation.thisIndex'
p843
g31
(g131
S'\x1a\x00\x00\x00'
p844
tp845
Rp846
sa(dp847
S'training_block.thisRepN'
p848
I0
sg163
g265
sg30
g40
sg266
Vpat
p849
sS'experimental_blocks.thisN'
p850
I0
sg42
g43
sg269
Vknock
p851
sg271
Vshake
p852
sg273
Vwipe
p853
sS'experimental_blocks.thisIndex'
p854
g278
sS'word_presentation.thisRepN'
p855
I0
sS'experimental_blocks.thisRepN'
p856
I0
sg44
g49
sg162
g283
sg284
g352
sS'training_block.thisIndex'
p857
g145
sg164
g289
sg18
F4.209814355468552
sS'experimental_blocks.thisTrialN'
p858
I0
sS'training_block.thisN'
p859
I0
sS'word_presentation.thisN'
p860
I27
sS'training_block.thisTrialN'
p861
I0
sg17
S'space'
p862
sg28
g29
sS'word_presentation.thisTrialN'
p863
I27
sg41
g12
sS'word_presentation.thisIndex'
p864
g31
(g131
S'\x1b\x00\x00\x00'
p865
tp866
Rp867
sa(dp868
S'training_block.thisRepN'
p869
I0
sg163
g265
sS'experimental_blocks.thisRepN'
p870
I0
sS'experimental_blocks.thisTrialN'
p871
I0
sS'training_block.thisN'
p872
I0
sg42
g43
sg41
g12
sg30
g40
sS'training_block.thisTrialN'
p873
I0
sg44
g49
sS'experimental_blocks.thisN'
p874
I0
sg164
g289
sg28
g29
sS'experimental_blocks.thisIndex'
p875
g278
sg162
g283
sS'training_block.thisIndex'
p876
g145
sa(dp877
S'training_block.thisRepN'
p878
I0
sg163
g31
(g35
S'\x9a\x99\x99\x99\x99\x99\xd9?'
p879
tp880
Rp881
sg30
g40
sS'word4'
p882
Vslither
p883
sS'experimental_blocks.thisN'
p884
I1
sg42
g43
sS'word1'
p885
Vleap
p886
sS'word3'
p887
Vkneel
p888
sS'word2'
p889
Vwade
p890
sS'experimental_blocks.thisIndex'
p891
g31
(g131
S'\x02\x00\x00\x00'
p892
tp893
Rp894
sS'word_presentation.thisRepN'
p895
I0
sS'experimental_blocks.thisRepN'
p896
I0
sg44
g49
sg162
g31
(g35
S'\x00\x00\x00\x00\x00\x00\xd0?'
p897
tp898
Rp899
sS'type'
p900
Vleg
p901
sS'training_block.thisIndex'
p902
g145
sg164
g31
(g35
S'\xcd\xcc\xcc\xcc\xcc\xcc\xe4?'
p903
tp904
Rp905
sg18
F4.176571317038906
sS'experimental_blocks.thisTrialN'
p906
I1
sS'training_block.thisN'
p907
I0
sS'word_presentation.thisN'
p908
I0
sS'training_block.thisTrialN'
p909
I0
sg17
S'space'
p910
sg28
g29
sS'word_presentation.thisTrialN'
p911
I0
sg41
g12
sS'word_presentation.thisIndex'
p912
g31
(g131
S'\x00\x00\x00\x00'
p913
tp914
Rp915
sa(dp916
S'training_block.thisRepN'
p917
I0
sg163
g881
sg30
g40
sg882
Vpoke
p918
sS'experimental_blocks.thisN'
p919
I1
sg42
g43
sg885
Vclaw
p920
sg887
Vcarve
p921
sg889
Vsqueeze
p922
sS'experimental_blocks.thisIndex'
p923
g894
sS'word_presentation.thisRepN'
p924
I0
sS'experimental_blocks.thisRepN'
p925
I0
sg44
g49
sg162
g899
sg900
Varm
p926
sS'training_block.thisIndex'
p927
g145
sg164
g905
sg18
F6.03694834304406
sS'experimental_blocks.thisTrialN'
p928
I1
sS'training_block.thisN'
p929
I0
sS'word_presentation.thisN'
p930
I1
sS'training_block.thisTrialN'
p931
I0
sg17
S'space'
p932
sg28
g29
sS'word_presentation.thisTrialN'
p933
I1
sg41
g12
sS'word_presentation.thisIndex'
p934
g31
(g131
S'\x01\x00\x00\x00'
p935
tp936
Rp937
sa(dp938
S'training_block.thisRepN'
p939
I0
sg163
g881
sg30
g40
sg882
Vfile
p940
sS'experimental_blocks.thisN'
p941
I1
sg42
g43
sg885
Vdunk
p942
sg887
Vgrate
p943
sg889
Vhack
p944
sS'experimental_blocks.thisIndex'
p945
g894
sS'word_presentation.thisRepN'
p946
I0
sS'experimental_blocks.thisRepN'
p947
I0
sg44
g49
sg162
g899
sg900
g926
sS'training_block.thisIndex'
p948
g145
sg164
g905
sg18
F4.243401531271957
sS'experimental_blocks.thisTrialN'
p949
I1
sS'training_block.thisN'
p950
I0
sS'word_presentation.thisN'
p951
I2
sS'training_block.thisTrialN'
p952
I0
sg17
S'space'
p953
sg28
g29
sS'word_presentation.thisTrialN'
p954
I2
sg41
g12
sS'word_presentation.thisIndex'
p955
g31
(g131
S'\x02\x00\x00\x00'
p956
tp957
Rp958
sa(dp959
S'training_block.thisRepN'
p960
I0
sg163
g881
sg30
g40
sg882
Vfold
p961
sS'experimental_blocks.thisN'
p962
I1
sg42
g43
sg885
Vskim
p963
sg887
Vpat
p964
sg889
Vseize
p965
sS'experimental_blocks.thisIndex'
p966
g894
sS'word_presentation.thisRepN'
p967
I0
sS'experimental_blocks.thisRepN'
p968
I0
sg44
g49
sg162
g899
sg900
g926
sS'training_block.thisIndex'
p969
g145
sg164
g905
sg18
F4.3606231770791055
sS'experimental_blocks.thisTrialN'
p970
I1
sS'training_block.thisN'
p971
I0
sS'word_presentation.thisN'
p972
I3
sS'training_block.thisTrialN'
p973
I0
sg17
S'space'
p974
sg28
g29
sS'word_presentation.thisTrialN'
p975
I3
sg41
g12
sS'word_presentation.thisIndex'
p976
g31
(g131
S'\x03\x00\x00\x00'
p977
tp978
Rp979
sa(dp980
S'training_block.thisRepN'
p981
I0
sg163
g881
sg30
g40
sg882
Vcreep
p982
sS'experimental_blocks.thisN'
p983
I1
sg42
g43
sg885
Vtrudge
p984
sg887
Vscuff
p985
sg889
Vslide
p986
sS'experimental_blocks.thisIndex'
p987
g894
sS'word_presentation.thisRepN'
p988
I0
sS'experimental_blocks.thisRepN'
p989
I0
sg44
g49
sg162
g899
sg900
g901
sS'training_block.thisIndex'
p990
g145
sg164
g905
sg18
F7.12799934886425
sS'experimental_blocks.thisTrialN'
p991
I1
sS'training_block.thisN'
p992
I0
sS'word_presentation.thisN'
p993
I4
sS'training_block.thisTrialN'
p994
I0
sg17
S'space'
p995
sg28
g29
sS'word_presentation.thisTrialN'
p996
I4
sg41
g12
sS'word_presentation.thisIndex'
p997
g31
(g131
S'\x04\x00\x00\x00'
p998
tp999
Rp1000
sa(dp1001
S'training_block.thisRepN'
p1002
I0
sg163
g881
sg30
g40
sg882
Vrub
p1003
sS'experimental_blocks.thisN'
p1004
I1
sg42
g43
sg885
Vshake
p1005
sg887
Vslap
p1006
sg889
Vscratch
p1007
sS'experimental_blocks.thisIndex'
p1008
g894
sS'word_presentation.thisRepN'
p1009
I0
sS'experimental_blocks.thisRepN'
p1010
I0
sg44
g49
sg162
g899
sg900
g926
sS'training_block.thisIndex'
p1011
g145
sg164
g905
sg18
F8.72170112123058
sS'experimental_blocks.thisTrialN'
p1012
I1
sS'training_block.thisN'
p1013
I0
sS'word_presentation.thisN'
p1014
I5
sS'training_block.thisTrialN'
p1015
I0
sg17
S'space'
p1016
sg28
g29
sS'word_presentation.thisTrialN'
p1017
I5
sg41
g12
sS'word_presentation.thisIndex'
p1018
g31
(g131
S'\x05\x00\x00\x00'
p1019
tp1020
Rp1021
sa(dp1022
S'training_block.thisRepN'
p1023
I0
sg163
g881
sg30
g40
sg882
Vclutch
p1024
sS'experimental_blocks.thisN'
p1025
I1
sg42
g43
sg885
Vpush
p1026
sg887
Vdelve
p1027
sg889
Vcatch
p1028
sS'experimental_blocks.thisIndex'
p1029
g894
sS'word_presentation.thisRepN'
p1030
I0
sS'experimental_blocks.thisRepN'
p1031
I0
sg44
g49
sg162
g899
sg900
g926
sS'training_block.thisIndex'
p1032
g145
sg164
g905
sg18
F4.7630809738257085
sS'experimental_blocks.thisTrialN'
p1033
I1
sS'training_block.thisN'
p1034
I0
sS'word_presentation.thisN'
p1035
I6
sS'training_block.thisTrialN'
p1036
I0
sg17
S'space'
p1037
sg28
g29
sS'word_presentation.thisTrialN'
p1038
I6
sg41
g12
sS'word_presentation.thisIndex'
p1039
g31
(g131
S'\x06\x00\x00\x00'
p1040
tp1041
Rp1042
sa(dp1043
S'training_block.thisRepN'
p1044
I0
sg163
g881
sg30
g40
sg882
Vknock
p1045
sS'experimental_blocks.thisN'
p1046
I1
sg42
g43
sg885
Vgrasp
p1047
sg887
Vchop
p1048
sg889
Vwipe
p1049
sS'experimental_blocks.thisIndex'
p1050
g894
sS'word_presentation.thisRepN'
p1051
I0
sS'experimental_blocks.thisRepN'
p1052
I0
sg44
g49
sg162
g899
sg900
g926
sS'training_block.thisIndex'
p1053
g145
sg164
g905
sg18
F4.562147812335752
sS'experimental_blocks.thisTrialN'
p1054
I1
sS'training_block.thisN'
p1055
I0
sS'word_presentation.thisN'
p1056
I7
sS'training_block.thisTrialN'
p1057
I0
sg17
S'space'
p1058
sg28
g29
sS'word_presentation.thisTrialN'
p1059
I7
sg41
g12
sS'word_presentation.thisIndex'
p1060
g31
(g131
S'\x07\x00\x00\x00'
p1061
tp1062
Rp1063
sa(dp1064
S'training_block.thisRepN'
p1065
I0
sg163
g881
sg30
g40
sg882
Vhop
p1066
sS'experimental_blocks.thisN'
p1067
I1
sg42
g43
sg885
Vstrut
p1068
sg887
Vstride
p1069
sg889
Vroam
p1070
sS'experimental_blocks.thisIndex'
p1071
g894
sS'word_presentation.thisRepN'
p1072
I0
sS'experimental_blocks.thisRepN'
p1073
I0
sg44
g49
sg162
g899
sg900
g901
sS'training_block.thisIndex'
p1074
g145
sg164
g905
sg18
F9.878378058019734
sS'experimental_blocks.thisTrialN'
p1075
I1
sS'training_block.thisN'
p1076
I0
sS'word_presentation.thisN'
p1077
I8
sS'training_block.thisTrialN'
p1078
I0
sg17
S'space'
p1079
sg28
g29
sS'word_presentation.thisTrialN'
p1080
I8
sg41
g12
sS'word_presentation.thisIndex'
p1081
g31
(g131
S'\x08\x00\x00\x00'
p1082
tp1083
Rp1084
sa(dp1085
S'training_block.thisRepN'
p1086
I0
sg163
g881
sg30
g40
sg882
Vstagger
p1087
sS'experimental_blocks.thisN'
p1088
I1
sg42
g43
sg885
Vtrip
p1089
sg887
Vlimp
p1090
sg889
Vrush
p1091
sS'experimental_blocks.thisIndex'
p1092
g894
sS'word_presentation.thisRepN'
p1093
I0
sS'experimental_blocks.thisRepN'
p1094
I0
sg44
g49
sg162
g899
sg900
g901
sS'training_block.thisIndex'
p1095
g145
sg164
g905
sg18
F4.109168989234604
sS'experimental_blocks.thisTrialN'
p1096
I1
sS'training_block.thisN'
p1097
I0
sS'word_presentation.thisN'
p1098
I9
sS'training_block.thisTrialN'
p1099
I0
sg17
S'space'
p1100
sg28
g29
sS'word_presentation.thisTrialN'
p1101
I9
sg41
g12
sS'word_presentation.thisIndex'
p1102
g31
(g131
S'\t\x00\x00\x00'
p1103
tp1104
Rp1105
sa(dp1106
S'training_block.thisRepN'
p1107
I0
sg163
g881
sg30
g40
sg882
Vpull
p1108
sS'experimental_blocks.thisN'
p1109
I1
sg42
g43
sg885
Vthrow
p1110
sg887
Vwhip
p1111
sg889
Vclick
p1112
sS'experimental_blocks.thisIndex'
p1113
g894
sS'word_presentation.thisRepN'
p1114
I0
sS'experimental_blocks.thisRepN'
p1115
I0
sg44
g49
sg162
g899
sg900
g926
sS'training_block.thisIndex'
p1116
g145
sg164
g905
sg18
F4.042074844150193
sS'experimental_blocks.thisTrialN'
p1117
I1
sS'training_block.thisN'
p1118
I0
sS'word_presentation.thisN'
p1119
I10
sS'training_block.thisTrialN'
p1120
I0
sg17
S'space'
p1121
sg28
g29
sS'word_presentation.thisTrialN'
p1122
I10
sg41
g12
sS'word_presentation.thisIndex'
p1123
g31
(g131
S'\n\x00\x00\x00'
p1124
tp1125
Rp1126
sa(dp1127
S'training_block.thisRepN'
p1128
I0
sg163
g881
sg30
g40
sg882
Vpinch
p1129
sS'experimental_blocks.thisN'
p1130
I1
sg42
g43
sg885
Vnip
p1131
sg887
Vscoop
p1132
sg889
Vpolish
p1133
sS'experimental_blocks.thisIndex'
p1134
g894
sS'word_presentation.thisRepN'
p1135
I0
sS'experimental_blocks.thisRepN'
p1136
I0
sg44
g49
sg162
g899
sg900
g926
sS'training_block.thisIndex'
p1137
g145
sg164
g905
sg18
F4.410983790377941
sS'experimental_blocks.thisTrialN'
p1138
I1
sS'training_block.thisN'
p1139
I0
sS'word_presentation.thisN'
p1140
I11
sS'training_block.thisTrialN'
p1141
I0
sg17
S'space'
p1142
sg28
g29
sS'word_presentation.thisTrialN'
p1143
I11
sg41
g12
sS'word_presentation.thisIndex'
p1144
g31
(g131
S'\x0b\x00\x00\x00'
p1145
tp1146
Rp1147
sa(dp1148
S'training_block.thisRepN'
p1149
I0
sg163
g881
sg30
g40
sg882
Vhike
p1150
sS'experimental_blocks.thisN'
p1151
I1
sg42
g43
sg885
Vdance
p1152
sg887
Vtrot
p1153
sg889
Vramble
p1154
sS'experimental_blocks.thisIndex'
p1155
g894
sS'word_presentation.thisRepN'
p1156
I0
sS'experimental_blocks.thisRepN'
p1157
I0
sg44
g49
sg162
g899
sg900
g901
sS'training_block.thisIndex'
p1158
g145
sg164
g905
sg18
F4.360745264853904
sS'experimental_blocks.thisTrialN'
p1159
I1
sS'training_block.thisN'
p1160
I0
sS'word_presentation.thisN'
p1161
I12
sS'training_block.thisTrialN'
p1162
I0
sg17
S'space'
p1163
sg28
g29
sS'word_presentation.thisTrialN'
p1164
I12
sg41
g12
sS'word_presentation.thisIndex'
p1165
g31
(g131
S'\x0c\x00\x00\x00'
p1166
tp1167
Rp1168
sa(dp1169
S'training_block.thisRepN'
p1170
I0
sg163
g881
sg30
g40
sg882
Vbind
p1171
sS'experimental_blocks.thisN'
p1172
I1
sg42
g43
sg885
Vscrape
p1173
sg887
Vsnatch
p1174
sg889
Vwash
p1175
sS'experimental_blocks.thisIndex'
p1176
g894
sS'word_presentation.thisRepN'
p1177
I0
sS'experimental_blocks.thisRepN'
p1178
I0
sg44
g49
sg162
g899
sg900
g926
sS'training_block.thisIndex'
p1179
g145
sg164
g905
sg18
F4.343954442691029
sS'experimental_blocks.thisTrialN'
p1180
I1
sS'training_block.thisN'
p1181
I0
sS'word_presentation.thisN'
p1182
I13
sS'training_block.thisTrialN'
p1183
I0
sg17
S'space'
p1184
sg28
g29
sS'word_presentation.thisTrialN'
p1185
I13
sg41
g12
sS'word_presentation.thisIndex'
p1186
g31
(g131
S'\r\x00\x00\x00'
p1187
tp1188
Rp1189
sa(dp1190
S'training_block.thisRepN'
p1191
I0
sg163
g881
sg30
g40
sg882
Vgrab
p1192
sS'experimental_blocks.thisN'
p1193
I1
sg42
g43
sg885
Vpunch
p1194
sg887
Vclean
p1195
sg889
Vwrap
p1196
sS'experimental_blocks.thisIndex'
p1197
g894
sS'word_presentation.thisRepN'
p1198
I0
sS'experimental_blocks.thisRepN'
p1199
I0
sg44
g49
sg162
g899
sg900
g926
sS'training_block.thisIndex'
p1200
g145
sg164
g905
sg18
F4.813382321215613
sS'experimental_blocks.thisTrialN'
p1201
I1
sS'training_block.thisN'
p1202
I0
sS'word_presentation.thisN'
p1203
I14
sS'training_block.thisTrialN'
p1204
I0
sg17
S'space'
p1205
sg28
g29
sS'word_presentation.thisTrialN'
p1206
I14
sg41
g12
sS'word_presentation.thisIndex'
p1207
g31
(g131
S'\x0e\x00\x00\x00'
p1208
tp1209
Rp1210
sa(dp1211
S'training_block.thisRepN'
p1212
I0
sg163
g881
sg30
g40
sg882
Vswitch
p1213
sS'experimental_blocks.thisN'
p1214
I1
sg42
g43
sg885
Vclap
p1215
sg887
Vscrub
p1216
sg889
Vbash
p1217
sS'experimental_blocks.thisIndex'
p1218
g894
sS'word_presentation.thisRepN'
p1219
I0
sS'experimental_blocks.thisRepN'
p1220
I0
sg44
g49
sg162
g899
sg900
g926
sS'training_block.thisIndex'
p1221
g145
sg164
g905
sg18
F4.797075108868739
sS'experimental_blocks.thisTrialN'
p1222
I1
sS'training_block.thisN'
p1223
I0
sS'word_presentation.thisN'
p1224
I15
sS'training_block.thisTrialN'
p1225
I0
sg17
S'space'
p1226
sg28
g29
sS'word_presentation.thisTrialN'
p1227
I15
sg41
g12
sS'word_presentation.thisIndex'
p1228
g31
(g131
S'\x0f\x00\x00\x00'
p1229
tp1230
Rp1231
sa(dp1232
S'training_block.thisRepN'
p1233
I0
sg163
g881
sg30
g40
sg882
Vtrek
p1234
sS'experimental_blocks.thisN'
p1235
I1
sg42
g43
sg885
Vstumble
p1236
sg887
Vkick
p1237
sg889
Vskate
p1238
sS'experimental_blocks.thisIndex'
p1239
g894
sS'word_presentation.thisRepN'
p1240
I0
sS'experimental_blocks.thisRepN'
p1241
I0
sg44
g49
sg162
g899
sg900
g901
sS'training_block.thisIndex'
p1242
g145
sg164
g905
sg18
F5.182545715746528
sS'experimental_blocks.thisTrialN'
p1243
I1
sS'training_block.thisN'
p1244
I0
sS'word_presentation.thisN'
p1245
I16
sS'training_block.thisTrialN'
p1246
I0
sg17
S'space'
p1247
sg28
g29
sS'word_presentation.thisTrialN'
p1248
I16
sg41
g12
sS'word_presentation.thisIndex'
p1249
g31
(g131
S'\x10\x00\x00\x00'
p1250
tp1251
Rp1252
sa(dp1253
S'training_block.thisRepN'
p1254
I0
sg163
g881
sg30
g40
sg882
Vslip
p1255
sS'experimental_blocks.thisN'
p1256
I1
sg42
g43
sg885
Vstep
p1257
sg887
Vtread
p1258
sg889
Vmount
p1259
sS'experimental_blocks.thisIndex'
p1260
g894
sS'word_presentation.thisRepN'
p1261
I0
sS'experimental_blocks.thisRepN'
p1262
I0
sg44
g49
sg162
g899
sg900
g901
sS'training_block.thisIndex'
p1263
g145
sg164
g905
sg18
F5.148994494593353
sS'experimental_blocks.thisTrialN'
p1264
I1
sS'training_block.thisN'
p1265
I0
sS'word_presentation.thisN'
p1266
I17
sS'training_block.thisTrialN'
p1267
I0
sg17
S'space'
p1268
sg28
g29
sS'word_presentation.thisTrialN'
p1269
I17
sg41
g12
sS'word_presentation.thisIndex'
p1270
g31
(g131
S'\x11\x00\x00\x00'
p1271
tp1272
Rp1273
sa(dp1274
S'training_block.thisRepN'
p1275
I0
sg163
g881
sg30
g40
sg882
Vinch
p1276
sS'experimental_blocks.thisN'
p1277
I1
sg42
g43
sg885
Vwobble
p1278
sg887
Vplod
p1279
sg889
Vwalk
p1280
sS'experimental_blocks.thisIndex'
p1281
g894
sS'word_presentation.thisRepN'
p1282
I0
sS'experimental_blocks.thisRepN'
p1283
I0
sg44
g49
sg162
g899
sg900
g901
sS'training_block.thisIndex'
p1284
g145
sg164
g905
sg18
F4.6453832252191205
sS'experimental_blocks.thisTrialN'
p1285
I1
sS'training_block.thisN'
p1286
I0
sS'word_presentation.thisN'
p1287
I18
sS'training_block.thisTrialN'
p1288
I0
sg17
S'space'
p1289
sg28
g29
sS'word_presentation.thisTrialN'
p1290
I18
sg41
g12
sS'word_presentation.thisIndex'
p1291
g31
(g131
S'\x12\x00\x00\x00'
p1292
tp1293
Rp1294
sa(dp1295
S'training_block.thisRepN'
p1296
I0
sg163
g881
sg30
g40
sg882
Vstir
p1297
sS'experimental_blocks.thisN'
p1298
I1
sg42
g43
sg885
Vbraid
p1299
sg887
Vgrip
p1300
sg889
Vpeel
p1301
sS'experimental_blocks.thisIndex'
p1302
g894
sS'word_presentation.thisRepN'
p1303
I0
sS'experimental_blocks.thisRepN'
p1304
I0
sg44
g49
sg162
g899
sg900
g926
sS'training_block.thisIndex'
p1305
g145
sg164
g905
sg18
F4.176374159113038
sS'experimental_blocks.thisTrialN'
p1306
I1
sS'training_block.thisN'
p1307
I0
sS'word_presentation.thisN'
p1308
I19
sS'training_block.thisTrialN'
p1309
I0
sg17
S'space'
p1310
sg28
g29
sS'word_presentation.thisTrialN'
p1311
I19
sg41
g12
sS'word_presentation.thisIndex'
p1312
g31
(g131
S'\x13\x00\x00\x00'
p1313
tp1314
Rp1315
sa(dp1316
S'training_block.thisRepN'
p1317
I0
sg163
g881
sg30
g40
sg882
Vstomp
p1318
sS'experimental_blocks.thisN'
p1319
I1
sg42
g43
sg885
Vsprint
p1320
sg887
Vstamp
p1321
sg889
Vtiptoe
p1322
sS'experimental_blocks.thisIndex'
p1323
g894
sS'word_presentation.thisRepN'
p1324
I0
sS'experimental_blocks.thisRepN'
p1325
I0
sg44
g49
sg162
g899
sg900
g901
sS'training_block.thisIndex'
p1326
g145
sg164
g905
sg18
F5.282821262713696
sS'experimental_blocks.thisTrialN'
p1327
I1
sS'training_block.thisN'
p1328
I0
sS'word_presentation.thisN'
p1329
I20
sS'training_block.thisTrialN'
p1330
I0
sg17
S'space'
p1331
sg28
g29
sS'word_presentation.thisTrialN'
p1332
I20
sg41
g12
sS'word_presentation.thisIndex'
p1333
g31
(g131
S'\x14\x00\x00\x00'
p1334
tp1335
Rp1336
sa(dp1337
S'training_block.thisRepN'
p1338
I0
sg163
g881
sg30
g40
sg882
Vtoss
p1339
sS'experimental_blocks.thisN'
p1340
I1
sg42
g43
sg885
Vtug
p1341
sg887
Vstab
p1342
sg889
Vtwine
p1343
sS'experimental_blocks.thisIndex'
p1344
g894
sS'word_presentation.thisRepN'
p1345
I0
sS'experimental_blocks.thisRepN'
p1346
I0
sg44
g49
sg162
g899
sg900
g926
sS'training_block.thisIndex'
p1347
g145
sg164
g905
sg18
F5.718650902461377
sS'experimental_blocks.thisTrialN'
p1348
I1
sS'training_block.thisN'
p1349
I0
sS'word_presentation.thisN'
p1350
I21
sS'training_block.thisTrialN'
p1351
I0
sg17
S'space'
p1352
sg28
g29
sS'word_presentation.thisTrialN'
p1353
I21
sg41
g12
sS'word_presentation.thisIndex'
p1354
g31
(g131
S'\x15\x00\x00\x00'
p1355
tp1356
Rp1357
sa(dp1358
S'training_block.thisRepN'
p1359
I0
sg163
g881
sg30
g40
sg882
Vrun
p1360
sS'experimental_blocks.thisN'
p1361
I1
sg42
g43
sg885
Vcrawl
p1362
sg887
Vstray
p1363
sg889
Vjump
p1364
sS'experimental_blocks.thisIndex'
p1365
g894
sS'word_presentation.thisRepN'
p1366
I0
sS'experimental_blocks.thisRepN'
p1367
I0
sg44
g49
sg162
g899
sg900
g901
sS'training_block.thisIndex'
p1368
g145
sg164
g905
sg18
F4.8478264820623735
sS'experimental_blocks.thisTrialN'
p1369
I1
sS'training_block.thisN'
p1370
I0
sS'word_presentation.thisN'
p1371
I22
sS'training_block.thisTrialN'
p1372
I0
sg17
S'space'
p1373
sg28
g29
sS'word_presentation.thisTrialN'
p1374
I22
sg41
g12
sS'word_presentation.thisIndex'
p1375
g31
(g131
S'\x16\x00\x00\x00'
p1376
tp1377
Rp1378
sa(dp1379
S'training_block.thisRepN'
p1380
I0
sg163
g881
sg30
g40
sg882
Vglide
p1381
sS'experimental_blocks.thisN'
p1382
I1
sg42
g43
sg885
Vwander
p1383
sg887
Vflee
p1384
sg889
Vroll
p1385
sS'experimental_blocks.thisIndex'
p1386
g894
sS'word_presentation.thisRepN'
p1387
I0
sS'experimental_blocks.thisRepN'
p1388
I0
sg44
g49
sg162
g899
sg900
g901
sS'training_block.thisIndex'
p1389
g145
sg164
g905
sg18
F5.3502200345647
sS'experimental_blocks.thisTrialN'
p1390
I1
sS'training_block.thisN'
p1391
I0
sS'word_presentation.thisN'
p1392
I23
sS'training_block.thisTrialN'
p1393
I0
sg17
S'space'
p1394
sg28
g29
sS'word_presentation.thisTrialN'
p1395
I23
sg41
g12
sS'word_presentation.thisIndex'
p1396
g31
(g131
S'\x17\x00\x00\x00'
p1397
tp1398
Rp1399
sa(dp1400
S'training_block.thisRepN'
p1401
I0
sg163
g881
sg30
g40
sg882
Vmarch
p1402
sS'experimental_blocks.thisN'
p1403
I1
sg42
g43
sg885
Vsneak
p1404
sg887
Vsway
p1405
sg889
Vstroll
p1406
sS'experimental_blocks.thisIndex'
p1407
g894
sS'word_presentation.thisRepN'
p1408
I0
sS'experimental_blocks.thisRepN'
p1409
I0
sg44
g49
sg162
g899
sg900
g901
sS'training_block.thisIndex'
p1410
g145
sg164
g905
sg18
F5.031370630818856
sS'experimental_blocks.thisTrialN'
p1411
I1
sS'training_block.thisN'
p1412
I0
sS'word_presentation.thisN'
p1413
I24
sS'training_block.thisTrialN'
p1414
I0
sg17
S'space'
p1415
sg28
g29
sS'word_presentation.thisTrialN'
p1416
I24
sg41
g12
sS'word_presentation.thisIndex'
p1417
g31
(g131
S'\x18\x00\x00\x00'
p1418
tp1419
Rp1420
sa(dp1421
S'training_block.thisRepN'
p1422
I0
sg163
g881
sg30
g40
sg882
Vlift
p1423
sS'experimental_blocks.thisN'
p1424
I1
sg42
g43
sg885
Vdig
p1425
sg887
Vcut
p1426
sg889
Vbrush
p1427
sS'experimental_blocks.thisIndex'
p1428
g894
sS'word_presentation.thisRepN'
p1429
I0
sS'experimental_blocks.thisRepN'
p1430
I0
sg44
g49
sg162
g899
sg900
g926
sS'training_block.thisIndex'
p1431
g145
sg164
g905
sg18
F6.122340244794032
sS'experimental_blocks.thisTrialN'
p1432
I1
sS'training_block.thisN'
p1433
I0
sS'word_presentation.thisN'
p1434
I25
sS'training_block.thisTrialN'
p1435
I0
sg17
S'space'
p1436
sg28
g29
sS'word_presentation.thisTrialN'
p1437
I25
sg41
g12
sS'word_presentation.thisIndex'
p1438
g31
(g131
S'\x19\x00\x00\x00'
p1439
tp1440
Rp1441
sa(dp1442
S'training_block.thisRepN'
p1443
I0
sg163
g881
sg30
g40
sg882
Vflit
p1444
sS'experimental_blocks.thisN'
p1445
I1
sg42
g43
sg885
Vprance
p1446
sg887
Vtraipse
p1447
sg889
Vskip
p1448
sS'experimental_blocks.thisIndex'
p1449
g894
sS'word_presentation.thisRepN'
p1450
I0
sS'experimental_blocks.thisRepN'
p1451
I0
sg44
g49
sg162
g899
sg900
g901
sS'training_block.thisIndex'
p1452
g145
sg164
g905
sg18
F5.1154669798015675
sS'experimental_blocks.thisTrialN'
p1453
I1
sS'training_block.thisN'
p1454
I0
sS'word_presentation.thisN'
p1455
I26
sS'training_block.thisTrialN'
p1456
I0
sg17
S'space'
p1457
sg28
g29
sS'word_presentation.thisTrialN'
p1458
I26
sg41
g12
sS'word_presentation.thisIndex'
p1459
g31
(g131
S'\x1a\x00\x00\x00'
p1460
tp1461
Rp1462
sa(dp1463
S'training_block.thisRepN'
p1464
I0
sg163
g881
sg30
g40
sg882
Vclimb
p1465
sS'experimental_blocks.thisN'
p1466
I1
sg42
g43
sg885
Vbounce
p1467
sg887
Vjog
p1468
sg889
Vpace
p1469
sS'experimental_blocks.thisIndex'
p1470
g894
sS'word_presentation.thisRepN'
p1471
I0
sS'experimental_blocks.thisRepN'
p1472
I0
sg44
g49
sg162
g899
sg900
g901
sS'training_block.thisIndex'
p1473
g145
sg164
g905
sg18
F5.3835578984471795
sS'experimental_blocks.thisTrialN'
p1474
I1
sS'training_block.thisN'
p1475
I0
sS'word_presentation.thisN'
p1476
I27
sS'training_block.thisTrialN'
p1477
I0
sg17
S'space'
p1478
sg28
g29
sS'word_presentation.thisTrialN'
p1479
I27
sg41
g12
sS'word_presentation.thisIndex'
p1480
g31
(g131
S'\x1b\x00\x00\x00'
p1481
tp1482
Rp1483
sa(dp1484
S'training_block.thisRepN'
p1485
I0
sg163
g881
sS'experimental_blocks.thisRepN'
p1486
I0
sS'experimental_blocks.thisTrialN'
p1487
I1
sS'training_block.thisN'
p1488
I0
sg42
g43
sg41
g12
sg30
g40
sS'training_block.thisTrialN'
p1489
I0
sg44
g49
sS'experimental_blocks.thisN'
p1490
I1
sg164
g905
sg28
g29
sS'experimental_blocks.thisIndex'
p1491
g894
sg162
g899
sS'training_block.thisIndex'
p1492
g145
sa(dp1493
S'training_block.thisRepN'
p1494
I0
sg163
g31
(g35
S'\x9a\x99\x99\x99\x99\x99\xd9?'
p1495
tp1496
Rp1497
sg30
g40
sS'word4'
p1498
Vscratch
p1499
sS'experimental_blocks.thisN'
p1500
I2
sg42
g43
sS'word1'
p1501
Vhack
p1502
sS'word3'
p1503
Vchop
p1504
sS'word2'
p1505
Vclean
p1506
sS'experimental_blocks.thisIndex'
p1507
g31
(g131
S'\x05\x00\x00\x00'
p1508
tp1509
Rp1510
sS'word_presentation.thisRepN'
p1511
I0
sS'experimental_blocks.thisRepN'
p1512
I0
sg44
g49
sg162
g31
(g35
S'\x9a\x99\x99\x99\x99\x99\xd9?'
p1513
tp1514
Rp1515
sS'type'
p1516
Varm
p1517
sS'training_block.thisIndex'
p1518
g145
sg164
g31
(g35
S'\x9a\x99\x99\x99\x99\x99\xe9?'
p1519
tp1520
Rp1521
sg18
F4.2940501768862305
sS'experimental_blocks.thisTrialN'
p1522
I2
sS'training_block.thisN'
p1523
I0
sS'word_presentation.thisN'
p1524
I0
sS'training_block.thisTrialN'
p1525
I0
sg17
S'space'
p1526
sg28
g29
sS'word_presentation.thisTrialN'
p1527
I0
sg41
g12
sS'word_presentation.thisIndex'
p1528
g31
(g131
S'\x00\x00\x00\x00'
p1529
tp1530
Rp1531
sa(dp1532
S'training_block.thisRepN'
p1533
I0
sg163
g1497
sg30
g40
sg1498
Vbind
p1534
sS'experimental_blocks.thisN'
p1535
I2
sg42
g43
sg1501
Vslap
p1536
sg1503
Vwipe
p1537
sg1505
Vwrap
p1538
sS'experimental_blocks.thisIndex'
p1539
g1510
sS'word_presentation.thisRepN'
p1540
I0
sS'experimental_blocks.thisRepN'
p1541
I0
sg44
g49
sg162
g1515
sg1516
g1517
sS'training_block.thisIndex'
p1542
g145
sg164
g1521
sg18
F4.075569565138721
sS'experimental_blocks.thisTrialN'
p1543
I2
sS'training_block.thisN'
p1544
I0
sS'word_presentation.thisN'
p1545
I1
sS'training_block.thisTrialN'
p1546
I0
sg17
S'space'
p1547
sg28
g29
sS'word_presentation.thisTrialN'
p1548
I1
sg41
g12
sS'word_presentation.thisIndex'
p1549
g31
(g131
S'\x01\x00\x00\x00'
p1550
tp1551
Rp1552
sa(dp1553
S'training_block.thisRepN'
p1554
I0
sg163
g1497
sg30
g40
sg1498
Vslither
p1555
sS'experimental_blocks.thisN'
p1556
I2
sg42
g43
sg1501
Vslip
p1557
sg1503
Vstomp
p1558
sg1505
Vskate
p1559
sS'experimental_blocks.thisIndex'
p1560
g1510
sS'word_presentation.thisRepN'
p1561
I0
sS'experimental_blocks.thisRepN'
p1562
I0
sg44
g49
sg162
g1515
sg1516
Vleg
p1563
sS'training_block.thisIndex'
p1564
g145
sg164
g1521
sg18
F4.042115144970012
sS'experimental_blocks.thisTrialN'
p1565
I2
sS'training_block.thisN'
p1566
I0
sS'word_presentation.thisN'
p1567
I2
sS'training_block.thisTrialN'
p1568
I0
sg17
S'space'
p1569
sg28
g29
sS'word_presentation.thisTrialN'
p1570
I2
sg41
g12
sS'word_presentation.thisIndex'
p1571
g31
(g131
S'\x02\x00\x00\x00'
p1572
tp1573
Rp1574
sa(dp1575
S'training_block.thisRepN'
p1576
I0
sg163
g1497
sg30
g40
sg1498
Vhop
p1577
sS'experimental_blocks.thisN'
p1578
I2
sg42
g43
sg1501
Vstride
p1579
sg1503
Vhike
p1580
sg1505
Vroll
p1581
sS'experimental_blocks.thisIndex'
p1582
g1510
sS'word_presentation.thisRepN'
p1583
I0
sS'experimental_blocks.thisRepN'
p1584
I0
sg44
g49
sg162
g1515
sg1516
g1563
sS'training_block.thisIndex'
p1585
g145
sg164
g1521
sg18
F3.505334326895536
sS'experimental_blocks.thisTrialN'
p1586
I2
sS'training_block.thisN'
p1587
I0
sS'word_presentation.thisN'
p1588
I3
sS'training_block.thisTrialN'
p1589
I0
sg17
S'space'
p1590
sg28
g29
sS'word_presentation.thisTrialN'
p1591
I3
sg41
g12
sS'word_presentation.thisIndex'
p1592
g31
(g131
S'\x03\x00\x00\x00'
p1593
tp1594
Rp1595
sa(dp1596
S'training_block.thisRepN'
p1597
I0
sg163
g1497
sg30
g40
sg1498
Vsway
p1598
sS'experimental_blocks.thisN'
p1599
I2
sg42
g43
sg1501
Vsneak
p1600
sg1503
Vrush
p1601
sg1505
Vwalk
p1602
sS'experimental_blocks.thisIndex'
p1603
g1510
sS'word_presentation.thisRepN'
p1604
I0
sS'experimental_blocks.thisRepN'
p1605
I0
sg44
g49
sg162
g1515
sg1516
g1563
sS'training_block.thisIndex'
p1606
g145
sg164
g1521
sg18
F4.930861971279228
sS'experimental_blocks.thisTrialN'
p1607
I2
sS'training_block.thisN'
p1608
I0
sS'word_presentation.thisN'
p1609
I4
sS'training_block.thisTrialN'
p1610
I0
sg17
S'space'
p1611
sg28
g29
sS'word_presentation.thisTrialN'
p1612
I4
sg41
g12
sS'word_presentation.thisIndex'
p1613
g31
(g131
S'\x04\x00\x00\x00'
p1614
tp1615
Rp1616
sa(dp1617
S'training_block.thisRepN'
p1618
I0
sg163
g1497
sg30
g40
sg1498
Vbash
p1619
sS'experimental_blocks.thisN'
p1620
I2
sg42
g43
sg1501
Vpeel
p1621
sg1503
Vcatch
p1622
sg1505
Vstab
p1623
sS'experimental_blocks.thisIndex'
p1624
g1510
sS'word_presentation.thisRepN'
p1625
I0
sS'experimental_blocks.thisRepN'
p1626
I0
sg44
g49
sg162
g1515
sg1516
g1517
sS'training_block.thisIndex'
p1627
g145
sg164
g1521
sg18
F4.813336488914501
sS'experimental_blocks.thisTrialN'
p1628
I2
sS'training_block.thisN'
p1629
I0
sS'word_presentation.thisN'
p1630
I5
sS'training_block.thisTrialN'
p1631
I0
sg17
S'space'
p1632
sg28
g29
sS'word_presentation.thisTrialN'
p1633
I5
sg41
g12
sS'word_presentation.thisIndex'
p1634
g31
(g131
S'\x05\x00\x00\x00'
p1635
tp1636
Rp1637
sa(dp1638
S'training_block.thisRepN'
p1639
I0
sg163
g1497
sg30
g40
sg1498
Vtrek
p1640
sS'experimental_blocks.thisN'
p1641
I2
sg42
g43
sg1501
Vskip
p1642
sg1503
Vkneel
p1643
sg1505
Vtraipse
p1644
sS'experimental_blocks.thisIndex'
p1645
g1510
sS'word_presentation.thisRepN'
p1646
I0
sS'experimental_blocks.thisRepN'
p1647
I0
sg44
g49
sg162
g1515
sg1516
g1563
sS'training_block.thisIndex'
p1648
g145
sg164
g1521
sg18
F7.379531767710432
sS'experimental_blocks.thisTrialN'
p1649
I2
sS'training_block.thisN'
p1650
I0
sS'word_presentation.thisN'
p1651
I6
sS'training_block.thisTrialN'
p1652
I0
sg17
S'space'
p1653
sg28
g29
sS'word_presentation.thisTrialN'
p1654
I6
sg41
g12
sS'word_presentation.thisIndex'
p1655
g31
(g131
S'\x06\x00\x00\x00'
p1656
tp1657
Rp1658
sa(dp1659
S'training_block.thisRepN'
p1660
I0
sg163
g1497
sg30
g40
sg1498
Vstroll
p1661
sS'experimental_blocks.thisN'
p1662
I2
sg42
g43
sg1501
Vstray
p1663
sg1503
Vglide
p1664
sg1505
Vcreep
p1665
sS'experimental_blocks.thisIndex'
p1666
g1510
sS'word_presentation.thisRepN'
p1667
I0
sS'experimental_blocks.thisRepN'
p1668
I0
sg44
g49
sg162
g1515
sg1516
g1563
sS'training_block.thisIndex'
p1669
g145
sg164
g1521
sg18
F8.0673094778831
sS'experimental_blocks.thisTrialN'
p1670
I2
sS'training_block.thisN'
p1671
I0
sS'word_presentation.thisN'
p1672
I7
sS'training_block.thisTrialN'
p1673
I0
sg17
S'space'
p1674
sg28
g29
sS'word_presentation.thisTrialN'
p1675
I7
sg41
g12
sS'word_presentation.thisIndex'
p1676
g31
(g131
S'\x07\x00\x00\x00'
p1677
tp1678
Rp1679
sa(dp1680
S'training_block.thisRepN'
p1681
I0
sg163
g1497
sg30
g40
sg1498
Vkick
p1682
sS'experimental_blocks.thisN'
p1683
I2
sg42
g43
sg1501
Vstep
p1684
sg1503
Vcrawl
p1685
sg1505
Vinch
p1686
sS'experimental_blocks.thisIndex'
p1687
g1510
sS'word_presentation.thisRepN'
p1688
I0
sS'experimental_blocks.thisRepN'
p1689
I0
sg44
g49
sg162
g1515
sg1516
g1563
sS'training_block.thisIndex'
p1690
g145
sg164
g1521
sg18
F5.032592298750387
sS'experimental_blocks.thisTrialN'
p1691
I2
sS'training_block.thisN'
p1692
I0
sS'word_presentation.thisN'
p1693
I8
sS'training_block.thisTrialN'
p1694
I0
sg17
S'space'
p1695
sg28
g29
sS'word_presentation.thisTrialN'
p1696
I8
sg41
g12
sS'word_presentation.thisIndex'
p1697
g31
(g131
S'\x08\x00\x00\x00'
p1698
tp1699
Rp1700
sa(dp1701
S'training_block.thisRepN'
p1702
I0
sg163
g1497
sg30
g40
sg1498
Vtwine
p1703
sS'experimental_blocks.thisN'
p1704
I2
sg42
g43
sg1501
Vgrab
p1705
sg1503
Vdelve
p1706
sg1505
Vshake
p1707
sS'experimental_blocks.thisIndex'
p1708
g1510
sS'word_presentation.thisRepN'
p1709
I0
sS'experimental_blocks.thisRepN'
p1710
I0
sg44
g49
sg162
g1515
sg1516
g1517
sS'training_block.thisIndex'
p1711
g145
sg164
g1521
sg18
F4.629285814193281
sS'experimental_blocks.thisTrialN'
p1712
I2
sS'training_block.thisN'
p1713
I0
sS'word_presentation.thisN'
p1714
I9
sS'training_block.thisTrialN'
p1715
I0
sg17
S'space'
p1716
sg28
g29
sS'word_presentation.thisTrialN'
p1717
I9
sg41
g12
sS'word_presentation.thisIndex'
p1718
g31
(g131
S'\t\x00\x00\x00'
p1719
tp1720
Rp1721
sa(dp1722
S'training_block.thisRepN'
p1723
I0
sg163
g1497
sg30
g40
sg1498
Vclap
p1724
sS'experimental_blocks.thisN'
p1725
I2
sg42
g43
sg1501
Vclutch
p1726
sg1503
Vbrush
p1727
sg1505
Vdunk
p1728
sS'experimental_blocks.thisIndex'
p1729
g1510
sS'word_presentation.thisRepN'
p1730
I0
sS'experimental_blocks.thisRepN'
p1731
I0
sg44
g49
sg162
g1515
sg1516
g1517
sS'training_block.thisIndex'
p1732
g145
sg164
g1521
sg18
F6.9099596754749655
sS'experimental_blocks.thisTrialN'
p1733
I2
sS'training_block.thisN'
p1734
I0
sS'word_presentation.thisN'
p1735
I10
sS'training_block.thisTrialN'
p1736
I0
sg17
S'space'
p1737
sg28
g29
sS'word_presentation.thisTrialN'
p1738
I10
sg41
g12
sS'word_presentation.thisIndex'
p1739
g31
(g131
S'\n\x00\x00\x00'
p1740
tp1741
Rp1742
sa(dp1743
S'training_block.thisRepN'
p1744
I0
sg163
g1497
sg30
g40
sg1498
Vtrip
p1745
sS'experimental_blocks.thisN'
p1746
I2
sg42
g43
sg1501
Vplod
p1747
sg1503
Vdance
p1748
sg1505
Vramble
p1749
sS'experimental_blocks.thisIndex'
p1750
g1510
sS'word_presentation.thisRepN'
p1751
I0
sS'experimental_blocks.thisRepN'
p1752
I0
sg44
g49
sg162
g1515
sg1516
g1563
sS'training_block.thisIndex'
p1753
g145
sg164
g1521
sg18
F5.065942410921707
sS'experimental_blocks.thisTrialN'
p1754
I2
sS'training_block.thisN'
p1755
I0
sS'word_presentation.thisN'
p1756
I11
sS'training_block.thisTrialN'
p1757
I0
sg17
S'space'
p1758
sg28
g29
sS'word_presentation.thisTrialN'
p1759
I11
sg41
g12
sS'word_presentation.thisIndex'
p1760
g31
(g131
S'\x0b\x00\x00\x00'
p1761
tp1762
Rp1763
sa(dp1764
S'training_block.thisRepN'
p1765
I0
sg163
g1497
sg30
g40
sg1498
Vclick
p1766
sS'experimental_blocks.thisN'
p1767
I2
sg42
g43
sg1501
Vstir
p1768
sg1503
Vpoke
p1769
sg1505
Vpat
p1770
sS'experimental_blocks.thisIndex'
p1771
g1510
sS'word_presentation.thisRepN'
p1772
I0
sS'experimental_blocks.thisRepN'
p1773
I0
sg44
g49
sg162
g1515
sg1516
g1517
sS'training_block.thisIndex'
p1774
g145
sg164
g1521
sg18
F4.863677346907934
sS'experimental_blocks.thisTrialN'
p1775
I2
sS'training_block.thisN'
p1776
I0
sS'word_presentation.thisN'
p1777
I12
sS'training_block.thisTrialN'
p1778
I0
sg17
S'space'
p1779
sg28
g29
sS'word_presentation.thisTrialN'
p1780
I12
sg41
g12
sS'word_presentation.thisIndex'
p1781
g31
(g131
S'\x0c\x00\x00\x00'
p1782
tp1783
Rp1784
sa(dp1785
S'training_block.thisRepN'
p1786
I0
sg163
g1497
sg30
g40
sg1498
Vskim
p1787
sS'experimental_blocks.thisN'
p1788
I2
sg42
g43
sg1501
Vscrub
p1789
sg1503
Vclaw
p1790
sg1505
Vwash
p1791
sS'experimental_blocks.thisIndex'
p1792
g1510
sS'word_presentation.thisRepN'
p1793
I0
sS'experimental_blocks.thisRepN'
p1794
I0
sg44
g49
sg162
g1515
sg1516
g1517
sS'training_block.thisIndex'
p1795
g145
sg164
g1521
sg18
F4.964358272689424
sS'experimental_blocks.thisTrialN'
p1796
I2
sS'training_block.thisN'
p1797
I0
sS'word_presentation.thisN'
p1798
I13
sS'training_block.thisTrialN'
p1799
I0
sg17
S'space'
p1800
sg28
g29
sS'word_presentation.thisTrialN'
p1801
I13
sg41
g12
sS'word_presentation.thisIndex'
p1802
g31
(g131
S'\r\x00\x00\x00'
p1803
tp1804
Rp1805
sa(dp1806
S'training_block.thisRepN'
p1807
I0
sg163
g1497
sg30
g40
sg1498
Vflee
p1808
sS'experimental_blocks.thisN'
p1809
I2
sg42
g43
sg1501
Vlimp
p1810
sg1503
Vsprint
p1811
sg1505
Vpace
p1812
sS'experimental_blocks.thisIndex'
p1813
g1510
sS'word_presentation.thisRepN'
p1814
I0
sS'experimental_blocks.thisRepN'
p1815
I0
sg44
g49
sg162
g1515
sg1516
g1563
sS'training_block.thisIndex'
p1816
g145
sg164
g1521
sg18
F7.262186848813144
sS'experimental_blocks.thisTrialN'
p1817
I2
sS'training_block.thisN'
p1818
I0
sS'word_presentation.thisN'
p1819
I14
sS'training_block.thisTrialN'
p1820
I0
sg17
S'space'
p1821
sg28
g29
sS'word_presentation.thisTrialN'
p1822
I14
sg41
g12
sS'word_presentation.thisIndex'
p1823
g31
(g131
S'\x0e\x00\x00\x00'
p1824
tp1825
Rp1826
sa(dp1827
S'training_block.thisRepN'
p1828
I0
sg163
g1497
sg30
g40
sg1498
Vsnatch
p1829
sS'experimental_blocks.thisN'
p1830
I2
sg42
g43
sg1501
Vscoop
p1831
sg1503
Vlift
p1832
sg1505
Vnip
p1833
sS'experimental_blocks.thisIndex'
p1834
g1510
sS'word_presentation.thisRepN'
p1835
I0
sS'experimental_blocks.thisRepN'
p1836
I0
sg44
g49
sg162
g1515
sg1516
g1517
sS'training_block.thisIndex'
p1837
g145
sg164
g1521
sg18
F4.41110469283376
sS'experimental_blocks.thisTrialN'
p1838
I2
sS'training_block.thisN'
p1839
I0
sS'word_presentation.thisN'
p1840
I15
sS'training_block.thisTrialN'
p1841
I0
sg17
S'space'
p1842
sg28
g29
sS'word_presentation.thisTrialN'
p1843
I15
sg41
g12
sS'word_presentation.thisIndex'
p1844
g31
(g131
S'\x0f\x00\x00\x00'
p1845
tp1846
Rp1847
sa(dp1848
S'training_block.thisRepN'
p1849
I0
sg163
g1497
sg30
g40
sg1498
Vflit
p1850
sS'experimental_blocks.thisN'
p1851
I2
sg42
g43
sg1501
Vtrot
p1852
sg1503
Vtiptoe
p1853
sg1505
Vstrut
p1854
sS'experimental_blocks.thisIndex'
p1855
g1510
sS'word_presentation.thisRepN'
p1856
I0
sS'experimental_blocks.thisRepN'
p1857
I0
sg44
g49
sg162
g1515
sg1516
g1563
sS'training_block.thisIndex'
p1858
g145
sg164
g1521
sg18
F6.624789112142025
sS'experimental_blocks.thisTrialN'
p1859
I2
sS'training_block.thisN'
p1860
I0
sS'word_presentation.thisN'
p1861
I16
sS'training_block.thisTrialN'
p1862
I0
sg17
S'space'
p1863
sg28
g29
sS'word_presentation.thisTrialN'
p1864
I16
sg41
g12
sS'word_presentation.thisIndex'
p1865
g31
(g131
S'\x10\x00\x00\x00'
p1866
tp1867
Rp1868
sa(dp1869
S'training_block.thisRepN'
p1870
I0
sg163
g1497
sg30
g40
sg1498
Vwhip
p1871
sS'experimental_blocks.thisN'
p1872
I2
sg42
g43
sg1501
Vtug
p1873
sg1503
Vgrate
p1874
sg1505
Vknock
p1875
sS'experimental_blocks.thisIndex'
p1876
g1510
sS'word_presentation.thisRepN'
p1877
I0
sS'experimental_blocks.thisRepN'
p1878
I0
sg44
g49
sg162
g1515
sg1516
g1517
sS'training_block.thisIndex'
p1879
g145
sg164
g1521
sg18
F4.76377952133771
sS'experimental_blocks.thisTrialN'
p1880
I2
sS'training_block.thisN'
p1881
I0
sS'word_presentation.thisN'
p1882
I17
sS'training_block.thisTrialN'
p1883
I0
sg17
S'space'
p1884
sg28
g29
sS'word_presentation.thisTrialN'
p1885
I17
sg41
g12
sS'word_presentation.thisIndex'
p1886
g31
(g131
S'\x11\x00\x00\x00'
p1887
tp1888
Rp1889
sa(dp1890
S'training_block.thisRepN'
p1891
I0
sg163
g1497
sg30
g40
sg1498
Vpolish
p1892
sS'experimental_blocks.thisN'
p1893
I2
sg42
g43
sg1501
Vpush
p1894
sg1503
Vpull
p1895
sg1505
Vscrape
p1896
sS'experimental_blocks.thisIndex'
p1897
g1510
sS'word_presentation.thisRepN'
p1898
I0
sS'experimental_blocks.thisRepN'
p1899
I0
sg44
g49
sg162
g1515
sg1516
g1517
sS'training_block.thisIndex'
p1900
g145
sg164
g1521
sg18
F4.478164858795935
sS'experimental_blocks.thisTrialN'
p1901
I2
sS'training_block.thisN'
p1902
I0
sS'word_presentation.thisN'
p1903
I18
sS'training_block.thisTrialN'
p1904
I0
sg17
S'space'
p1905
sg28
g29
sS'word_presentation.thisTrialN'
p1906
I18
sg41
g12
sS'word_presentation.thisIndex'
p1907
g31
(g131
S'\x12\x00\x00\x00'
p1908
tp1909
Rp1910
sa(dp1911
S'training_block.thisRepN'
p1912
I0
sg163
g1497
sg30
g40
sg1498
Vclimb
p1913
sS'experimental_blocks.thisN'
p1914
I2
sg42
g43
sg1501
Vroam
p1915
sg1503
Vscuff
p1916
sg1505
Vstagger
p1917
sS'experimental_blocks.thisIndex'
p1918
g1510
sS'word_presentation.thisRepN'
p1919
I0
sS'experimental_blocks.thisRepN'
p1920
I0
sg44
g49
sg162
g1515
sg1516
g1563
sS'training_block.thisIndex'
p1921
g145
sg164
g1521
sg18
F5.853575670316786
sS'experimental_blocks.thisTrialN'
p1922
I2
sS'training_block.thisN'
p1923
I0
sS'word_presentation.thisN'
p1924
I19
sS'training_block.thisTrialN'
p1925
I0
sg17
S'space'
p1926
sg28
g29
sS'word_presentation.thisTrialN'
p1927
I19
sg41
g12
sS'word_presentation.thisIndex'
p1928
g31
(g131
S'\x13\x00\x00\x00'
p1929
tp1930
Rp1931
sa(dp1932
S'training_block.thisRepN'
p1933
I0
sg163
g1497
sg30
g40
sg1498
Vwobble
p1934
sS'experimental_blocks.thisN'
p1935
I2
sg42
g43
sg1501
Vstumble
p1936
sg1503
Vmarch
p1937
sg1505
Vprance
p1938
sS'experimental_blocks.thisIndex'
p1939
g1510
sS'word_presentation.thisRepN'
p1940
I0
sS'experimental_blocks.thisRepN'
p1941
I0
sg44
g49
sg162
g1515
sg1516
g1563
sS'training_block.thisIndex'
p1942
g145
sg164
g1521
sg18
F4.562197990806453
sS'experimental_blocks.thisTrialN'
p1943
I2
sS'training_block.thisN'
p1944
I0
sS'word_presentation.thisN'
p1945
I20
sS'training_block.thisTrialN'
p1946
I0
sg17
S'space'
p1947
sg28
g29
sS'word_presentation.thisTrialN'
p1948
I20
sg41
g12
sS'word_presentation.thisIndex'
p1949
g31
(g131
S'\x14\x00\x00\x00'
p1950
tp1951
Rp1952
sa(dp1953
S'training_block.thisRepN'
p1954
I0
sg163
g1497
sg30
g40
sg1498
Vleap
p1955
sS'experimental_blocks.thisN'
p1956
I2
sg42
g43
sg1501
Vwander
p1957
sg1503
Vtrudge
p1958
sg1505
Vslide
p1959
sS'experimental_blocks.thisIndex'
p1960
g1510
sS'word_presentation.thisRepN'
p1961
I0
sS'experimental_blocks.thisRepN'
p1962
I0
sg44
g49
sg162
g1515
sg1516
g1563
sS'training_block.thisIndex'
p1963
g145
sg164
g1521
sg18
F4.84702836782526
sS'experimental_blocks.thisTrialN'
p1964
I2
sS'training_block.thisN'
p1965
I0
sS'word_presentation.thisN'
p1966
I21
sS'training_block.thisTrialN'
p1967
I0
sg17
S'space'
p1968
sg28
g29
sS'word_presentation.thisTrialN'
p1969
I21
sg41
g12
sS'word_presentation.thisIndex'
p1970
g31
(g131
S'\x15\x00\x00\x00'
p1971
tp1972
Rp1973
sa(dp1974
S'training_block.thisRepN'
p1975
I0
sg163
g1497
sg30
g40
sg1498
Vpunch
p1976
sS'experimental_blocks.thisN'
p1977
I2
sg42
g43
sg1501
Vfile
p1978
sg1503
Vbraid
p1979
sg1505
Vcarve
p1980
sS'experimental_blocks.thisIndex'
p1981
g1510
sS'word_presentation.thisRepN'
p1982
I0
sS'experimental_blocks.thisRepN'
p1983
I0
sg44
g49
sg162
g1515
sg1516
g1517
sS'training_block.thisIndex'
p1984
g145
sg164
g1521
sg18
F5.568214665865526
sS'experimental_blocks.thisTrialN'
p1985
I2
sS'training_block.thisN'
p1986
I0
sS'word_presentation.thisN'
p1987
I22
sS'training_block.thisTrialN'
p1988
I0
sg17
S'space'
p1989
sg28
g29
sS'word_presentation.thisTrialN'
p1990
I22
sg41
g12
sS'word_presentation.thisIndex'
p1991
g31
(g131
S'\x16\x00\x00\x00'
p1992
tp1993
Rp1994
sa(dp1995
S'training_block.thisRepN'
p1996
I0
sg163
g1497
sg30
g40
sg1498
Vtread
p1997
sS'experimental_blocks.thisN'
p1998
I2
sg42
g43
sg1501
Vbounce
p1999
sg1503
Vrun
p2000
sg1505
Vmount
p2001
sS'experimental_blocks.thisIndex'
p2002
g1510
sS'word_presentation.thisRepN'
p2003
I0
sS'experimental_blocks.thisRepN'
p2004
I0
sg44
g49
sg162
g1515
sg1516
g1563
sS'training_block.thisIndex'
p2005
g145
sg164
g1521
sg18
F5.014768669352634
sS'experimental_blocks.thisTrialN'
p2006
I2
sS'training_block.thisN'
p2007
I0
sS'word_presentation.thisN'
p2008
I23
sS'training_block.thisTrialN'
p2009
I0
sg17
S'space'
p2010
sg28
g29
sS'word_presentation.thisTrialN'
p2011
I23
sg41
g12
sS'word_presentation.thisIndex'
p2012
g31
(g131
S'\x17\x00\x00\x00'
p2013
tp2014
Rp2015
sa(dp2016
S'training_block.thisRepN'
p2017
I0
sg163
g1497
sg30
g40
sg1498
Vthrow
p2018
sS'experimental_blocks.thisN'
p2019
I2
sg42
g43
sg1501
Vsqueeze
p2020
sg1503
Vfold
p2021
sg1505
Vswitch
p2022
sS'experimental_blocks.thisIndex'
p2023
g1510
sS'word_presentation.thisRepN'
p2024
I0
sS'experimental_blocks.thisRepN'
p2025
I0
sg44
g49
sg162
g1515
sg1516
g1517
sS'training_block.thisIndex'
p2026
g145
sg164
g1521
sg18
F5.299316150434606
sS'experimental_blocks.thisTrialN'
p2027
I2
sS'training_block.thisN'
p2028
I0
sS'word_presentation.thisN'
p2029
I24
sS'training_block.thisTrialN'
p2030
I0
sg17
S'space'
p2031
sg28
g29
sS'word_presentation.thisTrialN'
p2032
I24
sg41
g12
sS'word_presentation.thisIndex'
p2033
g31
(g131
S'\x18\x00\x00\x00'
p2034
tp2035
Rp2036
sa(dp2037
S'training_block.thisRepN'
p2038
I0
sg163
g1497
sg30
g40
sg1498
Vjump
p2039
sS'experimental_blocks.thisN'
p2040
I2
sg42
g43
sg1501
Vstamp
p2041
sg1503
Vjog
p2042
sg1505
Vwade
p2043
sS'experimental_blocks.thisIndex'
p2044
g1510
sS'word_presentation.thisRepN'
p2045
I0
sS'experimental_blocks.thisRepN'
p2046
I0
sg44
g49
sg162
g1515
sg1516
g1563
sS'training_block.thisIndex'
p2047
g145
sg164
g1521
sg18
F4.847119637324795
sS'experimental_blocks.thisTrialN'
p2048
I2
sS'training_block.thisN'
p2049
I0
sS'word_presentation.thisN'
p2050
I25
sS'training_block.thisTrialN'
p2051
I0
sg17
S'space'
p2052
sg28
g29
sS'word_presentation.thisTrialN'
p2053
I25
sg41
g12
sS'word_presentation.thisIndex'
p2054
g31
(g131
S'\x19\x00\x00\x00'
p2055
tp2056
Rp2057
sa(dp2058
S'training_block.thisRepN'
p2059
I0
sg163
g1497
sg30
g40
sg1498
Vdig
p2060
sS'experimental_blocks.thisN'
p2061
I2
sg42
g43
sg1501
Vseize
p2062
sg1503
Vgrasp
p2063
sg1505
Vtoss
p2064
sS'experimental_blocks.thisIndex'
p2065
g1510
sS'word_presentation.thisRepN'
p2066
I0
sS'experimental_blocks.thisRepN'
p2067
I0
sg44
g49
sg162
g1515
sg1516
g1517
sS'training_block.thisIndex'
p2068
g145
sg164
g1521
sg18
F6.976925015980669
sS'experimental_blocks.thisTrialN'
p2069
I2
sS'training_block.thisN'
p2070
I0
sS'word_presentation.thisN'
p2071
I26
sS'training_block.thisTrialN'
p2072
I0
sg17
S'space'
p2073
sg28
g29
sS'word_presentation.thisTrialN'
p2074
I26
sg41
g12
sS'word_presentation.thisIndex'
p2075
g31
(g131
S'\x1a\x00\x00\x00'
p2076
tp2077
Rp2078
sa(dp2079
S'training_block.thisRepN'
p2080
I0
sg163
g1497
sg30
g40
sg1498
Vcut
p2081
sS'experimental_blocks.thisN'
p2082
I2
sg42
g43
sg1501
Vgrip
p2083
sg1503
Vpinch
p2084
sg1505
Vrub
p2085
sS'experimental_blocks.thisIndex'
p2086
g1510
sS'word_presentation.thisRepN'
p2087
I0
sS'experimental_blocks.thisRepN'
p2088
I0
sg44
g49
sg162
g1515
sg1516
g1517
sS'training_block.thisIndex'
p2089
g145
sg164
g1521
sg18
F4.445318901955034
sS'experimental_blocks.thisTrialN'
p2090
I2
sS'training_block.thisN'
p2091
I0
sS'word_presentation.thisN'
p2092
I27
sS'training_block.thisTrialN'
p2093
I0
sg17
S'space'
p2094
sg28
g29
sS'word_presentation.thisTrialN'
p2095
I27
sg41
g12
sS'word_presentation.thisIndex'
p2096
g31
(g131
S'\x1b\x00\x00\x00'
p2097
tp2098
Rp2099
sa(dp2100
S'training_block.thisRepN'
p2101
I0
sg163
g1497
sS'experimental_blocks.thisRepN'
p2102
I0
sS'experimental_blocks.thisTrialN'
p2103
I2
sS'training_block.thisN'
p2104
I0
sg42
g43
sg41
g12
sg30
g40
sS'training_block.thisTrialN'
p2105
I0
sg44
g49
sS'experimental_blocks.thisN'
p2106
I2
sg164
g1521
sg28
g29
sS'experimental_blocks.thisIndex'
p2107
g1510
sg162
g1515
sS'training_block.thisIndex'
p2108
g145
sa(dp2109
S'training_block.thisRepN'
p2110
I0
sg163
g31
(g35
S'\x9a\x99\x99\x99\x99\x99\xd9?'
p2111
tp2112
Rp2113
sg30
g40
sS'word4'
p2114
Vrun
p2115
sS'experimental_blocks.thisN'
p2116
I3
sg42
g43
sS'word1'
p2117
Vjump
p2118
sS'word3'
p2119
Vdance
p2120
sS'word2'
p2121
Vstrut
p2122
sS'experimental_blocks.thisIndex'
p2123
g31
(g131
S'\x00\x00\x00\x00'
p2124
tp2125
Rp2126
sS'word_presentation.thisRepN'
p2127
I0
sS'experimental_blocks.thisRepN'
p2128
I0
sg44
g49
sg162
g31
(g35
S'\x9a\x99\x99\x99\x99\x99\xb9?'
p2129
tp2130
Rp2131
sS'type'
p2132
Vleg
p2133
sS'training_block.thisIndex'
p2134
g145
sg164
g31
(g35
S'\x00\x00\x00\x00\x00\x00\xe0?'
p2135
tp2136
Rp2137
sg18
F4.126151042724814
sS'experimental_blocks.thisTrialN'
p2138
I3
sS'training_block.thisN'
p2139
I0
sS'word_presentation.thisN'
p2140
I0
sS'training_block.thisTrialN'
p2141
I0
sg17
S'space'
p2142
sg28
g29
sS'word_presentation.thisTrialN'
p2143
I0
sg41
g12
sS'word_presentation.thisIndex'
p2144
g31
(g131
S'\x00\x00\x00\x00'
p2145
tp2146
Rp2147
sa(dp2148
S'training_block.thisRepN'
p2149
I0
sg163
g2113
sg30
g40
sg2114
Vscrape
p2150
sS'experimental_blocks.thisN'
p2151
I3
sg42
g43
sg2117
Vpolish
p2152
sg2119
Vseize
p2153
sg2121
Vgrasp
p2154
sS'experimental_blocks.thisIndex'
p2155
g2126
sS'word_presentation.thisRepN'
p2156
I0
sS'experimental_blocks.thisRepN'
p2157
I0
sg44
g49
sg162
g2131
sg2132
Varm
p2158
sS'training_block.thisIndex'
p2159
g145
sg164
g2137
sg18
F4.729196678264998
sS'experimental_blocks.thisTrialN'
p2160
I3
sS'training_block.thisN'
p2161
I0
sS'word_presentation.thisN'
p2162
I1
sS'training_block.thisTrialN'
p2163
I0
sg17
S'space'
p2164
sg28
g29
sS'word_presentation.thisTrialN'
p2165
I1
sg41
g12
sS'word_presentation.thisIndex'
p2166
g31
(g131
S'\x01\x00\x00\x00'
p2167
tp2168
Rp2169
sa(dp2170
S'training_block.thisRepN'
p2171
I0
sg163
g2113
sg30
g40
sg2114
Vclean
p2172
sS'experimental_blocks.thisN'
p2173
I3
sg42
g43
sg2117
Vlift
p2174
sg2119
Vclutch
p2175
sg2121
Vwrap
p2176
sS'experimental_blocks.thisIndex'
p2177
g2126
sS'word_presentation.thisRepN'
p2178
I0
sS'experimental_blocks.thisRepN'
p2179
I0
sg44
g49
sg162
g2131
sg2132
g2158
sS'training_block.thisIndex'
p2180
g145
sg164
g2137
sg18
F3.5058534962554404
sS'experimental_blocks.thisTrialN'
p2181
I3
sS'training_block.thisN'
p2182
I0
sS'word_presentation.thisN'
p2183
I2
sS'training_block.thisTrialN'
p2184
I0
sg17
S'space'
p2185
sg28
g29
sS'word_presentation.thisTrialN'
p2186
I2
sg41
g12
sS'word_presentation.thisIndex'
p2187
g31
(g131
S'\x02\x00\x00\x00'
p2188
tp2189
Rp2190
sa(dp2191
S'training_block.thisRepN'
p2192
I0
sg163
g2113
sg30
g40
sg2114
Vdelve
p2193
sS'experimental_blocks.thisN'
p2194
I3
sg42
g43
sg2117
Vgrab
p2195
sg2119
Vpunch
p2196
sg2121
Vpat
p2197
sS'experimental_blocks.thisIndex'
p2198
g2126
sS'word_presentation.thisRepN'
p2199
I0
sS'experimental_blocks.thisRepN'
p2200
I0
sg44
g49
sg162
g2131
sg2132
g2158
sS'training_block.thisIndex'
p2201
g145
sg164
g2137
sg18
F4.310023919719242
sS'experimental_blocks.thisTrialN'
p2202
I3
sS'training_block.thisN'
p2203
I0
sS'word_presentation.thisN'
p2204
I3
sS'training_block.thisTrialN'
p2205
I0
sg17
S'space'
p2206
sg28
g29
sS'word_presentation.thisTrialN'
p2207
I3
sg41
g12
sS'word_presentation.thisIndex'
p2208
g31
(g131
S'\x03\x00\x00\x00'
p2209
tp2210
Rp2211
sa(dp2212
S'training_block.thisRepN'
p2213
I0
sg163
g2113
sg30
g40
sg2114
Vstride
p2214
sS'experimental_blocks.thisN'
p2215
I3
sg42
g43
sg2117
Vslip
p2216
sg2119
Vsneak
p2217
sg2121
Vmount
p2218
sS'experimental_blocks.thisIndex'
p2219
g2126
sS'word_presentation.thisRepN'
p2220
I0
sS'experimental_blocks.thisRepN'
p2221
I0
sg44
g49
sg162
g2131
sg2132
g2133
sS'training_block.thisIndex'
p2222
g145
sg164
g2137
sg18
F6.054602867046924
sS'experimental_blocks.thisTrialN'
p2223
I3
sS'training_block.thisN'
p2224
I0
sS'word_presentation.thisN'
p2225
I4
sS'training_block.thisTrialN'
p2226
I0
sg17
S'space'
p2227
sg28
g29
sS'word_presentation.thisTrialN'
p2228
I4
sg41
g12
sS'word_presentation.thisIndex'
p2229
g31
(g131
S'\x04\x00\x00\x00'
p2230
tp2231
Rp2232
sa(dp2233
S'training_block.thisRepN'
p2234
I0
sg163
g2113
sg30
g40
sg2114
Vstir
p2235
sS'experimental_blocks.thisN'
p2236
I3
sg42
g43
sg2117
Vwhip
p2237
sg2119
Vslap
p2238
sg2121
Vclick
p2239
sS'experimental_blocks.thisIndex'
p2240
g2126
sS'word_presentation.thisRepN'
p2241
I0
sS'experimental_blocks.thisRepN'
p2242
I0
sg44
g49
sg162
g2131
sg2132
g2158
sS'training_block.thisIndex'
p2243
g145
sg164
g2137
sg18
F4.9311634371988475
sS'experimental_blocks.thisTrialN'
p2244
I3
sS'training_block.thisN'
p2245
I0
sS'word_presentation.thisN'
p2246
I5
sS'training_block.thisTrialN'
p2247
I0
sg17
S'space'
p2248
sg28
g29
sS'word_presentation.thisTrialN'
p2249
I5
sg41
g12
sS'word_presentation.thisIndex'
p2250
g31
(g131
S'\x05\x00\x00\x00'
p2251
tp2252
Rp2253
sa(dp2254
S'training_block.thisRepN'
p2255
I0
sg163
g2113
sg30
g40
sg2114
Vwash
p2256
sS'experimental_blocks.thisN'
p2257
I3
sg42
g43
sg2117
Vfile
p2258
sg2119
Vpeel
p2259
sg2121
Vhack
p2260
sS'experimental_blocks.thisIndex'
p2261
g2126
sS'word_presentation.thisRepN'
p2262
I0
sS'experimental_blocks.thisRepN'
p2263
I0
sg44
g49
sg162
g2131
sg2132
g2158
sS'training_block.thisIndex'
p2264
g145
sg164
g2137
sg18
F4.696082049304096
sS'experimental_blocks.thisTrialN'
p2265
I3
sS'training_block.thisN'
p2266
I0
sS'word_presentation.thisN'
p2267
I6
sS'training_block.thisTrialN'
p2268
I0
sg17
S'space'
p2269
sg28
g29
sS'word_presentation.thisTrialN'
p2270
I6
sg41
g12
sS'word_presentation.thisIndex'
p2271
g31
(g131
S'\x06\x00\x00\x00'
p2272
tp2273
Rp2274
sa(dp2275
S'training_block.thisRepN'
p2276
I0
sg163
g2113
sg30
g40
sg2114
Vthrow
p2277
sS'experimental_blocks.thisN'
p2278
I3
sg42
g43
sg2117
Vchop
p2279
sg2119
Vtoss
p2280
sg2121
Vknock
p2281
sS'experimental_blocks.thisIndex'
p2282
g2126
sS'word_presentation.thisRepN'
p2283
I0
sS'experimental_blocks.thisRepN'
p2284
I0
sg44
g49
sg162
g2131
sg2132
g2158
sS'training_block.thisIndex'
p2285
g145
sg164
g2137
sg18
F5.316858859423519
sS'experimental_blocks.thisTrialN'
p2286
I3
sS'training_block.thisN'
p2287
I0
sS'word_presentation.thisN'
p2288
I7
sS'training_block.thisTrialN'
p2289
I0
sg17
S'space'
p2290
sg28
g29
sS'word_presentation.thisTrialN'
p2291
I7
sg41
g12
sS'word_presentation.thisIndex'
p2292
g31
(g131
S'\x07\x00\x00\x00'
p2293
tp2294
Rp2295
sa(dp2296
S'training_block.thisRepN'
p2297
I0
sg163
g2113
sg30
g40
sg2114
Vtraipse
p2298
sS'experimental_blocks.thisN'
p2299
I3
sg42
g43
sg2117
Vtiptoe
p2300
sg2119
Vbounce
p2301
sg2121
Vstumble
p2302
sS'experimental_blocks.thisIndex'
p2303
g2126
sS'word_presentation.thisRepN'
p2304
I0
sS'experimental_blocks.thisRepN'
p2305
I0
sg44
g49
sg162
g2131
sg2132
g2133
sS'training_block.thisIndex'
p2306
g145
sg164
g2137
sg18
F3.824143824927887
sS'experimental_blocks.thisTrialN'
p2307
I3
sS'training_block.thisN'
p2308
I0
sS'word_presentation.thisN'
p2309
I8
sS'training_block.thisTrialN'
p2310
I0
sg17
S'space'
p2311
sg28
g29
sS'word_presentation.thisTrialN'
p2312
I8
sg41
g12
sS'word_presentation.thisIndex'
p2313
g31
(g131
S'\x08\x00\x00\x00'
p2314
tp2315
Rp2316
sa(dp2317
S'training_block.thisRepN'
p2318
I0
sg163
g2113
sg30
g40
sg2114
Vclimb
p2319
sS'experimental_blocks.thisN'
p2320
I3
sg42
g43
sg2117
Vsprint
p2321
sg2119
Vtread
p2322
sg2121
Vskip
p2323
sS'experimental_blocks.thisIndex'
p2324
g2126
sS'word_presentation.thisRepN'
p2325
I0
sS'experimental_blocks.thisRepN'
p2326
I0
sg44
g49
sg162
g2131
sg2132
g2133
sS'training_block.thisIndex'
p2327
g145
sg164
g2137
sg18
F2.9520515091862762
sS'experimental_blocks.thisTrialN'
p2328
I3
sS'training_block.thisN'
p2329
I0
sS'word_presentation.thisN'
p2330
I9
sS'training_block.thisTrialN'
p2331
I0
sg17
S'space'
p2332
sg28
g29
sS'word_presentation.thisTrialN'
p2333
I9
sg41
g12
sS'word_presentation.thisIndex'
p2334
g31
(g131
S'\t\x00\x00\x00'
p2335
tp2336
Rp2337
sa(dp2338
S'training_block.thisRepN'
p2339
I0
sg163
g2113
sg30
g40
sg2114
Vrub
p2340
sS'experimental_blocks.thisN'
p2341
I3
sg42
g43
sg2117
Vswitch
p2342
sg2119
Vshake
p2343
sg2121
Vfold
p2344
sS'experimental_blocks.thisIndex'
p2345
g2126
sS'word_presentation.thisRepN'
p2346
I0
sS'experimental_blocks.thisRepN'
p2347
I0
sg44
g49
sg162
g2131
sg2132
g2158
sS'training_block.thisIndex'
p2348
g145
sg164
g2137
sg18
F5.283144459466712
sS'experimental_blocks.thisTrialN'
p2349
I3
sS'training_block.thisN'
p2350
I0
sS'word_presentation.thisN'
p2351
I10
sS'training_block.thisTrialN'
p2352
I0
sg17
S'space'
p2353
sg28
g29
sS'word_presentation.thisTrialN'
p2354
I10
sg41
g12
sS'word_presentation.thisIndex'
p2355
g31
(g131
S'\n\x00\x00\x00'
p2356
tp2357
Rp2358
sa(dp2359
S'training_block.thisRepN'
p2360
I0
sg163
g2113
sg30
g40
sg2114
Vhop
p2361
sS'experimental_blocks.thisN'
p2362
I3
sg42
g43
sg2117
Vcreep
p2363
sg2119
Vtrip
p2364
sg2121
Vrush
p2365
sS'experimental_blocks.thisIndex'
p2366
g2126
sS'word_presentation.thisRepN'
p2367
I0
sS'experimental_blocks.thisRepN'
p2368
I0
sg44
g49
sg162
g2131
sg2132
g2133
sS'training_block.thisIndex'
p2369
g145
sg164
g2137
sg18
F5.0825159247506235
sS'experimental_blocks.thisTrialN'
p2370
I3
sS'training_block.thisN'
p2371
I0
sS'word_presentation.thisN'
p2372
I11
sS'training_block.thisTrialN'
p2373
I0
sg17
S'space'
p2374
sg28
g29
sS'word_presentation.thisTrialN'
p2375
I11
sg41
g12
sS'word_presentation.thisIndex'
p2376
g31
(g131
S'\x0b\x00\x00\x00'
p2377
tp2378
Rp2379
sa(dp2380
S'training_block.thisRepN'
p2381
I0
sg163
g2113
sg30
g40
sg2114
Vbash
p2382
sS'experimental_blocks.thisN'
p2383
I3
sg42
g43
sg2117
Vclaw
p2384
sg2119
Vsqueeze
p2385
sg2121
Vscrub
p2386
sS'experimental_blocks.thisIndex'
p2387
g2126
sS'word_presentation.thisRepN'
p2388
I0
sS'experimental_blocks.thisRepN'
p2389
I0
sg44
g49
sg162
g2131
sg2132
g2158
sS'training_block.thisIndex'
p2390
g145
sg164
g2137
sg18
F5.7023500118120864
sS'experimental_blocks.thisTrialN'
p2391
I3
sS'training_block.thisN'
p2392
I0
sS'word_presentation.thisN'
p2393
I12
sS'training_block.thisTrialN'
p2394
I0
sg17
S'space'
p2395
sg28
g29
sS'word_presentation.thisTrialN'
p2396
I12
sg41
g12
sS'word_presentation.thisIndex'
p2397
g31
(g131
S'\x0c\x00\x00\x00'
p2398
tp2399
Rp2400
sa(dp2401
S'training_block.thisRepN'
p2402
I0
sg163
g2113
sg30
g40
sg2114
Vhike
p2403
sS'experimental_blocks.thisN'
p2404
I3
sg42
g43
sg2117
Vwobble
p2405
sg2119
Vwander
p2406
sg2121
Vtrek
p2407
sS'experimental_blocks.thisIndex'
p2408
g2126
sS'word_presentation.thisRepN'
p2409
I0
sS'experimental_blocks.thisRepN'
p2410
I0
sg44
g49
sg162
g2131
sg2132
g2133
sS'training_block.thisIndex'
p2411
g145
sg164
g2137
sg18
F6.037887905251409
sS'experimental_blocks.thisTrialN'
p2412
I3
sS'training_block.thisN'
p2413
I0
sS'word_presentation.thisN'
p2414
I13
sS'training_block.thisTrialN'
p2415
I0
sg17
S'space'
p2416
sg28
g29
sS'word_presentation.thisTrialN'
p2417
I13
sg41
g12
sS'word_presentation.thisIndex'
p2418
g31
(g131
S'\r\x00\x00\x00'
p2419
tp2420
Rp2421
sa(dp2422
S'training_block.thisRepN'
p2423
I0
sg163
g2113
sg30
g40
sg2114
Vstagger
p2424
sS'experimental_blocks.thisN'
p2425
I3
sg42
g43
sg2117
Vplod
p2426
sg2119
Vjog
p2427
sg2121
Vtrudge
p2428
sS'experimental_blocks.thisIndex'
p2429
g2126
sS'word_presentation.thisRepN'
p2430
I0
sS'experimental_blocks.thisRepN'
p2431
I0
sg44
g49
sg162
g2131
sg2132
g2133
sS'training_block.thisIndex'
p2432
g145
sg164
g2137
sg18
F5.701915000045119
sS'experimental_blocks.thisTrialN'
p2433
I3
sS'training_block.thisN'
p2434
I0
sS'word_presentation.thisN'
p2435
I14
sS'training_block.thisTrialN'
p2436
I0
sg17
S'space'
p2437
sg28
g29
sS'word_presentation.thisTrialN'
p2438
I14
sg41
g12
sS'word_presentation.thisIndex'
p2439
g31
(g131
S'\x0e\x00\x00\x00'
p2440
tp2441
Rp2442
sa(dp2443
S'training_block.thisRepN'
p2444
I0
sg163
g2113
sg30
g40
sg2114
Vbraid
p2445
sS'experimental_blocks.thisN'
p2446
I3
sg42
g43
sg2117
Vcatch
p2447
sg2119
Vpush
p2448
sg2121
Vstab
p2449
sS'experimental_blocks.thisIndex'
p2450
g2126
sS'word_presentation.thisRepN'
p2451
I0
sS'experimental_blocks.thisRepN'
p2452
I0
sg44
g49
sg162
g2131
sg2132
g2158
sS'training_block.thisIndex'
p2453
g145
sg164
g2137
sg18
F4.796760999553953
sS'experimental_blocks.thisTrialN'
p2454
I3
sS'training_block.thisN'
p2455
I0
sS'word_presentation.thisN'
p2456
I15
sS'training_block.thisTrialN'
p2457
I0
sg17
S'space'
p2458
sg28
g29
sS'word_presentation.thisTrialN'
p2459
I15
sg41
g12
sS'word_presentation.thisIndex'
p2460
g31
(g131
S'\x0f\x00\x00\x00'
p2461
tp2462
Rp2463
sa(dp2464
S'training_block.thisRepN'
p2465
I0
sg163
g2113
sg30
g40
sg2114
Vtwine
p2466
sS'experimental_blocks.thisN'
p2467
I3
sg42
g43
sg2117
Vnip
p2468
sg2119
Vpoke
p2469
sg2121
Vsnatch
p2470
sS'experimental_blocks.thisIndex'
p2471
g2126
sS'word_presentation.thisRepN'
p2472
I0
sS'experimental_blocks.thisRepN'
p2473
I0
sg44
g49
sg162
g2131
sg2132
g2158
sS'training_block.thisIndex'
p2474
g145
sg164
g2137
sg18
F4.310492515505757
sS'experimental_blocks.thisTrialN'
p2475
I3
sS'training_block.thisN'
p2476
I0
sS'word_presentation.thisN'
p2477
I16
sS'training_block.thisTrialN'
p2478
I0
sg17
S'space'
p2479
sg28
g29
sS'word_presentation.thisTrialN'
p2480
I16
sg41
g12
sS'word_presentation.thisIndex'
p2481
g31
(g131
S'\x10\x00\x00\x00'
p2482
tp2483
Rp2484
sa(dp2485
S'training_block.thisRepN'
p2486
I0
sg163
g2113
sg30
g40
sg2114
Vroll
p2487
sS'experimental_blocks.thisN'
p2488
I3
sg42
g43
sg2117
Vstomp
p2489
sg2119
Vleap
p2490
sg2121
Vprance
p2491
sS'experimental_blocks.thisIndex'
p2492
g2126
sS'word_presentation.thisRepN'
p2493
I0
sS'experimental_blocks.thisRepN'
p2494
I0
sg44
g49
sg162
g2131
sg2132
g2133
sS'training_block.thisIndex'
p2495
g145
sg164
g2137
sg18
F6.389994966350059
sS'experimental_blocks.thisTrialN'
p2496
I3
sS'training_block.thisN'
p2497
I0
sS'word_presentation.thisN'
p2498
I17
sS'training_block.thisTrialN'
p2499
I0
sg17
S'space'
p2500
sg28
g29
sS'word_presentation.thisTrialN'
p2501
I17
sg41
g12
sS'word_presentation.thisIndex'
p2502
g31
(g131
S'\x11\x00\x00\x00'
p2503
tp2504
Rp2505
sa(dp2506
S'training_block.thisRepN'
p2507
I0
sg163
g2113
sg30
g40
sg2114
Vpace
p2508
sS'experimental_blocks.thisN'
p2509
I3
sg42
g43
sg2117
Vstray
p2510
sg2119
Vsway
p2511
sg2121
Vscuff
p2512
sS'experimental_blocks.thisIndex'
p2513
g2126
sS'word_presentation.thisRepN'
p2514
I0
sS'experimental_blocks.thisRepN'
p2515
I0
sg44
g49
sg162
g2131
sg2132
g2133
sS'training_block.thisIndex'
p2516
g145
sg164
g2137
sg18
F6.289368170098896
sS'experimental_blocks.thisTrialN'
p2517
I3
sS'training_block.thisN'
p2518
I0
sS'word_presentation.thisN'
p2519
I18
sS'training_block.thisTrialN'
p2520
I0
sg17
S'space'
p2521
sg28
g29
sS'word_presentation.thisTrialN'
p2522
I18
sg41
g12
sS'word_presentation.thisIndex'
p2523
g31
(g131
S'\x12\x00\x00\x00'
p2524
tp2525
Rp2526
sa(dp2527
S'training_block.thisRepN'
p2528
I0
sg163
g2113
sg30
g40
sg2114
Vlimp
p2529
sS'experimental_blocks.thisN'
p2530
I3
sg42
g43
sg2117
Vkick
p2531
sg2119
Vslide
p2532
sg2121
Vmarch
p2533
sS'experimental_blocks.thisIndex'
p2534
g2126
sS'word_presentation.thisRepN'
p2535
I0
sS'experimental_blocks.thisRepN'
p2536
I0
sg44
g49
sg162
g2131
sg2132
g2133
sS'training_block.thisIndex'
p2537
g145
sg164
g2137
sg18
F5.752718132127484
sS'experimental_blocks.thisTrialN'
p2538
I3
sS'training_block.thisN'
p2539
I0
sS'word_presentation.thisN'
p2540
I19
sS'training_block.thisTrialN'
p2541
I0
sg17
S'space'
p2542
sg28
g29
sS'word_presentation.thisTrialN'
p2543
I19
sg41
g12
sS'word_presentation.thisIndex'
p2544
g31
(g131
S'\x13\x00\x00\x00'
p2545
tp2546
Rp2547
sa(dp2548
S'training_block.thisRepN'
p2549
I0
sg163
g2113
sg30
g40
sg2114
Vcarve
p2550
sS'experimental_blocks.thisN'
p2551
I3
sg42
g43
sg2117
Vbind
p2552
sg2119
Vpinch
p2553
sg2121
Vtug
p2554
sS'experimental_blocks.thisIndex'
p2555
g2126
sS'word_presentation.thisRepN'
p2556
I0
sS'experimental_blocks.thisRepN'
p2557
I0
sg44
g49
sg162
g2131
sg2132
g2158
sS'training_block.thisIndex'
p2558
g145
sg164
g2137
sg18
F6.105601181527163
sS'experimental_blocks.thisTrialN'
p2559
I3
sS'training_block.thisN'
p2560
I0
sS'word_presentation.thisN'
p2561
I20
sS'training_block.thisTrialN'
p2562
I0
sg17
S'space'
p2563
sg28
g29
sS'word_presentation.thisTrialN'
p2564
I20
sg41
g12
sS'word_presentation.thisIndex'
p2565
g31
(g131
S'\x14\x00\x00\x00'
p2566
tp2567
Rp2568
sa(dp2569
S'training_block.thisRepN'
p2570
I0
sg163
g2113
sg30
g40
sg2114
Vflee
p2571
sS'experimental_blocks.thisN'
p2572
I3
sg42
g43
sg2117
Vglide
p2573
sg2119
Vskate
p2574
sg2121
Vstamp
p2575
sS'experimental_blocks.thisIndex'
p2576
g2126
sS'word_presentation.thisRepN'
p2577
I0
sS'experimental_blocks.thisRepN'
p2578
I0
sg44
g49
sg162
g2131
sg2132
g2133
sS'training_block.thisIndex'
p2579
g145
sg164
g2137
sg18
F4.594958999841765
sS'experimental_blocks.thisTrialN'
p2580
I3
sS'training_block.thisN'
p2581
I0
sS'word_presentation.thisN'
p2582
I21
sS'training_block.thisTrialN'
p2583
I0
sg17
S'space'
p2584
sg28
g29
sS'word_presentation.thisTrialN'
p2585
I21
sg41
g12
sS'word_presentation.thisIndex'
p2586
g31
(g131
S'\x15\x00\x00\x00'
p2587
tp2588
Rp2589
sa(dp2590
S'training_block.thisRepN'
p2591
I0
sg163
g2113
sg30
g40
sg2114
Vscoop
p2592
sS'experimental_blocks.thisN'
p2593
I3
sg42
g43
sg2117
Vwipe
p2594
sg2119
Vscratch
p2595
sg2121
Vbrush
p2596
sS'experimental_blocks.thisIndex'
p2597
g2126
sS'word_presentation.thisRepN'
p2598
I0
sS'experimental_blocks.thisRepN'
p2599
I0
sg44
g49
sg162
g2131
sg2132
g2158
sS'training_block.thisIndex'
p2600
g145
sg164
g2137
sg18
F6.422921129716997
sS'experimental_blocks.thisTrialN'
p2601
I3
sS'training_block.thisN'
p2602
I0
sS'word_presentation.thisN'
p2603
I22
sS'training_block.thisTrialN'
p2604
I0
sg17
S'space'
p2605
sg28
g29
sS'word_presentation.thisTrialN'
p2606
I22
sg41
g12
sS'word_presentation.thisIndex'
p2607
g31
(g131
S'\x16\x00\x00\x00'
p2608
tp2609
Rp2610
sa(dp2611
S'training_block.thisRepN'
p2612
I0
sg163
g2113
sg30
g40
sg2114
Vcrawl
p2613
sS'experimental_blocks.thisN'
p2614
I3
sg42
g43
sg2117
Vinch
p2615
sg2119
Vstroll
p2616
sg2121
Vwade
p2617
sS'experimental_blocks.thisIndex'
p2618
g2126
sS'word_presentation.thisRepN'
p2619
I0
sS'experimental_blocks.thisRepN'
p2620
I0
sg44
g49
sg162
g2131
sg2132
g2133
sS'training_block.thisIndex'
p2621
g145
sg164
g2137
sg18
F6.322299469844438
sS'experimental_blocks.thisTrialN'
p2622
I3
sS'training_block.thisN'
p2623
I0
sS'word_presentation.thisN'
p2624
I23
sS'training_block.thisTrialN'
p2625
I0
sg17
S'space'
p2626
sg28
g29
sS'word_presentation.thisTrialN'
p2627
I23
sg41
g12
sS'word_presentation.thisIndex'
p2628
g31
(g131
S'\x17\x00\x00\x00'
p2629
tp2630
Rp2631
sa(dp2632
S'training_block.thisRepN'
p2633
I0
sg163
g2113
sg30
g40
sg2114
Vdig
p2634
sS'experimental_blocks.thisN'
p2635
I3
sg42
g43
sg2117
Vclap
p2636
sg2119
Vdunk
p2637
sg2121
Vskim
p2638
sS'experimental_blocks.thisIndex'
p2639
g2126
sS'word_presentation.thisRepN'
p2640
I0
sS'experimental_blocks.thisRepN'
p2641
I0
sg44
g49
sg162
g2131
sg2132
g2158
sS'training_block.thisIndex'
p2642
g145
sg164
g2137
sg18
F6.356465476026642
sS'experimental_blocks.thisTrialN'
p2643
I3
sS'training_block.thisN'
p2644
I0
sS'word_presentation.thisN'
p2645
I24
sS'training_block.thisTrialN'
p2646
I0
sg17
S'space'
p2647
sg28
g29
sS'word_presentation.thisTrialN'
p2648
I24
sg41
g12
sS'word_presentation.thisIndex'
p2649
g31
(g131
S'\x18\x00\x00\x00'
p2650
tp2651
Rp2652
sa(dp2653
S'training_block.thisRepN'
p2654
I0
sg163
g2113
sg30
g40
sg2114
Vslither
p2655
sS'experimental_blocks.thisN'
p2656
I3
sg42
g43
sg2117
Vtrot
p2657
sg2119
Vramble
p2658
sg2121
Vkneel
p2659
sS'experimental_blocks.thisIndex'
p2660
g2126
sS'word_presentation.thisRepN'
p2661
I0
sS'experimental_blocks.thisRepN'
p2662
I0
sg44
g49
sg162
g2131
sg2132
g2133
sS'training_block.thisIndex'
p2663
g145
sg164
g2137
sg18
F8.000075860363722
sS'experimental_blocks.thisTrialN'
p2664
I3
sS'training_block.thisN'
p2665
I0
sS'word_presentation.thisN'
p2666
I25
sS'training_block.thisTrialN'
p2667
I0
sg17
S'space'
p2668
sg28
g29
sS'word_presentation.thisTrialN'
p2669
I25
sg41
g12
sS'word_presentation.thisIndex'
p2670
g31
(g131
S'\x19\x00\x00\x00'
p2671
tp2672
Rp2673
sa(dp2674
S'training_block.thisRepN'
p2675
I0
sg163
g2113
sg30
g40
sg2114
Vpull
p2676
sS'experimental_blocks.thisN'
p2677
I3
sg42
g43
sg2117
Vgrate
p2678
sg2119
Vcut
p2679
sg2121
Vgrip
p2680
sS'experimental_blocks.thisIndex'
p2681
g2126
sS'word_presentation.thisRepN'
p2682
I0
sS'experimental_blocks.thisRepN'
p2683
I0
sg44
g49
sg162
g2131
sg2132
g2158
sS'training_block.thisIndex'
p2684
g145
sg164
g2137
sg18
F3.723264555901551
sS'experimental_blocks.thisTrialN'
p2685
I3
sS'training_block.thisN'
p2686
I0
sS'word_presentation.thisN'
p2687
I26
sS'training_block.thisTrialN'
p2688
I0
sg17
S'space'
p2689
sg28
g29
sS'word_presentation.thisTrialN'
p2690
I26
sg41
g12
sS'word_presentation.thisIndex'
p2691
g31
(g131
S'\x1a\x00\x00\x00'
p2692
tp2693
Rp2694
sa(dp2695
S'training_block.thisRepN'
p2696
I0
sg163
g2113
sg30
g40
sg2114
Vwalk
p2697
sS'experimental_blocks.thisN'
p2698
I3
sg42
g43
sg2117
Vroam
p2699
sg2119
Vflit
p2700
sg2121
Vstep
p2701
sS'experimental_blocks.thisIndex'
p2702
g2126
sS'word_presentation.thisRepN'
p2703
I0
sS'experimental_blocks.thisRepN'
p2704
I0
sg44
g49
sg162
g2131
sg2132
g2133
sS'training_block.thisIndex'
p2705
g145
sg164
g2137
sg18
F4.779972943139001
sS'experimental_blocks.thisTrialN'
p2706
I3
sS'training_block.thisN'
p2707
I0
sS'word_presentation.thisN'
p2708
I27
sS'training_block.thisTrialN'
p2709
I0
sg17
S'space'
p2710
sg28
g29
sS'word_presentation.thisTrialN'
p2711
I27
sg41
g12
sS'word_presentation.thisIndex'
p2712
g31
(g131
S'\x1b\x00\x00\x00'
p2713
tp2714
Rp2715
sa(dp2716
S'training_block.thisRepN'
p2717
I0
sg163
g2113
sS'experimental_blocks.thisRepN'
p2718
I0
sS'experimental_blocks.thisTrialN'
p2719
I3
sS'training_block.thisN'
p2720
I0
sg42
g43
sg41
g12
sg30
g40
sS'training_block.thisTrialN'
p2721
I0
sg44
g49
sS'experimental_blocks.thisN'
p2722
I3
sg164
g2137
sg28
g29
sS'experimental_blocks.thisIndex'
p2723
g2126
sg162
g2131
sS'training_block.thisIndex'
p2724
g145
sa(dp2725
S'training_block.thisRepN'
p2726
I0
sg163
g31
(g35
S'\x9a\x99\x99\x99\x99\x99\xd9?'
p2727
tp2728
Rp2729
sg30
g40
sS'word4'
p2730
Vstep
p2731
sS'experimental_blocks.thisN'
p2732
I4
sg42
g43
sS'word1'
p2733
Vsprint
p2734
sS'word3'
p2735
Vmarch
p2736
sS'word2'
p2737
Vglide
p2738
sS'experimental_blocks.thisIndex'
p2739
g31
(g131
S'\x01\x00\x00\x00'
p2740
tp2741
Rp2742
sS'word_presentation.thisRepN'
p2743
I0
sS'experimental_blocks.thisRepN'
p2744
I0
sg44
g49
sg162
g31
(g35
S'\x9a\x99\x99\x99\x99\x99\xc9?'
p2745
tp2746
Rp2747
sS'type'
p2748
Vleg
p2749
sS'training_block.thisIndex'
p2750
g145
sg164
g31
(g35
S'333333\xe3?'
p2751
tp2752
Rp2753
sg18
F4.142686231261905
sS'experimental_blocks.thisTrialN'
p2754
I4
sS'training_block.thisN'
p2755
I0
sS'word_presentation.thisN'
p2756
I0
sS'training_block.thisTrialN'
p2757
I0
sg17
S'space'
p2758
sg28
g29
sS'word_presentation.thisTrialN'
p2759
I0
sg41
g12
sS'word_presentation.thisIndex'
p2760
g31
(g131
S'\x00\x00\x00\x00'
p2761
tp2762
Rp2763
sa(dp2764
S'training_block.thisRepN'
p2765
I0
sg163
g2729
sg30
g40
sg2730
Vjog
p2766
sS'experimental_blocks.thisN'
p2767
I4
sg42
g43
sg2733
Vplod
p2768
sg2735
Vrush
p2769
sg2737
Vroam
p2770
sS'experimental_blocks.thisIndex'
p2771
g2742
sS'word_presentation.thisRepN'
p2772
I0
sS'experimental_blocks.thisRepN'
p2773
I0
sg44
g49
sg162
g2747
sg2748
g2749
sS'training_block.thisIndex'
p2774
g145
sg164
g2753
sg18
F7.379525446016487
sS'experimental_blocks.thisTrialN'
p2775
I4
sS'training_block.thisN'
p2776
I0
sS'word_presentation.thisN'
p2777
I1
sS'training_block.thisTrialN'
p2778
I0
sg17
S'space'
p2779
sg28
g29
sS'word_presentation.thisTrialN'
p2780
I1
sg41
g12
sS'word_presentation.thisIndex'
p2781
g31
(g131
S'\x01\x00\x00\x00'
p2782
tp2783
Rp2784
sa(dp2785
S'training_block.thisRepN'
p2786
I0
sg163
g2729
sg30
g40
sg2730
Vcrawl
p2787
sS'experimental_blocks.thisN'
p2788
I4
sg42
g43
sg2733
Vstamp
p2789
sg2735
Vtrek
p2790
sg2737
Vjump
p2791
sS'experimental_blocks.thisIndex'
p2792
g2742
sS'word_presentation.thisRepN'
p2793
I0
sS'experimental_blocks.thisRepN'
p2794
I0
sg44
g49
sg162
g2747
sg2748
g2749
sS'training_block.thisIndex'
p2795
g145
sg164
g2753
sg18
F7.815460183977848
sS'experimental_blocks.thisTrialN'
p2796
I4
sS'training_block.thisN'
p2797
I0
sS'word_presentation.thisN'
p2798
I2
sS'training_block.thisTrialN'
p2799
I0
sg17
S'space'
p2800
sg28
g29
sS'word_presentation.thisTrialN'
p2801
I2
sg41
g12
sS'word_presentation.thisIndex'
p2802
g31
(g131
S'\x02\x00\x00\x00'
p2803
tp2804
Rp2805
sa(dp2806
S'training_block.thisRepN'
p2807
I0
sg163
g2729
sg30
g40
sg2730
Vshake
p2808
sS'experimental_blocks.thisN'
p2809
I4
sg42
g43
sg2733
Vrub
p2810
sg2735
Vdig
p2811
sg2737
Vcatch
p2812
sS'experimental_blocks.thisIndex'
p2813
g2742
sS'word_presentation.thisRepN'
p2814
I0
sS'experimental_blocks.thisRepN'
p2815
I0
sg44
g49
sg162
g2747
sg2748
Varm
p2816
sS'training_block.thisIndex'
p2817
g145
sg164
g2753
sg18
F4.679306241174345
sS'experimental_blocks.thisTrialN'
p2818
I4
sS'training_block.thisN'
p2819
I0
sS'word_presentation.thisN'
p2820
I3
sS'training_block.thisTrialN'
p2821
I0
sg17
S'space'
p2822
sg28
g29
sS'word_presentation.thisTrialN'
p2823
I3
sg41
g12
sS'word_presentation.thisIndex'
p2824
g31
(g131
S'\x03\x00\x00\x00'
p2825
tp2826
Rp2827
sa(dp2828
S'training_block.thisRepN'
p2829
I0
sg163
g2729
sg30
g40
sg2730
Vcarve
p2830
sS'experimental_blocks.thisN'
p2831
I4
sg42
g43
sg2733
Vsnatch
p2832
sg2735
Vtoss
p2833
sg2737
Vbind
p2834
sS'experimental_blocks.thisIndex'
p2835
g2742
sS'word_presentation.thisRepN'
p2836
I0
sS'experimental_blocks.thisRepN'
p2837
I0
sg44
g49
sg162
g2747
sg2748
g2816
sS'training_block.thisIndex'
p2838
g145
sg164
g2753
sg18
F6.524405306117842
sS'experimental_blocks.thisTrialN'
p2839
I4
sS'training_block.thisN'
p2840
I0
sS'word_presentation.thisN'
p2841
I4
sS'training_block.thisTrialN'
p2842
I0
sg17
S'space'
p2843
sg28
g29
sS'word_presentation.thisTrialN'
p2844
I4
sg41
g12
sS'word_presentation.thisIndex'
p2845
g31
(g131
S'\x04\x00\x00\x00'
p2846
tp2847
Rp2848
sa(dp2849
S'training_block.thisRepN'
p2850
I0
sg163
g2729
sg30
g40
sg2730
Vgrab
p2851
sS'experimental_blocks.thisN'
p2852
I4
sg42
g43
sg2733
Vknock
p2853
sg2735
Vdelve
p2854
sg2737
Vpunch
p2855
sS'experimental_blocks.thisIndex'
p2856
g2742
sS'word_presentation.thisRepN'
p2857
I0
sS'experimental_blocks.thisRepN'
p2858
I0
sg44
g49
sg162
g2747
sg2748
g2816
sS'training_block.thisIndex'
p2859
g145
sg164
g2753
sg18
F6.222471182940353
sS'experimental_blocks.thisTrialN'
p2860
I4
sS'training_block.thisN'
p2861
I0
sS'word_presentation.thisN'
p2862
I5
sS'training_block.thisTrialN'
p2863
I0
sg17
S'space'
p2864
sg28
g29
sS'word_presentation.thisTrialN'
p2865
I5
sg41
g12
sS'word_presentation.thisIndex'
p2866
g31
(g131
S'\x05\x00\x00\x00'
p2867
tp2868
Rp2869
sa(dp2870
S'training_block.thisRepN'
p2871
I0
sg163
g2729
sg30
g40
sg2730
Vstomp
p2872
sS'experimental_blocks.thisN'
p2873
I4
sg42
g43
sg2733
Vstumble
p2874
sg2735
Vpace
p2875
sg2737
Vtrip
p2876
sS'experimental_blocks.thisIndex'
p2877
g2742
sS'word_presentation.thisRepN'
p2878
I0
sS'experimental_blocks.thisRepN'
p2879
I0
sg44
g49
sg162
g2747
sg2748
g2749
sS'training_block.thisIndex'
p2880
g145
sg164
g2753
sg18
F4.478294848686346
sS'experimental_blocks.thisTrialN'
p2881
I4
sS'training_block.thisN'
p2882
I0
sS'word_presentation.thisN'
p2883
I6
sS'training_block.thisTrialN'
p2884
I0
sg17
S'space'
p2885
sg28
g29
sS'word_presentation.thisTrialN'
p2886
I6
sg41
g12
sS'word_presentation.thisIndex'
p2887
g31
(g131
S'\x06\x00\x00\x00'
p2888
tp2889
Rp2890
sa(dp2891
S'training_block.thisRepN'
p2892
I0
sg163
g2729
sg30
g40
sg2730
Vscratch
p2893
sS'experimental_blocks.thisN'
p2894
I4
sg42
g43
sg2733
Vscrape
p2895
sg2735
Vpeel
p2896
sg2737
Vhack
p2897
sS'experimental_blocks.thisIndex'
p2898
g2742
sS'word_presentation.thisRepN'
p2899
I0
sS'experimental_blocks.thisRepN'
p2900
I0
sg44
g49
sg162
g2747
sg2748
g2816
sS'training_block.thisIndex'
p2901
g145
sg164
g2753
sg18
F4.1602822795721295
sS'experimental_blocks.thisTrialN'
p2902
I4
sS'training_block.thisN'
p2903
I0
sS'word_presentation.thisN'
p2904
I7
sS'training_block.thisTrialN'
p2905
I0
sg17
S'space'
p2906
sg28
g29
sS'word_presentation.thisTrialN'
p2907
I7
sg41
g12
sS'word_presentation.thisIndex'
p2908
g31
(g131
S'\x07\x00\x00\x00'
p2909
tp2910
Rp2911
sa(dp2912
S'training_block.thisRepN'
p2913
I0
sg163
g2729
sg30
g40
sg2730
Vpush
p2914
sS'experimental_blocks.thisN'
p2915
I4
sg42
g43
sg2733
Vgrate
p2916
sg2735
Vseize
p2917
sg2737
Vskim
p2918
sS'experimental_blocks.thisIndex'
p2919
g2742
sS'word_presentation.thisRepN'
p2920
I0
sS'experimental_blocks.thisRepN'
p2921
I0
sg44
g49
sg162
g2747
sg2748
g2816
sS'training_block.thisIndex'
p2922
g145
sg164
g2753
sg18
F5.786219965026248
sS'experimental_blocks.thisTrialN'
p2923
I4
sS'training_block.thisN'
p2924
I0
sS'word_presentation.thisN'
p2925
I8
sS'training_block.thisTrialN'
p2926
I0
sg17
S'space'
p2927
sg28
g29
sS'word_presentation.thisTrialN'
p2928
I8
sg41
g12
sS'word_presentation.thisIndex'
p2929
g31
(g131
S'\x08\x00\x00\x00'
p2930
tp2931
Rp2932
sa(dp2933
S'training_block.thisRepN'
p2934
I0
sg163
g2729
sg30
g40
sg2730
Vstride
p2935
sS'experimental_blocks.thisN'
p2936
I4
sg42
g43
sg2733
Vskate
p2937
sg2735
Vroll
p2938
sg2737
Vstroll
p2939
sS'experimental_blocks.thisIndex'
p2940
g2742
sS'word_presentation.thisRepN'
p2941
I0
sS'experimental_blocks.thisRepN'
p2942
I0
sg44
g49
sg162
g2747
sg2748
g2749
sS'training_block.thisIndex'
p2943
g145
sg164
g2753
sg18
F4.360614484747202
sS'experimental_blocks.thisTrialN'
p2944
I4
sS'training_block.thisN'
p2945
I0
sS'word_presentation.thisN'
p2946
I9
sS'training_block.thisTrialN'
p2947
I0
sg17
S'space'
p2948
sg28
g29
sS'word_presentation.thisTrialN'
p2949
I9
sg41
g12
sS'word_presentation.thisIndex'
p2950
g31
(g131
S'\t\x00\x00\x00'
p2951
tp2952
Rp2953
sa(dp2954
S'training_block.thisRepN'
p2955
I0
sg163
g2729
sg30
g40
sg2730
Vcut
p2956
sS'experimental_blocks.thisN'
p2957
I4
sg42
g43
sg2733
Vtwine
p2958
sg2735
Vtug
p2959
sg2737
Vstir
p2960
sS'experimental_blocks.thisIndex'
p2961
g2742
sS'word_presentation.thisRepN'
p2962
I0
sS'experimental_blocks.thisRepN'
p2963
I0
sg44
g49
sg162
g2747
sg2748
g2816
sS'training_block.thisIndex'
p2964
g145
sg164
g2753
sg18
F4.864222988377151
sS'experimental_blocks.thisTrialN'
p2965
I4
sS'training_block.thisN'
p2966
I0
sS'word_presentation.thisN'
p2967
I10
sS'training_block.thisTrialN'
p2968
I0
sg17
S'space'
p2969
sg28
g29
sS'word_presentation.thisTrialN'
p2970
I10
sg41
g12
sS'word_presentation.thisIndex'
p2971
g31
(g131
S'\n\x00\x00\x00'
p2972
tp2973
Rp2974
sa(dp2975
S'training_block.thisRepN'
p2976
I0
sg163
g2729
sg30
g40
sg2730
Vramble
p2977
sS'experimental_blocks.thisN'
p2978
I4
sg42
g43
sg2733
Vslide
p2979
sg2735
Vtrudge
p2980
sg2737
Vkneel
p2981
sS'experimental_blocks.thisIndex'
p2982
g2742
sS'word_presentation.thisRepN'
p2983
I0
sS'experimental_blocks.thisRepN'
p2984
I0
sg44
g49
sg162
g2747
sg2748
g2749
sS'training_block.thisIndex'
p2985
g145
sg164
g2753
sg18
F5.6352317652635975
sS'experimental_blocks.thisTrialN'
p2986
I4
sS'training_block.thisN'
p2987
I0
sS'word_presentation.thisN'
p2988
I11
sS'training_block.thisTrialN'
p2989
I0
sg17
S'space'
p2990
sg28
g29
sS'word_presentation.thisTrialN'
p2991
I11
sg41
g12
sS'word_presentation.thisIndex'
p2992
g31
(g131
S'\x0b\x00\x00\x00'
p2993
tp2994
Rp2995
sa(dp2996
S'training_block.thisRepN'
p2997
I0
sg163
g2729
sg30
g40
sg2730
Vslip
p2998
sS'experimental_blocks.thisN'
p2999
I4
sg42
g43
sg2733
Vflit
p3000
sg2735
Vtrot
p3001
sg2737
Vslither
p3002
sS'experimental_blocks.thisIndex'
p3003
g2742
sS'word_presentation.thisRepN'
p3004
I0
sS'experimental_blocks.thisRepN'
p3005
I0
sg44
g49
sg162
g2747
sg2748
g2749
sS'training_block.thisIndex'
p3006
g145
sg164
g2753
sg18
F5.266147787049704
sS'experimental_blocks.thisTrialN'
p3007
I4
sS'training_block.thisN'
p3008
I0
sS'word_presentation.thisN'
p3009
I12
sS'training_block.thisTrialN'
p3010
I0
sg17
S'space'
p3011
sg28
g29
sS'word_presentation.thisTrialN'
p3012
I12
sg41
g12
sS'word_presentation.thisIndex'
p3013
g31
(g131
S'\x0c\x00\x00\x00'
p3014
tp3015
Rp3016
sa(dp3017
S'training_block.thisRepN'
p3018
I0
sg163
g2729
sg30
g40
sg2730
Vkick
p3019
sS'experimental_blocks.thisN'
p3020
I4
sg42
g43
sg2733
Vwade
p3021
sg2735
Vtiptoe
p3022
sg2737
Vcreep
p3023
sS'experimental_blocks.thisIndex'
p3024
g2742
sS'word_presentation.thisRepN'
p3025
I0
sS'experimental_blocks.thisRepN'
p3026
I0
sg44
g49
sg162
g2747
sg2748
g2749
sS'training_block.thisIndex'
p3027
g145
sg164
g2753
sg18
F6.104752888819348
sS'experimental_blocks.thisTrialN'
p3028
I4
sS'training_block.thisN'
p3029
I0
sS'word_presentation.thisN'
p3030
I13
sS'training_block.thisTrialN'
p3031
I0
sg17
S'space'
p3032
sg28
g29
sS'word_presentation.thisTrialN'
p3033
I13
sg41
g12
sS'word_presentation.thisIndex'
p3034
g31
(g131
S'\r\x00\x00\x00'
p3035
tp3036
Rp3037
sa(dp3038
S'training_block.thisRepN'
p3039
I0
sg163
g2729
sg30
g40
sg2730
Vclean
p3040
sS'experimental_blocks.thisN'
p3041
I4
sg42
g43
sg2733
Vscrub
p3042
sg2735
Vstab
p3043
sg2737
Vswitch
p3044
sS'experimental_blocks.thisIndex'
p3045
g2742
sS'word_presentation.thisRepN'
p3046
I0
sS'experimental_blocks.thisRepN'
p3047
I0
sg44
g49
sg162
g2747
sg2748
g2816
sS'training_block.thisIndex'
p3048
g145
sg164
g2753
sg18
F5.5345950913579145
sS'experimental_blocks.thisTrialN'
p3049
I4
sS'training_block.thisN'
p3050
I0
sS'word_presentation.thisN'
p3051
I14
sS'training_block.thisTrialN'
p3052
I0
sg17
S'space'
p3053
sg28
g29
sS'word_presentation.thisTrialN'
p3054
I14
sg41
g12
sS'word_presentation.thisIndex'
p3055
g31
(g131
S'\x0e\x00\x00\x00'
p3056
tp3057
Rp3058
sa(dp3059
S'training_block.thisRepN'
p3060
I0
sg163
g2729
sg30
g40
sg2730
Vtread
p3061
sS'experimental_blocks.thisN'
p3062
I4
sg42
g43
sg2733
Vwalk
p3063
sg2735
Vskip
p3064
sg2737
Vrun
p3065
sS'experimental_blocks.thisIndex'
p3066
g2742
sS'word_presentation.thisRepN'
p3067
I0
sS'experimental_blocks.thisRepN'
p3068
I0
sg44
g49
sg162
g2747
sg2748
g2749
sS'training_block.thisIndex'
p3069
g145
sg164
g2753
sg18
F3.4720260959657026
sS'experimental_blocks.thisTrialN'
p3070
I4
sS'training_block.thisN'
p3071
I0
sS'word_presentation.thisN'
p3072
I15
sS'training_block.thisTrialN'
p3073
I0
sg17
S'space'
p3074
sg28
g29
sS'word_presentation.thisTrialN'
p3075
I15
sg41
g12
sS'word_presentation.thisIndex'
p3076
g31
(g131
S'\x0f\x00\x00\x00'
p3077
tp3078
Rp3079
sa(dp3080
S'training_block.thisRepN'
p3081
I0
sg163
g2729
sg30
g40
sg2730
Vflee
p3082
sS'experimental_blocks.thisN'
p3083
I4
sg42
g43
sg2733
Vbounce
p3084
sg2735
Vprance
p3085
sg2737
Vdance
p3086
sS'experimental_blocks.thisIndex'
p3087
g2742
sS'word_presentation.thisRepN'
p3088
I0
sS'experimental_blocks.thisRepN'
p3089
I0
sg44
g49
sg162
g2747
sg2748
g2749
sS'training_block.thisIndex'
p3090
g145
sg164
g2753
sg18
F5.199299793042883
sS'experimental_blocks.thisTrialN'
p3091
I4
sS'training_block.thisN'
p3092
I0
sS'word_presentation.thisN'
p3093
I16
sS'training_block.thisTrialN'
p3094
I0
sg17
S'space'
p3095
sg28
g29
sS'word_presentation.thisTrialN'
p3096
I16
sg41
g12
sS'word_presentation.thisIndex'
p3097
g31
(g131
S'\x10\x00\x00\x00'
p3098
tp3099
Rp3100
sa(dp3101
S'training_block.thisRepN'
p3102
I0
sg163
g2729
sg30
g40
sg2730
Vclap
p3103
sS'experimental_blocks.thisN'
p3104
I4
sg42
g43
sg2733
Vpinch
p3105
sg2735
Vwash
p3106
sg2737
Vfile
p3107
sS'experimental_blocks.thisIndex'
p3108
g2742
sS'word_presentation.thisRepN'
p3109
I0
sS'experimental_blocks.thisRepN'
p3110
I0
sg44
g49
sg162
g2747
sg2748
g2816
sS'training_block.thisIndex'
p3111
g145
sg164
g2753
sg18
F5.568237977120589
sS'experimental_blocks.thisTrialN'
p3112
I4
sS'training_block.thisN'
p3113
I0
sS'word_presentation.thisN'
p3114
I17
sS'training_block.thisTrialN'
p3115
I0
sg17
S'space'
p3116
sg28
g29
sS'word_presentation.thisTrialN'
p3117
I17
sg41
g12
sS'word_presentation.thisIndex'
p3118
g31
(g131
S'\x11\x00\x00\x00'
p3119
tp3120
Rp3121
sa(dp3122
S'training_block.thisRepN'
p3123
I0
sg163
g2729
sg30
g40
sg2730
Vpolish
p3124
sS'experimental_blocks.thisN'
p3125
I4
sg42
g43
sg2733
Vwrap
p3126
sg2735
Vfold
p3127
sg2737
Vscoop
p3128
sS'experimental_blocks.thisIndex'
p3129
g2742
sS'word_presentation.thisRepN'
p3130
I0
sS'experimental_blocks.thisRepN'
p3131
I0
sg44
g49
sg162
g2747
sg2748
g2816
sS'training_block.thisIndex'
p3132
g145
sg164
g2753
sg18
F5.719454153080733
sS'experimental_blocks.thisTrialN'
p3133
I4
sS'training_block.thisN'
p3134
I0
sS'word_presentation.thisN'
p3135
I18
sS'training_block.thisTrialN'
p3136
I0
sg17
S'space'
p3137
sg28
g29
sS'word_presentation.thisTrialN'
p3138
I18
sg41
g12
sS'word_presentation.thisIndex'
p3139
g31
(g131
S'\x12\x00\x00\x00'
p3140
tp3141
Rp3142
sa(dp3143
S'training_block.thisRepN'
p3144
I0
sg163
g2729
sg30
g40
sg2730
Vlimp
p3145
sS'experimental_blocks.thisN'
p3146
I4
sg42
g43
sg2733
Vstray
p3147
sg2735
Vmount
p3148
sg2737
Vclimb
p3149
sS'experimental_blocks.thisIndex'
p3150
g2742
sS'word_presentation.thisRepN'
p3151
I0
sS'experimental_blocks.thisRepN'
p3152
I0
sg44
g49
sg162
g2747
sg2748
g2749
sS'training_block.thisIndex'
p3153
g145
sg164
g2753
sg18
F5.501397885236656
sS'experimental_blocks.thisTrialN'
p3154
I4
sS'training_block.thisN'
p3155
I0
sS'word_presentation.thisN'
p3156
I19
sS'training_block.thisTrialN'
p3157
I0
sg17
S'space'
p3158
sg28
g29
sS'word_presentation.thisTrialN'
p3159
I19
sg41
g12
sS'word_presentation.thisIndex'
p3160
g31
(g131
S'\x13\x00\x00\x00'
p3161
tp3162
Rp3163
sa(dp3164
S'training_block.thisRepN'
p3165
I0
sg163
g2729
sg30
g40
sg2730
Vsqueeze
p3166
sS'experimental_blocks.thisN'
p3167
I4
sg42
g43
sg2733
Vthrow
p3168
sg2735
Vwipe
p3169
sg2737
Vpull
p3170
sS'experimental_blocks.thisIndex'
p3171
g2742
sS'word_presentation.thisRepN'
p3172
I0
sS'experimental_blocks.thisRepN'
p3173
I0
sg44
g49
sg162
g2747
sg2748
g2816
sS'training_block.thisIndex'
p3174
g145
sg164
g2753
sg18
F5.197099842509488
sS'experimental_blocks.thisTrialN'
p3175
I4
sS'training_block.thisN'
p3176
I0
sS'word_presentation.thisN'
p3177
I20
sS'training_block.thisTrialN'
p3178
I0
sg17
S'space'
p3179
sg28
g29
sS'word_presentation.thisTrialN'
p3180
I20
sg41
g12
sS'word_presentation.thisIndex'
p3181
g31
(g131
S'\x14\x00\x00\x00'
p3182
tp3183
Rp3184
sa(dp3185
S'training_block.thisRepN'
p3186
I0
sg163
g2729
sg30
g40
sg2730
Vpoke
p3187
sS'experimental_blocks.thisN'
p3188
I4
sg42
g43
sg2733
Vclick
p3189
sg2735
Vdunk
p3190
sg2737
Vlift
p3191
sS'experimental_blocks.thisIndex'
p3192
g2742
sS'word_presentation.thisRepN'
p3193
I0
sS'experimental_blocks.thisRepN'
p3194
I0
sg44
g49
sg162
g2747
sg2748
g2816
sS'training_block.thisIndex'
p3195
g145
sg164
g2753
sg18
F4.8809126633859705
sS'experimental_blocks.thisTrialN'
p3196
I4
sS'training_block.thisN'
p3197
I0
sS'word_presentation.thisN'
p3198
I21
sS'training_block.thisTrialN'
p3199
I0
sg17
S'space'
p3200
sg28
g29
sS'word_presentation.thisTrialN'
p3201
I21
sg41
g12
sS'word_presentation.thisIndex'
p3202
g31
(g131
S'\x15\x00\x00\x00'
p3203
tp3204
Rp3205
sa(dp3206
S'training_block.thisRepN'
p3207
I0
sg163
g2729
sg30
g40
sg2730
Vbash
p3208
sS'experimental_blocks.thisN'
p3209
I4
sg42
g43
sg2733
Vgrip
p3210
sg2735
Vbrush
p3211
sg2737
Vnip
p3212
sS'experimental_blocks.thisIndex'
p3213
g2742
sS'word_presentation.thisRepN'
p3214
I0
sS'experimental_blocks.thisRepN'
p3215
I0
sg44
g49
sg162
g2747
sg2748
g2816
sS'training_block.thisIndex'
p3216
g145
sg164
g2753
sg18
F4.260075797144964
sS'experimental_blocks.thisTrialN'
p3217
I4
sS'training_block.thisN'
p3218
I0
sS'word_presentation.thisN'
p3219
I22
sS'training_block.thisTrialN'
p3220
I0
sg17
S'space'
p3221
sg28
g29
sS'word_presentation.thisTrialN'
p3222
I22
sg41
g12
sS'word_presentation.thisIndex'
p3223
g31
(g131
S'\x16\x00\x00\x00'
p3224
tp3225
Rp3226
sa(dp3227
S'training_block.thisRepN'
p3228
I0
sg163
g2729
sg30
g40
sg2730
Vwobble
p3229
sS'experimental_blocks.thisN'
p3230
I4
sg42
g43
sg2733
Vsneak
p3231
sg2735
Vsway
p3232
sg2737
Vtraipse
p3233
sS'experimental_blocks.thisIndex'
p3234
g2742
sS'word_presentation.thisRepN'
p3235
I0
sS'experimental_blocks.thisRepN'
p3236
I0
sg44
g49
sg162
g2747
sg2748
g2749
sS'training_block.thisIndex'
p3237
g145
sg164
g2753
sg18
F6.372222700738348
sS'experimental_blocks.thisTrialN'
p3238
I4
sS'training_block.thisN'
p3239
I0
sS'word_presentation.thisN'
p3240
I23
sS'training_block.thisTrialN'
p3241
I0
sg17
S'space'
p3242
sg28
g29
sS'word_presentation.thisTrialN'
p3243
I23
sg41
g12
sS'word_presentation.thisIndex'
p3244
g31
(g131
S'\x17\x00\x00\x00'
p3245
tp3246
Rp3247
sa(dp3248
S'training_block.thisRepN'
p3249
I0
sg163
g2729
sg30
g40
sg2730
Vclutch
p3250
sS'experimental_blocks.thisN'
p3251
I4
sg42
g43
sg2733
Vgrasp
p3252
sg2735
Vpat
p3253
sg2737
Vbraid
p3254
sS'experimental_blocks.thisIndex'
p3255
g2742
sS'word_presentation.thisRepN'
p3256
I0
sS'experimental_blocks.thisRepN'
p3257
I0
sg44
g49
sg162
g2747
sg2748
g2816
sS'training_block.thisIndex'
p3258
g145
sg164
g2753
sg18
F6.641915379346756
sS'experimental_blocks.thisTrialN'
p3259
I4
sS'training_block.thisN'
p3260
I0
sS'word_presentation.thisN'
p3261
I24
sS'training_block.thisTrialN'
p3262
I0
sg17
S'space'
p3263
sg28
g29
sS'word_presentation.thisTrialN'
p3264
I24
sg41
g12
sS'word_presentation.thisIndex'
p3265
g31
(g131
S'\x18\x00\x00\x00'
p3266
tp3267
Rp3268
sa(dp3269
S'training_block.thisRepN'
p3270
I0
sg163
g2729
sg30
g40
sg2730
Vclaw
p3271
sS'experimental_blocks.thisN'
p3272
I4
sg42
g43
sg2733
Vslap
p3273
sg2735
Vwhip
p3274
sg2737
Vchop
p3275
sS'experimental_blocks.thisIndex'
p3276
g2742
sS'word_presentation.thisRepN'
p3277
I0
sS'experimental_blocks.thisRepN'
p3278
I0
sg44
g49
sg162
g2747
sg2748
g2816
sS'training_block.thisIndex'
p3279
g145
sg164
g2753
sg18
F4.545773827067023
sS'experimental_blocks.thisTrialN'
p3280
I4
sS'training_block.thisN'
p3281
I0
sS'word_presentation.thisN'
p3282
I25
sS'training_block.thisTrialN'
p3283
I0
sg17
S'space'
p3284
sg28
g29
sS'word_presentation.thisTrialN'
p3285
I25
sg41
g12
sS'word_presentation.thisIndex'
p3286
g31
(g131
S'\x19\x00\x00\x00'
p3287
tp3288
Rp3289
sa(dp3290
S'training_block.thisRepN'
p3291
I0
sg163
g2729
sg30
g40
sg2730
Vhike
p3292
sS'experimental_blocks.thisN'
p3293
I4
sg42
g43
sg2733
Vleap
p3294
sg2735
Vstagger
p3295
sg2737
Vinch
p3296
sS'experimental_blocks.thisIndex'
p3297
g2742
sS'word_presentation.thisRepN'
p3298
I0
sS'experimental_blocks.thisRepN'
p3299
I0
sg44
g49
sg162
g2747
sg2748
g2749
sS'training_block.thisIndex'
p3300
g145
sg164
g2753
sg18
F6.340387030089914
sS'experimental_blocks.thisTrialN'
p3301
I4
sS'training_block.thisN'
p3302
I0
sS'word_presentation.thisN'
p3303
I26
sS'training_block.thisTrialN'
p3304
I0
sg17
S'space'
p3305
sg28
g29
sS'word_presentation.thisTrialN'
p3306
I26
sg41
g12
sS'word_presentation.thisIndex'
p3307
g31
(g131
S'\x1a\x00\x00\x00'
p3308
tp3309
Rp3310
sa(dp3311
S'training_block.thisRepN'
p3312
I0
sg163
g2729
sg30
g40
sg2730
Vstrut
p3313
sS'experimental_blocks.thisN'
p3314
I4
sg42
g43
sg2733
Vwander
p3315
sg2735
Vscuff
p3316
sg2737
Vhop
p3317
sS'experimental_blocks.thisIndex'
p3318
g2742
sS'word_presentation.thisRepN'
p3319
I0
sS'experimental_blocks.thisRepN'
p3320
I0
sg44
g49
sg162
g2747
sg2748
g2749
sS'training_block.thisIndex'
p3321
g145
sg164
g2753
sg18
F4.746249060634
sS'experimental_blocks.thisTrialN'
p3322
I4
sS'training_block.thisN'
p3323
I0
sS'word_presentation.thisN'
p3324
I27
sS'training_block.thisTrialN'
p3325
I0
sg17
S'space'
p3326
sg28
g29
sS'word_presentation.thisTrialN'
p3327
I27
sg41
g12
sS'word_presentation.thisIndex'
p3328
g31
(g131
S'\x1b\x00\x00\x00'
p3329
tp3330
Rp3331
sa(dp3332
S'training_block.thisRepN'
p3333
I0
sg163
g2729
sS'experimental_blocks.thisRepN'
p3334
I0
sS'experimental_blocks.thisTrialN'
p3335
I4
sS'training_block.thisN'
p3336
I0
sg42
g43
sg41
g12
sg30
g40
sS'training_block.thisTrialN'
p3337
I0
sg44
g49
sS'experimental_blocks.thisN'
p3338
I4
sg164
g2753
sg28
g29
sS'experimental_blocks.thisIndex'
p3339
g2742
sg162
g2747
sS'training_block.thisIndex'
p3340
g145
sa(dp3341
S'training_block.thisRepN'
p3342
I0
sg163
g31
(g35
S'\x9a\x99\x99\x99\x99\x99\xd9?'
p3343
tp3344
Rp3345
sg30
g40
sS'word4'
p3346
Vstray
p3347
sS'experimental_blocks.thisN'
p3348
I5
sg42
g43
sS'word1'
p3349
Vroll
p3350
sS'word3'
p3351
Vtrek
p3352
sS'word2'
p3353
Vlimp
p3354
sS'experimental_blocks.thisIndex'
p3355
g31
(g131
S'\x04\x00\x00\x00'
p3356
tp3357
Rp3358
sS'word_presentation.thisRepN'
p3359
I0
sS'experimental_blocks.thisRepN'
p3360
I0
sg44
g49
sg162
g31
(g35
S'ffffff\xd6?'
p3361
tp3362
Rp3363
sS'type'
p3364
Vleg
p3365
sS'training_block.thisIndex'
p3366
g145
sg164
g31
(g35
S'\x00\x00\x00\x00\x00\x00\xe8?'
p3367
tp3368
Rp3369
sg18
F4.19300535842558
sS'experimental_blocks.thisTrialN'
p3370
I5
sS'training_block.thisN'
p3371
I0
sS'word_presentation.thisN'
p3372
I0
sS'training_block.thisTrialN'
p3373
I0
sg17
S'space'
p3374
sg28
g29
sS'word_presentation.thisTrialN'
p3375
I0
sg41
g12
sS'word_presentation.thisIndex'
p3376
g31
(g131
S'\x00\x00\x00\x00'
p3377
tp3378
Rp3379
sa(dp3380
S'training_block.thisRepN'
p3381
I0
sg163
g3345
sg30
g40
sg3346
Vstagger
p3382
sS'experimental_blocks.thisN'
p3383
I5
sg42
g43
sg3349
Vramble
p3384
sg3351
Vwander
p3385
sg3353
Vmarch
p3386
sS'experimental_blocks.thisIndex'
p3387
g3358
sS'word_presentation.thisRepN'
p3388
I0
sS'experimental_blocks.thisRepN'
p3389
I0
sg44
g49
sg162
g3363
sg3364
g3365
sS'training_block.thisIndex'
p3390
g145
sg164
g3369
sg18
F4.44521973033261
sS'experimental_blocks.thisTrialN'
p3391
I5
sS'training_block.thisN'
p3392
I0
sS'word_presentation.thisN'
p3393
I1
sS'training_block.thisTrialN'
p3394
I0
sg17
S'space'
p3395
sg28
g29
sS'word_presentation.thisTrialN'
p3396
I1
sg41
g12
sS'word_presentation.thisIndex'
p3397
g31
(g131
S'\x01\x00\x00\x00'
p3398
tp3399
Rp3400
sa(dp3401
S'training_block.thisRepN'
p3402
I0
sg163
g3345
sg30
g40
sg3346
Vdelve
p3403
sS'experimental_blocks.thisN'
p3404
I5
sg42
g43
sg3349
Vstir
p3405
sg3351
Vcut
p3406
sg3353
Vfold
p3407
sS'experimental_blocks.thisIndex'
p3408
g3358
sS'word_presentation.thisRepN'
p3409
I0
sS'experimental_blocks.thisRepN'
p3410
I0
sg44
g49
sg162
g3363
sg3364
Varm
p3411
sS'training_block.thisIndex'
p3412
g145
sg164
g3369
sg18
F4.662092260423378
sS'experimental_blocks.thisTrialN'
p3413
I5
sS'training_block.thisN'
p3414
I0
sS'word_presentation.thisN'
p3415
I2
sS'training_block.thisTrialN'
p3416
I0
sg17
S'space'
p3417
sg28
g29
sS'word_presentation.thisTrialN'
p3418
I2
sg41
g12
sS'word_presentation.thisIndex'
p3419
g31
(g131
S'\x02\x00\x00\x00'
p3420
tp3421
Rp3422
sa(dp3423
S'training_block.thisRepN'
p3424
I0
sg163
g3345
sg30
g40
sg3346
Vstride
p3425
sS'experimental_blocks.thisN'
p3426
I5
sg42
g43
sg3349
Vwobble
p3427
sg3351
Vstep
p3428
sg3353
Vsneak
p3429
sS'experimental_blocks.thisIndex'
p3430
g3358
sS'word_presentation.thisRepN'
p3431
I0
sS'experimental_blocks.thisRepN'
p3432
I0
sg44
g49
sg162
g3363
sg3364
g3365
sS'training_block.thisIndex'
p3433
g145
sg164
g3369
sg18
F6.054168645488971
sS'experimental_blocks.thisTrialN'
p3434
I5
sS'training_block.thisN'
p3435
I0
sS'word_presentation.thisN'
p3436
I3
sS'training_block.thisTrialN'
p3437
I0
sg17
S'space'
p3438
sg28
g29
sS'word_presentation.thisTrialN'
p3439
I3
sg41
g12
sS'word_presentation.thisIndex'
p3440
g31
(g131
S'\x03\x00\x00\x00'
p3441
tp3442
Rp3443
sa(dp3444
S'training_block.thisRepN'
p3445
I0
sg163
g3345
sg30
g40
sg3346
Vchop
p3446
sS'experimental_blocks.thisN'
p3447
I5
sg42
g43
sg3349
Vshake
p3448
sg3351
Vgrab
p3449
sg3353
Vthrow
p3450
sS'experimental_blocks.thisIndex'
p3451
g3358
sS'word_presentation.thisRepN'
p3452
I0
sS'experimental_blocks.thisRepN'
p3453
I0
sg44
g49
sg162
g3363
sg3364
g3411
sS'training_block.thisIndex'
p3454
g145
sg164
g3369
sg18
F5.685775312667829
sS'experimental_blocks.thisTrialN'
p3455
I5
sS'training_block.thisN'
p3456
I0
sS'word_presentation.thisN'
p3457
I4
sS'training_block.thisTrialN'
p3458
I0
sg17
S'space'
p3459
sg28
g29
sS'word_presentation.thisTrialN'
p3460
I4
sg41
g12
sS'word_presentation.thisIndex'
p3461
g31
(g131
S'\x04\x00\x00\x00'
p3462
tp3463
Rp3464
sa(dp3465
S'training_block.thisRepN'
p3466
I0
sg163
g3345
sg30
g40
sg3346
Vtraipse
p3467
sS'experimental_blocks.thisN'
p3468
I5
sg42
g43
sg3349
Vflee
p3469
sg3351
Vkick
p3470
sg3353
Vleap
p3471
sS'experimental_blocks.thisIndex'
p3472
g3358
sS'word_presentation.thisRepN'
p3473
I0
sS'experimental_blocks.thisRepN'
p3474
I0
sg44
g49
sg162
g3363
sg3364
g3365
sS'training_block.thisIndex'
p3475
g145
sg164
g3369
sg18
F4.444806449395401
sS'experimental_blocks.thisTrialN'
p3476
I5
sS'training_block.thisN'
p3477
I0
sS'word_presentation.thisN'
p3478
I5
sS'training_block.thisTrialN'
p3479
I0
sg17
S'space'
p3480
sg28
g29
sS'word_presentation.thisTrialN'
p3481
I5
sg41
g12
sS'word_presentation.thisIndex'
p3482
g31
(g131
S'\x05\x00\x00\x00'
p3483
tp3484
Rp3485
sa(dp3486
S'training_block.thisRepN'
p3487
I0
sg163
g3345
sg30
g40
sg3346
Vrush
p3488
sS'experimental_blocks.thisN'
p3489
I5
sg42
g43
sg3349
Vsprint
p3490
sg3351
Vglide
p3491
sg3353
Vtread
p3492
sS'experimental_blocks.thisIndex'
p3493
g3358
sS'word_presentation.thisRepN'
p3494
I0
sS'experimental_blocks.thisRepN'
p3495
I0
sg44
g49
sg162
g3363
sg3364
g3365
sS'training_block.thisIndex'
p3496
g145
sg164
g3369
sg18
F4.595477378992655
sS'experimental_blocks.thisTrialN'
p3497
I5
sS'training_block.thisN'
p3498
I0
sS'word_presentation.thisN'
p3499
I6
sS'training_block.thisTrialN'
p3500
I0
sg17
S'space'
p3501
sg28
g29
sS'word_presentation.thisTrialN'
p3502
I6
sg41
g12
sS'word_presentation.thisIndex'
p3503
g31
(g131
S'\x06\x00\x00\x00'
p3504
tp3505
Rp3506
sa(dp3507
S'training_block.thisRepN'
p3508
I0
sg163
g3345
sg30
g40
sg3346
Vskim
p3509
sS'experimental_blocks.thisN'
p3510
I5
sg42
g43
sg3349
Vbraid
p3511
sg3351
Vclean
p3512
sg3353
Vhack
p3513
sS'experimental_blocks.thisIndex'
p3514
g3358
sS'word_presentation.thisRepN'
p3515
I0
sS'experimental_blocks.thisRepN'
p3516
I0
sg44
g49
sg162
g3363
sg3364
g3411
sS'training_block.thisIndex'
p3517
g145
sg164
g3369
sg18
F4.880626211495837
sS'experimental_blocks.thisTrialN'
p3518
I5
sS'training_block.thisN'
p3519
I0
sS'word_presentation.thisN'
p3520
I7
sS'training_block.thisTrialN'
p3521
I0
sg17
S'space'
p3522
sg28
g29
sS'word_presentation.thisTrialN'
p3523
I7
sg41
g12
sS'word_presentation.thisIndex'
p3524
g31
(g131
S'\x07\x00\x00\x00'
p3525
tp3526
Rp3527
sa(dp3528
S'training_block.thisRepN'
p3529
I0
sg163
g3345
sg30
g40
sg3346
Vslip
p3530
sS'experimental_blocks.thisN'
p3531
I5
sg42
g43
sg3349
Vdance
p3532
sg3351
Vsway
p3533
sg3353
Vstomp
p3534
sS'experimental_blocks.thisIndex'
p3535
g3358
sS'word_presentation.thisRepN'
p3536
I0
sS'experimental_blocks.thisRepN'
p3537
I0
sg44
g49
sg162
g3363
sg3364
g3365
sS'training_block.thisIndex'
p3538
g145
sg164
g3369
sg18
F7.144702062374563
sS'experimental_blocks.thisTrialN'
p3539
I5
sS'training_block.thisN'
p3540
I0
sS'word_presentation.thisN'
p3541
I8
sS'training_block.thisTrialN'
p3542
I0
sg17
S'space'
p3543
sg28
g29
sS'word_presentation.thisTrialN'
p3544
I8
sg41
g12
sS'word_presentation.thisIndex'
p3545
g31
(g131
S'\x08\x00\x00\x00'
p3546
tp3547
Rp3548
sa(dp3549
S'training_block.thisRepN'
p3550
I0
sg163
g3345
sg30
g40
sg3346
Vnip
p3551
sS'experimental_blocks.thisN'
p3552
I5
sg42
g43
sg3349
Vdunk
p3553
sg3351
Vbash
p3554
sg3353
Vscratch
p3555
sS'experimental_blocks.thisIndex'
p3556
g3358
sS'word_presentation.thisRepN'
p3557
I0
sS'experimental_blocks.thisRepN'
p3558
I0
sg44
g49
sg162
g3363
sg3364
g3411
sS'training_block.thisIndex'
p3559
g145
sg164
g3369
sg18
F5.450822729344509
sS'experimental_blocks.thisTrialN'
p3560
I5
sS'training_block.thisN'
p3561
I0
sS'word_presentation.thisN'
p3562
I9
sS'training_block.thisTrialN'
p3563
I0
sg17
S'space'
p3564
sg28
g29
sS'word_presentation.thisTrialN'
p3565
I9
sg41
g12
sS'word_presentation.thisIndex'
p3566
g31
(g131
S'\t\x00\x00\x00'
p3567
tp3568
Rp3569
sa(dp3570
S'training_block.thisRepN'
p3571
I0
sg163
g3345
sg30
g40
sg3346
Vcarve
p3572
sS'experimental_blocks.thisN'
p3573
I5
sg42
g43
sg3349
Vbind
p3574
sg3351
Vpoke
p3575
sg3353
Vscrub
p3576
sS'experimental_blocks.thisIndex'
p3577
g3358
sS'word_presentation.thisRepN'
p3578
I0
sS'experimental_blocks.thisRepN'
p3579
I0
sg44
g49
sg162
g3363
sg3364
g3411
sS'training_block.thisIndex'
p3580
g145
sg164
g3369
sg18
F7.563333525617054
sS'experimental_blocks.thisTrialN'
p3581
I5
sS'training_block.thisN'
p3582
I0
sS'word_presentation.thisN'
p3583
I10
sS'training_block.thisTrialN'
p3584
I0
sg17
S'space'
p3585
sg28
g29
sS'word_presentation.thisTrialN'
p3586
I10
sg41
g12
sS'word_presentation.thisIndex'
p3587
g31
(g131
S'\n\x00\x00\x00'
p3588
tp3589
Rp3590
sa(dp3591
S'training_block.thisRepN'
p3592
I0
sg163
g3345
sg30
g40
sg3346
Vpeel
p3593
sS'experimental_blocks.thisN'
p3594
I5
sg42
g43
sg3349
Vpat
p3595
sg3351
Vslap
p3596
sg3353
Vscoop
p3597
sS'experimental_blocks.thisIndex'
p3598
g3358
sS'word_presentation.thisRepN'
p3599
I0
sS'experimental_blocks.thisRepN'
p3600
I0
sg44
g49
sg162
g3363
sg3364
g3411
sS'training_block.thisIndex'
p3601
g145
sg164
g3369
sg18
F6.624755923232442
sS'experimental_blocks.thisTrialN'
p3602
I5
sS'training_block.thisN'
p3603
I0
sS'word_presentation.thisN'
p3604
I11
sS'training_block.thisTrialN'
p3605
I0
sg17
S'space'
p3606
sg28
g29
sS'word_presentation.thisTrialN'
p3607
I11
sg41
g12
sS'word_presentation.thisIndex'
p3608
g31
(g131
S'\x0b\x00\x00\x00'
p3609
tp3610
Rp3611
sa(dp3612
S'training_block.thisRepN'
p3613
I0
sg163
g3345
sg30
g40
sg3346
Vstrut
p3614
sS'experimental_blocks.thisN'
p3615
I5
sg42
g43
sg3349
Vpace
p3616
sg3351
Vtiptoe
p3617
sg3353
Vtrudge
p3618
sS'experimental_blocks.thisIndex'
p3619
g3358
sS'word_presentation.thisRepN'
p3620
I0
sS'experimental_blocks.thisRepN'
p3621
I0
sg44
g49
sg162
g3363
sg3364
g3365
sS'training_block.thisIndex'
p3622
g145
sg164
g3369
sg18
F15.58034284142559
sS'experimental_blocks.thisTrialN'
p3623
I5
sS'training_block.thisN'
p3624
I0
sS'word_presentation.thisN'
p3625
I12
sS'training_block.thisTrialN'
p3626
I0
sg17
S'space'
p3627
sg28
g29
sS'word_presentation.thisTrialN'
p3628
I12
sg41
g12
sS'word_presentation.thisIndex'
p3629
g31
(g131
S'\x0c\x00\x00\x00'
p3630
tp3631
Rp3632
sa(dp3633
S'training_block.thisRepN'
p3634
I0
sg163
g3345
sg30
g40
sg3346
Vwade
p3635
sS'experimental_blocks.thisN'
p3636
I5
sg42
g43
sg3349
Vinch
p3637
sg3351
Vskate
p3638
sg3353
Vcrawl
p3639
sS'experimental_blocks.thisIndex'
p3640
g3358
sS'word_presentation.thisRepN'
p3641
I0
sS'experimental_blocks.thisRepN'
p3642
I0
sg44
g49
sg162
g3363
sg3364
g3365
sS'training_block.thisIndex'
p3643
g145
sg164
g3369
sg18
F11.38789853360504
sS'experimental_blocks.thisTrialN'
p3644
I5
sS'training_block.thisN'
p3645
I0
sS'word_presentation.thisN'
p3646
I13
sS'training_block.thisTrialN'
p3647
I0
sg17
S'space'
p3648
sg28
g29
sS'word_presentation.thisTrialN'
p3649
I13
sg41
g12
sS'word_presentation.thisIndex'
p3650
g31
(g131
S'\r\x00\x00\x00'
p3651
tp3652
Rp3653
sa(dp3654
S'training_block.thisRepN'
p3655
I0
sg163
g3345
sg30
g40
sg3346
Vcatch
p3656
sS'experimental_blocks.thisN'
p3657
I5
sg42
g43
sg3349
Vpush
p3658
sg3351
Vfile
p3659
sg3353
Vsnatch
p3660
sS'experimental_blocks.thisIndex'
p3661
g3358
sS'word_presentation.thisRepN'
p3662
I0
sS'experimental_blocks.thisRepN'
p3663
I0
sg44
g49
sg162
g3363
sg3364
g3411
sS'training_block.thisIndex'
p3664
g145
sg164
g3369
sg18
F5.81981543805523
sS'experimental_blocks.thisTrialN'
p3665
I5
sS'training_block.thisN'
p3666
I0
sS'word_presentation.thisN'
p3667
I14
sS'training_block.thisTrialN'
p3668
I0
sg17
S'space'
p3669
sg28
g29
sS'word_presentation.thisTrialN'
p3670
I14
sg41
g12
sS'word_presentation.thisIndex'
p3671
g31
(g131
S'\x0e\x00\x00\x00'
p3672
tp3673
Rp3674
sa(dp3675
S'training_block.thisRepN'
p3676
I0
sg163
g3345
sg30
g40
sg3346
Vroam
p3677
sS'experimental_blocks.thisN'
p3678
I5
sg42
g43
sg3349
Vstamp
p3679
sg3351
Vhike
p3680
sg3353
Vprance
p3681
sS'experimental_blocks.thisIndex'
p3682
g3358
sS'word_presentation.thisRepN'
p3683
I0
sS'experimental_blocks.thisRepN'
p3684
I0
sg44
g49
sg162
g3363
sg3364
g3365
sS'training_block.thisIndex'
p3685
g145
sg164
g3369
sg18
F5.316021234579239
sS'experimental_blocks.thisTrialN'
p3686
I5
sS'training_block.thisN'
p3687
I0
sS'word_presentation.thisN'
p3688
I15
sS'training_block.thisTrialN'
p3689
I0
sg17
S'space'
p3690
sg28
g29
sS'word_presentation.thisTrialN'
p3691
I15
sg41
g12
sS'word_presentation.thisIndex'
p3692
g31
(g131
S'\x0f\x00\x00\x00'
p3693
tp3694
Rp3695
sa(dp3696
S'training_block.thisRepN'
p3697
I0
sg163
g3345
sg30
g40
sg3346
Vwalk
p3698
sS'experimental_blocks.thisN'
p3699
I5
sg42
g43
sg3349
Vtrot
p3700
sg3351
Vslither
p3701
sg3353
Vstumble
p3702
sS'experimental_blocks.thisIndex'
p3703
g3358
sS'word_presentation.thisRepN'
p3704
I0
sS'experimental_blocks.thisRepN'
p3705
I0
sg44
g49
sg162
g3363
sg3364
g3365
sS'training_block.thisIndex'
p3706
g145
sg164
g3369
sg18
F5.903602418995433
sS'experimental_blocks.thisTrialN'
p3707
I5
sS'training_block.thisN'
p3708
I0
sS'word_presentation.thisN'
p3709
I16
sS'training_block.thisTrialN'
p3710
I0
sg17
S'space'
p3711
sg28
g29
sS'word_presentation.thisTrialN'
p3712
I16
sg41
g12
sS'word_presentation.thisIndex'
p3713
g31
(g131
S'\x10\x00\x00\x00'
p3714
tp3715
Rp3716
sa(dp3717
S'training_block.thisRepN'
p3718
I0
sg163
g3345
sg30
g40
sg3346
Vpunch
p3719
sS'experimental_blocks.thisN'
p3720
I5
sg42
g43
sg3349
Vclick
p3721
sg3351
Vsqueeze
p3722
sg3353
Vknock
p3723
sS'experimental_blocks.thisIndex'
p3724
g3358
sS'word_presentation.thisRepN'
p3725
I0
sS'experimental_blocks.thisRepN'
p3726
I0
sg44
g49
sg162
g3363
sg3364
g3411
sS'training_block.thisIndex'
p3727
g145
sg164
g3369
sg18
F5.433516688881355
sS'experimental_blocks.thisTrialN'
p3728
I5
sS'training_block.thisN'
p3729
I0
sS'word_presentation.thisN'
p3730
I17
sS'training_block.thisTrialN'
p3731
I0
sg17
S'space'
p3732
sg28
g29
sS'word_presentation.thisTrialN'
p3733
I17
sg41
g12
sS'word_presentation.thisIndex'
p3734
g31
(g131
S'\x11\x00\x00\x00'
p3735
tp3736
Rp3737
sa(dp3738
S'training_block.thisRepN'
p3739
I0
sg163
g3345
sg30
g40
sg3346
Vpolish
p3740
sS'experimental_blocks.thisN'
p3741
I5
sg42
g43
sg3349
Vpinch
p3742
sg3351
Vrub
p3743
sg3353
Vstab
p3744
sS'experimental_blocks.thisIndex'
p3745
g3358
sS'word_presentation.thisRepN'
p3746
I0
sS'experimental_blocks.thisRepN'
p3747
I0
sg44
g49
sg162
g3363
sg3364
g3411
sS'training_block.thisIndex'
p3748
g145
sg164
g3369
sg18
F5.63488209640127
sS'experimental_blocks.thisTrialN'
p3749
I5
sS'training_block.thisN'
p3750
I0
sS'word_presentation.thisN'
p3751
I18
sS'training_block.thisTrialN'
p3752
I0
sg17
S'space'
p3753
sg28
g29
sS'word_presentation.thisTrialN'
p3754
I18
sg41
g12
sS'word_presentation.thisIndex'
p3755
g31
(g131
S'\x12\x00\x00\x00'
p3756
tp3757
Rp3758
sa(dp3759
S'training_block.thisRepN'
p3760
I0
sg163
g3345
sg30
g40
sg3346
Vtug
p3761
sS'experimental_blocks.thisN'
p3762
I5
sg42
g43
sg3349
Vgrip
p3763
sg3351
Vtwine
p3764
sg3353
Vswitch
p3765
sS'experimental_blocks.thisIndex'
p3766
g3358
sS'word_presentation.thisRepN'
p3767
I0
sS'experimental_blocks.thisRepN'
p3768
I0
sg44
g49
sg162
g3363
sg3364
g3411
sS'training_block.thisIndex'
p3769
g145
sg164
g3369
sg18
F5.517902255502122
sS'experimental_blocks.thisTrialN'
p3770
I5
sS'training_block.thisN'
p3771
I0
sS'word_presentation.thisN'
p3772
I19
sS'training_block.thisTrialN'
p3773
I0
sg17
S'space'
p3774
sg28
g29
sS'word_presentation.thisTrialN'
p3775
I19
sg41
g12
sS'word_presentation.thisIndex'
p3776
g31
(g131
S'\x13\x00\x00\x00'
p3777
tp3778
Rp3779
sa(dp3780
S'training_block.thisRepN'
p3781
I0
sg163
g3345
sg30
g40
sg3346
Vskip
p3782
sS'experimental_blocks.thisN'
p3783
I5
sg42
g43
sg3349
Vplod
p3784
sg3351
Vkneel
p3785
sg3353
Vcreep
p3786
sS'experimental_blocks.thisIndex'
p3787
g3358
sS'word_presentation.thisRepN'
p3788
I0
sS'experimental_blocks.thisRepN'
p3789
I0
sg44
g49
sg162
g3363
sg3364
g3365
sS'training_block.thisIndex'
p3790
g145
sg164
g3369
sg18
F7.530448058172624
sS'experimental_blocks.thisTrialN'
p3791
I5
sS'training_block.thisN'
p3792
I0
sS'word_presentation.thisN'
p3793
I20
sS'training_block.thisTrialN'
p3794
I0
sg17
S'space'
p3795
sg28
g29
sS'word_presentation.thisTrialN'
p3796
I20
sg41
g12
sS'word_presentation.thisIndex'
p3797
g31
(g131
S'\x14\x00\x00\x00'
p3798
tp3799
Rp3800
sa(dp3801
S'training_block.thisRepN'
p3802
I0
sg163
g3345
sg30
g40
sg3346
Vstroll
p3803
sS'experimental_blocks.thisN'
p3804
I5
sg42
g43
sg3349
Vtrip
p3805
sg3351
Vjump
p3806
sg3353
Vslide
p3807
sS'experimental_blocks.thisIndex'
p3808
g3358
sS'word_presentation.thisRepN'
p3809
I0
sS'experimental_blocks.thisRepN'
p3810
I0
sg44
g49
sg162
g3363
sg3364
g3365
sS'training_block.thisIndex'
p3811
g145
sg164
g3369
sg18
F6.8259008615677885
sS'experimental_blocks.thisTrialN'
p3812
I5
sS'training_block.thisN'
p3813
I0
sS'word_presentation.thisN'
p3814
I21
sS'training_block.thisTrialN'
p3815
I0
sg17
S'space'
p3816
sg28
g29
sS'word_presentation.thisTrialN'
p3817
I21
sg41
g12
sS'word_presentation.thisIndex'
p3818
g31
(g131
S'\x15\x00\x00\x00'
p3819
tp3820
Rp3821
sa(dp3822
S'training_block.thisRepN'
p3823
I0
sg163
g3345
sg30
g40
sg3346
Vtoss
p3824
sS'experimental_blocks.thisN'
p3825
I5
sg42
g43
sg3349
Vgrate
p3826
sg3351
Vclutch
p3827
sg3353
Vclap
p3828
sS'experimental_blocks.thisIndex'
p3829
g3358
sS'word_presentation.thisRepN'
p3830
I0
sS'experimental_blocks.thisRepN'
p3831
I0
sg44
g49
sg162
g3363
sg3364
g3411
sS'training_block.thisIndex'
p3832
g145
sg164
g3369
sg18
F4.947701786590187
sS'experimental_blocks.thisTrialN'
p3833
I5
sS'training_block.thisN'
p3834
I0
sS'word_presentation.thisN'
p3835
I22
sS'training_block.thisTrialN'
p3836
I0
sg17
S'space'
p3837
sg28
g29
sS'word_presentation.thisTrialN'
p3838
I22
sg41
g12
sS'word_presentation.thisIndex'
p3839
g31
(g131
S'\x16\x00\x00\x00'
p3840
tp3841
Rp3842
sa(dp3843
S'training_block.thisRepN'
p3844
I0
sg163
g3345
sg30
g40
sg3346
Vwipe
p3845
sS'experimental_blocks.thisN'
p3846
I5
sg42
g43
sg3349
Vscrape
p3847
sg3351
Vwash
p3848
sg3353
Vbrush
p3849
sS'experimental_blocks.thisIndex'
p3850
g3358
sS'word_presentation.thisRepN'
p3851
I0
sS'experimental_blocks.thisRepN'
p3852
I0
sg44
g49
sg162
g3363
sg3364
g3411
sS'training_block.thisIndex'
p3853
g145
sg164
g3369
sg18
F4.394331255341967
sS'experimental_blocks.thisTrialN'
p3854
I5
sS'training_block.thisN'
p3855
I0
sS'word_presentation.thisN'
p3856
I23
sS'training_block.thisTrialN'
p3857
I0
sg17
S'space'
p3858
sg28
g29
sS'word_presentation.thisTrialN'
p3859
I23
sg41
g12
sS'word_presentation.thisIndex'
p3860
g31
(g131
S'\x17\x00\x00\x00'
p3861
tp3862
Rp3863
sa(dp3864
S'training_block.thisRepN'
p3865
I0
sg163
g3345
sg30
g40
sg3346
Vclaw
p3866
sS'experimental_blocks.thisN'
p3867
I5
sg42
g43
sg3349
Vwrap
p3868
sg3351
Vdig
p3869
sg3353
Vlift
p3870
sS'experimental_blocks.thisIndex'
p3871
g3358
sS'word_presentation.thisRepN'
p3872
I0
sS'experimental_blocks.thisRepN'
p3873
I0
sg44
g49
sg162
g3363
sg3364
g3411
sS'training_block.thisIndex'
p3874
g145
sg164
g3369
sg18
F4.5116615553124575
sS'experimental_blocks.thisTrialN'
p3875
I5
sS'training_block.thisN'
p3876
I0
sS'word_presentation.thisN'
p3877
I24
sS'training_block.thisTrialN'
p3878
I0
sg17
S'space'
p3879
sg28
g29
sS'word_presentation.thisTrialN'
p3880
I24
sg41
g12
sS'word_presentation.thisIndex'
p3881
g31
(g131
S'\x18\x00\x00\x00'
p3882
tp3883
Rp3884
sa(dp3885
S'training_block.thisRepN'
p3886
I0
sg163
g3345
sg30
g40
sg3346
Vmount
p3887
sS'experimental_blocks.thisN'
p3888
I5
sg42
g43
sg3349
Vclimb
p3889
sg3351
Vbounce
p3890
sg3353
Vjog
p3891
sS'experimental_blocks.thisIndex'
p3892
g3358
sS'word_presentation.thisRepN'
p3893
I0
sS'experimental_blocks.thisRepN'
p3894
I0
sg44
g49
sg162
g3363
sg3364
g3365
sS'training_block.thisIndex'
p3895
g145
sg164
g3369
sg18
F5.43381578417393
sS'experimental_blocks.thisTrialN'
p3896
I5
sS'training_block.thisN'
p3897
I0
sS'word_presentation.thisN'
p3898
I25
sS'training_block.thisTrialN'
p3899
I0
sg17
S'space'
p3900
sg28
g29
sS'word_presentation.thisTrialN'
p3901
I25
sg41
g12
sS'word_presentation.thisIndex'
p3902
g31
(g131
S'\x19\x00\x00\x00'
p3903
tp3904
Rp3905
sa(dp3906
S'training_block.thisRepN'
p3907
I0
sg163
g3345
sg30
g40
sg3346
Vflit
p3908
sS'experimental_blocks.thisN'
p3909
I5
sg42
g43
sg3349
Vhop
p3910
sg3351
Vscuff
p3911
sg3353
Vrun
p3912
sS'experimental_blocks.thisIndex'
p3913
g3358
sS'word_presentation.thisRepN'
p3914
I0
sS'experimental_blocks.thisRepN'
p3915
I0
sg44
g49
sg162
g3363
sg3364
g3365
sS'training_block.thisIndex'
p3916
g145
sg164
g3369
sg18
F5.450664291816793
sS'experimental_blocks.thisTrialN'
p3917
I5
sS'training_block.thisN'
p3918
I0
sS'word_presentation.thisN'
p3919
I26
sS'training_block.thisTrialN'
p3920
I0
sg17
S'space'
p3921
sg28
g29
sS'word_presentation.thisTrialN'
p3922
I26
sg41
g12
sS'word_presentation.thisIndex'
p3923
g31
(g131
S'\x1a\x00\x00\x00'
p3924
tp3925
Rp3926
sa(dp3927
S'training_block.thisRepN'
p3928
I0
sg163
g3345
sg30
g40
sg3346
Vseize
p3929
sS'experimental_blocks.thisN'
p3930
I5
sg42
g43
sg3349
Vwhip
p3931
sg3351
Vgrasp
p3932
sg3353
Vpull
p3933
sS'experimental_blocks.thisIndex'
p3934
g3358
sS'word_presentation.thisRepN'
p3935
I0
sS'experimental_blocks.thisRepN'
p3936
I0
sg44
g49
sg162
g3363
sg3364
g3411
sS'training_block.thisIndex'
p3937
g145
sg164
g3369
sg18
F6.809627233240462
sS'experimental_blocks.thisTrialN'
p3938
I5
sS'training_block.thisN'
p3939
I0
sS'word_presentation.thisN'
p3940
I27
sS'training_block.thisTrialN'
p3941
I0
sg17
S'space'
p3942
sg28
g29
sS'word_presentation.thisTrialN'
p3943
I27
sg41
g12
sS'word_presentation.thisIndex'
p3944
g31
(g131
S'\x1b\x00\x00\x00'
p3945
tp3946
Rp3947
sa(dp3948
S'training_block.thisRepN'
p3949
I0
sg163
g3345
sS'experimental_blocks.thisRepN'
p3950
I0
sS'experimental_blocks.thisTrialN'
p3951
I5
sS'training_block.thisN'
p3952
I0
sg42
g43
sg41
g12
sg30
g40
sS'training_block.thisTrialN'
p3953
I0
sg44
g49
sS'experimental_blocks.thisN'
p3954
I5
sg164
g3369
sg28
g29
sS'experimental_blocks.thisIndex'
p3955
g3358
sg162
g3363
sS'training_block.thisIndex'
p3956
g145
sa(dp3957
S'training_block.thisRepN'
p3958
I0
sS'training_block.thisN'
p3959
I0
sg42
g43
sg44
g49
sg30
g40
sS'training_block.thisTrialN'
p3960
I0
sg41
g12
sg28
g29
sg23
S'space'
p3961
sg24
F2.968714316983096
sS'training_block.thisIndex'
p3962
g145
sasS'loops'
p3963
(lp3964
g54
ag0
(g52
g2
Ntp3965
Rp3966
(dp3967
g56
Nsg57
(lp3968
sg58
I356610960
sg11
S'word_presentation_training'
p3969
sg6
I-1
sg60
I1
sg25
I01
sg26
g27
sg61
g0
(g62
g63
(dp3970
g65
g66
(g67
g68
g69
g70
tp3971
Rp3972
(I1
(I4
I1
tp3973
g76
I00
S'\x00\x00\x80?\x00\x00\x80?\x00\x00\x80?\x00\x00\x80?'
p3974
S'\x00\x00\x00\x00'
p3975
Ntp3976
bsg18
g66
(g67
g68
g69
g70
tp3977
Rp3978
(I1
(I4
I1
tp3979
g76
I00
S'\xc6wS@\x98;\xba@\xba\x80\xaf@\x88}\x03A'
p3980
S'\x00\x00\x00\x00'
p3981
Ntp3982
bsg105
g66
(g67
g68
g69
g70
tp3983
Rp3984
(I1
(I4
I1
tp3985
g76
I00
S'\x00\x00\x80?\x00\x00@@\x00\x00\x00@\x00\x00\x00\x00'
p3986
S'\x00\x00\x00\x00'
p3987
Ntp3988
bsg17
g88
(g68
(I0
tp3989
g70
tp3990
Rp3991
(I1
(I4
I1
tp3992
g95
I00
(lp3993
g202
ag242
ag222
ag176
atp3994
bstp3995
Rp3996
(dp3997
g115
(dp3998
g65
I01
sg18
I01
sg105
I01
sg17
I00
ssg117
g3966
sg118
(lp3999
g65
ag105
ag17
ag18
asg120
(lp4000
I4
aI1
asbsg122
g123
sg124
g88
(g68
(I0
tp4001
g70
tp4002
Rp4003
(I1
(I4
I1
tp4004
g131
I00
S'\x03\x00\x00\x00\x00\x00\x00\x00\x02\x00\x00\x00\x01\x00\x00\x00'
p4005
tp4006
bsg136
I01
sg137
I1
sg138
I-1
sg139
(lp4007
ccollections
OrderedDict
p4008
((lp4009
(lp4010
g156
ag205
aa(lp4011
g157
ag193
aa(lp4012
g158
ag206
aa(lp4013
g159
ag212
aa(lp4014
g160
ag211
aa(lp4015
g161
ag199
aatp4016
Rp4017
ag4008
((lp4018
(lp4019
g156
ag245
aa(lp4020
g157
ag193
aa(lp4021
g158
ag246
aa(lp4022
g159
ag252
aa(lp4023
g160
ag251
aa(lp4024
g161
ag239
aatp4025
Rp4026
ag4008
((lp4027
(lp4028
g156
ag225
aa(lp4029
g157
ag193
aa(lp4030
g158
ag226
aa(lp4031
g159
ag232
aa(lp4032
g160
ag231
aa(lp4033
g161
ag219
aatp4034
Rp4035
ag4008
((lp4036
(lp4037
g156
ag184
aa(lp4038
g157
ag193
aa(lp4039
g158
ag185
aa(lp4040
g159
ag191
aa(lp4041
g160
ag190
aa(lp4042
g161
ag173
aatp4043
Rp4044
asg141
Nsg142
g250
sg146
I4
sg147
I0
sg148
I4
sbag0
(g52
g2
Ntp4045
Rp4046
(dp4047
g56
Nsg57
(lp4048
sg58
I356610960
sg11
S'experimental_blocks'
p4049
sg6
I-1
sg60
I1
sg25
I01
sg26
g27
sg61
g0
(g62
g63
(dp4050
g65
g66
(g67
g68
g69
g70
tp4051
Rp4052
(I1
(I6
I1
tp4053
g76
I00
S'\x00\x00\x80?\x00\x00\x80?\x00\x00\x80?\x00\x00\x80?\x00\x00\x80?\x00\x00\x80?'
p4054
S'\x00\x00\x00\x00\x00\x00'
p4055
Ntp4056
bsg105
g66
(g67
g68
g69
g70
tp4057
Rp4058
(I1
(I6
I1
tp4059
g76
I00
S'\x00\x00@@\x00\x00\x80@\x00\x00\x80?\x00\x00\x00\x00\x00\x00\xa0@\x00\x00\x00@'
p4060
S'\x00\x00\x00\x00\x00\x00'
p4061
Ntp4062
bstp4063
Rp4064
(dp4065
g115
(dp4066
g65
I01
sg105
I01
ssg117
g4046
sg118
(lp4067
g65
ag105
asg120
(lp4068
I6
aI1
asbsg122
g123
sg124
g88
(g68
(I0
tp4069
g70
tp4070
Rp4071
(I1
(I6
I1
tp4072
g131
I00
S'\x03\x00\x00\x00\x02\x00\x00\x00\x05\x00\x00\x00\x00\x00\x00\x00\x01\x00\x00\x00\x04\x00\x00\x00'
p4073
tp4074
bsg136
I01
sg137
I1
sg138
I-1
sg139
(lp4075
g4008
((lp4076
(lp4077
g162
ag2131
aa(lp4078
g163
ag2113
aa(lp4079
g164
ag2137
aatp4080
Rp4081
ag4008
((lp4082
(lp4083
g162
ag2747
aa(lp4084
g163
ag2729
aa(lp4085
g164
ag2753
aatp4086
Rp4087
ag4008
((lp4088
(lp4089
g162
ag899
aa(lp4090
g163
ag881
aa(lp4091
g164
ag905
aatp4092
Rp4093
ag4008
((lp4094
(lp4095
g162
ag283
aa(lp4096
g163
ag265
aa(lp4097
g164
ag289
aatp4098
Rp4099
ag4008
((lp4100
(lp4101
g162
ag3363
aa(lp4102
g163
ag3345
aa(lp4103
g164
ag3369
aatp4104
Rp4105
ag4008
((lp4106
(lp4107
g162
ag1515
aa(lp4108
g163
ag1497
aa(lp4109
g164
ag1521
aatp4110
Rp4111
asg141
Nsg142
g3358
sg146
I6
sg147
I0
sg148
I6
sbag0
(g52
g2
Ntp4112
Rp4113
(dp4114
g56
Nsg57
(lp4115
sg58
I356610960
sg11
S'word_presentation'
p4116
sg6
I-1
sg60
I1
sg25
I01
sg26
g27
sg61
g0
(g62
g63
(dp4117
g65
g66
(g67
g68
g69
g70
tp4118
Rp4119
(I1
(I28
I1
tp4120
g76
I00
S'\x00\x00\x80?\x00\x00\x80?\x00\x00\x80?\x00\x00\x80?\x00\x00\x80?\x00\x00\x80?\x00\x00\x80?\x00\x00\x80?\x00\x00\x80?\x00\x00\x80?\x00\x00\x80?\x00\x00\x80?\x00\x00\x80?\x00\x00\x80?\x00\x00\x80?\x00\x00\x80?\x00\x00\x80?\x00\x00\x80?\x00\x00\x80?\x00\x00\x80?\x00\x00\x80?\x00\x00\x80?\x00\x00\x80?\x00\x00\x80?\x00\x00\x80?\x00\x00\x80?\x00\x00\x80?\x00\x00\x80?'
p4121
S'\x00\x00\x00\x00\x00\x00\x00\x00\x00\x00\x00\x00\x00\x00\x00\x00\x00\x00\x00\x00\x00\x00\x00\x00\x00\x00\x00\x00'
p4122
Ntp4123
bsg18
g66
(g67
g68
g69
g70
tp4124
Rp4125
(I1
(I28
I1
tp4126
g76
I00
S'\x8e`o@u\xb6\x9c@\xc1l\x98@\xad^\x81@\xce\x82\xdb@\x9bm\x91@m\xabd@\xb7\xab\x9b@C\x91\x92@\xd4\x9c\x8c@fB\x80@\xce\x91\x9a@\xf5\x16\xce@\x01\xeeRAN\xef\x89@\xb4\x8b\x92@\xd2\xd5\x8f@\x8el\xae@D\xcd\xb3@P\xde\xb4@\xc3\xb6\xb9@F\x8b\x8b@\xae+\x94@\xdee\x89@\xf3\xf4\x98@\x96\xb0\x8d@\xa6\xd7\xbb@\xcd\xb6\x86@'
p4127
S'\x00\x00\x00\x00\x00\x00\x00\x00\x00\x00\x00\x00\x00\x00\x00\x00\x00\x00\x00\x00\x00\x00\x00\x00\x00\x00\x00\x00'
p4128
Ntp4129
bsg105
g66
(g67
g68
g69
g70
tp4130
Rp4131
(I1
(I28
I1
tp4132
g76
I00
S'\x00\x00\x00\x00\x00\x00\x80?\x00\x00\x00@\x00\x00@@\x00\x00\x80@\x00\x00\xa0@\x00\x00\xc0@\x00\x00\xe0@\x00\x00\x00A\x00\x00\x10A\x00\x00 A\x00\x000A\x00\x00@A\x00\x00PA\x00\x00`A\x00\x00pA\x00\x00\x80A\x00\x00\x88A\x00\x00\x90A\x00\x00\x98A\x00\x00\xa0A\x00\x00\xa8A\x00\x00\xb0A\x00\x00\xb8A\x00\x00\xc0A\x00\x00\xc8A\x00\x00\xd0A\x00\x00\xd8A'
p4133
S'\x00\x00\x00\x00\x00\x00\x00\x00\x00\x00\x00\x00\x00\x00\x00\x00\x00\x00\x00\x00\x00\x00\x00\x00\x00\x00\x00\x00'
p4134
Ntp4135
bsg17
g88
(g68
(I0
tp4136
g70
tp4137
Rp4138
(I1
(I28
I1
tp4139
g95
I00
(lp4140
g294
ag315
ag336
ag358
ag379
ag400
ag421
ag442
ag463
ag484
ag505
ag526
ag547
ag568
ag589
ag610
ag631
ag652
ag673
ag694
ag715
ag736
ag757
ag778
ag799
ag820
ag841
ag862
atp4141
bstp4142
Rp4143
(dp4144
g115
(dp4145
g65
I01
sg18
I01
sg105
I01
sg17
I00
ssg117
g4113
sg118
(lp4146
g65
ag105
ag17
ag18
asg120
(lp4147
I28
aI1
asbsg122
S'sequential'
p4148
sg124
g88
(g68
(I0
tp4149
g70
tp4150
Rp4151
(I1
(I28
I1
tp4152
g131
I00
S'\x00\x00\x00\x00\x01\x00\x00\x00\x02\x00\x00\x00\x03\x00\x00\x00\x04\x00\x00\x00\x05\x00\x00\x00\x06\x00\x00\x00\x07\x00\x00\x00\x08\x00\x00\x00\t\x00\x00\x00\n\x00\x00\x00\x0b\x00\x00\x00\x0c\x00\x00\x00\r\x00\x00\x00\x0e\x00\x00\x00\x0f\x00\x00\x00\x10\x00\x00\x00\x11\x00\x00\x00\x12\x00\x00\x00\x13\x00\x00\x00\x14\x00\x00\x00\x15\x00\x00\x00\x16\x00\x00\x00\x17\x00\x00\x00\x18\x00\x00\x00\x19\x00\x00\x00\x1a\x00\x00\x00\x1b\x00\x00\x00'
p4153
tp4154
bsg136
I01
sg137
I1
sg138
I-1
sg139
(lp4155
g4008
((lp4156
(lp4157
g284
ag285
aa(lp4158
g269
ag270
aa(lp4159
g273
ag274
aa(lp4160
g271
ag272
aa(lp4161
g266
ag267
aatp4162
Rp4163
ag4008
((lp4164
(lp4165
g284
ag285
aa(lp4166
g269
ag304
aa(lp4167
g273
ag306
aa(lp4168
g271
ag305
aa(lp4169
g266
ag302
aatp4170
Rp4171
ag4008
((lp4172
(lp4173
g284
ag285
aa(lp4174
g269
ag325
aa(lp4175
g273
ag327
aa(lp4176
g271
ag326
aa(lp4177
g266
ag323
aatp4178
Rp4179
ag4008
((lp4180
(lp4181
g284
ag352
aa(lp4182
g269
ag346
aa(lp4183
g273
ag348
aa(lp4184
g271
ag347
aa(lp4185
g266
ag344
aatp4186
Rp4187
ag4008
((lp4188
(lp4189
g284
ag285
aa(lp4190
g269
ag368
aa(lp4191
g273
ag370
aa(lp4192
g271
ag369
aa(lp4193
g266
ag366
aatp4194
Rp4195
ag4008
((lp4196
(lp4197
g284
ag352
aa(lp4198
g269
ag389
aa(lp4199
g273
ag391
aa(lp4200
g271
ag390
aa(lp4201
g266
ag387
aatp4202
Rp4203
ag4008
((lp4204
(lp4205
g284
ag352
aa(lp4206
g269
ag410
aa(lp4207
g273
ag412
aa(lp4208
g271
ag411
aa(lp4209
g266
ag408
aatp4210
Rp4211
ag4008
((lp4212
(lp4213
g284
ag352
aa(lp4214
g269
ag431
aa(lp4215
g273
ag433
aa(lp4216
g271
ag432
aa(lp4217
g266
ag429
aatp4218
Rp4219
ag4008
((lp4220
(lp4221
g284
ag285
aa(lp4222
g269
ag452
aa(lp4223
g273
ag454
aa(lp4224
g271
ag453
aa(lp4225
g266
ag450
aatp4226
Rp4227
ag4008
((lp4228
(lp4229
g284
ag285
aa(lp4230
g269
ag473
aa(lp4231
g273
ag475
aa(lp4232
g271
ag474
aa(lp4233
g266
ag471
aatp4234
Rp4235
ag4008
((lp4236
(lp4237
g284
ag352
aa(lp4238
g269
ag494
aa(lp4239
g273
ag496
aa(lp4240
g271
ag495
aa(lp4241
g266
ag492
aatp4242
Rp4243
ag4008
((lp4244
(lp4245
g284
ag352
aa(lp4246
g269
ag515
aa(lp4247
g273
ag517
aa(lp4248
g271
ag516
aa(lp4249
g266
ag513
aatp4250
Rp4251
ag4008
((lp4252
(lp4253
g284
ag285
aa(lp4254
g269
ag536
aa(lp4255
g273
ag538
aa(lp4256
g271
ag537
aa(lp4257
g266
ag534
aatp4258
Rp4259
ag4008
((lp4260
(lp4261
g284
ag285
aa(lp4262
g269
ag557
aa(lp4263
g273
ag559
aa(lp4264
g271
ag558
aa(lp4265
g266
ag555
aatp4266
Rp4267
ag4008
((lp4268
(lp4269
g284
ag352
aa(lp4270
g269
ag578
aa(lp4271
g273
ag580
aa(lp4272
g271
ag579
aa(lp4273
g266
ag576
aatp4274
Rp4275
ag4008
((lp4276
(lp4277
g284
ag352
aa(lp4278
g269
ag599
aa(lp4279
g273
ag601
aa(lp4280
g271
ag600
aa(lp4281
g266
ag597
aatp4282
Rp4283
ag4008
((lp4284
(lp4285
g284
ag352
aa(lp4286
g269
ag620
aa(lp4287
g273
ag622
aa(lp4288
g271
ag621
aa(lp4289
g266
ag618
aatp4290
Rp4291
ag4008
((lp4292
(lp4293
g284
ag285
aa(lp4294
g269
ag641
aa(lp4295
g273
ag643
aa(lp4296
g271
ag642
aa(lp4297
g266
ag639
aatp4298
Rp4299
ag4008
((lp4300
(lp4301
g284
ag352
aa(lp4302
g269
ag662
aa(lp4303
g273
ag664
aa(lp4304
g271
ag663
aa(lp4305
g266
ag660
aatp4306
Rp4307
ag4008
((lp4308
(lp4309
g284
ag285
aa(lp4310
g269
ag683
aa(lp4311
g273
ag685
aa(lp4312
g271
ag684
aa(lp4313
g266
ag681
aatp4314
Rp4315
ag4008
((lp4316
(lp4317
g284
ag352
aa(lp4318
g269
ag704
aa(lp4319
g273
ag706
aa(lp4320
g271
ag705
aa(lp4321
g266
ag702
aatp4322
Rp4323
ag4008
((lp4324
(lp4325
g284
ag285
aa(lp4326
g269
ag725
aa(lp4327
g273
ag727
aa(lp4328
g271
ag726
aa(lp4329
g266
ag723
aatp4330
Rp4331
ag4008
((lp4332
(lp4333
g284
ag285
aa(lp4334
g269
ag746
aa(lp4335
g273
ag748
aa(lp4336
g271
ag747
aa(lp4337
g266
ag744
aatp4338
Rp4339
ag4008
((lp4340
(lp4341
g284
ag285
aa(lp4342
g269
ag767
aa(lp4343
g273
ag769
aa(lp4344
g271
ag768
aa(lp4345
g266
ag765
aatp4346
Rp4347
ag4008
((lp4348
(lp4349
g284
ag352
aa(lp4350
g269
ag788
aa(lp4351
g273
ag790
aa(lp4352
g271
ag789
aa(lp4353
g266
ag786
aatp4354
Rp4355
ag4008
((lp4356
(lp4357
g284
ag285
aa(lp4358
g269
ag809
aa(lp4359
g273
ag811
aa(lp4360
g271
ag810
aa(lp4361
g266
ag807
aatp4362
Rp4363
ag4008
((lp4364
(lp4365
g284
ag352
aa(lp4366
g269
ag830
aa(lp4367
g273
ag832
aa(lp4368
g271
ag831
aa(lp4369
g266
ag828
aatp4370
Rp4371
ag4008
((lp4372
(lp4373
g284
ag352
aa(lp4374
g269
ag851
aa(lp4375
g273
ag853
aa(lp4376
g271
ag852
aa(lp4377
g266
ag849
aatp4378
Rp4379
asg141
Nsg142
g867
sg146
I28
sg147
I0
sg148
I28
sbag0
(g52
g2
Ntp4380
Rp4381
(dp4382
g56
Nsg57
(lp4383
sg58
I356610960
sg11
g4116
sg6
I-1
sg60
I1
sg25
I01
sg26
g27
sg61
g0
(g62
g63
(dp4384
g65
g66
(g67
g68
g69
g70
tp4385
Rp4386
(I1
(I28
I1
tp4387
g76
I00
S'\x00\x00\x80?\x00\x00\x80?\x00\x00\x80?\x00\x00\x80?\x00\x00\x80?\x00\x00\x80?\x00\x00\x80?\x00\x00\x80?\x00\x00\x80?\x00\x00\x80?\x00\x00\x80?\x00\x00\x80?\x00\x00\x80?\x00\x00\x80?\x00\x00\x80?\x00\x00\x80?\x00\x00\x80?\x00\x00\x80?\x00\x00\x80?\x00\x00\x80?\x00\x00\x80?\x00\x00\x80?\x00\x00\x80?\x00\x00\x80?\x00\x00\x80?\x00\x00\x80?\x00\x00\x80?\x00\x00\x80?'
p4388
S'\x00\x00\x00\x00\x00\x00\x00\x00\x00\x00\x00\x00\x00\x00\x00\x00\x00\x00\x00\x00\x00\x00\x00\x00\x00\x00\x00\x00'
p4389
Ntp4390
bsg18
g66
(g67
g68
g69
g70
tp4391
Rp4392
(I1
(I28
I1
tp4393
g76
I00
S'y\xa6\x85@\xae.\xc1@\xf2\xc9\x87@:\x8a\x8b@\x92\x18\xe4@\x16\x8c\x0bA)k\x98@\x1d\xfd\x91@\xd6\r\x1eAP~\x83@\xadX\x81@\xc7&\x8d@:\x8b\x8b@\xad\x01\x8b@:\x07\x9a@\xa4\x81\x99@j\xd7\xa5@\x90\xc4\xa4@\xfb\xa6\x94@\xdb\xa4\x85@\xdf\x0c\xa9@0\xff\xb6@e!\x9b@\x015\xab@\xfd\x00\xa1@6\xea\xc3@\xe8\xb1\xa3@\x1bF\xac@'
p4394
S'\x00\x00\x00\x00\x00\x00\x00\x00\x00\x00\x00\x00\x00\x00\x00\x00\x00\x00\x00\x00\x00\x00\x00\x00\x00\x00\x00\x00'
p4395
Ntp4396
bsg105
g66
(g67
g68
g69
g70
tp4397
Rp4398
(I1
(I28
I1
tp4399
g76
I00
S'\x00\x00\x00\x00\x00\x00\x80?\x00\x00\x00@\x00\x00@@\x00\x00\x80@\x00\x00\xa0@\x00\x00\xc0@\x00\x00\xe0@\x00\x00\x00A\x00\x00\x10A\x00\x00 A\x00\x000A\x00\x00@A\x00\x00PA\x00\x00`A\x00\x00pA\x00\x00\x80A\x00\x00\x88A\x00\x00\x90A\x00\x00\x98A\x00\x00\xa0A\x00\x00\xa8A\x00\x00\xb0A\x00\x00\xb8A\x00\x00\xc0A\x00\x00\xc8A\x00\x00\xd0A\x00\x00\xd8A'
p4400
S'\x00\x00\x00\x00\x00\x00\x00\x00\x00\x00\x00\x00\x00\x00\x00\x00\x00\x00\x00\x00\x00\x00\x00\x00\x00\x00\x00\x00'
p4401
Ntp4402
bsg17
g88
(g68
(I0
tp4403
g70
tp4404
Rp4405
(I1
(I28
I1
tp4406
g95
I00
(lp4407
g910
ag932
ag953
ag974
ag995
ag1016
ag1037
ag1058
ag1079
ag1100
ag1121
ag1142
ag1163
ag1184
ag1205
ag1226
ag1247
ag1268
ag1289
ag1310
ag1331
ag1352
ag1373
ag1394
ag1415
ag1436
ag1457
ag1478
atp4408
bstp4409
Rp4410
(dp4411
g115
(dp4412
g65
I01
sg18
I01
sg105
I01
sg17
I00
ssg117
g4381
sg118
(lp4413
g65
ag105
ag17
ag18
asg120
(lp4414
I28
aI1
asbsg122
g4148
sg124
g88
(g68
(I0
tp4415
g70
tp4416
Rp4417
(I1
(I28
I1
tp4418
g131
I00
S'\x00\x00\x00\x00\x01\x00\x00\x00\x02\x00\x00\x00\x03\x00\x00\x00\x04\x00\x00\x00\x05\x00\x00\x00\x06\x00\x00\x00\x07\x00\x00\x00\x08\x00\x00\x00\t\x00\x00\x00\n\x00\x00\x00\x0b\x00\x00\x00\x0c\x00\x00\x00\r\x00\x00\x00\x0e\x00\x00\x00\x0f\x00\x00\x00\x10\x00\x00\x00\x11\x00\x00\x00\x12\x00\x00\x00\x13\x00\x00\x00\x14\x00\x00\x00\x15\x00\x00\x00\x16\x00\x00\x00\x17\x00\x00\x00\x18\x00\x00\x00\x19\x00\x00\x00\x1a\x00\x00\x00\x1b\x00\x00\x00'
p4419
tp4420
bsg136
I01
sg137
I1
sg138
I-1
sg139
(lp4421
g4008
((lp4422
(lp4423
g900
ag901
aa(lp4424
g885
ag886
aa(lp4425
g889
ag890
aa(lp4426
g887
ag888
aa(lp4427
g882
ag883
aatp4428
Rp4429
ag4008
((lp4430
(lp4431
g900
ag926
aa(lp4432
g885
ag920
aa(lp4433
g889
ag922
aa(lp4434
g887
ag921
aa(lp4435
g882
ag918
aatp4436
Rp4437
ag4008
((lp4438
(lp4439
g900
ag926
aa(lp4440
g885
ag942
aa(lp4441
g889
ag944
aa(lp4442
g887
ag943
aa(lp4443
g882
ag940
aatp4444
Rp4445
ag4008
((lp4446
(lp4447
g900
ag926
aa(lp4448
g885
ag963
aa(lp4449
g889
ag965
aa(lp4450
g887
ag964
aa(lp4451
g882
ag961
aatp4452
Rp4453
ag4008
((lp4454
(lp4455
g900
ag901
aa(lp4456
g885
ag984
aa(lp4457
g889
ag986
aa(lp4458
g887
ag985
aa(lp4459
g882
ag982
aatp4460
Rp4461
ag4008
((lp4462
(lp4463
g900
ag926
aa(lp4464
g885
ag1005
aa(lp4465
g889
ag1007
aa(lp4466
g887
ag1006
aa(lp4467
g882
ag1003
aatp4468
Rp4469
ag4008
((lp4470
(lp4471
g900
ag926
aa(lp4472
g885
ag1026
aa(lp4473
g889
ag1028
aa(lp4474
g887
ag1027
aa(lp4475
g882
ag1024
aatp4476
Rp4477
ag4008
((lp4478
(lp4479
g900
ag926
aa(lp4480
g885
ag1047
aa(lp4481
g889
ag1049
aa(lp4482
g887
ag1048
aa(lp4483
g882
ag1045
aatp4484
Rp4485
ag4008
((lp4486
(lp4487
g900
ag901
aa(lp4488
g885
ag1068
aa(lp4489
g889
ag1070
aa(lp4490
g887
ag1069
aa(lp4491
g882
ag1066
aatp4492
Rp4493
ag4008
((lp4494
(lp4495
g900
ag901
aa(lp4496
g885
ag1089
aa(lp4497
g889
ag1091
aa(lp4498
g887
ag1090
aa(lp4499
g882
ag1087
aatp4500
Rp4501
ag4008
((lp4502
(lp4503
g900
ag926
aa(lp4504
g885
ag1110
aa(lp4505
g889
ag1112
aa(lp4506
g887
ag1111
aa(lp4507
g882
ag1108
aatp4508
Rp4509
ag4008
((lp4510
(lp4511
g900
ag926
aa(lp4512
g885
ag1131
aa(lp4513
g889
ag1133
aa(lp4514
g887
ag1132
aa(lp4515
g882
ag1129
aatp4516
Rp4517
ag4008
((lp4518
(lp4519
g900
ag901
aa(lp4520
g885
ag1152
aa(lp4521
g889
ag1154
aa(lp4522
g887
ag1153
aa(lp4523
g882
ag1150
aatp4524
Rp4525
ag4008
((lp4526
(lp4527
g900
ag926
aa(lp4528
g885
ag1173
aa(lp4529
g889
ag1175
aa(lp4530
g887
ag1174
aa(lp4531
g882
ag1171
aatp4532
Rp4533
ag4008
((lp4534
(lp4535
g900
ag926
aa(lp4536
g885
ag1194
aa(lp4537
g889
ag1196
aa(lp4538
g887
ag1195
aa(lp4539
g882
ag1192
aatp4540
Rp4541
ag4008
((lp4542
(lp4543
g900
ag926
aa(lp4544
g885
ag1215
aa(lp4545
g889
ag1217
aa(lp4546
g887
ag1216
aa(lp4547
g882
ag1213
aatp4548
Rp4549
ag4008
((lp4550
(lp4551
g900
ag901
aa(lp4552
g885
ag1236
aa(lp4553
g889
ag1238
aa(lp4554
g887
ag1237
aa(lp4555
g882
ag1234
aatp4556
Rp4557
ag4008
((lp4558
(lp4559
g900
ag901
aa(lp4560
g885
ag1257
aa(lp4561
g889
ag1259
aa(lp4562
g887
ag1258
aa(lp4563
g882
ag1255
aatp4564
Rp4565
ag4008
((lp4566
(lp4567
g900
ag901
aa(lp4568
g885
ag1278
aa(lp4569
g889
ag1280
aa(lp4570
g887
ag1279
aa(lp4571
g882
ag1276
aatp4572
Rp4573
ag4008
((lp4574
(lp4575
g900
ag926
aa(lp4576
g885
ag1299
aa(lp4577
g889
ag1301
aa(lp4578
g887
ag1300
aa(lp4579
g882
ag1297
aatp4580
Rp4581
ag4008
((lp4582
(lp4583
g900
ag901
aa(lp4584
g885
ag1320
aa(lp4585
g889
ag1322
aa(lp4586
g887
ag1321
aa(lp4587
g882
ag1318
aatp4588
Rp4589
ag4008
((lp4590
(lp4591
g900
ag926
aa(lp4592
g885
ag1341
aa(lp4593
g889
ag1343
aa(lp4594
g887
ag1342
aa(lp4595
g882
ag1339
aatp4596
Rp4597
ag4008
((lp4598
(lp4599
g900
ag901
aa(lp4600
g885
ag1362
aa(lp4601
g889
ag1364
aa(lp4602
g887
ag1363
aa(lp4603
g882
ag1360
aatp4604
Rp4605
ag4008
((lp4606
(lp4607
g900
ag901
aa(lp4608
g885
ag1383
aa(lp4609
g889
ag1385
aa(lp4610
g887
ag1384
aa(lp4611
g882
ag1381
aatp4612
Rp4613
ag4008
((lp4614
(lp4615
g900
ag901
aa(lp4616
g885
ag1404
aa(lp4617
g889
ag1406
aa(lp4618
g887
ag1405
aa(lp4619
g882
ag1402
aatp4620
Rp4621
ag4008
((lp4622
(lp4623
g900
ag926
aa(lp4624
g885
ag1425
aa(lp4625
g889
ag1427
aa(lp4626
g887
ag1426
aa(lp4627
g882
ag1423
aatp4628
Rp4629
ag4008
((lp4630
(lp4631
g900
ag901
aa(lp4632
g885
ag1446
aa(lp4633
g889
ag1448
aa(lp4634
g887
ag1447
aa(lp4635
g882
ag1444
aatp4636
Rp4637
ag4008
((lp4638
(lp4639
g900
ag901
aa(lp4640
g885
ag1467
aa(lp4641
g889
ag1469
aa(lp4642
g887
ag1468
aa(lp4643
g882
ag1465
aatp4644
Rp4645
asg141
Nsg142
g1483
sg146
I28
sg147
I0
sg148
I28
sbag0
(g52
g2
Ntp4646
Rp4647
(dp4648
g56
Nsg57
(lp4649
sg58
I356610960
sg11
g4116
sg6
I-1
sg60
I1
sg25
I01
sg26
g27
sg61
g0
(g62
g63
(dp4650
g65
g66
(g67
g68
g69
g70
tp4651
Rp4652
(I1
(I28
I1
tp4653
g76
I00
S'\x00\x00\x80?\x00\x00\x80?\x00\x00\x80?\x00\x00\x80?\x00\x00\x80?\x00\x00\x80?\x00\x00\x80?\x00\x00\x80?\x00\x00\x80?\x00\x00\x80?\x00\x00\x80?\x00\x00\x80?\x00\x00\x80?\x00\x00\x80?\x00\x00\x80?\x00\x00\x80?\x00\x00\x80?\x00\x00\x80?\x00\x00\x80?\x00\x00\x80?\x00\x00\x80?\x00\x00\x80?\x00\x00\x80?\x00\x00\x80?\x00\x00\x80?\x00\x00\x80?\x00\x00\x80?\x00\x00\x80?'
p4654
S'\x00\x00\x00\x00\x00\x00\x00\x00\x00\x00\x00\x00\x00\x00\x00\x00\x00\x00\x00\x00\x00\x00\x00\x00\x00\x00\x00\x00'
p4655
Ntp4656
bsg18
g66
(g67
g68
g69
g70
tp4657
Rp4658
(I1
(I28
I1
tp4659
g76
I00
S"\xdch\x89@\x11k\x82@\x02Y\x81@fW`@\x9f\xc9\x9d@\xda\x06\x9a@ %\xec@\xb3\x13\x01A\xff\n\xa1@\x1c#\x94@d\x1e\xdd@3\x1c\xa2@?\xa3\x9b@\x06\xdc\x9e@\xd6c\xe8@\xc5'\x8d@F\xfe\xd3@\xe2p\x98@ M\x8f@~P\xbb@\x87\xfd\x91@\xdb\x1a\x9b@\xd1.\xb2@\xfcx\xa0@\xff\x93\xa9@\x9b\x1b\x9b@\xf8B\xdf@\r@\x8e@"
p4660
S'\x00\x00\x00\x00\x00\x00\x00\x00\x00\x00\x00\x00\x00\x00\x00\x00\x00\x00\x00\x00\x00\x00\x00\x00\x00\x00\x00\x00'
p4661
Ntp4662
bsg105
g66
(g67
g68
g69
g70
tp4663
Rp4664
(I1
(I28
I1
tp4665
g76
I00
S'\x00\x00\x00\x00\x00\x00\x80?\x00\x00\x00@\x00\x00@@\x00\x00\x80@\x00\x00\xa0@\x00\x00\xc0@\x00\x00\xe0@\x00\x00\x00A\x00\x00\x10A\x00\x00 A\x00\x000A\x00\x00@A\x00\x00PA\x00\x00`A\x00\x00pA\x00\x00\x80A\x00\x00\x88A\x00\x00\x90A\x00\x00\x98A\x00\x00\xa0A\x00\x00\xa8A\x00\x00\xb0A\x00\x00\xb8A\x00\x00\xc0A\x00\x00\xc8A\x00\x00\xd0A\x00\x00\xd8A'
p4666
S'\x00\x00\x00\x00\x00\x00\x00\x00\x00\x00\x00\x00\x00\x00\x00\x00\x00\x00\x00\x00\x00\x00\x00\x00\x00\x00\x00\x00'
p4667
Ntp4668
bsg17
g88
(g68
(I0
tp4669
g70
tp4670
Rp4671
(I1
(I28
I1
tp4672
g95
I00
(lp4673
g1526
ag1547
ag1569
ag1590
ag1611
ag1632
ag1653
ag1674
ag1695
ag1716
ag1737
ag1758
ag1779
ag1800
ag1821
ag1842
ag1863
ag1884
ag1905
ag1926
ag1947
ag1968
ag1989
ag2010
ag2031
ag2052
ag2073
ag2094
atp4674
bstp4675
Rp4676
(dp4677
g115
(dp4678
g65
I01
sg18
I01
sg105
I01
sg17
I00
ssg117
g4647
sg118
(lp4679
g65
ag105
ag17
ag18
asg120
(lp4680
I28
aI1
asbsg122
g4148
sg124
g88
(g68
(I0
tp4681
g70
tp4682
Rp4683
(I1
(I28
I1
tp4684
g131
I00
S'\x00\x00\x00\x00\x01\x00\x00\x00\x02\x00\x00\x00\x03\x00\x00\x00\x04\x00\x00\x00\x05\x00\x00\x00\x06\x00\x00\x00\x07\x00\x00\x00\x08\x00\x00\x00\t\x00\x00\x00\n\x00\x00\x00\x0b\x00\x00\x00\x0c\x00\x00\x00\r\x00\x00\x00\x0e\x00\x00\x00\x0f\x00\x00\x00\x10\x00\x00\x00\x11\x00\x00\x00\x12\x00\x00\x00\x13\x00\x00\x00\x14\x00\x00\x00\x15\x00\x00\x00\x16\x00\x00\x00\x17\x00\x00\x00\x18\x00\x00\x00\x19\x00\x00\x00\x1a\x00\x00\x00\x1b\x00\x00\x00'
p4685
tp4686
bsg136
I01
sg137
I1
sg138
I-1
sg139
(lp4687
g4008
((lp4688
(lp4689
g1516
ag1517
aa(lp4690
g1501
ag1502
aa(lp4691
g1505
ag1506
aa(lp4692
g1503
ag1504
aa(lp4693
g1498
ag1499
aatp4694
Rp4695
ag4008
((lp4696
(lp4697
g1516
ag1517
aa(lp4698
g1501
ag1536
aa(lp4699
g1505
ag1538
aa(lp4700
g1503
ag1537
aa(lp4701
g1498
ag1534
aatp4702
Rp4703
ag4008
((lp4704
(lp4705
g1516
ag1563
aa(lp4706
g1501
ag1557
aa(lp4707
g1505
ag1559
aa(lp4708
g1503
ag1558
aa(lp4709
g1498
ag1555
aatp4710
Rp4711
ag4008
((lp4712
(lp4713
g1516
ag1563
aa(lp4714
g1501
ag1579
aa(lp4715
g1505
ag1581
aa(lp4716
g1503
ag1580
aa(lp4717
g1498
ag1577
aatp4718
Rp4719
ag4008
((lp4720
(lp4721
g1516
ag1563
aa(lp4722
g1501
ag1600
aa(lp4723
g1505
ag1602
aa(lp4724
g1503
ag1601
aa(lp4725
g1498
ag1598
aatp4726
Rp4727
ag4008
((lp4728
(lp4729
g1516
ag1517
aa(lp4730
g1501
ag1621
aa(lp4731
g1505
ag1623
aa(lp4732
g1503
ag1622
aa(lp4733
g1498
ag1619
aatp4734
Rp4735
ag4008
((lp4736
(lp4737
g1516
ag1563
aa(lp4738
g1501
ag1642
aa(lp4739
g1505
ag1644
aa(lp4740
g1503
ag1643
aa(lp4741
g1498
ag1640
aatp4742
Rp4743
ag4008
((lp4744
(lp4745
g1516
ag1563
aa(lp4746
g1501
ag1663
aa(lp4747
g1505
ag1665
aa(lp4748
g1503
ag1664
aa(lp4749
g1498
ag1661
aatp4750
Rp4751
ag4008
((lp4752
(lp4753
g1516
ag1563
aa(lp4754
g1501
ag1684
aa(lp4755
g1505
ag1686
aa(lp4756
g1503
ag1685
aa(lp4757
g1498
ag1682
aatp4758
Rp4759
ag4008
((lp4760
(lp4761
g1516
ag1517
aa(lp4762
g1501
ag1705
aa(lp4763
g1505
ag1707
aa(lp4764
g1503
ag1706
aa(lp4765
g1498
ag1703
aatp4766
Rp4767
ag4008
((lp4768
(lp4769
g1516
ag1517
aa(lp4770
g1501
ag1726
aa(lp4771
g1505
ag1728
aa(lp4772
g1503
ag1727
aa(lp4773
g1498
ag1724
aatp4774
Rp4775
ag4008
((lp4776
(lp4777
g1516
ag1563
aa(lp4778
g1501
ag1747
aa(lp4779
g1505
ag1749
aa(lp4780
g1503
ag1748
aa(lp4781
g1498
ag1745
aatp4782
Rp4783
ag4008
((lp4784
(lp4785
g1516
ag1517
aa(lp4786
g1501
ag1768
aa(lp4787
g1505
ag1770
aa(lp4788
g1503
ag1769
aa(lp4789
g1498
ag1766
aatp4790
Rp4791
ag4008
((lp4792
(lp4793
g1516
ag1517
aa(lp4794
g1501
ag1789
aa(lp4795
g1505
ag1791
aa(lp4796
g1503
ag1790
aa(lp4797
g1498
ag1787
aatp4798
Rp4799
ag4008
((lp4800
(lp4801
g1516
ag1563
aa(lp4802
g1501
ag1810
aa(lp4803
g1505
ag1812
aa(lp4804
g1503
ag1811
aa(lp4805
g1498
ag1808
aatp4806
Rp4807
ag4008
((lp4808
(lp4809
g1516
ag1517
aa(lp4810
g1501
ag1831
aa(lp4811
g1505
ag1833
aa(lp4812
g1503
ag1832
aa(lp4813
g1498
ag1829
aatp4814
Rp4815
ag4008
((lp4816
(lp4817
g1516
ag1563
aa(lp4818
g1501
ag1852
aa(lp4819
g1505
ag1854
aa(lp4820
g1503
ag1853
aa(lp4821
g1498
ag1850
aatp4822
Rp4823
ag4008
((lp4824
(lp4825
g1516
ag1517
aa(lp4826
g1501
ag1873
aa(lp4827
g1505
ag1875
aa(lp4828
g1503
ag1874
aa(lp4829
g1498
ag1871
aatp4830
Rp4831
ag4008
((lp4832
(lp4833
g1516
ag1517
aa(lp4834
g1501
ag1894
aa(lp4835
g1505
ag1896
aa(lp4836
g1503
ag1895
aa(lp4837
g1498
ag1892
aatp4838
Rp4839
ag4008
((lp4840
(lp4841
g1516
ag1563
aa(lp4842
g1501
ag1915
aa(lp4843
g1505
ag1917
aa(lp4844
g1503
ag1916
aa(lp4845
g1498
ag1913
aatp4846
Rp4847
ag4008
((lp4848
(lp4849
g1516
ag1563
aa(lp4850
g1501
ag1936
aa(lp4851
g1505
ag1938
aa(lp4852
g1503
ag1937
aa(lp4853
g1498
ag1934
aatp4854
Rp4855
ag4008
((lp4856
(lp4857
g1516
ag1563
aa(lp4858
g1501
ag1957
aa(lp4859
g1505
ag1959
aa(lp4860
g1503
ag1958
aa(lp4861
g1498
ag1955
aatp4862
Rp4863
ag4008
((lp4864
(lp4865
g1516
ag1517
aa(lp4866
g1501
ag1978
aa(lp4867
g1505
ag1980
aa(lp4868
g1503
ag1979
aa(lp4869
g1498
ag1976
aatp4870
Rp4871
ag4008
((lp4872
(lp4873
g1516
ag1563
aa(lp4874
g1501
ag1999
aa(lp4875
g1505
ag2001
aa(lp4876
g1503
ag2000
aa(lp4877
g1498
ag1997
aatp4878
Rp4879
ag4008
((lp4880
(lp4881
g1516
ag1517
aa(lp4882
g1501
ag2020
aa(lp4883
g1505
ag2022
aa(lp4884
g1503
ag2021
aa(lp4885
g1498
ag2018
aatp4886
Rp4887
ag4008
((lp4888
(lp4889
g1516
ag1563
aa(lp4890
g1501
ag2041
aa(lp4891
g1505
ag2043
aa(lp4892
g1503
ag2042
aa(lp4893
g1498
ag2039
aatp4894
Rp4895
ag4008
((lp4896
(lp4897
g1516
ag1517
aa(lp4898
g1501
ag2062
aa(lp4899
g1505
ag2064
aa(lp4900
g1503
ag2063
aa(lp4901
g1498
ag2060
aatp4902
Rp4903
ag4008
((lp4904
(lp4905
g1516
ag1517
aa(lp4906
g1501
ag2083
aa(lp4907
g1505
ag2085
aa(lp4908
g1503
ag2084
aa(lp4909
g1498
ag2081
aatp4910
Rp4911
asg141
Nsg142
g2099
sg146
I28
sg147
I0
sg148
I28
sbag0
(g52
g2
Ntp4912
Rp4913
(dp4914
g56
Nsg57
(lp4915
sg58
I356610960
sg11
g4116
sg6
I-1
sg60
I1
sg25
I01
sg26
g27
sg61
g0
(g62
g63
(dp4916
g65
g66
(g67
g68
g69
g70
tp4917
Rp4918
(I1
(I28
I1
tp4919
g76
I00
S'\x00\x00\x80?\x00\x00\x80?\x00\x00\x80?\x00\x00\x80?\x00\x00\x80?\x00\x00\x80?\x00\x00\x80?\x00\x00\x80?\x00\x00\x80?\x00\x00\x80?\x00\x00\x80?\x00\x00\x80?\x00\x00\x80?\x00\x00\x80?\x00\x00\x80?\x00\x00\x80?\x00\x00\x80?\x00\x00\x80?\x00\x00\x80?\x00\x00\x80?\x00\x00\x80?\x00\x00\x80?\x00\x00\x80?\x00\x00\x80?\x00\x00\x80?\x00\x00\x80?\x00\x00\x80?\x00\x00\x80?'
p4920
S'\x00\x00\x00\x00\x00\x00\x00\x00\x00\x00\x00\x00\x00\x00\x00\x00\x00\x00\x00\x00\x00\x00\x00\x00\x00\x00\x00\x00'
p4921
Ntp4922
bsg18
g66
(g67
g68
g69
g70
tp4923
Rp4924
(I1
(I28
I1
tp4925
g76
I00
S'n\t\x84@\x94U\x97@\xe7_`@\xb7\xeb\x89@O\xbf\xc1@\x17\xcc\x9d@NF\x96@\xb5#\xaa@\xc6\xbet@i\xee<@\x85\x0f\xa9@\xf8\xa3\xa2@\xa7y\xb6@a6\xc1@\x16v\xb6@\x11\x7f\x99@\x8e\xef\x89@\xd7z\xcc@\x81B\xc9@D\x16\xb8@\x16a\xc3@\xe7\t\x93@\x92\x88\xcd@GP\xca@*h\xcb@P\x00\x00A\xf7In@\x8a\xf5\x98@'
p4926
S'\x00\x00\x00\x00\x00\x00\x00\x00\x00\x00\x00\x00\x00\x00\x00\x00\x00\x00\x00\x00\x00\x00\x00\x00\x00\x00\x00\x00'
p4927
Ntp4928
bsg105
g66
(g67
g68
g69
g70
tp4929
Rp4930
(I1
(I28
I1
tp4931
g76
I00
S'\x00\x00\x00\x00\x00\x00\x80?\x00\x00\x00@\x00\x00@@\x00\x00\x80@\x00\x00\xa0@\x00\x00\xc0@\x00\x00\xe0@\x00\x00\x00A\x00\x00\x10A\x00\x00 A\x00\x000A\x00\x00@A\x00\x00PA\x00\x00`A\x00\x00pA\x00\x00\x80A\x00\x00\x88A\x00\x00\x90A\x00\x00\x98A\x00\x00\xa0A\x00\x00\xa8A\x00\x00\xb0A\x00\x00\xb8A\x00\x00\xc0A\x00\x00\xc8A\x00\x00\xd0A\x00\x00\xd8A'
p4932
S'\x00\x00\x00\x00\x00\x00\x00\x00\x00\x00\x00\x00\x00\x00\x00\x00\x00\x00\x00\x00\x00\x00\x00\x00\x00\x00\x00\x00'
p4933
Ntp4934
bsg17
g88
(g68
(I0
tp4935
g70
tp4936
Rp4937
(I1
(I28
I1
tp4938
g95
I00
(lp4939
g2142
ag2164
ag2185
ag2206
ag2227
ag2248
ag2269
ag2290
ag2311
ag2332
ag2353
ag2374
ag2395
ag2416
ag2437
ag2458
ag2479
ag2500
ag2521
ag2542
ag2563
ag2584
ag2605
ag2626
ag2647
ag2668
ag2689
ag2710
atp4940
bstp4941
Rp4942
(dp4943
g115
(dp4944
g65
I01
sg18
I01
sg105
I01
sg17
I00
ssg117
g4913
sg118
(lp4945
g65
ag105
ag17
ag18
asg120
(lp4946
I28
aI1
asbsg122
g4148
sg124
g88
(g68
(I0
tp4947
g70
tp4948
Rp4949
(I1
(I28
I1
tp4950
g131
I00
S'\x00\x00\x00\x00\x01\x00\x00\x00\x02\x00\x00\x00\x03\x00\x00\x00\x04\x00\x00\x00\x05\x00\x00\x00\x06\x00\x00\x00\x07\x00\x00\x00\x08\x00\x00\x00\t\x00\x00\x00\n\x00\x00\x00\x0b\x00\x00\x00\x0c\x00\x00\x00\r\x00\x00\x00\x0e\x00\x00\x00\x0f\x00\x00\x00\x10\x00\x00\x00\x11\x00\x00\x00\x12\x00\x00\x00\x13\x00\x00\x00\x14\x00\x00\x00\x15\x00\x00\x00\x16\x00\x00\x00\x17\x00\x00\x00\x18\x00\x00\x00\x19\x00\x00\x00\x1a\x00\x00\x00\x1b\x00\x00\x00'
p4951
tp4952
bsg136
I01
sg137
I1
sg138
I-1
sg139
(lp4953
g4008
((lp4954
(lp4955
g2132
ag2133
aa(lp4956
g2117
ag2118
aa(lp4957
g2121
ag2122
aa(lp4958
g2119
ag2120
aa(lp4959
g2114
ag2115
aatp4960
Rp4961
ag4008
((lp4962
(lp4963
g2132
ag2158
aa(lp4964
g2117
ag2152
aa(lp4965
g2121
ag2154
aa(lp4966
g2119
ag2153
aa(lp4967
g2114
ag2150
aatp4968
Rp4969
ag4008
((lp4970
(lp4971
g2132
ag2158
aa(lp4972
g2117
ag2174
aa(lp4973
g2121
ag2176
aa(lp4974
g2119
ag2175
aa(lp4975
g2114
ag2172
aatp4976
Rp4977
ag4008
((lp4978
(lp4979
g2132
ag2158
aa(lp4980
g2117
ag2195
aa(lp4981
g2121
ag2197
aa(lp4982
g2119
ag2196
aa(lp4983
g2114
ag2193
aatp4984
Rp4985
ag4008
((lp4986
(lp4987
g2132
ag2133
aa(lp4988
g2117
ag2216
aa(lp4989
g2121
ag2218
aa(lp4990
g2119
ag2217
aa(lp4991
g2114
ag2214
aatp4992
Rp4993
ag4008
((lp4994
(lp4995
g2132
ag2158
aa(lp4996
g2117
ag2237
aa(lp4997
g2121
ag2239
aa(lp4998
g2119
ag2238
aa(lp4999
g2114
ag2235
aatp5000
Rp5001
ag4008
((lp5002
(lp5003
g2132
ag2158
aa(lp5004
g2117
ag2258
aa(lp5005
g2121
ag2260
aa(lp5006
g2119
ag2259
aa(lp5007
g2114
ag2256
aatp5008
Rp5009
ag4008
((lp5010
(lp5011
g2132
ag2158
aa(lp5012
g2117
ag2279
aa(lp5013
g2121
ag2281
aa(lp5014
g2119
ag2280
aa(lp5015
g2114
ag2277
aatp5016
Rp5017
ag4008
((lp5018
(lp5019
g2132
ag2133
aa(lp5020
g2117
ag2300
aa(lp5021
g2121
ag2302
aa(lp5022
g2119
ag2301
aa(lp5023
g2114
ag2298
aatp5024
Rp5025
ag4008
((lp5026
(lp5027
g2132
ag2133
aa(lp5028
g2117
ag2321
aa(lp5029
g2121
ag2323
aa(lp5030
g2119
ag2322
aa(lp5031
g2114
ag2319
aatp5032
Rp5033
ag4008
((lp5034
(lp5035
g2132
ag2158
aa(lp5036
g2117
ag2342
aa(lp5037
g2121
ag2344
aa(lp5038
g2119
ag2343
aa(lp5039
g2114
ag2340
aatp5040
Rp5041
ag4008
((lp5042
(lp5043
g2132
ag2133
aa(lp5044
g2117
ag2363
aa(lp5045
g2121
ag2365
aa(lp5046
g2119
ag2364
aa(lp5047
g2114
ag2361
aatp5048
Rp5049
ag4008
((lp5050
(lp5051
g2132
ag2158
aa(lp5052
g2117
ag2384
aa(lp5053
g2121
ag2386
aa(lp5054
g2119
ag2385
aa(lp5055
g2114
ag2382
aatp5056
Rp5057
ag4008
((lp5058
(lp5059
g2132
ag2133
aa(lp5060
g2117
ag2405
aa(lp5061
g2121
ag2407
aa(lp5062
g2119
ag2406
aa(lp5063
g2114
ag2403
aatp5064
Rp5065
ag4008
((lp5066
(lp5067
g2132
ag2133
aa(lp5068
g2117
ag2426
aa(lp5069
g2121
ag2428
aa(lp5070
g2119
ag2427
aa(lp5071
g2114
ag2424
aatp5072
Rp5073
ag4008
((lp5074
(lp5075
g2132
ag2158
aa(lp5076
g2117
ag2447
aa(lp5077
g2121
ag2449
aa(lp5078
g2119
ag2448
aa(lp5079
g2114
ag2445
aatp5080
Rp5081
ag4008
((lp5082
(lp5083
g2132
ag2158
aa(lp5084
g2117
ag2468
aa(lp5085
g2121
ag2470
aa(lp5086
g2119
ag2469
aa(lp5087
g2114
ag2466
aatp5088
Rp5089
ag4008
((lp5090
(lp5091
g2132
ag2133
aa(lp5092
g2117
ag2489
aa(lp5093
g2121
ag2491
aa(lp5094
g2119
ag2490
aa(lp5095
g2114
ag2487
aatp5096
Rp5097
ag4008
((lp5098
(lp5099
g2132
ag2133
aa(lp5100
g2117
ag2510
aa(lp5101
g2121
ag2512
aa(lp5102
g2119
ag2511
aa(lp5103
g2114
ag2508
aatp5104
Rp5105
ag4008
((lp5106
(lp5107
g2132
ag2133
aa(lp5108
g2117
ag2531
aa(lp5109
g2121
ag2533
aa(lp5110
g2119
ag2532
aa(lp5111
g2114
ag2529
aatp5112
Rp5113
ag4008
((lp5114
(lp5115
g2132
ag2158
aa(lp5116
g2117
ag2552
aa(lp5117
g2121
ag2554
aa(lp5118
g2119
ag2553
aa(lp5119
g2114
ag2550
aatp5120
Rp5121
ag4008
((lp5122
(lp5123
g2132
ag2133
aa(lp5124
g2117
ag2573
aa(lp5125
g2121
ag2575
aa(lp5126
g2119
ag2574
aa(lp5127
g2114
ag2571
aatp5128
Rp5129
ag4008
((lp5130
(lp5131
g2132
ag2158
aa(lp5132
g2117
ag2594
aa(lp5133
g2121
ag2596
aa(lp5134
g2119
ag2595
aa(lp5135
g2114
ag2592
aatp5136
Rp5137
ag4008
((lp5138
(lp5139
g2132
ag2133
aa(lp5140
g2117
ag2615
aa(lp5141
g2121
ag2617
aa(lp5142
g2119
ag2616
aa(lp5143
g2114
ag2613
aatp5144
Rp5145
ag4008
((lp5146
(lp5147
g2132
ag2158
aa(lp5148
g2117
ag2636
aa(lp5149
g2121
ag2638
aa(lp5150
g2119
ag2637
aa(lp5151
g2114
ag2634
aatp5152
Rp5153
ag4008
((lp5154
(lp5155
g2132
ag2133
aa(lp5156
g2117
ag2657
aa(lp5157
g2121
ag2659
aa(lp5158
g2119
ag2658
aa(lp5159
g2114
ag2655
aatp5160
Rp5161
ag4008
((lp5162
(lp5163
g2132
ag2158
aa(lp5164
g2117
ag2678
aa(lp5165
g2121
ag2680
aa(lp5166
g2119
ag2679
aa(lp5167
g2114
ag2676
aatp5168
Rp5169
ag4008
((lp5170
(lp5171
g2132
ag2133
aa(lp5172
g2117
ag2699
aa(lp5173
g2121
ag2701
aa(lp5174
g2119
ag2700
aa(lp5175
g2114
ag2697
aatp5176
Rp5177
asg141
Nsg142
g2715
sg146
I28
sg147
I0
sg148
I28
sbag0
(g52
g2
Ntp5178
Rp5179
(dp5180
g56
Nsg57
(lp5181
sg58
I356610960
sg11
g4116
sg6
I-1
sg60
I1
sg25
I01
sg26
g27
sg61
g0
(g62
g63
(dp5182
g65
g66
(g67
g68
g69
g70
tp5183
Rp5184
(I1
(I28
I1
tp5185
g76
I00
S'\x00\x00\x80?\x00\x00\x80?\x00\x00\x80?\x00\x00\x80?\x00\x00\x80?\x00\x00\x80?\x00\x00\x80?\x00\x00\x80?\x00\x00\x80?\x00\x00\x80?\x00\x00\x80?\x00\x00\x80?\x00\x00\x80?\x00\x00\x80?\x00\x00\x80?\x00\x00\x80?\x00\x00\x80?\x00\x00\x80?\x00\x00\x80?\x00\x00\x80?\x00\x00\x80?\x00\x00\x80?\x00\x00\x80?\x00\x00\x80?\x00\x00\x80?\x00\x00\x80?\x00\x00\x80?\x00\x00\x80?'
p5186
S'\x00\x00\x00\x00\x00\x00\x00\x00\x00\x00\x00\x00\x00\x00\x00\x00\x00\x00\x00\x00\x00\x00\x00\x00\x00\x00\x00\x00'
p5187
Ntp5188
bsg18
g66
(g67
g68
g69
g70
tp5189
Rp5190
(I1
(I28
I1
tp5191
g76
I00
S"\xe3\x90\x84@\x13%\xec@@\x18\xfa@\xe0\xbc\x95@\xee\xc7\xd0@|\x1e\xc7@1N\x8f@\x08!\x85@\xb7(\xb9@'\x8a\x8b@\xb7\xa7\x9b@\xd2S\xb4@H\x84\xa8@#Z\xc3@g\x1b\xb1@\xad5^@\xaa`\xa6@\x01/\xb2@\xc5\x05\xb7@t\x0b\xb0@\xa4N\xa6@p0\x9c@\x8aR\x88@@\xe9\xcb@\x92\x8a\xd4@\xfbv\x91@s\xe4\xca@F\xe1\x97@"
p5192
S'\x00\x00\x00\x00\x00\x00\x00\x00\x00\x00\x00\x00\x00\x00\x00\x00\x00\x00\x00\x00\x00\x00\x00\x00\x00\x00\x00\x00'
p5193
Ntp5194
bsg105
g66
(g67
g68
g69
g70
tp5195
Rp5196
(I1
(I28
I1
tp5197
g76
I00
S'\x00\x00\x00\x00\x00\x00\x80?\x00\x00\x00@\x00\x00@@\x00\x00\x80@\x00\x00\xa0@\x00\x00\xc0@\x00\x00\xe0@\x00\x00\x00A\x00\x00\x10A\x00\x00 A\x00\x000A\x00\x00@A\x00\x00PA\x00\x00`A\x00\x00pA\x00\x00\x80A\x00\x00\x88A\x00\x00\x90A\x00\x00\x98A\x00\x00\xa0A\x00\x00\xa8A\x00\x00\xb0A\x00\x00\xb8A\x00\x00\xc0A\x00\x00\xc8A\x00\x00\xd0A\x00\x00\xd8A'
p5198
S'\x00\x00\x00\x00\x00\x00\x00\x00\x00\x00\x00\x00\x00\x00\x00\x00\x00\x00\x00\x00\x00\x00\x00\x00\x00\x00\x00\x00'
p5199
Ntp5200
bsg17
g88
(g68
(I0
tp5201
g70
tp5202
Rp5203
(I1
(I28
I1
tp5204
g95
I00
(lp5205
g2758
ag2779
ag2800
ag2822
ag2843
ag2864
ag2885
ag2906
ag2927
ag2948
ag2969
ag2990
ag3011
ag3032
ag3053
ag3074
ag3095
ag3116
ag3137
ag3158
ag3179
ag3200
ag3221
ag3242
ag3263
ag3284
ag3305
ag3326
atp5206
bstp5207
Rp5208
(dp5209
g115
(dp5210
g65
I01
sg18
I01
sg105
I01
sg17
I00
ssg117
g5179
sg118
(lp5211
g65
ag105
ag17
ag18
asg120
(lp5212
I28
aI1
asbsg122
g4148
sg124
g88
(g68
(I0
tp5213
g70
tp5214
Rp5215
(I1
(I28
I1
tp5216
g131
I00
S'\x00\x00\x00\x00\x01\x00\x00\x00\x02\x00\x00\x00\x03\x00\x00\x00\x04\x00\x00\x00\x05\x00\x00\x00\x06\x00\x00\x00\x07\x00\x00\x00\x08\x00\x00\x00\t\x00\x00\x00\n\x00\x00\x00\x0b\x00\x00\x00\x0c\x00\x00\x00\r\x00\x00\x00\x0e\x00\x00\x00\x0f\x00\x00\x00\x10\x00\x00\x00\x11\x00\x00\x00\x12\x00\x00\x00\x13\x00\x00\x00\x14\x00\x00\x00\x15\x00\x00\x00\x16\x00\x00\x00\x17\x00\x00\x00\x18\x00\x00\x00\x19\x00\x00\x00\x1a\x00\x00\x00\x1b\x00\x00\x00'
p5217
tp5218
bsg136
I01
sg137
I1
sg138
I-1
sg139
(lp5219
g4008
((lp5220
(lp5221
g2748
ag2749
aa(lp5222
g2733
ag2734
aa(lp5223
g2737
ag2738
aa(lp5224
g2735
ag2736
aa(lp5225
g2730
ag2731
aatp5226
Rp5227
ag4008
((lp5228
(lp5229
g2748
ag2749
aa(lp5230
g2733
ag2768
aa(lp5231
g2737
ag2770
aa(lp5232
g2735
ag2769
aa(lp5233
g2730
ag2766
aatp5234
Rp5235
ag4008
((lp5236
(lp5237
g2748
ag2749
aa(lp5238
g2733
ag2789
aa(lp5239
g2737
ag2791
aa(lp5240
g2735
ag2790
aa(lp5241
g2730
ag2787
aatp5242
Rp5243
ag4008
((lp5244
(lp5245
g2748
ag2816
aa(lp5246
g2733
ag2810
aa(lp5247
g2737
ag2812
aa(lp5248
g2735
ag2811
aa(lp5249
g2730
ag2808
aatp5250
Rp5251
ag4008
((lp5252
(lp5253
g2748
ag2816
aa(lp5254
g2733
ag2832
aa(lp5255
g2737
ag2834
aa(lp5256
g2735
ag2833
aa(lp5257
g2730
ag2830
aatp5258
Rp5259
ag4008
((lp5260
(lp5261
g2748
ag2816
aa(lp5262
g2733
ag2853
aa(lp5263
g2737
ag2855
aa(lp5264
g2735
ag2854
aa(lp5265
g2730
ag2851
aatp5266
Rp5267
ag4008
((lp5268
(lp5269
g2748
ag2749
aa(lp5270
g2733
ag2874
aa(lp5271
g2737
ag2876
aa(lp5272
g2735
ag2875
aa(lp5273
g2730
ag2872
aatp5274
Rp5275
ag4008
((lp5276
(lp5277
g2748
ag2816
aa(lp5278
g2733
ag2895
aa(lp5279
g2737
ag2897
aa(lp5280
g2735
ag2896
aa(lp5281
g2730
ag2893
aatp5282
Rp5283
ag4008
((lp5284
(lp5285
g2748
ag2816
aa(lp5286
g2733
ag2916
aa(lp5287
g2737
ag2918
aa(lp5288
g2735
ag2917
aa(lp5289
g2730
ag2914
aatp5290
Rp5291
ag4008
((lp5292
(lp5293
g2748
ag2749
aa(lp5294
g2733
ag2937
aa(lp5295
g2737
ag2939
aa(lp5296
g2735
ag2938
aa(lp5297
g2730
ag2935
aatp5298
Rp5299
ag4008
((lp5300
(lp5301
g2748
ag2816
aa(lp5302
g2733
ag2958
aa(lp5303
g2737
ag2960
aa(lp5304
g2735
ag2959
aa(lp5305
g2730
ag2956
aatp5306
Rp5307
ag4008
((lp5308
(lp5309
g2748
ag2749
aa(lp5310
g2733
ag2979
aa(lp5311
g2737
ag2981
aa(lp5312
g2735
ag2980
aa(lp5313
g2730
ag2977
aatp5314
Rp5315
ag4008
((lp5316
(lp5317
g2748
ag2749
aa(lp5318
g2733
ag3000
aa(lp5319
g2737
ag3002
aa(lp5320
g2735
ag3001
aa(lp5321
g2730
ag2998
aatp5322
Rp5323
ag4008
((lp5324
(lp5325
g2748
ag2749
aa(lp5326
g2733
ag3021
aa(lp5327
g2737
ag3023
aa(lp5328
g2735
ag3022
aa(lp5329
g2730
ag3019
aatp5330
Rp5331
ag4008
((lp5332
(lp5333
g2748
ag2816
aa(lp5334
g2733
ag3042
aa(lp5335
g2737
ag3044
aa(lp5336
g2735
ag3043
aa(lp5337
g2730
ag3040
aatp5338
Rp5339
ag4008
((lp5340
(lp5341
g2748
ag2749
aa(lp5342
g2733
ag3063
aa(lp5343
g2737
ag3065
aa(lp5344
g2735
ag3064
aa(lp5345
g2730
ag3061
aatp5346
Rp5347
ag4008
((lp5348
(lp5349
g2748
ag2749
aa(lp5350
g2733
ag3084
aa(lp5351
g2737
ag3086
aa(lp5352
g2735
ag3085
aa(lp5353
g2730
ag3082
aatp5354
Rp5355
ag4008
((lp5356
(lp5357
g2748
ag2816
aa(lp5358
g2733
ag3105
aa(lp5359
g2737
ag3107
aa(lp5360
g2735
ag3106
aa(lp5361
g2730
ag3103
aatp5362
Rp5363
ag4008
((lp5364
(lp5365
g2748
ag2816
aa(lp5366
g2733
ag3126
aa(lp5367
g2737
ag3128
aa(lp5368
g2735
ag3127
aa(lp5369
g2730
ag3124
aatp5370
Rp5371
ag4008
((lp5372
(lp5373
g2748
ag2749
aa(lp5374
g2733
ag3147
aa(lp5375
g2737
ag3149
aa(lp5376
g2735
ag3148
aa(lp5377
g2730
ag3145
aatp5378
Rp5379
ag4008
((lp5380
(lp5381
g2748
ag2816
aa(lp5382
g2733
ag3168
aa(lp5383
g2737
ag3170
aa(lp5384
g2735
ag3169
aa(lp5385
g2730
ag3166
aatp5386
Rp5387
ag4008
((lp5388
(lp5389
g2748
ag2816
aa(lp5390
g2733
ag3189
aa(lp5391
g2737
ag3191
aa(lp5392
g2735
ag3190
aa(lp5393
g2730
ag3187
aatp5394
Rp5395
ag4008
((lp5396
(lp5397
g2748
ag2816
aa(lp5398
g2733
ag3210
aa(lp5399
g2737
ag3212
aa(lp5400
g2735
ag3211
aa(lp5401
g2730
ag3208
aatp5402
Rp5403
ag4008
((lp5404
(lp5405
g2748
ag2749
aa(lp5406
g2733
ag3231
aa(lp5407
g2737
ag3233
aa(lp5408
g2735
ag3232
aa(lp5409
g2730
ag3229
aatp5410
Rp5411
ag4008
((lp5412
(lp5413
g2748
ag2816
aa(lp5414
g2733
ag3252
aa(lp5415
g2737
ag3254
aa(lp5416
g2735
ag3253
aa(lp5417
g2730
ag3250
aatp5418
Rp5419
ag4008
((lp5420
(lp5421
g2748
ag2816
aa(lp5422
g2733
ag3273
aa(lp5423
g2737
ag3275
aa(lp5424
g2735
ag3274
aa(lp5425
g2730
ag3271
aatp5426
Rp5427
ag4008
((lp5428
(lp5429
g2748
ag2749
aa(lp5430
g2733
ag3294
aa(lp5431
g2737
ag3296
aa(lp5432
g2735
ag3295
aa(lp5433
g2730
ag3292
aatp5434
Rp5435
ag4008
((lp5436
(lp5437
g2748
ag2749
aa(lp5438
g2733
ag3315
aa(lp5439
g2737
ag3317
aa(lp5440
g2735
ag3316
aa(lp5441
g2730
ag3313
aatp5442
Rp5443
asg141
Nsg142
g3331
sg146
I28
sg147
I0
sg148
I28
sbag0
(g52
g2
Ntp5444
Rp5445
(dp5446
g56
Nsg57
(lp5447
sg58
I356610960
sg11
g4116
sg6
I-1
sg60
I1
sg25
I01
sg26
g27
sg61
g0
(g62
g63
(dp5448
g65
g66
(g67
g68
g69
g70
tp5449
Rp5450
(I1
(I28
I1
tp5451
g76
I00
S'\x00\x00\x80?\x00\x00\x80?\x00\x00\x80?\x00\x00\x80?\x00\x00\x80?\x00\x00\x80?\x00\x00\x80?\x00\x00\x80?\x00\x00\x80?\x00\x00\x80?\x00\x00\x80?\x00\x00\x80?\x00\x00\x80?\x00\x00\x80?\x00\x00\x80?\x00\x00\x80?\x00\x00\x80?\x00\x00\x80?\x00\x00\x80?\x00\x00\x80?\x00\x00\x80?\x00\x00\x80?\x00\x00\x80?\x00\x00\x80?\x00\x00\x80?\x00\x00\x80?\x00\x00\x80?\x00\x00\x80?'
p5452
S'\x00\x00\x00\x00\x00\x00\x00\x00\x00\x00\x00\x00\x00\x00\x00\x00\x00\x00\x00\x00\x00\x00\x00\x00\x00\x00\x00\x00'
p5453
Ntp5454
bsg18
g66
(g67
g68
g69
g70
tp5455
Rp5456
(I1
(I28
I1
tp5457
g76
I00
S"\x1a-\x86@=?\x8e@\xdc/\x95@\xc0\xbb\xc1@\xdf\xf1\xb5@\xdb;\x8e@'\x0e\x93@\x17.\x9c@f\xa1\xe4@$m\xae@\xd4\x06\xf2@\x00\xfe\xd3@\x16IyA\xd546A\xee;\xba@\xd9\x1c\xaa@P\xea\xbc@^\xdf\xad@\xf4P\xb4@\xa8\x92\xb0@n\xf9\xf0@\xc8m\xda@\x93S\x9e@]\x9e\x8c@\x88_\x90@\xd2\xe1\xad@\xd8k\xae@w\xe8\xd9@"
p5458
S'\x00\x00\x00\x00\x00\x00\x00\x00\x00\x00\x00\x00\x00\x00\x00\x00\x00\x00\x00\x00\x00\x00\x00\x00\x00\x00\x00\x00'
p5459
Ntp5460
bsg105
g66
(g67
g68
g69
g70
tp5461
Rp5462
(I1
(I28
I1
tp5463
g76
I00
S'\x00\x00\x00\x00\x00\x00\x80?\x00\x00\x00@\x00\x00@@\x00\x00\x80@\x00\x00\xa0@\x00\x00\xc0@\x00\x00\xe0@\x00\x00\x00A\x00\x00\x10A\x00\x00 A\x00\x000A\x00\x00@A\x00\x00PA\x00\x00`A\x00\x00pA\x00\x00\x80A\x00\x00\x88A\x00\x00\x90A\x00\x00\x98A\x00\x00\xa0A\x00\x00\xa8A\x00\x00\xb0A\x00\x00\xb8A\x00\x00\xc0A\x00\x00\xc8A\x00\x00\xd0A\x00\x00\xd8A'
p5464
S'\x00\x00\x00\x00\x00\x00\x00\x00\x00\x00\x00\x00\x00\x00\x00\x00\x00\x00\x00\x00\x00\x00\x00\x00\x00\x00\x00\x00'
p5465
Ntp5466
bsg17
g88
(g68
(I0
tp5467
g70
tp5468
Rp5469
(I1
(I28
I1
tp5470
g95
I00
(lp5471
g3374
ag3395
ag3417
ag3438
ag3459
ag3480
ag3501
ag3522
ag3543
ag3564
ag3585
ag3606
ag3627
ag3648
ag3669
ag3690
ag3711
ag3732
ag3753
ag3774
ag3795
ag3816
ag3837
ag3858
ag3879
ag3900
ag3921
ag3942
atp5472
bstp5473
Rp5474
(dp5475
g115
(dp5476
g65
I01
sg18
I01
sg105
I01
sg17
I00
ssg117
g5445
sg118
(lp5477
g65
ag105
ag17
ag18
asg120
(lp5478
I28
aI1
asbsg122
g4148
sg124
g88
(g68
(I0
tp5479
g70
tp5480
Rp5481
(I1
(I28
I1
tp5482
g131
I00
S'\x00\x00\x00\x00\x01\x00\x00\x00\x02\x00\x00\x00\x03\x00\x00\x00\x04\x00\x00\x00\x05\x00\x00\x00\x06\x00\x00\x00\x07\x00\x00\x00\x08\x00\x00\x00\t\x00\x00\x00\n\x00\x00\x00\x0b\x00\x00\x00\x0c\x00\x00\x00\r\x00\x00\x00\x0e\x00\x00\x00\x0f\x00\x00\x00\x10\x00\x00\x00\x11\x00\x00\x00\x12\x00\x00\x00\x13\x00\x00\x00\x14\x00\x00\x00\x15\x00\x00\x00\x16\x00\x00\x00\x17\x00\x00\x00\x18\x00\x00\x00\x19\x00\x00\x00\x1a\x00\x00\x00\x1b\x00\x00\x00'
p5483
tp5484
bsg136
I01
sg137
I1
sg138
I-1
sg139
(lp5485
g4008
((lp5486
(lp5487
g3364
ag3365
aa(lp5488
g3349
ag3350
aa(lp5489
g3353
ag3354
aa(lp5490
g3351
ag3352
aa(lp5491
g3346
ag3347
aatp5492
Rp5493
ag4008
((lp5494
(lp5495
g3364
ag3365
aa(lp5496
g3349
ag3384
aa(lp5497
g3353
ag3386
aa(lp5498
g3351
ag3385
aa(lp5499
g3346
ag3382
aatp5500
Rp5501
ag4008
((lp5502
(lp5503
g3364
ag3411
aa(lp5504
g3349
ag3405
aa(lp5505
g3353
ag3407
aa(lp5506
g3351
ag3406
aa(lp5507
g3346
ag3403
aatp5508
Rp5509
ag4008
((lp5510
(lp5511
g3364
ag3365
aa(lp5512
g3349
ag3427
aa(lp5513
g3353
ag3429
aa(lp5514
g3351
ag3428
aa(lp5515
g3346
ag3425
aatp5516
Rp5517
ag4008
((lp5518
(lp5519
g3364
ag3411
aa(lp5520
g3349
ag3448
aa(lp5521
g3353
ag3450
aa(lp5522
g3351
ag3449
aa(lp5523
g3346
ag3446
aatp5524
Rp5525
ag4008
((lp5526
(lp5527
g3364
ag3365
aa(lp5528
g3349
ag3469
aa(lp5529
g3353
ag3471
aa(lp5530
g3351
ag3470
aa(lp5531
g3346
ag3467
aatp5532
Rp5533
ag4008
((lp5534
(lp5535
g3364
ag3365
aa(lp5536
g3349
ag3490
aa(lp5537
g3353
ag3492
aa(lp5538
g3351
ag3491
aa(lp5539
g3346
ag3488
aatp5540
Rp5541
ag4008
((lp5542
(lp5543
g3364
ag3411
aa(lp5544
g3349
ag3511
aa(lp5545
g3353
ag3513
aa(lp5546
g3351
ag3512
aa(lp5547
g3346
ag3509
aatp5548
Rp5549
ag4008
((lp5550
(lp5551
g3364
ag3365
aa(lp5552
g3349
ag3532
aa(lp5553
g3353
ag3534
aa(lp5554
g3351
ag3533
aa(lp5555
g3346
ag3530
aatp5556
Rp5557
ag4008
((lp5558
(lp5559
g3364
ag3411
aa(lp5560
g3349
ag3553
aa(lp5561
g3353
ag3555
aa(lp5562
g3351
ag3554
aa(lp5563
g3346
ag3551
aatp5564
Rp5565
ag4008
((lp5566
(lp5567
g3364
ag3411
aa(lp5568
g3349
ag3574
aa(lp5569
g3353
ag3576
aa(lp5570
g3351
ag3575
aa(lp5571
g3346
ag3572
aatp5572
Rp5573
ag4008
((lp5574
(lp5575
g3364
ag3411
aa(lp5576
g3349
ag3595
aa(lp5577
g3353
ag3597
aa(lp5578
g3351
ag3596
aa(lp5579
g3346
ag3593
aatp5580
Rp5581
ag4008
((lp5582
(lp5583
g3364
ag3365
aa(lp5584
g3349
ag3616
aa(lp5585
g3353
ag3618
aa(lp5586
g3351
ag3617
aa(lp5587
g3346
ag3614
aatp5588
Rp5589
ag4008
((lp5590
(lp5591
g3364
ag3365
aa(lp5592
g3349
ag3637
aa(lp5593
g3353
ag3639
aa(lp5594
g3351
ag3638
aa(lp5595
g3346
ag3635
aatp5596
Rp5597
ag4008
((lp5598
(lp5599
g3364
ag3411
aa(lp5600
g3349
ag3658
aa(lp5601
g3353
ag3660
aa(lp5602
g3351
ag3659
aa(lp5603
g3346
ag3656
aatp5604
Rp5605
ag4008
((lp5606
(lp5607
g3364
ag3365
aa(lp5608
g3349
ag3679
aa(lp5609
g3353
ag3681
aa(lp5610
g3351
ag3680
aa(lp5611
g3346
ag3677
aatp5612
Rp5613
ag4008
((lp5614
(lp5615
g3364
ag3365
aa(lp5616
g3349
ag3700
aa(lp5617
g3353
ag3702
aa(lp5618
g3351
ag3701
aa(lp5619
g3346
ag3698
aatp5620
Rp5621
ag4008
((lp5622
(lp5623
g3364
ag3411
aa(lp5624
g3349
ag3721
aa(lp5625
g3353
ag3723
aa(lp5626
g3351
ag3722
aa(lp5627
g3346
ag3719
aatp5628
Rp5629
ag4008
((lp5630
(lp5631
g3364
ag3411
aa(lp5632
g3349
ag3742
aa(lp5633
g3353
ag3744
aa(lp5634
g3351
ag3743
aa(lp5635
g3346
ag3740
aatp5636
Rp5637
ag4008
((lp5638
(lp5639
g3364
ag3411
aa(lp5640
g3349
ag3763
aa(lp5641
g3353
ag3765
aa(lp5642
g3351
ag3764
aa(lp5643
g3346
ag3761
aatp5644
Rp5645
ag4008
((lp5646
(lp5647
g3364
ag3365
aa(lp5648
g3349
ag3784
aa(lp5649
g3353
ag3786
aa(lp5650
g3351
ag3785
aa(lp5651
g3346
ag3782
aatp5652
Rp5653
ag4008
((lp5654
(lp5655
g3364
ag3365
aa(lp5656
g3349
ag3805
aa(lp5657
g3353
ag3807
aa(lp5658
g3351
ag3806
aa(lp5659
g3346
ag3803
aatp5660
Rp5661
ag4008
((lp5662
(lp5663
g3364
ag3411
aa(lp5664
g3349
ag3826
aa(lp5665
g3353
ag3828
aa(lp5666
g3351
ag3827
aa(lp5667
g3346
ag3824
aatp5668
Rp5669
ag4008
((lp5670
(lp5671
g3364
ag3411
aa(lp5672
g3349
ag3847
aa(lp5673
g3353
ag3849
aa(lp5674
g3351
ag3848
aa(lp5675
g3346
ag3845
aatp5676
Rp5677
ag4008
((lp5678
(lp5679
g3364
ag3411
aa(lp5680
g3349
ag3868
aa(lp5681
g3353
ag3870
aa(lp5682
g3351
ag3869
aa(lp5683
g3346
ag3866
aatp5684
Rp5685
ag4008
((lp5686
(lp5687
g3364
ag3365
aa(lp5688
g3349
ag3889
aa(lp5689
g3353
ag3891
aa(lp5690
g3351
ag3890
aa(lp5691
g3346
ag3887
aatp5692
Rp5693
ag4008
((lp5694
(lp5695
g3364
ag3365
aa(lp5696
g3349
ag3910
aa(lp5697
g3353
ag3912
aa(lp5698
g3351
ag3911
aa(lp5699
g3346
ag3908
aatp5700
Rp5701
ag4008
((lp5702
(lp5703
g3364
ag3411
aa(lp5704
g3349
ag3931
aa(lp5705
g3353
ag3933
aa(lp5706
g3351
ag3932
aa(lp5707
g3346
ag3929
aatp5708
Rp5709
asg141
Nsg142
g3947
sg146
I28
sg147
I0
sg148
I28
sbasS'savePickle'
p5710
I00
sb.