ccopy_reg
_reconstructor
p0
(cpsychopy.data.experiment
ExperimentHandler
p1
c__builtin__
object
p2
Ntp3
Rp4
(dp5
S'originPath'
p6
VC:\u005cUsers\u005cadmin\u005cDocuments\u005cgit-repos\u005cguillermo\u005cGMM_2018_replication_sheb-pulv2013\u005cexp-scripts_psychopy\u005cpilot\u005csheb_replic_pilot_control.psyexp
p7
sS'dataFileName'
p8
VC:\u005cUsers\u005cadmin\u005cDocuments\u005cgit-repos\u005cguillermo\u005cGMM_2018_replication_sheb-pulv2013\u005cexp-scripts_psychopy\u005cpilot\u005cdata/903_sheb_replic_pilot_control_2018_Jun_12_1200
p9
sS'runtimeInfo'
p10
NsS'name'
p11
S'sheb_replic_pilot_control'
p12
sS'dataNames'
p13
(lp14
S'key_resp_6.keys'
p15
aS'key_resp_6.rt'
p16
aS'key_resp_2.keys'
p17
aS'key_resp_2.rt'
p18
aS'key_resp_8.keys'
p19
aS'key_resp_8.rt'
p20
aS'key_resp_7.keys'
p21
aS'key_resp_7.rt'
p22
aS'key_resp_3.keys'
p23
aS'key_resp_3.rt'
p24
asS'autoLog'
p25
I01
sS'extraInfo'
p26
(dp27
S'date'
p28
V2018_Jun_12_1200
p29
sS'frameRate'
p30
cnumpy.core.multiarray
scalar
p31
(cnumpy
dtype
p32
(S'f8'
p33
I0
I1
tp34
Rp35
(I3
S'<'
p36
NNNI-1
I-1
I0
tp37
bS'&\x06\x1c\xabA\xd0M@'
p38
tp39
Rp40
sS'expName'
p41
g12
sVsession
p42
V001
p43
sVparticipant
p44
g0
(cfuture.types.newstr
newstr
p45
c__builtin__
unicode
p46
V903
p47
tp48
Rp49
ssS'loopsUnfinished'
p50
(lp51
g0
(cpsychopy.data.trial
TrialHandler
p52
g2
Ntp53
Rp54
(dp55
S'origin'
p56
NsS'thisTrial'
p57
NsS'_exp'
p58
I360649680
sg11
S'training_block'
p59
sg6
I-1
sS'thisRepN'
p60
I1
sg25
I01
sg26
g27
sS'data'
p61
g0
(cpsychopy.data.base
DataHandler
p62
c__builtin__
dict
p63
(dp64
S'ran'
p65
cnumpy.ma.core
_mareconstruct
p66
(cnumpy.ma.core
MaskedArray
p67
cnumpy
ndarray
p68
(I0
tp69
S'b'
p70
tp71
Rp72
(I1
(I1
I5
tp73
g32
(S'f4'
p74
I0
I1
tp75
Rp76
(I3
S'<'
p77
NNNI-1
I-1
I0
tp78
bI00
S'\x00\x00\x80?\x00\x00\x80?\x00\x00\x00\x00\x00\x00\x00\x00\x00\x00\x00\x00'
p79
S'\x00\x00\x00\x00\x00'
p80
Ntp81
bsg20
g66
(g67
g68
g69
g70
tp82
Rp83
(I1
(I1
I5
tp84
g76
I00
S'5\x86>B\xb5\r\x08A\x00\x00\x00\x00\x00\x00\x00\x00\x00\x00\x00\x00'
p85
S'\x00\x00\x01\x01\x01'
p86
Ntp87
bsg19
cnumpy.core.multiarray
_reconstruct
p88
(g68
(I0
tp89
g70
tp90
Rp91
(I1
(I1
I5
tp92
g32
(S'O4'
p93
I0
I1
tp94
Rp95
(I3
S'|'
p96
NNNI-1
I-1
I63
tp97
bI00
(lp98
S'p'
p99
aS's'
p100
aS'--'
p101
aS'--'
p102
aS'--'
p103
atp104
bsS'order'
p105
g66
(g67
g68
g69
g70
tp106
Rp107
(I1
(I1
I5
tp108
g76
I00
S'\x00\x00\x00\x00\x00\x00\x80?\x00\x00\x00\x00\x00\x00\x00\x00\x00\x00\x00\x00'
p109
S'\x00\x00\x01\x01\x01'
p110
Ntp111
bstp112
Rp113
(dp114
S'isNumeric'
p115
(dp116
g65
I01
sg20
I01
sg19
I00
sg105
I01
ssS'trials'
p117
g54
sS'dataTypes'
p118
(lp119
g65
ag105
ag19
ag20
asS'dataShape'
p120
(lp121
I1
aI5
asbsS'method'
p122
S'random'
p123
sS'sequenceIndices'
p124
g88
(g68
(I0
tp125
g70
tp126
Rp127
(I1
(I1
I5
tp128
g32
(S'i4'
p129
I0
I1
tp130
Rp131
(I3
S'<'
p132
NNNI-1
I-1
I0
tp133
bI00
S'\x00\x00\x00\x00\x00\x00\x00\x00\x00\x00\x00\x00\x00\x00\x00\x00\x00\x00\x00\x00'
p134
tp135
bsS'finished'
p136
I00
sS'nReps'
p137
I5
sS'nRemaining'
p138
I3
sS'trialList'
p139
(lp140
NasS'seed'
p141
NsS'thisIndex'
p142
g31
(g131
S'\x00\x00\x00\x00'
p143
tp144
Rp145
sS'thisN'
p146
I1
sS'thisTrialN'
p147
I0
sS'nTotal'
p148
I5
sbasS'saveWideText'
p149
I00
sS'thisEntry'
p150
(dp151
sS'version'
p152
S''
p153
sS'_paramNamesSoFar'
p154
(lp155
S'item'
p156
aS'type'
p157
aS'word1'
p158
aS'word2'
p159
aS'word3'
p160
aS'word4'
p161
aS'word_duration'
p162
aS'follow_blank'
p163
aS'SOA'
p164
asS'entries'
p165
(lp166
(dp167
g42
g43
sg41
g12
sg44
g49
sg28
g29
sg15
S'space'
p168
sg30
g40
sg16
F3.1199815243453486
sa(dp169
S'training_block.thisRepN'
p170
I0
sg18
F7.597683114858228
sS'training_block.thisN'
p171
I0
sS'word_presentation_training.thisTrialN'
p172
I0
sg42
g43
sg161
Vyell
p173
sS'word_presentation_training.thisRepN'
p174
I0
sg44
g49
sg30
g40
sS'training_block.thisTrialN'
p175
I0
sg17
S'space'
p176
sg156
g31
(g32
(S'i8'
p177
I0
I1
tp178
Rp179
(I3
S'<'
p180
NNNI-1
I-1
I0
tp181
bS'\x02\x00\x00\x00\x00\x00\x00\x00'
p182
tp183
Rp184
sg41
g12
sg158
Vlike
p185
sS'word_presentation_training.thisIndex'
p186
g31
(g131
S'\x01\x00\x00\x00'
p187
tp188
Rp189
sg160
Vstare
p190
sg159
Vthank
p191
sg28
g29
sS'word_presentation_training.thisN'
p192
I0
sg157
Vtraining
p193
sS'training_block.thisIndex'
p194
g31
(g131
S'\x00\x00\x00\x00'
p195
tp196
Rp197
sa(dp198
S'training_block.thisRepN'
p199
I0
sg18
F5.050136354766437
sS'training_block.thisN'
p200
I0
sS'word_presentation_training.thisTrialN'
p201
I1
sg42
g43
sg161
Vprint
p202
sS'word_presentation_training.thisRepN'
p203
I0
sg44
g49
sg30
g40
sS'training_block.thisTrialN'
p204
I0
sg17
S'space'
p205
sg156
g31
(g179
S'\x04\x00\x00\x00\x00\x00\x00\x00'
p206
tp207
Rp208
sg41
g12
sg158
Vsave
p209
sS'word_presentation_training.thisIndex'
p210
g31
(g131
S'\x03\x00\x00\x00'
p211
tp212
Rp213
sg160
Vstay
p214
sg159
Vlook
p215
sg28
g29
sS'word_presentation_training.thisN'
p216
I1
sg157
g193
sS'training_block.thisIndex'
p217
g197
sa(dp218
S'training_block.thisRepN'
p219
I0
sg18
F7.580953479759046
sS'training_block.thisN'
p220
I0
sS'word_presentation_training.thisTrialN'
p221
I2
sg42
g43
sg161
Vsoothe
p222
sS'word_presentation_training.thisRepN'
p223
I0
sg44
g49
sg30
g40
sS'training_block.thisTrialN'
p224
I0
sg17
S'space'
p225
sg156
g31
(g179
S'\x03\x00\x00\x00\x00\x00\x00\x00'
p226
tp227
Rp228
sg41
g12
sg158
Vlick
p229
sS'word_presentation_training.thisIndex'
p230
g31
(g131
S'\x02\x00\x00\x00'
p231
tp232
Rp233
sg160
Vchew
p234
sg159
Vruin
p235
sg28
g29
sS'word_presentation_training.thisN'
p236
I2
sg157
g193
sS'training_block.thisIndex'
p237
g197
sa(dp238
S'training_block.thisRepN'
p239
I0
sg18
F6.910064332885668
sS'training_block.thisN'
p240
I0
sS'word_presentation_training.thisTrialN'
p241
I3
sg42
g43
sg161
Vsigh
p242
sS'word_presentation_training.thisRepN'
p243
I0
sg44
g49
sg30
g40
sS'training_block.thisTrialN'
p244
I0
sg17
S'space'
p245
sg156
g31
(g179
S'\x01\x00\x00\x00\x00\x00\x00\x00'
p246
tp247
Rp248
sg41
g12
sg158
Vwait
p249
sS'word_presentation_training.thisIndex'
p250
g31
(g131
S'\x00\x00\x00\x00'
p251
tp252
Rp253
sg160
Vblush
p254
sg159
Vbless
p255
sg28
g29
sS'word_presentation_training.thisN'
p256
I3
sg157
g193
sS'training_block.thisIndex'
p257
g197
sa(dp258
S'training_block.thisRepN'
p259
I0
sS'training_block.thisN'
p260
I0
sg42
g43
sg30
g40
sS'training_block.thisTrialN'
p261
I0
sg20
F47.631060990999686
sg41
g12
sg19
g99
sg28
g29
sg44
g49
sS'training_block.thisIndex'
p262
g197
sa(dp263
S'training_block.thisRepN'
p264
I1
sg18
F4.360451902844943
sS'training_block.thisN'
p265
I1
sS'word_presentation_training.thisTrialN'
p266
I0
sg42
g43
sS'word4'
p267
Vyell
p268
sS'word_presentation_training.thisRepN'
p269
I0
sg44
g49
sg30
g40
sS'training_block.thisTrialN'
p270
I0
sg17
S'space'
p271
sS'item'
p272
g31
(g179
S'\x02\x00\x00\x00\x00\x00\x00\x00'
p273
tp274
Rp275
sg41
g12
sS'word1'
p276
Vlike
p277
sS'word_presentation_training.thisIndex'
p278
g31
(g131
S'\x01\x00\x00\x00'
p279
tp280
Rp281
sS'word3'
p282
Vstare
p283
sS'word2'
p284
Vthank
p285
sg28
g29
sS'word_presentation_training.thisN'
p286
I0
sS'type'
p287
Vtraining
p288
sS'training_block.thisIndex'
p289
g145
sa(dp290
S'training_block.thisRepN'
p291
I1
sg18
F5.081872521142941
sS'training_block.thisN'
p292
I1
sS'word_presentation_training.thisTrialN'
p293
I1
sg42
g43
sg267
Vprint
p294
sS'word_presentation_training.thisRepN'
p295
I0
sg44
g49
sg30
g40
sS'training_block.thisTrialN'
p296
I0
sg17
S'space'
p297
sg272
g31
(g179
S'\x04\x00\x00\x00\x00\x00\x00\x00'
p298
tp299
Rp300
sg41
g12
sg276
Vsave
p301
sS'word_presentation_training.thisIndex'
p302
g31
(g131
S'\x03\x00\x00\x00'
p303
tp304
Rp305
sg282
Vstay
p306
sg284
Vlook
p307
sg28
g29
sS'word_presentation_training.thisN'
p308
I1
sg287
g288
sS'training_block.thisIndex'
p309
g145
sa(dp310
S'training_block.thisRepN'
p311
I1
sg18
F5.083054315109621
sS'training_block.thisN'
p312
I1
sS'word_presentation_training.thisTrialN'
p313
I2
sg42
g43
sg267
Vsoothe
p314
sS'word_presentation_training.thisRepN'
p315
I0
sg44
g49
sg30
g40
sS'training_block.thisTrialN'
p316
I0
sg17
S'space'
p317
sg272
g31
(g179
S'\x03\x00\x00\x00\x00\x00\x00\x00'
p318
tp319
Rp320
sg41
g12
sg276
Vlick
p321
sS'word_presentation_training.thisIndex'
p322
g31
(g131
S'\x02\x00\x00\x00'
p323
tp324
Rp325
sg282
Vchew
p326
sg284
Vruin
p327
sg28
g29
sS'word_presentation_training.thisN'
p328
I2
sg287
g288
sS'training_block.thisIndex'
p329
g145
sa(dp330
S'training_block.thisRepN'
p331
I1
sg18
F6.289891967200674
sS'training_block.thisN'
p332
I1
sS'word_presentation_training.thisTrialN'
p333
I3
sg42
g43
sg267
Vsigh
p334
sS'word_presentation_training.thisRepN'
p335
I0
sg44
g49
sg30
g40
sS'training_block.thisTrialN'
p336
I0
sg17
S'space'
p337
sg272
g31
(g179
S'\x01\x00\x00\x00\x00\x00\x00\x00'
p338
tp339
Rp340
sg41
g12
sg276
Vwait
p341
sS'word_presentation_training.thisIndex'
p342
g31
(g131
S'\x00\x00\x00\x00'
p343
tp344
Rp345
sg282
Vblush
p346
sg284
Vbless
p347
sg28
g29
sS'word_presentation_training.thisN'
p348
I3
sg287
g288
sS'training_block.thisIndex'
p349
g145
sa(dp350
S'training_block.thisRepN'
p351
I1
sS'training_block.thisN'
p352
I1
sg42
g43
sg22
F2.231036967903492
sg30
g40
sS'training_block.thisTrialN'
p353
I0
sg20
F8.503346638230141
sg41
g12
sg19
g100
sg21
S'space'
p354
sg28
g29
sg44
g49
sS'training_block.thisIndex'
p355
g145
sa(dp356
S'training_block.thisRepN'
p357
I1
sg163
g31
(g35
S'\x9a\x99\x99\x99\x99\x99\xd9?'
p358
tp359
Rp360
sg30
g40
sS'word4'
p361
Vrush
p362
sS'experimental_blocks.thisN'
p363
I0
sg42
g43
sS'word1'
p364
Vtrot
p365
sS'word3'
p366
Vtiptoe
p367
sS'word2'
p368
Vtrudge
p369
sS'experimental_blocks.thisIndex'
p370
g31
(g131
S'\x00\x00\x00\x00'
p371
tp372
Rp373
sS'word_presentation.thisRepN'
p374
I0
sS'experimental_blocks.thisRepN'
p375
I0
sg44
g49
sg162
g31
(g35
S'\x9a\x99\x99\x99\x99\x99\xb9?'
p376
tp377
Rp378
sS'type'
p379
Vleg
p380
sS'training_block.thisIndex'
p381
g145
sg164
g31
(g35
S'\x00\x00\x00\x00\x00\x00\xe0?'
p382
tp383
Rp384
sg18
F6.004296498707845
sS'experimental_blocks.thisTrialN'
p385
I0
sS'training_block.thisN'
p386
I1
sS'word_presentation.thisN'
p387
I0
sS'training_block.thisTrialN'
p388
I0
sg17
S'space'
p389
sg28
g29
sS'word_presentation.thisTrialN'
p390
I0
sg41
g12
sS'word_presentation.thisIndex'
p391
g31
(g131
S'\x00\x00\x00\x00'
p392
tp393
Rp394
sa(dp395
S'training_block.thisRepN'
p396
I1
sg163
g360
sg30
g40
sg361
Vhop
p397
sS'experimental_blocks.thisN'
p398
I0
sg42
g43
sg364
Vcreep
p399
sg366
Vclimb
p400
sg368
Vslither
p401
sS'experimental_blocks.thisIndex'
p402
g373
sS'word_presentation.thisRepN'
p403
I0
sS'experimental_blocks.thisRepN'
p404
I0
sg44
g49
sg162
g378
sg379
g380
sS'training_block.thisIndex'
p405
g145
sg164
g384
sg18
F7.011273073818302
sS'experimental_blocks.thisTrialN'
p406
I0
sS'training_block.thisN'
p407
I1
sS'word_presentation.thisN'
p408
I1
sS'training_block.thisTrialN'
p409
I0
sg17
S'space'
p410
sg28
g29
sS'word_presentation.thisTrialN'
p411
I1
sg41
g12
sS'word_presentation.thisIndex'
p412
g31
(g131
S'\x01\x00\x00\x00'
p413
tp414
Rp415
sa(dp416
S'training_block.thisRepN'
p417
I1
sg163
g360
sg30
g40
sg361
Vbraid
p418
sS'experimental_blocks.thisN'
p419
I0
sg42
g43
sg364
Vwrap
p420
sg366
Vcatch
p421
sg368
Vsnatch
p422
sS'experimental_blocks.thisIndex'
p423
g373
sS'word_presentation.thisRepN'
p424
I0
sS'experimental_blocks.thisRepN'
p425
I0
sg44
g49
sg162
g378
sg379
Varm
p426
sS'training_block.thisIndex'
p427
g145
sg164
g384
sg18
F7.3801212059916
sS'experimental_blocks.thisTrialN'
p428
I0
sS'training_block.thisN'
p429
I1
sS'word_presentation.thisN'
p430
I2
sS'training_block.thisTrialN'
p431
I0
sg17
S'space'
p432
sg28
g29
sS'word_presentation.thisTrialN'
p433
I2
sg41
g12
sS'word_presentation.thisIndex'
p434
g31
(g131
S'\x02\x00\x00\x00'
p435
tp436
Rp437
sa(dp438
S'training_block.thisRepN'
p439
I1
sg163
g360
sg30
g40
sg361
Vdelve
p440
sS'experimental_blocks.thisN'
p441
I0
sg42
g43
sg364
Vstir
p442
sg366
Vgrate
p443
sg368
Vtwine
p444
sS'experimental_blocks.thisIndex'
p445
g373
sS'word_presentation.thisRepN'
p446
I0
sS'experimental_blocks.thisRepN'
p447
I0
sg44
g49
sg162
g378
sg379
g426
sS'training_block.thisIndex'
p448
g145
sg164
g384
sg18
F6.9771108910790645
sS'experimental_blocks.thisTrialN'
p449
I0
sS'training_block.thisN'
p450
I1
sS'word_presentation.thisN'
p451
I3
sS'training_block.thisTrialN'
p452
I0
sg17
S'space'
p453
sg28
g29
sS'word_presentation.thisTrialN'
p454
I3
sg41
g12
sS'word_presentation.thisIndex'
p455
g31
(g131
S'\x03\x00\x00\x00'
p456
tp457
Rp458
sa(dp459
S'training_block.thisRepN'
p460
I1
sg163
g360
sg30
g40
sg361
Vroll
p461
sS'experimental_blocks.thisN'
p462
I0
sg42
g43
sg364
Vflit
p463
sg366
Vstomp
p464
sg368
Vstrut
p465
sS'experimental_blocks.thisIndex'
p466
g373
sS'word_presentation.thisRepN'
p467
I0
sS'experimental_blocks.thisRepN'
p468
I0
sg44
g49
sg162
g378
sg379
g380
sS'training_block.thisIndex'
p469
g145
sg164
g384
sg18
F7.749132126220502
sS'experimental_blocks.thisTrialN'
p470
I0
sS'training_block.thisN'
p471
I1
sS'word_presentation.thisN'
p472
I4
sS'training_block.thisTrialN'
p473
I0
sg17
S'space'
p474
sg28
g29
sS'word_presentation.thisTrialN'
p475
I4
sg41
g12
sS'word_presentation.thisIndex'
p476
g31
(g131
S'\x04\x00\x00\x00'
p477
tp478
Rp479
sa(dp480
S'training_block.thisRepN'
p481
I1
sg163
g360
sg30
g40
sg361
Vclutch
p482
sS'experimental_blocks.thisN'
p483
I0
sg42
g43
sg364
Vpoke
p484
sg366
Vfile
p485
sg368
Vslap
p486
sS'experimental_blocks.thisIndex'
p487
g373
sS'word_presentation.thisRepN'
p488
I0
sS'experimental_blocks.thisRepN'
p489
I0
sg44
g49
sg162
g378
sg379
g426
sS'training_block.thisIndex'
p490
g145
sg164
g384
sg18
F6.608254066333757
sS'experimental_blocks.thisTrialN'
p491
I0
sS'training_block.thisN'
p492
I1
sS'word_presentation.thisN'
p493
I5
sS'training_block.thisTrialN'
p494
I0
sg17
S'space'
p495
sg28
g29
sS'word_presentation.thisTrialN'
p496
I5
sg41
g12
sS'word_presentation.thisIndex'
p497
g31
(g131
S'\x05\x00\x00\x00'
p498
tp499
Rp500
sa(dp501
S'training_block.thisRepN'
p502
I1
sg163
g360
sg30
g40
sg361
Vbash
p503
sS'experimental_blocks.thisN'
p504
I0
sg42
g43
sg364
Vclick
p505
sg366
Vpat
p506
sg368
Vwhip
p507
sS'experimental_blocks.thisIndex'
p508
g373
sS'word_presentation.thisRepN'
p509
I0
sS'experimental_blocks.thisRepN'
p510
I0
sg44
g49
sg162
g378
sg379
g426
sS'training_block.thisIndex'
p511
g145
sg164
g384
sg18
F6.775780375173781
sS'experimental_blocks.thisTrialN'
p512
I0
sS'training_block.thisN'
p513
I1
sS'word_presentation.thisN'
p514
I6
sS'training_block.thisTrialN'
p515
I0
sg17
S'space'
p516
sg28
g29
sS'word_presentation.thisTrialN'
p517
I6
sg41
g12
sS'word_presentation.thisIndex'
p518
g31
(g131
S'\x06\x00\x00\x00'
p519
tp520
Rp521
sa(dp522
S'training_block.thisRepN'
p523
I1
sg163
g360
sg30
g40
sg361
Vstumble
p524
sS'experimental_blocks.thisN'
p525
I0
sg42
g43
sg364
Vlimp
p526
sg366
Vbounce
p527
sg368
Vsprint
p528
sS'experimental_blocks.thisIndex'
p529
g373
sS'word_presentation.thisRepN'
p530
I0
sS'experimental_blocks.thisRepN'
p531
I0
sg44
g49
sg162
g378
sg379
g380
sS'training_block.thisIndex'
p532
g145
sg164
g384
sg18
F5.870967538008699
sS'experimental_blocks.thisTrialN'
p533
I0
sS'training_block.thisN'
p534
I1
sS'word_presentation.thisN'
p535
I7
sS'training_block.thisTrialN'
p536
I0
sg17
S'space'
p537
sg28
g29
sS'word_presentation.thisTrialN'
p538
I7
sg41
g12
sS'word_presentation.thisIndex'
p539
g31
(g131
S'\x07\x00\x00\x00'
p540
tp541
Rp542
sa(dp543
S'training_block.thisRepN'
p544
I1
sg163
g360
sg30
g40
sg361
Vsqueeze
p545
sS'experimental_blocks.thisN'
p546
I0
sg42
g43
sg364
Vwash
p547
sg366
Vscrub
p548
sg368
Vhack
p549
sS'experimental_blocks.thisIndex'
p550
g373
sS'word_presentation.thisRepN'
p551
I0
sS'experimental_blocks.thisRepN'
p552
I0
sg44
g49
sg162
g378
sg379
g426
sS'training_block.thisIndex'
p553
g145
sg164
g384
sg18
F5.517878239261336
sS'experimental_blocks.thisTrialN'
p554
I0
sS'training_block.thisN'
p555
I1
sS'word_presentation.thisN'
p556
I8
sS'training_block.thisTrialN'
p557
I0
sg17
S'space'
p558
sg28
g29
sS'word_presentation.thisTrialN'
p559
I8
sg41
g12
sS'word_presentation.thisIndex'
p560
g31
(g131
S'\x08\x00\x00\x00'
p561
tp562
Rp563
sa(dp564
S'training_block.thisRepN'
p565
I1
sg163
g360
sg30
g40
sg361
Vpush
p566
sS'experimental_blocks.thisN'
p567
I0
sg42
g43
sg364
Vpolish
p568
sg366
Vbrush
p569
sg368
Vskim
p570
sS'experimental_blocks.thisIndex'
p571
g373
sS'word_presentation.thisRepN'
p572
I0
sS'experimental_blocks.thisRepN'
p573
I0
sg44
g49
sg162
g378
sg379
g426
sS'training_block.thisIndex'
p574
g145
sg164
g384
sg18
F9.242332958499901
sS'experimental_blocks.thisTrialN'
p575
I0
sS'training_block.thisN'
p576
I1
sS'word_presentation.thisN'
p577
I9
sS'training_block.thisTrialN'
p578
I0
sg17
S'space'
p579
sg28
g29
sS'word_presentation.thisTrialN'
p580
I9
sg41
g12
sS'word_presentation.thisIndex'
p581
g31
(g131
S'\t\x00\x00\x00'
p582
tp583
Rp584
sa(dp585
S'training_block.thisRepN'
p586
I1
sg163
g360
sg30
g40
sg361
Vleap
p587
sS'experimental_blocks.thisN'
p588
I0
sg42
g43
sg364
Vstroll
p589
sg366
Vskate
p590
sg368
Vtrek
p591
sS'experimental_blocks.thisIndex'
p592
g373
sS'word_presentation.thisRepN'
p593
I0
sS'experimental_blocks.thisRepN'
p594
I0
sg44
g49
sg162
g378
sg379
g380
sS'training_block.thisIndex'
p595
g145
sg164
g384
sg18
F5.133162221463863
sS'experimental_blocks.thisTrialN'
p596
I0
sS'training_block.thisN'
p597
I1
sS'word_presentation.thisN'
p598
I10
sS'training_block.thisTrialN'
p599
I0
sg17
S'space'
p600
sg28
g29
sS'word_presentation.thisTrialN'
p601
I10
sg41
g12
sS'word_presentation.thisIndex'
p602
g31
(g131
S'\n\x00\x00\x00'
p603
tp604
Rp605
sa(dp606
S'training_block.thisRepN'
p607
I1
sg163
g360
sg30
g40
sg361
Vramble
p608
sS'experimental_blocks.thisN'
p609
I0
sg42
g43
sg364
Vstride
p610
sg366
Vcrawl
p611
sg368
Vstray
p612
sS'experimental_blocks.thisIndex'
p613
g373
sS'word_presentation.thisRepN'
p614
I0
sS'experimental_blocks.thisRepN'
p615
I0
sg44
g49
sg162
g378
sg379
g380
sS'training_block.thisIndex'
p616
g145
sg164
g384
sg18
F6.071439860475948
sS'experimental_blocks.thisTrialN'
p617
I0
sS'training_block.thisN'
p618
I1
sS'word_presentation.thisN'
p619
I11
sS'training_block.thisTrialN'
p620
I0
sg17
S'space'
p621
sg28
g29
sS'word_presentation.thisTrialN'
p622
I11
sg41
g12
sS'word_presentation.thisIndex'
p623
g31
(g131
S'\x0b\x00\x00\x00'
p624
tp625
Rp626
sa(dp627
S'training_block.thisRepN'
p628
I1
sg163
g360
sg30
g40
sg361
Vshake
p629
sS'experimental_blocks.thisN'
p630
I0
sg42
g43
sg364
Vscoop
p631
sg366
Vthrow
p632
sg368
Vclaw
p633
sS'experimental_blocks.thisIndex'
p634
g373
sS'word_presentation.thisRepN'
p635
I0
sS'experimental_blocks.thisRepN'
p636
I0
sg44
g49
sg162
g378
sg379
g426
sS'training_block.thisIndex'
p637
g145
sg164
g384
sg18
F6.339813378494
sS'experimental_blocks.thisTrialN'
p638
I0
sS'training_block.thisN'
p639
I1
sS'word_presentation.thisN'
p640
I12
sS'training_block.thisTrialN'
p641
I0
sg17
S'space'
p642
sg28
g29
sS'word_presentation.thisTrialN'
p643
I12
sg41
g12
sS'word_presentation.thisIndex'
p644
g31
(g131
S'\x0c\x00\x00\x00'
p645
tp646
Rp647
sa(dp648
S'training_block.thisRepN'
p649
I1
sg163
g360
sg30
g40
sg361
Vknock
p650
sS'experimental_blocks.thisN'
p651
I0
sg42
g43
sg364
Vpeel
p652
sg366
Vfold
p653
sg368
Vscrape
p654
sS'experimental_blocks.thisIndex'
p655
g373
sS'word_presentation.thisRepN'
p656
I0
sS'experimental_blocks.thisRepN'
p657
I0
sg44
g49
sg162
g378
sg379
g426
sS'training_block.thisIndex'
p658
g145
sg164
g384
sg18
F8.100932159257354
sS'experimental_blocks.thisTrialN'
p659
I0
sS'training_block.thisN'
p660
I1
sS'word_presentation.thisN'
p661
I13
sS'training_block.thisTrialN'
p662
I0
sg17
S'space'
p663
sg28
g29
sS'word_presentation.thisTrialN'
p664
I13
sg41
g12
sS'word_presentation.thisIndex'
p665
g31
(g131
S'\r\x00\x00\x00'
p666
tp667
Rp668
sa(dp669
S'training_block.thisRepN'
p670
I1
sg163
g360
sg30
g40
sg361
Vhike
p671
sS'experimental_blocks.thisN'
p672
I0
sg42
g43
sg364
Vprance
p673
sg366
Vskip
p674
sg368
Vtread
p675
sS'experimental_blocks.thisIndex'
p676
g373
sS'word_presentation.thisRepN'
p677
I0
sS'experimental_blocks.thisRepN'
p678
I0
sg44
g49
sg162
g378
sg379
g380
sS'training_block.thisIndex'
p679
g145
sg164
g384
sg18
F7.81584639128414
sS'experimental_blocks.thisTrialN'
p680
I0
sS'training_block.thisN'
p681
I1
sS'word_presentation.thisN'
p682
I14
sS'training_block.thisTrialN'
p683
I0
sg17
S'space'
p684
sg28
g29
sS'word_presentation.thisTrialN'
p685
I14
sg41
g12
sS'word_presentation.thisIndex'
p686
g31
(g131
S'\x0e\x00\x00\x00'
p687
tp688
Rp689
sa(dp690
S'training_block.thisRepN'
p691
I1
sg163
g360
sg30
g40
sg361
Vclean
p692
sS'experimental_blocks.thisN'
p693
I0
sg42
g43
sg364
Vdig
p694
sg366
Vclap
p695
sg368
Vchop
p696
sS'experimental_blocks.thisIndex'
p697
g373
sS'word_presentation.thisRepN'
p698
I0
sS'experimental_blocks.thisRepN'
p699
I0
sg44
g49
sg162
g378
sg379
g426
sS'training_block.thisIndex'
p700
g145
sg164
g384
sg18
F5.954265640088124
sS'experimental_blocks.thisTrialN'
p701
I0
sS'training_block.thisN'
p702
I1
sS'word_presentation.thisN'
p703
I15
sS'training_block.thisTrialN'
p704
I0
sg17
S'space'
p705
sg28
g29
sS'word_presentation.thisTrialN'
p706
I15
sg41
g12
sS'word_presentation.thisIndex'
p707
g31
(g131
S'\x0f\x00\x00\x00'
p708
tp709
Rp710
sa(dp711
S'training_block.thisRepN'
p712
I1
sg163
g360
sg30
g40
sg361
Vstab
p713
sS'experimental_blocks.thisN'
p714
I0
sg42
g43
sg364
Vpinch
p715
sg366
Vgrip
p716
sg368
Vbind
p717
sS'experimental_blocks.thisIndex'
p718
g373
sS'word_presentation.thisRepN'
p719
I0
sS'experimental_blocks.thisRepN'
p720
I0
sg44
g49
sg162
g378
sg379
g426
sS'training_block.thisIndex'
p721
g145
sg164
g384
sg18
F6.944275115005439
sS'experimental_blocks.thisTrialN'
p722
I0
sS'training_block.thisN'
p723
I1
sS'word_presentation.thisN'
p724
I16
sS'training_block.thisTrialN'
p725
I0
sg17
S'space'
p726
sg28
g29
sS'word_presentation.thisTrialN'
p727
I16
sg41
g12
sS'word_presentation.thisIndex'
p728
g31
(g131
S'\x10\x00\x00\x00'
p729
tp730
Rp731
sa(dp732
S'training_block.thisRepN'
p733
I1
sg163
g360
sg30
g40
sg361
Vtrip
p734
sS'experimental_blocks.thisN'
p735
I0
sg42
g43
sg364
Vslide
p736
sg366
Vstagger
p737
sg368
Vpace
p738
sS'experimental_blocks.thisIndex'
p739
g373
sS'word_presentation.thisRepN'
p740
I0
sS'experimental_blocks.thisRepN'
p741
I0
sg44
g49
sg162
g378
sg379
g380
sS'training_block.thisIndex'
p742
g145
sg164
g384
sg18
F7.313211753309588
sS'experimental_blocks.thisTrialN'
p743
I0
sS'training_block.thisN'
p744
I1
sS'word_presentation.thisN'
p745
I17
sS'training_block.thisTrialN'
p746
I0
sg17
S'space'
p747
sg28
g29
sS'word_presentation.thisTrialN'
p748
I17
sg41
g12
sS'word_presentation.thisIndex'
p749
g31
(g131
S'\x11\x00\x00\x00'
p750
tp751
Rp752
sa(dp753
S'training_block.thisRepN'
p754
I1
sg163
g360
sg30
g40
sg361
Vscuff
p755
sS'experimental_blocks.thisN'
p756
I0
sg42
g43
sg364
Vjump
p757
sg366
Vrun
p758
sg368
Vroam
p759
sS'experimental_blocks.thisIndex'
p760
g373
sS'word_presentation.thisRepN'
p761
I0
sS'experimental_blocks.thisRepN'
p762
I0
sg44
g49
sg162
g378
sg379
g380
sS'training_block.thisIndex'
p763
g145
sg164
g384
sg18
F6.238990666548489
sS'experimental_blocks.thisTrialN'
p764
I0
sS'training_block.thisN'
p765
I1
sS'word_presentation.thisN'
p766
I18
sS'training_block.thisTrialN'
p767
I0
sg17
S'space'
p768
sg28
g29
sS'word_presentation.thisTrialN'
p769
I18
sg41
g12
sS'word_presentation.thisIndex'
p770
g31
(g131
S'\x12\x00\x00\x00'
p771
tp772
Rp773
sa(dp774
S'training_block.thisRepN'
p775
I1
sg163
g360
sg30
g40
sg361
Vinch
p776
sS'experimental_blocks.thisN'
p777
I0
sg42
g43
sg364
Vsway
p778
sg366
Vstamp
p779
sg368
Vkneel
p780
sS'experimental_blocks.thisIndex'
p781
g373
sS'word_presentation.thisRepN'
p782
I0
sS'experimental_blocks.thisRepN'
p783
I0
sg44
g49
sg162
g378
sg379
g380
sS'training_block.thisIndex'
p784
g145
sg164
g384
sg18
F5.685140610177768
sS'experimental_blocks.thisTrialN'
p785
I0
sS'training_block.thisN'
p786
I1
sS'word_presentation.thisN'
p787
I19
sS'training_block.thisTrialN'
p788
I0
sg17
S'space'
p789
sg28
g29
sS'word_presentation.thisTrialN'
p790
I19
sg41
g12
sS'word_presentation.thisIndex'
p791
g31
(g131
S'\x13\x00\x00\x00'
p792
tp793
Rp794
sa(dp795
S'training_block.thisRepN'
p796
I1
sg163
g360
sg30
g40
sg361
Vseize
p797
sS'experimental_blocks.thisN'
p798
I0
sg42
g43
sg364
Vswitch
p799
sg366
Vtug
p800
sg368
Vtoss
p801
sS'experimental_blocks.thisIndex'
p802
g373
sS'word_presentation.thisRepN'
p803
I0
sS'experimental_blocks.thisRepN'
p804
I0
sg44
g49
sg162
g378
sg379
g426
sS'training_block.thisIndex'
p805
g145
sg164
g384
sg18
F5.987637589496444
sS'experimental_blocks.thisTrialN'
p806
I0
sS'training_block.thisN'
p807
I1
sS'word_presentation.thisN'
p808
I20
sS'training_block.thisTrialN'
p809
I0
sg17
S'space'
p810
sg28
g29
sS'word_presentation.thisTrialN'
p811
I20
sg41
g12
sS'word_presentation.thisIndex'
p812
g31
(g131
S'\x14\x00\x00\x00'
p813
tp814
Rp815
sa(dp816
S'training_block.thisRepN'
p817
I1
sg163
g360
sg30
g40
sg361
Vglide
p818
sS'experimental_blocks.thisN'
p819
I0
sg42
g43
sg364
Vtraipse
p820
sg366
Vslip
p821
sg368
Vstep
p822
sS'experimental_blocks.thisIndex'
p823
g373
sS'word_presentation.thisRepN'
p824
I0
sS'experimental_blocks.thisRepN'
p825
I0
sg44
g49
sg162
g378
sg379
g380
sS'training_block.thisIndex'
p826
g145
sg164
g384
sg18
F7.446548221225385
sS'experimental_blocks.thisTrialN'
p827
I0
sS'training_block.thisN'
p828
I1
sS'word_presentation.thisN'
p829
I21
sS'training_block.thisTrialN'
p830
I0
sg17
S'space'
p831
sg28
g29
sS'word_presentation.thisTrialN'
p832
I21
sg41
g12
sS'word_presentation.thisIndex'
p833
g31
(g131
S'\x15\x00\x00\x00'
p834
tp835
Rp836
sa(dp837
S'training_block.thisRepN'
p838
I1
sg163
g360
sg30
g40
sg361
Vpull
p839
sS'experimental_blocks.thisN'
p840
I0
sg42
g43
sg364
Vcut
p841
sg366
Vlift
p842
sg368
Vrub
p843
sS'experimental_blocks.thisIndex'
p844
g373
sS'word_presentation.thisRepN'
p845
I0
sS'experimental_blocks.thisRepN'
p846
I0
sg44
g49
sg162
g378
sg379
g426
sS'training_block.thisIndex'
p847
g145
sg164
g384
sg18
F5.132339588555624
sS'experimental_blocks.thisTrialN'
p848
I0
sS'training_block.thisN'
p849
I1
sS'word_presentation.thisN'
p850
I22
sS'training_block.thisTrialN'
p851
I0
sg17
S'space'
p852
sg28
g29
sS'word_presentation.thisTrialN'
p853
I22
sg41
g12
sS'word_presentation.thisIndex'
p854
g31
(g131
S'\x16\x00\x00\x00'
p855
tp856
Rp857
sa(dp858
S'training_block.thisRepN'
p859
I1
sg163
g360
sg30
g40
sg361
Vscratch
p860
sS'experimental_blocks.thisN'
p861
I0
sg42
g43
sg364
Vgrab
p862
sg366
Vnip
p863
sg368
Vpunch
p864
sS'experimental_blocks.thisIndex'
p865
g373
sS'word_presentation.thisRepN'
p866
I0
sS'experimental_blocks.thisRepN'
p867
I0
sg44
g49
sg162
g378
sg379
g426
sS'training_block.thisIndex'
p868
g145
sg164
g384
sg18
F7.0443546124733984
sS'experimental_blocks.thisTrialN'
p869
I0
sS'training_block.thisN'
p870
I1
sS'word_presentation.thisN'
p871
I23
sS'training_block.thisTrialN'
p872
I0
sg17
S'space'
p873
sg28
g29
sS'word_presentation.thisTrialN'
p874
I23
sg41
g12
sS'word_presentation.thisIndex'
p875
g31
(g131
S'\x17\x00\x00\x00'
p876
tp877
Rp878
sa(dp879
S'training_block.thisRepN'
p880
I1
sg163
g360
sg30
g40
sg361
Vwipe
p881
sS'experimental_blocks.thisN'
p882
I0
sg42
g43
sg364
Vcarve
p883
sg366
Vdunk
p884
sg368
Vgrasp
p885
sS'experimental_blocks.thisIndex'
p886
g373
sS'word_presentation.thisRepN'
p887
I0
sS'experimental_blocks.thisRepN'
p888
I0
sg44
g49
sg162
g378
sg379
g426
sS'training_block.thisIndex'
p889
g145
sg164
g384
sg18
F5.40074313544028
sS'experimental_blocks.thisTrialN'
p890
I0
sS'training_block.thisN'
p891
I1
sS'word_presentation.thisN'
p892
I24
sS'training_block.thisTrialN'
p893
I0
sg17
S'space'
p894
sg28
g29
sS'word_presentation.thisTrialN'
p895
I24
sg41
g12
sS'word_presentation.thisIndex'
p896
g31
(g131
S'\x18\x00\x00\x00'
p897
tp898
Rp899
sa(dp900
S'training_block.thisRepN'
p901
I1
sg163
g360
sg30
g40
sg361
Vwobble
p902
sS'experimental_blocks.thisN'
p903
I0
sg42
g43
sg364
Vdance
p904
sg366
Vwalk
p905
sg368
Vmarch
p906
sS'experimental_blocks.thisIndex'
p907
g373
sS'word_presentation.thisRepN'
p908
I0
sS'experimental_blocks.thisRepN'
p909
I0
sg44
g49
sg162
g378
sg379
g380
sS'training_block.thisIndex'
p910
g145
sg164
g384
sg18
F5.349454620445613
sS'experimental_blocks.thisTrialN'
p911
I0
sS'training_block.thisN'
p912
I1
sS'word_presentation.thisN'
p913
I25
sS'training_block.thisTrialN'
p914
I0
sg17
S'space'
p915
sg28
g29
sS'word_presentation.thisTrialN'
p916
I25
sg41
g12
sS'word_presentation.thisIndex'
p917
g31
(g131
S'\x19\x00\x00\x00'
p918
tp919
Rp920
sa(dp921
S'training_block.thisRepN'
p922
I1
sg163
g360
sg30
g40
sg361
Vjog
p923
sS'experimental_blocks.thisN'
p924
I0
sg42
g43
sg364
Vkick
p925
sg366
Vwade
p926
sg368
Vflee
p927
sS'experimental_blocks.thisIndex'
p928
g373
sS'word_presentation.thisRepN'
p929
I0
sS'experimental_blocks.thisRepN'
p930
I0
sg44
g49
sg162
g378
sg379
g380
sS'training_block.thisIndex'
p931
g145
sg164
g384
sg18
F6.574590915959561
sS'experimental_blocks.thisTrialN'
p932
I0
sS'training_block.thisN'
p933
I1
sS'word_presentation.thisN'
p934
I26
sS'training_block.thisTrialN'
p935
I0
sg17
S'space'
p936
sg28
g29
sS'word_presentation.thisTrialN'
p937
I26
sg41
g12
sS'word_presentation.thisIndex'
p938
g31
(g131
S'\x1a\x00\x00\x00'
p939
tp940
Rp941
sa(dp942
S'training_block.thisRepN'
p943
I1
sg163
g360
sg30
g40
sg361
Vwander
p944
sS'experimental_blocks.thisN'
p945
I0
sg42
g43
sg364
Vplod
p946
sg366
Vmount
p947
sg368
Vsneak
p948
sS'experimental_blocks.thisIndex'
p949
g373
sS'word_presentation.thisRepN'
p950
I0
sS'experimental_blocks.thisRepN'
p951
I0
sg44
g49
sg162
g378
sg379
g380
sS'training_block.thisIndex'
p952
g145
sg164
g384
sg18
F5.283255192436627
sS'experimental_blocks.thisTrialN'
p953
I0
sS'training_block.thisN'
p954
I1
sS'word_presentation.thisN'
p955
I27
sS'training_block.thisTrialN'
p956
I0
sg17
S'space'
p957
sg28
g29
sS'word_presentation.thisTrialN'
p958
I27
sg41
g12
sS'word_presentation.thisIndex'
p959
g31
(g131
S'\x1b\x00\x00\x00'
p960
tp961
Rp962
sa(dp963
S'training_block.thisRepN'
p964
I1
sg163
g360
sS'experimental_blocks.thisRepN'
p965
I0
sS'experimental_blocks.thisTrialN'
p966
I0
sS'training_block.thisN'
p967
I1
sg42
g43
sg41
g12
sg30
g40
sS'training_block.thisTrialN'
p968
I0
sg44
g49
sS'experimental_blocks.thisN'
p969
I0
sg164
g384
sg28
g29
sS'experimental_blocks.thisIndex'
p970
g373
sg162
g378
sS'training_block.thisIndex'
p971
g145
sa(dp972
S'training_block.thisRepN'
p973
I1
sg163
g31
(g35
S'\x9a\x99\x99\x99\x99\x99\xd9?'
p974
tp975
Rp976
sg30
g40
sS'word4'
p977
Vpush
p978
sS'experimental_blocks.thisN'
p979
I1
sg42
g43
sS'word1'
p980
Vclap
p981
sS'word3'
p982
Vhack
p983
sS'word2'
p984
Vscratch
p985
sS'experimental_blocks.thisIndex'
p986
g31
(g131
S'\x03\x00\x00\x00'
p987
tp988
Rp989
sS'word_presentation.thisRepN'
p990
I0
sS'experimental_blocks.thisRepN'
p991
I0
sg44
g49
sg162
g31
(g35
S'\x9a\x99\x99\x99\x99\x99\xd9?'
p992
tp993
Rp994
sS'type'
p995
Varm
p996
sS'training_block.thisIndex'
p997
g145
sg164
g31
(g35
S'\x9a\x99\x99\x99\x99\x99\xe9?'
p998
tp999
Rp1000
sg18
F6.004552929443889
sS'experimental_blocks.thisTrialN'
p1001
I1
sS'training_block.thisN'
p1002
I1
sS'word_presentation.thisN'
p1003
I0
sS'training_block.thisTrialN'
p1004
I0
sg17
S'space'
p1005
sg28
g29
sS'word_presentation.thisTrialN'
p1006
I0
sg41
g12
sS'word_presentation.thisIndex'
p1007
g31
(g131
S'\x00\x00\x00\x00'
p1008
tp1009
Rp1010
sa(dp1011
S'training_block.thisRepN'
p1012
I1
sg163
g976
sg30
g40
sg977
Vscrape
p1013
sS'experimental_blocks.thisN'
p1014
I1
sg42
g43
sg980
Vclutch
p1015
sg982
Vpull
p1016
sg984
Vtug
p1017
sS'experimental_blocks.thisIndex'
p1018
g989
sS'word_presentation.thisRepN'
p1019
I0
sS'experimental_blocks.thisRepN'
p1020
I0
sg44
g49
sg162
g994
sg995
g996
sS'training_block.thisIndex'
p1021
g145
sg164
g1000
sg18
F5.888004968990572
sS'experimental_blocks.thisTrialN'
p1022
I1
sS'training_block.thisN'
p1023
I1
sS'word_presentation.thisN'
p1024
I1
sS'training_block.thisTrialN'
p1025
I0
sg17
S'space'
p1026
sg28
g29
sS'word_presentation.thisTrialN'
p1027
I1
sg41
g12
sS'word_presentation.thisIndex'
p1028
g31
(g131
S'\x01\x00\x00\x00'
p1029
tp1030
Rp1031
sa(dp1032
S'training_block.thisRepN'
p1033
I1
sg163
g976
sg30
g40
sg977
Vtoss
p1034
sS'experimental_blocks.thisN'
p1035
I1
sg42
g43
sg980
Vlift
p1036
sg982
Vbash
p1037
sg984
Vsnatch
p1038
sS'experimental_blocks.thisIndex'
p1039
g989
sS'word_presentation.thisRepN'
p1040
I0
sS'experimental_blocks.thisRepN'
p1041
I0
sg44
g49
sg162
g994
sg995
g996
sS'training_block.thisIndex'
p1042
g145
sg164
g1000
sg18
F6.557818213143037
sS'experimental_blocks.thisTrialN'
p1043
I1
sS'training_block.thisN'
p1044
I1
sS'word_presentation.thisN'
p1045
I2
sS'training_block.thisTrialN'
p1046
I0
sg17
S'space'
p1047
sg28
g29
sS'word_presentation.thisTrialN'
p1048
I2
sg41
g12
sS'word_presentation.thisIndex'
p1049
g31
(g131
S'\x02\x00\x00\x00'
p1050
tp1051
Rp1052
sa(dp1053
S'training_block.thisRepN'
p1054
I1
sg163
g976
sg30
g40
sg977
Vmarch
p1055
sS'experimental_blocks.thisN'
p1056
I1
sg42
g43
sg980
Vskate
p1057
sg982
Vflee
p1058
sg984
Vtrudge
p1059
sS'experimental_blocks.thisIndex'
p1060
g989
sS'word_presentation.thisRepN'
p1061
I0
sS'experimental_blocks.thisRepN'
p1062
I0
sg44
g49
sg162
g994
sg995
Vleg
p1063
sS'training_block.thisIndex'
p1064
g145
sg164
g1000
sg18
F6.122114759258693
sS'experimental_blocks.thisTrialN'
p1065
I1
sS'training_block.thisN'
p1066
I1
sS'word_presentation.thisN'
p1067
I3
sS'training_block.thisTrialN'
p1068
I0
sg17
S'space'
p1069
sg28
g29
sS'word_presentation.thisTrialN'
p1070
I3
sg41
g12
sS'word_presentation.thisIndex'
p1071
g31
(g131
S'\x03\x00\x00\x00'
p1072
tp1073
Rp1074
sa(dp1075
S'training_block.thisRepN'
p1076
I1
sg163
g976
sg30
g40
sg977
Vgrip
p1077
sS'experimental_blocks.thisN'
p1078
I1
sg42
g43
sg980
Vwrap
p1079
sg982
Vchop
p1080
sg984
Vstab
p1081
sS'experimental_blocks.thisIndex'
p1082
g989
sS'word_presentation.thisRepN'
p1083
I0
sS'experimental_blocks.thisRepN'
p1084
I0
sg44
g49
sg162
g994
sg995
g996
sS'training_block.thisIndex'
p1085
g145
sg164
g1000
sg18
F6.038084505969891
sS'experimental_blocks.thisTrialN'
p1086
I1
sS'training_block.thisN'
p1087
I1
sS'word_presentation.thisN'
p1088
I4
sS'training_block.thisTrialN'
p1089
I0
sg17
S'space'
p1090
sg28
g29
sS'word_presentation.thisTrialN'
p1091
I4
sg41
g12
sS'word_presentation.thisIndex'
p1092
g31
(g131
S'\x04\x00\x00\x00'
p1093
tp1094
Rp1095
sa(dp1096
S'training_block.thisRepN'
p1097
I1
sg163
g976
sg30
g40
sg977
Vdelve
p1098
sS'experimental_blocks.thisN'
p1099
I1
sg42
g43
sg980
Vpunch
p1100
sg982
Vgrasp
p1101
sg984
Vpinch
p1102
sS'experimental_blocks.thisIndex'
p1103
g989
sS'word_presentation.thisRepN'
p1104
I0
sS'experimental_blocks.thisRepN'
p1105
I0
sg44
g49
sg162
g994
sg995
g996
sS'training_block.thisIndex'
p1106
g145
sg164
g1000
sg18
F5.786410199070815
sS'experimental_blocks.thisTrialN'
p1107
I1
sS'training_block.thisN'
p1108
I1
sS'word_presentation.thisN'
p1109
I5
sS'training_block.thisTrialN'
p1110
I0
sg17
S'space'
p1111
sg28
g29
sS'word_presentation.thisTrialN'
p1112
I5
sg41
g12
sS'word_presentation.thisIndex'
p1113
g31
(g131
S'\x05\x00\x00\x00'
p1114
tp1115
Rp1116
sa(dp1117
S'training_block.thisRepN'
p1118
I1
sg163
g976
sg30
g40
sg977
Vcatch
p1119
sS'experimental_blocks.thisN'
p1120
I1
sg42
g43
sg980
Vpeel
p1121
sg982
Vfold
p1122
sg984
Vskim
p1123
sS'experimental_blocks.thisIndex'
p1124
g989
sS'word_presentation.thisRepN'
p1125
I0
sS'experimental_blocks.thisRepN'
p1126
I0
sg44
g49
sg162
g994
sg995
g996
sS'training_block.thisIndex'
p1127
g145
sg164
g1000
sg18
F5.937680222603376
sS'experimental_blocks.thisTrialN'
p1128
I1
sS'training_block.thisN'
p1129
I1
sS'word_presentation.thisN'
p1130
I6
sS'training_block.thisTrialN'
p1131
I0
sg17
S'space'
p1132
sg28
g29
sS'word_presentation.thisTrialN'
p1133
I6
sg41
g12
sS'word_presentation.thisIndex'
p1134
g31
(g131
S'\x06\x00\x00\x00'
p1135
tp1136
Rp1137
sa(dp1138
S'training_block.thisRepN'
p1139
I1
sg163
g976
sg30
g40
sg977
Vtiptoe
p1140
sS'experimental_blocks.thisN'
p1141
I1
sg42
g43
sg980
Vtrot
p1142
sg982
Vtread
p1143
sg984
Vtrip
p1144
sS'experimental_blocks.thisIndex'
p1145
g989
sS'word_presentation.thisRepN'
p1146
I0
sS'experimental_blocks.thisRepN'
p1147
I0
sg44
g49
sg162
g994
sg995
g1063
sS'training_block.thisIndex'
p1148
g145
sg164
g1000
sg18
F5.937447103759041
sS'experimental_blocks.thisTrialN'
p1149
I1
sS'training_block.thisN'
p1150
I1
sS'word_presentation.thisN'
p1151
I7
sS'training_block.thisTrialN'
p1152
I0
sg17
S'space'
p1153
sg28
g29
sS'word_presentation.thisTrialN'
p1154
I7
sg41
g12
sS'word_presentation.thisIndex'
p1155
g31
(g131
S'\x07\x00\x00\x00'
p1156
tp1157
Rp1158
sa(dp1159
S'training_block.thisRepN'
p1160
I1
sg163
g976
sg30
g40
sg977
Vjog
p1161
sS'experimental_blocks.thisN'
p1162
I1
sg42
g43
sg980
Vbounce
p1163
sg982
Vsprint
p1164
sg984
Vsneak
p1165
sS'experimental_blocks.thisIndex'
p1166
g989
sS'word_presentation.thisRepN'
p1167
I0
sS'experimental_blocks.thisRepN'
p1168
I0
sg44
g49
sg162
g994
sg995
g1063
sS'training_block.thisIndex'
p1169
g145
sg164
g1000
sg18
F5.518216459138785
sS'experimental_blocks.thisTrialN'
p1170
I1
sS'training_block.thisN'
p1171
I1
sS'word_presentation.thisN'
p1172
I8
sS'training_block.thisTrialN'
p1173
I0
sg17
S'space'
p1174
sg28
g29
sS'word_presentation.thisTrialN'
p1175
I8
sg41
g12
sS'word_presentation.thisIndex'
p1176
g31
(g131
S'\x08\x00\x00\x00'
p1177
tp1178
Rp1179
sa(dp1180
S'training_block.thisRepN'
p1181
I1
sg163
g976
sg30
g40
sg977
Vpat
p1182
sS'experimental_blocks.thisN'
p1183
I1
sg42
g43
sg980
Vwipe
p1184
sg982
Vwash
p1185
sg984
Vpolish
p1186
sS'experimental_blocks.thisIndex'
p1187
g989
sS'word_presentation.thisRepN'
p1188
I0
sS'experimental_blocks.thisRepN'
p1189
I0
sg44
g49
sg162
g994
sg995
g996
sS'training_block.thisIndex'
p1190
g145
sg164
g1000
sg18
F7.4635619452019455
sS'experimental_blocks.thisTrialN'
p1191
I1
sS'training_block.thisN'
p1192
I1
sS'word_presentation.thisN'
p1193
I9
sS'training_block.thisTrialN'
p1194
I0
sg17
S'space'
p1195
sg28
g29
sS'word_presentation.thisTrialN'
p1196
I9
sg41
g12
sS'word_presentation.thisIndex'
p1197
g31
(g131
S'\t\x00\x00\x00'
p1198
tp1199
Rp1200
sa(dp1201
S'training_block.thisRepN'
p1202
I1
sg163
g976
sg30
g40
sg977
Vsqueeze
p1203
sS'experimental_blocks.thisN'
p1204
I1
sg42
g43
sg980
Vknock
p1205
sg982
Vswitch
p1206
sg984
Vrub
p1207
sS'experimental_blocks.thisIndex'
p1208
g989
sS'word_presentation.thisRepN'
p1209
I0
sS'experimental_blocks.thisRepN'
p1210
I0
sg44
g49
sg162
g994
sg995
g996
sS'training_block.thisIndex'
p1211
g145
sg164
g1000
sg18
F5.518088836455718
sS'experimental_blocks.thisTrialN'
p1212
I1
sS'training_block.thisN'
p1213
I1
sS'word_presentation.thisN'
p1214
I10
sS'training_block.thisTrialN'
p1215
I0
sg17
S'space'
p1216
sg28
g29
sS'word_presentation.thisTrialN'
p1217
I10
sg41
g12
sS'word_presentation.thisIndex'
p1218
g31
(g131
S'\n\x00\x00\x00'
p1219
tp1220
Rp1221
sa(dp1222
S'training_block.thisRepN'
p1223
I1
sg163
g976
sg30
g40
sg977
Vdance
p1224
sS'experimental_blocks.thisN'
p1225
I1
sg42
g43
sg980
Vplod
p1226
sg982
Vsway
p1227
sg984
Vwobble
p1228
sS'experimental_blocks.thisIndex'
p1229
g989
sS'word_presentation.thisRepN'
p1230
I0
sS'experimental_blocks.thisRepN'
p1231
I0
sg44
g49
sg162
g994
sg995
g1063
sS'training_block.thisIndex'
p1232
g145
sg164
g1000
sg18
F6.490617164337891
sS'experimental_blocks.thisTrialN'
p1233
I1
sS'training_block.thisN'
p1234
I1
sS'word_presentation.thisN'
p1235
I11
sS'training_block.thisTrialN'
p1236
I0
sg17
S'space'
p1237
sg28
g29
sS'word_presentation.thisTrialN'
p1238
I11
sg41
g12
sS'word_presentation.thisIndex'
p1239
g31
(g131
S'\x0b\x00\x00\x00'
p1240
tp1241
Rp1242
sa(dp1243
S'training_block.thisRepN'
p1244
I1
sg163
g976
sg30
g40
sg977
Vscrub
p1245
sS'experimental_blocks.thisN'
p1246
I1
sg42
g43
sg980
Vnip
p1247
sg982
Vthrow
p1248
sg984
Vclaw
p1249
sS'experimental_blocks.thisIndex'
p1250
g989
sS'word_presentation.thisRepN'
p1251
I0
sS'experimental_blocks.thisRepN'
p1252
I0
sg44
g49
sg162
g994
sg995
g996
sS'training_block.thisIndex'
p1253
g145
sg164
g1000
sg18
F7.061119808073272
sS'experimental_blocks.thisTrialN'
p1254
I1
sS'training_block.thisN'
p1255
I1
sS'word_presentation.thisN'
p1256
I12
sS'training_block.thisTrialN'
p1257
I0
sg17
S'space'
p1258
sg28
g29
sS'word_presentation.thisTrialN'
p1259
I12
sg41
g12
sS'word_presentation.thisIndex'
p1260
g31
(g131
S'\x0c\x00\x00\x00'
p1261
tp1262
Rp1263
sa(dp1264
S'training_block.thisRepN'
p1265
I1
sg163
g976
sg30
g40
sg977
Vstumble
p1266
sS'experimental_blocks.thisN'
p1267
I1
sg42
g43
sg980
Vtraipse
p1268
sg982
Vleap
p1269
sg984
Vroam
p1270
sS'experimental_blocks.thisIndex'
p1271
g989
sS'word_presentation.thisRepN'
p1272
I0
sS'experimental_blocks.thisRepN'
p1273
I0
sg44
g49
sg162
g994
sg995
g1063
sS'training_block.thisIndex'
p1274
g145
sg164
g1000
sg18
F8.67111317801755
sS'experimental_blocks.thisTrialN'
p1275
I1
sS'training_block.thisN'
p1276
I1
sS'word_presentation.thisN'
p1277
I13
sS'training_block.thisTrialN'
p1278
I0
sg17
S'space'
p1279
sg28
g29
sS'word_presentation.thisTrialN'
p1280
I13
sg41
g12
sS'word_presentation.thisIndex'
p1281
g31
(g131
S'\r\x00\x00\x00'
p1282
tp1283
Rp1284
sa(dp1285
S'training_block.thisRepN'
p1286
I1
sg163
g976
sg30
g40
sg977
Vmount
p1287
sS'experimental_blocks.thisN'
p1288
I1
sg42
g43
sg980
Vhike
p1289
sg982
Vstamp
p1290
sg984
Vslip
p1291
sS'experimental_blocks.thisIndex'
p1292
g989
sS'word_presentation.thisRepN'
p1293
I0
sS'experimental_blocks.thisRepN'
p1294
I0
sg44
g49
sg162
g994
sg995
g1063
sS'training_block.thisIndex'
p1295
g145
sg164
g1000
sg18
F5.702541153383208
sS'experimental_blocks.thisTrialN'
p1296
I1
sS'training_block.thisN'
p1297
I1
sS'word_presentation.thisN'
p1298
I14
sS'training_block.thisTrialN'
p1299
I0
sg17
S'space'
p1300
sg28
g29
sS'word_presentation.thisTrialN'
p1301
I14
sg41
g12
sS'word_presentation.thisIndex'
p1302
g31
(g131
S'\x0e\x00\x00\x00'
p1303
tp1304
Rp1305
sa(dp1306
S'training_block.thisRepN'
p1307
I1
sg163
g976
sg30
g40
sg977
Vshake
p1308
sS'experimental_blocks.thisN'
p1309
I1
sg42
g43
sg980
Vgrate
p1310
sg982
Vslap
p1311
sg984
Vbind
p1312
sS'experimental_blocks.thisIndex'
p1313
g989
sS'word_presentation.thisRepN'
p1314
I0
sS'experimental_blocks.thisRepN'
p1315
I0
sg44
g49
sg162
g994
sg995
g996
sS'training_block.thisIndex'
p1316
g145
sg164
g1000
sg18
F6.943706146979821
sS'experimental_blocks.thisTrialN'
p1317
I1
sS'training_block.thisN'
p1318
I1
sS'word_presentation.thisN'
p1319
I15
sS'training_block.thisTrialN'
p1320
I0
sg17
S'space'
p1321
sg28
g29
sS'word_presentation.thisTrialN'
p1322
I15
sg41
g12
sS'word_presentation.thisIndex'
p1323
g31
(g131
S'\x0f\x00\x00\x00'
p1324
tp1325
Rp1326
sa(dp1327
S'training_block.thisRepN'
p1328
I1
sg163
g976
sg30
g40
sg977
Vscoop
p1329
sS'experimental_blocks.thisN'
p1330
I1
sg42
g43
sg980
Vpoke
p1331
sg982
Vbraid
p1332
sg984
Vclick
p1333
sS'experimental_blocks.thisIndex'
p1334
g989
sS'word_presentation.thisRepN'
p1335
I0
sS'experimental_blocks.thisRepN'
p1336
I0
sg44
g49
sg162
g994
sg995
g996
sS'training_block.thisIndex'
p1337
g145
sg164
g1000
sg18
F6.961159635829972
sS'experimental_blocks.thisTrialN'
p1338
I1
sS'training_block.thisN'
p1339
I1
sS'word_presentation.thisN'
p1340
I16
sS'training_block.thisTrialN'
p1341
I0
sg17
S'space'
p1342
sg28
g29
sS'word_presentation.thisTrialN'
p1343
I16
sg41
g12
sS'word_presentation.thisIndex'
p1344
g31
(g131
S'\x10\x00\x00\x00'
p1345
tp1346
Rp1347
sa(dp1348
S'training_block.thisRepN'
p1349
I1
sg163
g976
sg30
g40
sg977
Vtrek
p1350
sS'experimental_blocks.thisN'
p1351
I1
sg42
g43
sg980
Vskip
p1352
sg982
Vlimp
p1353
sg984
Vinch
p1354
sS'experimental_blocks.thisIndex'
p1355
g989
sS'word_presentation.thisRepN'
p1356
I0
sS'experimental_blocks.thisRepN'
p1357
I0
sg44
g49
sg162
g994
sg995
g1063
sS'training_block.thisIndex'
p1358
g145
sg164
g1000
sg18
F5.853434235599707
sS'experimental_blocks.thisTrialN'
p1359
I1
sS'training_block.thisN'
p1360
I1
sS'word_presentation.thisN'
p1361
I17
sS'training_block.thisTrialN'
p1362
I0
sg17
S'space'
p1363
sg28
g29
sS'word_presentation.thisTrialN'
p1364
I17
sg41
g12
sS'word_presentation.thisIndex'
p1365
g31
(g131
S'\x11\x00\x00\x00'
p1366
tp1367
Rp1368
sa(dp1369
S'training_block.thisRepN'
p1370
I1
sg163
g976
sg30
g40
sg977
Vstagger
p1371
sS'experimental_blocks.thisN'
p1372
I1
sg42
g43
sg980
Vprance
p1373
sg982
Vwalk
p1374
sg984
Vhop
p1375
sS'experimental_blocks.thisIndex'
p1376
g989
sS'word_presentation.thisRepN'
p1377
I0
sS'experimental_blocks.thisRepN'
p1378
I0
sg44
g49
sg162
g994
sg995
g1063
sS'training_block.thisIndex'
p1379
g145
sg164
g1000
sg18
F5.250614208867773
sS'experimental_blocks.thisTrialN'
p1380
I1
sS'training_block.thisN'
p1381
I1
sS'word_presentation.thisN'
p1382
I18
sS'training_block.thisTrialN'
p1383
I0
sg17
S'space'
p1384
sg28
g29
sS'word_presentation.thisTrialN'
p1385
I18
sg41
g12
sS'word_presentation.thisIndex'
p1386
g31
(g131
S'\x12\x00\x00\x00'
p1387
tp1388
Rp1389
sa(dp1390
S'training_block.thisRepN'
p1391
I1
sg163
g976
sg30
g40
sg977
Vwhip
p1392
sS'experimental_blocks.thisN'
p1393
I1
sg42
g43
sg980
Vbrush
p1394
sg982
Vdig
p1395
sg984
Vstir
p1396
sS'experimental_blocks.thisIndex'
p1397
g989
sS'word_presentation.thisRepN'
p1398
I0
sS'experimental_blocks.thisRepN'
p1399
I0
sg44
g49
sg162
g994
sg995
g996
sS'training_block.thisIndex'
p1400
g145
sg164
g1000
sg18
F6.725911909525166
sS'experimental_blocks.thisTrialN'
p1401
I1
sS'training_block.thisN'
p1402
I1
sS'word_presentation.thisN'
p1403
I19
sS'training_block.thisTrialN'
p1404
I0
sg17
S'space'
p1405
sg28
g29
sS'word_presentation.thisTrialN'
p1406
I19
sg41
g12
sS'word_presentation.thisIndex'
p1407
g31
(g131
S'\x13\x00\x00\x00'
p1408
tp1409
Rp1410
sa(dp1411
S'training_block.thisRepN'
p1412
I1
sg163
g976
sg30
g40
sg977
Vrush
p1413
sS'experimental_blocks.thisN'
p1414
I1
sg42
g43
sg980
Vpace
p1415
sg982
Vkneel
p1416
sg984
Vscuff
p1417
sS'experimental_blocks.thisIndex'
p1418
g989
sS'word_presentation.thisRepN'
p1419
I0
sS'experimental_blocks.thisRepN'
p1420
I0
sg44
g49
sg162
g994
sg995
g1063
sS'training_block.thisIndex'
p1421
g145
sg164
g1000
sg18
F6.491198776086094
sS'experimental_blocks.thisTrialN'
p1422
I1
sS'training_block.thisN'
p1423
I1
sS'word_presentation.thisN'
p1424
I20
sS'training_block.thisTrialN'
p1425
I0
sg17
S'space'
p1426
sg28
g29
sS'word_presentation.thisTrialN'
p1427
I20
sg41
g12
sS'word_presentation.thisIndex'
p1428
g31
(g131
S'\x14\x00\x00\x00'
p1429
tp1430
Rp1431
sa(dp1432
S'training_block.thisRepN'
p1433
I1
sg163
g976
sg30
g40
sg977
Vslither
p1434
sS'experimental_blocks.thisN'
p1435
I1
sg42
g43
sg980
Vstep
p1436
sg982
Vcrawl
p1437
sg984
Vstray
p1438
sS'experimental_blocks.thisIndex'
p1439
g989
sS'word_presentation.thisRepN'
p1440
I0
sS'experimental_blocks.thisRepN'
p1441
I0
sg44
g49
sg162
g994
sg995
g1063
sS'training_block.thisIndex'
p1442
g145
sg164
g1000
sg18
F5.6856368767039385
sS'experimental_blocks.thisTrialN'
p1443
I1
sS'training_block.thisN'
p1444
I1
sS'word_presentation.thisN'
p1445
I21
sS'training_block.thisTrialN'
p1446
I0
sg17
S'space'
p1447
sg28
g29
sS'word_presentation.thisTrialN'
p1448
I21
sg41
g12
sS'word_presentation.thisIndex'
p1449
g31
(g131
S'\x15\x00\x00\x00'
p1450
tp1451
Rp1452
sa(dp1453
S'training_block.thisRepN'
p1454
I1
sg163
g976
sg30
g40
sg977
Vrun
p1455
sS'experimental_blocks.thisN'
p1456
I1
sg42
g43
sg980
Vroll
p1457
sg982
Vjump
p1458
sg984
Vstomp
p1459
sS'experimental_blocks.thisIndex'
p1460
g989
sS'word_presentation.thisRepN'
p1461
I0
sS'experimental_blocks.thisRepN'
p1462
I0
sg44
g49
sg162
g994
sg995
g1063
sS'training_block.thisIndex'
p1463
g145
sg164
g1000
sg18
F8.18521449698892
sS'experimental_blocks.thisTrialN'
p1464
I1
sS'training_block.thisN'
p1465
I1
sS'word_presentation.thisN'
p1466
I22
sS'training_block.thisTrialN'
p1467
I0
sg17
S'space'
p1468
sg28
g29
sS'word_presentation.thisTrialN'
p1469
I22
sg41
g12
sS'word_presentation.thisIndex'
p1470
g31
(g131
S'\x16\x00\x00\x00'
p1471
tp1472
Rp1473
sa(dp1474
S'training_block.thisRepN'
p1475
I1
sg163
g976
sg30
g40
sg977
Vfile
p1476
sS'experimental_blocks.thisN'
p1477
I1
sg42
g43
sg980
Vseize
p1478
sg982
Vcut
p1479
sg984
Vdunk
p1480
sS'experimental_blocks.thisIndex'
p1481
g989
sS'word_presentation.thisRepN'
p1482
I0
sS'experimental_blocks.thisRepN'
p1483
I0
sg44
g49
sg162
g994
sg995
g996
sS'training_block.thisIndex'
p1484
g145
sg164
g1000
sg18
F5.869389046900324
sS'experimental_blocks.thisTrialN'
p1485
I1
sS'training_block.thisN'
p1486
I1
sS'word_presentation.thisN'
p1487
I23
sS'training_block.thisTrialN'
p1488
I0
sg17
S'space'
p1489
sg28
g29
sS'word_presentation.thisTrialN'
p1490
I23
sg41
g12
sS'word_presentation.thisIndex'
p1491
g31
(g131
S'\x17\x00\x00\x00'
p1492
tp1493
Rp1494
sa(dp1495
S'training_block.thisRepN'
p1496
I1
sg163
g976
sg30
g40
sg977
Vclean
p1497
sS'experimental_blocks.thisN'
p1498
I1
sg42
g43
sg980
Vtwine
p1499
sg982
Vcarve
p1500
sg984
Vgrab
p1501
sS'experimental_blocks.thisIndex'
p1502
g989
sS'word_presentation.thisRepN'
p1503
I0
sS'experimental_blocks.thisRepN'
p1504
I0
sg44
g49
sg162
g994
sg995
g996
sS'training_block.thisIndex'
p1505
g145
sg164
g1000
sg18
F7.6814905223291134
sS'experimental_blocks.thisTrialN'
p1506
I1
sS'training_block.thisN'
p1507
I1
sS'word_presentation.thisN'
p1508
I24
sS'training_block.thisTrialN'
p1509
I0
sg17
S'space'
p1510
sg28
g29
sS'word_presentation.thisTrialN'
p1511
I24
sg41
g12
sS'word_presentation.thisIndex'
p1512
g31
(g131
S'\x18\x00\x00\x00'
p1513
tp1514
Rp1515
sa(dp1516
S'training_block.thisRepN'
p1517
I1
sg163
g976
sg30
g40
sg977
Vwade
p1518
sS'experimental_blocks.thisN'
p1519
I1
sg42
g43
sg980
Vstride
p1520
sg982
Vglide
p1521
sg984
Vstrut
p1522
sS'experimental_blocks.thisIndex'
p1523
g989
sS'word_presentation.thisRepN'
p1524
I0
sS'experimental_blocks.thisRepN'
p1525
I0
sg44
g49
sg162
g994
sg995
g1063
sS'training_block.thisIndex'
p1526
g145
sg164
g1000
sg18
F8.402372201482649
sS'experimental_blocks.thisTrialN'
p1527
I1
sS'training_block.thisN'
p1528
I1
sS'word_presentation.thisN'
p1529
I25
sS'training_block.thisTrialN'
p1530
I0
sg17
S'space'
p1531
sg28
g29
sS'word_presentation.thisTrialN'
p1532
I25
sg41
g12
sS'word_presentation.thisIndex'
p1533
g31
(g131
S'\x19\x00\x00\x00'
p1534
tp1535
Rp1536
sa(dp1537
S'training_block.thisRepN'
p1538
I1
sg163
g976
sg30
g40
sg977
Vwander
p1539
sS'experimental_blocks.thisN'
p1540
I1
sg42
g43
sg980
Vflit
p1541
sg982
Vcreep
p1542
sg984
Vclimb
p1543
sS'experimental_blocks.thisIndex'
p1544
g989
sS'word_presentation.thisRepN'
p1545
I0
sS'experimental_blocks.thisRepN'
p1546
I0
sg44
g49
sg162
g994
sg995
g1063
sS'training_block.thisIndex'
p1547
g145
sg164
g1000
sg18
F10.163845401912113
sS'experimental_blocks.thisTrialN'
p1548
I1
sS'training_block.thisN'
p1549
I1
sS'word_presentation.thisN'
p1550
I26
sS'training_block.thisTrialN'
p1551
I0
sg17
S'space'
p1552
sg28
g29
sS'word_presentation.thisTrialN'
p1553
I26
sg41
g12
sS'word_presentation.thisIndex'
p1554
g31
(g131
S'\x1a\x00\x00\x00'
p1555
tp1556
Rp1557
sa(dp1558
S'training_block.thisRepN'
p1559
I1
sg163
g976
sg30
g40
sg977
Vstroll
p1560
sS'experimental_blocks.thisN'
p1561
I1
sg42
g43
sg980
Vramble
p1562
sg982
Vslide
p1563
sg984
Vkick
p1564
sS'experimental_blocks.thisIndex'
p1565
g989
sS'word_presentation.thisRepN'
p1566
I0
sS'experimental_blocks.thisRepN'
p1567
I0
sg44
g49
sg162
g994
sg995
g1063
sS'training_block.thisIndex'
p1568
g145
sg164
g1000
sg18
F7.02768108395685
sS'experimental_blocks.thisTrialN'
p1569
I1
sS'training_block.thisN'
p1570
I1
sS'word_presentation.thisN'
p1571
I27
sS'training_block.thisTrialN'
p1572
I0
sg17
S'space'
p1573
sg28
g29
sS'word_presentation.thisTrialN'
p1574
I27
sg41
g12
sS'word_presentation.thisIndex'
p1575
g31
(g131
S'\x1b\x00\x00\x00'
p1576
tp1577
Rp1578
sa(dp1579
S'training_block.thisRepN'
p1580
I1
sg163
g976
sS'experimental_blocks.thisRepN'
p1581
I0
sS'experimental_blocks.thisTrialN'
p1582
I1
sS'training_block.thisN'
p1583
I1
sg42
g43
sg41
g12
sg30
g40
sS'training_block.thisTrialN'
p1584
I0
sg44
g49
sS'experimental_blocks.thisN'
p1585
I1
sg164
g1000
sg28
g29
sS'experimental_blocks.thisIndex'
p1586
g989
sg162
g994
sS'training_block.thisIndex'
p1587
g145
sa(dp1588
S'training_block.thisRepN'
p1589
I1
sg163
g31
(g35
S'\x9a\x99\x99\x99\x99\x99\xd9?'
p1590
tp1591
Rp1592
sg30
g40
sS'word4'
p1593
Vscrape
p1594
sS'experimental_blocks.thisN'
p1595
I2
sg42
g43
sS'word1'
p1596
Vswitch
p1597
sS'word3'
p1598
Vwrap
p1599
sS'word2'
p1600
Vpush
p1601
sS'experimental_blocks.thisIndex'
p1602
g31
(g131
S'\x01\x00\x00\x00'
p1603
tp1604
Rp1605
sS'word_presentation.thisRepN'
p1606
I0
sS'experimental_blocks.thisRepN'
p1607
I0
sg44
g49
sg162
g31
(g35
S'\x9a\x99\x99\x99\x99\x99\xc9?'
p1608
tp1609
Rp1610
sS'type'
p1611
Varm
p1612
sS'training_block.thisIndex'
p1613
g145
sg164
g31
(g35
S'333333\xe3?'
p1614
tp1615
Rp1616
sg18
F6.037828075262951
sS'experimental_blocks.thisTrialN'
p1617
I2
sS'training_block.thisN'
p1618
I1
sS'word_presentation.thisN'
p1619
I0
sS'training_block.thisTrialN'
p1620
I0
sg17
S'space'
p1621
sg28
g29
sS'word_presentation.thisTrialN'
p1622
I0
sg41
g12
sS'word_presentation.thisIndex'
p1623
g31
(g131
S'\x00\x00\x00\x00'
p1624
tp1625
Rp1626
sa(dp1627
S'training_block.thisRepN'
p1628
I1
sg163
g1592
sg30
g40
sg1593
Vscrub
p1629
sS'experimental_blocks.thisN'
p1630
I2
sg42
g43
sg1596
Vbash
p1631
sg1598
Vpinch
p1632
sg1600
Vclap
p1633
sS'experimental_blocks.thisIndex'
p1634
g1605
sS'word_presentation.thisRepN'
p1635
I0
sS'experimental_blocks.thisRepN'
p1636
I0
sg44
g49
sg162
g1610
sg1611
g1612
sS'training_block.thisIndex'
p1637
g145
sg164
g1616
sg18
F5.568665351194795
sS'experimental_blocks.thisTrialN'
p1638
I2
sS'training_block.thisN'
p1639
I1
sS'word_presentation.thisN'
p1640
I1
sS'training_block.thisTrialN'
p1641
I0
sg17
S'space'
p1642
sg28
g29
sS'word_presentation.thisTrialN'
p1643
I1
sg41
g12
sS'word_presentation.thisIndex'
p1644
g31
(g131
S'\x01\x00\x00\x00'
p1645
tp1646
Rp1647
sa(dp1648
S'training_block.thisRepN'
p1649
I1
sg163
g1592
sg30
g40
sg1593
Vjump
p1650
sS'experimental_blocks.thisN'
p1651
I2
sg42
g43
sg1596
Vflee
p1652
sg1598
Vslither
p1653
sg1600
Vroll
p1654
sS'experimental_blocks.thisIndex'
p1655
g1605
sS'word_presentation.thisRepN'
p1656
I0
sS'experimental_blocks.thisRepN'
p1657
I0
sg44
g49
sg162
g1610
sg1611
Vleg
p1658
sS'training_block.thisIndex'
p1659
g145
sg164
g1616
sg18
F5.216215351232677
sS'experimental_blocks.thisTrialN'
p1660
I2
sS'training_block.thisN'
p1661
I1
sS'word_presentation.thisN'
p1662
I2
sS'training_block.thisTrialN'
p1663
I0
sg17
S'space'
p1664
sg28
g29
sS'word_presentation.thisTrialN'
p1665
I2
sg41
g12
sS'word_presentation.thisIndex'
p1666
g31
(g131
S'\x02\x00\x00\x00'
p1667
tp1668
Rp1669
sa(dp1670
S'training_block.thisRepN'
p1671
I1
sg163
g1592
sg30
g40
sg1593
Vgrab
p1672
sS'experimental_blocks.thisN'
p1673
I2
sg42
g43
sg1596
Vtwine
p1674
sg1598
Vnip
p1675
sg1600
Vfold
p1676
sS'experimental_blocks.thisIndex'
p1677
g1605
sS'word_presentation.thisRepN'
p1678
I0
sS'experimental_blocks.thisRepN'
p1679
I0
sg44
g49
sg162
g1610
sg1611
g1612
sS'training_block.thisIndex'
p1680
g145
sg164
g1616
sg18
F6.524282685437356
sS'experimental_blocks.thisTrialN'
p1681
I2
sS'training_block.thisN'
p1682
I1
sS'word_presentation.thisN'
p1683
I3
sS'training_block.thisTrialN'
p1684
I0
sg17
S'space'
p1685
sg28
g29
sS'word_presentation.thisTrialN'
p1686
I3
sg41
g12
sS'word_presentation.thisIndex'
p1687
g31
(g131
S'\x03\x00\x00\x00'
p1688
tp1689
Rp1690
sa(dp1691
S'training_block.thisRepN'
p1692
I1
sg163
g1592
sg30
g40
sg1593
Vsneak
p1693
sS'experimental_blocks.thisN'
p1694
I2
sg42
g43
sg1596
Vplod
p1695
sg1598
Vtrot
p1696
sg1600
Vdance
p1697
sS'experimental_blocks.thisIndex'
p1698
g1605
sS'word_presentation.thisRepN'
p1699
I0
sS'experimental_blocks.thisRepN'
p1700
I0
sg44
g49
sg162
g1610
sg1611
g1658
sS'training_block.thisIndex'
p1701
g145
sg164
g1616
sg18
F6.658518834025017
sS'experimental_blocks.thisTrialN'
p1702
I2
sS'training_block.thisN'
p1703
I1
sS'word_presentation.thisN'
p1704
I4
sS'training_block.thisTrialN'
p1705
I0
sg17
S'space'
p1706
sg28
g29
sS'word_presentation.thisTrialN'
p1707
I4
sg41
g12
sS'word_presentation.thisIndex'
p1708
g31
(g131
S'\x04\x00\x00\x00'
p1709
tp1710
Rp1711
sa(dp1712
S'training_block.thisRepN'
p1713
I1
sg163
g1592
sg30
g40
sg1593
Vclean
p1714
sS'experimental_blocks.thisN'
p1715
I2
sg42
g43
sg1596
Vslap
p1716
sg1598
Vpolish
p1717
sg1600
Vbind
p1718
sS'experimental_blocks.thisIndex'
p1719
g1605
sS'word_presentation.thisRepN'
p1720
I0
sS'experimental_blocks.thisRepN'
p1721
I0
sg44
g49
sg162
g1610
sg1611
g1612
sS'training_block.thisIndex'
p1722
g145
sg164
g1616
sg18
F6.205865665076999
sS'experimental_blocks.thisTrialN'
p1723
I2
sS'training_block.thisN'
p1724
I1
sS'word_presentation.thisN'
p1725
I5
sS'training_block.thisTrialN'
p1726
I0
sg17
S'space'
p1727
sg28
g29
sS'word_presentation.thisTrialN'
p1728
I5
sg41
g12
sS'word_presentation.thisIndex'
p1729
g31
(g131
S'\x05\x00\x00\x00'
p1730
tp1731
Rp1732
sa(dp1733
S'training_block.thisRepN'
p1734
I1
sg163
g1592
sg30
g40
sg1593
Vstagger
p1735
sS'experimental_blocks.thisN'
p1736
I2
sg42
g43
sg1596
Vskip
p1737
sg1598
Vslide
p1738
sg1600
Vtrek
p1739
sS'experimental_blocks.thisIndex'
p1740
g1605
sS'word_presentation.thisRepN'
p1741
I0
sS'experimental_blocks.thisRepN'
p1742
I0
sg44
g49
sg162
g1610
sg1611
g1658
sS'training_block.thisIndex'
p1743
g145
sg164
g1616
sg18
F5.601913233957021
sS'experimental_blocks.thisTrialN'
p1744
I2
sS'training_block.thisN'
p1745
I1
sS'word_presentation.thisN'
p1746
I6
sS'training_block.thisTrialN'
p1747
I0
sg17
S'space'
p1748
sg28
g29
sS'word_presentation.thisTrialN'
p1749
I6
sg41
g12
sS'word_presentation.thisIndex'
p1750
g31
(g131
S'\x06\x00\x00\x00'
p1751
tp1752
Rp1753
sa(dp1754
S'training_block.thisRepN'
p1755
I1
sg163
g1592
sg30
g40
sg1593
Vjog
p1756
sS'experimental_blocks.thisN'
p1757
I2
sg42
g43
sg1596
Vhop
p1758
sg1598
Vskate
p1759
sg1600
Vcreep
p1760
sS'experimental_blocks.thisIndex'
p1761
g1605
sS'word_presentation.thisRepN'
p1762
I0
sS'experimental_blocks.thisRepN'
p1763
I0
sg44
g49
sg162
g1610
sg1611
g1658
sS'training_block.thisIndex'
p1764
g145
sg164
g1616
sg18
F6.155372124834685
sS'experimental_blocks.thisTrialN'
p1765
I2
sS'training_block.thisN'
p1766
I1
sS'word_presentation.thisN'
p1767
I7
sS'training_block.thisTrialN'
p1768
I0
sg17
S'space'
p1769
sg28
g29
sS'word_presentation.thisTrialN'
p1770
I7
sg41
g12
sS'word_presentation.thisIndex'
p1771
g31
(g131
S'\x07\x00\x00\x00'
p1772
tp1773
Rp1774
sa(dp1775
S'training_block.thisRepN'
p1776
I1
sg163
g1592
sg30
g40
sg1593
Vtug
p1777
sS'experimental_blocks.thisN'
p1778
I2
sg42
g43
sg1596
Vsqueeze
p1779
sg1598
Vstir
p1780
sg1600
Vclaw
p1781
sS'experimental_blocks.thisIndex'
p1782
g1605
sS'word_presentation.thisRepN'
p1783
I0
sS'experimental_blocks.thisRepN'
p1784
I0
sg44
g49
sg162
g1610
sg1611
g1612
sS'training_block.thisIndex'
p1785
g145
sg164
g1616
sg18
F6.8263161929062335
sS'experimental_blocks.thisTrialN'
p1786
I2
sS'training_block.thisN'
p1787
I1
sS'word_presentation.thisN'
p1788
I8
sS'training_block.thisTrialN'
p1789
I0
sg17
S'space'
p1790
sg28
g29
sS'word_presentation.thisTrialN'
p1791
I8
sg41
g12
sS'word_presentation.thisIndex'
p1792
g31
(g131
S'\x08\x00\x00\x00'
p1793
tp1794
Rp1795
sa(dp1796
S'training_block.thisRepN'
p1797
I1
sg163
g1592
sg30
g40
sg1593
Vsway
p1798
sS'experimental_blocks.thisN'
p1799
I2
sg42
g43
sg1596
Vtrip
p1800
sg1598
Vrun
p1801
sg1600
Vpace
p1802
sS'experimental_blocks.thisIndex'
p1803
g1605
sS'word_presentation.thisRepN'
p1804
I0
sS'experimental_blocks.thisRepN'
p1805
I0
sg44
g49
sg162
g1610
sg1611
g1658
sS'training_block.thisIndex'
p1806
g145
sg164
g1616
sg18
F4.965723628527485
sS'experimental_blocks.thisTrialN'
p1807
I2
sS'training_block.thisN'
p1808
I1
sS'word_presentation.thisN'
p1809
I9
sS'training_block.thisTrialN'
p1810
I0
sg17
S'space'
p1811
sg28
g29
sS'word_presentation.thisTrialN'
p1812
I9
sg41
g12
sS'word_presentation.thisIndex'
p1813
g31
(g131
S'\t\x00\x00\x00'
p1814
tp1815
Rp1816
sa(dp1817
S'training_block.thisRepN'
p1818
I1
sg163
g1592
sg30
g40
sg1593
Vgrate
p1819
sS'experimental_blocks.thisN'
p1820
I2
sg42
g43
sg1596
Vcarve
p1821
sg1598
Vlift
p1822
sg1600
Vwash
p1823
sS'experimental_blocks.thisIndex'
p1824
g1605
sS'word_presentation.thisRepN'
p1825
I0
sS'experimental_blocks.thisRepN'
p1826
I0
sg44
g49
sg162
g1610
sg1611
g1612
sS'training_block.thisIndex'
p1827
g145
sg164
g1616
sg18
F6.6088988967530895
sS'experimental_blocks.thisTrialN'
p1828
I2
sS'training_block.thisN'
p1829
I1
sS'word_presentation.thisN'
p1830
I10
sS'training_block.thisTrialN'
p1831
I0
sg17
S'space'
p1832
sg28
g29
sS'word_presentation.thisTrialN'
p1833
I10
sg41
g12
sS'word_presentation.thisIndex'
p1834
g31
(g131
S'\n\x00\x00\x00'
p1835
tp1836
Rp1837
sa(dp1838
S'training_block.thisRepN'
p1839
I1
sg163
g1592
sg30
g40
sg1593
Vrush
p1840
sS'experimental_blocks.thisN'
p1841
I2
sg42
g43
sg1596
Vwobble
p1842
sg1598
Vbounce
p1843
sg1600
Vslip
p1844
sS'experimental_blocks.thisIndex'
p1845
g1605
sS'word_presentation.thisRepN'
p1846
I0
sS'experimental_blocks.thisRepN'
p1847
I0
sg44
g49
sg162
g1610
sg1611
g1658
sS'training_block.thisIndex'
p1848
g145
sg164
g1616
sg18
F5.249703464927734
sS'experimental_blocks.thisTrialN'
p1849
I2
sS'training_block.thisN'
p1850
I1
sS'word_presentation.thisN'
p1851
I11
sS'training_block.thisTrialN'
p1852
I0
sg17
S'space'
p1853
sg28
g29
sS'word_presentation.thisTrialN'
p1854
I11
sg41
g12
sS'word_presentation.thisIndex'
p1855
g31
(g131
S'\x0b\x00\x00\x00'
p1856
tp1857
Rp1858
sa(dp1859
S'training_block.thisRepN'
p1860
I1
sg163
g1592
sg30
g40
sg1593
Vmount
p1861
sS'experimental_blocks.thisN'
p1862
I2
sg42
g43
sg1596
Vstamp
p1863
sg1598
Vstray
p1864
sg1600
Vstep
p1865
sS'experimental_blocks.thisIndex'
p1866
g1605
sS'word_presentation.thisRepN'
p1867
I0
sS'experimental_blocks.thisRepN'
p1868
I0
sg44
g49
sg162
g1610
sg1611
g1658
sS'training_block.thisIndex'
p1869
g145
sg164
g1616
sg18
F5.903818723629229
sS'experimental_blocks.thisTrialN'
p1870
I2
sS'training_block.thisN'
p1871
I1
sS'word_presentation.thisN'
p1872
I12
sS'training_block.thisTrialN'
p1873
I0
sg17
S'space'
p1874
sg28
g29
sS'word_presentation.thisTrialN'
p1875
I12
sg41
g12
sS'word_presentation.thisIndex'
p1876
g31
(g131
S'\x0c\x00\x00\x00'
p1877
tp1878
Rp1879
sa(dp1880
S'training_block.thisRepN'
p1881
I1
sg163
g1592
sg30
g40
sg1593
Vthrow
p1882
sS'experimental_blocks.thisN'
p1883
I2
sg42
g43
sg1596
Vdelve
p1884
sg1598
Vdig
p1885
sg1600
Vknock
p1886
sS'experimental_blocks.thisIndex'
p1887
g1605
sS'word_presentation.thisRepN'
p1888
I0
sS'experimental_blocks.thisRepN'
p1889
I0
sg44
g49
sg162
g1610
sg1611
g1612
sS'training_block.thisIndex'
p1890
g145
sg164
g1616
sg18
F5.988994815270416
sS'experimental_blocks.thisTrialN'
p1891
I2
sS'training_block.thisN'
p1892
I1
sS'word_presentation.thisN'
p1893
I13
sS'training_block.thisTrialN'
p1894
I0
sg17
S'space'
p1895
sg28
g29
sS'word_presentation.thisTrialN'
p1896
I13
sg41
g12
sS'word_presentation.thisIndex'
p1897
g31
(g131
S'\r\x00\x00\x00'
p1898
tp1899
Rp1900
sa(dp1901
S'training_block.thisRepN'
p1902
I1
sg163
g1592
sg30
g40
sg1593
Vprance
p1903
sS'experimental_blocks.thisN'
p1904
I2
sg42
g43
sg1596
Vtread
p1905
sg1598
Vtiptoe
p1906
sg1600
Vtrudge
p1907
sS'experimental_blocks.thisIndex'
p1908
g1605
sS'word_presentation.thisRepN'
p1909
I0
sS'experimental_blocks.thisRepN'
p1910
I0
sg44
g49
sg162
g1610
sg1611
g1658
sS'training_block.thisIndex'
p1911
g145
sg164
g1616
sg18
F9.006618994520977
sS'experimental_blocks.thisTrialN'
p1912
I2
sS'training_block.thisN'
p1913
I1
sS'word_presentation.thisN'
p1914
I14
sS'training_block.thisTrialN'
p1915
I0
sg17
S'space'
p1916
sg28
g29
sS'word_presentation.thisTrialN'
p1917
I14
sg41
g12
sS'word_presentation.thisIndex'
p1918
g31
(g131
S'\x0e\x00\x00\x00'
p1919
tp1920
Rp1921
sa(dp1922
S'training_block.thisRepN'
p1923
I1
sg163
g1592
sg30
g40
sg1593
Vclimb
p1924
sS'experimental_blocks.thisN'
p1925
I2
sg42
g43
sg1596
Vstroll
p1926
sg1598
Vlimp
p1927
sg1600
Vwalk
p1928
sS'experimental_blocks.thisIndex'
p1929
g1605
sS'word_presentation.thisRepN'
p1930
I0
sS'experimental_blocks.thisRepN'
p1931
I0
sg44
g49
sg162
g1610
sg1611
g1658
sS'training_block.thisIndex'
p1932
g145
sg164
g1616
sg18
F6.407553761542658
sS'experimental_blocks.thisTrialN'
p1933
I2
sS'training_block.thisN'
p1934
I1
sS'word_presentation.thisN'
p1935
I15
sS'training_block.thisTrialN'
p1936
I0
sg17
S'space'
p1937
sg28
g29
sS'word_presentation.thisTrialN'
p1938
I15
sg41
g12
sS'word_presentation.thisIndex'
p1939
g31
(g131
S'\x0f\x00\x00\x00'
p1940
tp1941
Rp1942
sa(dp1943
S'training_block.thisRepN'
p1944
I1
sg163
g1592
sg30
g40
sg1593
Vwander
p1945
sS'experimental_blocks.thisN'
p1946
I2
sg42
g43
sg1596
Vstumble
p1947
sg1598
Vroam
p1948
sg1600
Vkick
p1949
sS'experimental_blocks.thisIndex'
p1950
g1605
sS'word_presentation.thisRepN'
p1951
I0
sS'experimental_blocks.thisRepN'
p1952
I0
sg44
g49
sg162
g1610
sg1611
g1658
sS'training_block.thisIndex'
p1953
g145
sg164
g1616
sg18
F5.032378230971517
sS'experimental_blocks.thisTrialN'
p1954
I2
sS'training_block.thisN'
p1955
I1
sS'word_presentation.thisN'
p1956
I16
sS'training_block.thisTrialN'
p1957
I0
sg17
S'space'
p1958
sg28
g29
sS'word_presentation.thisTrialN'
p1959
I16
sg41
g12
sS'word_presentation.thisIndex'
p1960
g31
(g131
S'\x10\x00\x00\x00'
p1961
tp1962
Rp1963
sa(dp1964
S'training_block.thisRepN'
p1965
I1
sg163
g1592
sg30
g40
sg1593
Vseize
p1966
sS'experimental_blocks.thisN'
p1967
I2
sg42
g43
sg1596
Vdunk
p1968
sg1598
Vscoop
p1969
sg1600
Vcut
p1970
sS'experimental_blocks.thisIndex'
p1971
g1605
sS'word_presentation.thisRepN'
p1972
I0
sS'experimental_blocks.thisRepN'
p1973
I0
sg44
g49
sg162
g1610
sg1611
g1612
sS'training_block.thisIndex'
p1974
g145
sg164
g1616
sg18
F5.82028039060242
sS'experimental_blocks.thisTrialN'
p1975
I2
sS'training_block.thisN'
p1976
I1
sS'word_presentation.thisN'
p1977
I17
sS'training_block.thisTrialN'
p1978
I0
sg17
S'space'
p1979
sg28
g29
sS'word_presentation.thisTrialN'
p1980
I17
sg41
g12
sS'word_presentation.thisIndex'
p1981
g31
(g131
S'\x11\x00\x00\x00'
p1982
tp1983
Rp1984
sa(dp1985
S'training_block.thisRepN'
p1986
I1
sg163
g1592
sg30
g40
sg1593
Vkneel
p1987
sS'experimental_blocks.thisN'
p1988
I2
sg42
g43
sg1596
Vinch
p1989
sg1598
Vglide
p1990
sg1600
Vtraipse
p1991
sS'experimental_blocks.thisIndex'
p1992
g1605
sS'word_presentation.thisRepN'
p1993
I0
sS'experimental_blocks.thisRepN'
p1994
I0
sg44
g49
sg162
g1610
sg1611
g1658
sS'training_block.thisIndex'
p1995
g145
sg164
g1616
sg18
F6.306267182633746
sS'experimental_blocks.thisTrialN'
p1996
I2
sS'training_block.thisN'
p1997
I1
sS'word_presentation.thisN'
p1998
I18
sS'training_block.thisTrialN'
p1999
I0
sg17
S'space'
p2000
sg28
g29
sS'word_presentation.thisTrialN'
p2001
I18
sg41
g12
sS'word_presentation.thisIndex'
p2002
g31
(g131
S'\x12\x00\x00\x00'
p2003
tp2004
Rp2005
sa(dp2006
S'training_block.thisRepN'
p2007
I1
sg163
g1592
sg30
g40
sg1593
Vflit
p2008
sS'experimental_blocks.thisN'
p2009
I2
sg42
g43
sg1596
Vstomp
p2010
sg1598
Vwade
p2011
sg1600
Vmarch
p2012
sS'experimental_blocks.thisIndex'
p2013
g1605
sS'word_presentation.thisRepN'
p2014
I0
sS'experimental_blocks.thisRepN'
p2015
I0
sg44
g49
sg162
g1610
sg1611
g1658
sS'training_block.thisIndex'
p2016
g145
sg164
g1616
sg18
F6.155059192431509
sS'experimental_blocks.thisTrialN'
p2017
I2
sS'training_block.thisN'
p2018
I1
sS'word_presentation.thisN'
p2019
I19
sS'training_block.thisTrialN'
p2020
I0
sg17
S'space'
p2021
sg28
g29
sS'word_presentation.thisTrialN'
p2022
I19
sg41
g12
sS'word_presentation.thisIndex'
p2023
g31
(g131
S'\x13\x00\x00\x00'
p2024
tp2025
Rp2026
sa(dp2027
S'training_block.thisRepN'
p2028
I1
sg163
g1592
sg30
g40
sg1593
Vramble
p2029
sS'experimental_blocks.thisN'
p2030
I2
sg42
g43
sg1596
Vstrut
p2031
sg1598
Vscuff
p2032
sg1600
Vleap
p2033
sS'experimental_blocks.thisIndex'
p2034
g1605
sS'word_presentation.thisRepN'
p2035
I0
sS'experimental_blocks.thisRepN'
p2036
I0
sg44
g49
sg162
g1610
sg1611
g1658
sS'training_block.thisIndex'
p2037
g145
sg164
g1616
sg18
F7.5135931989352684
sS'experimental_blocks.thisTrialN'
p2038
I2
sS'training_block.thisN'
p2039
I1
sS'word_presentation.thisN'
p2040
I20
sS'training_block.thisTrialN'
p2041
I0
sg17
S'space'
p2042
sg28
g29
sS'word_presentation.thisTrialN'
p2043
I20
sg41
g12
sS'word_presentation.thisIndex'
p2044
g31
(g131
S'\x14\x00\x00\x00'
p2045
tp2046
Rp2047
sa(dp2048
S'training_block.thisRepN'
p2049
I1
sg163
g1592
sg30
g40
sg1593
Vshake
p2050
sS'experimental_blocks.thisN'
p2051
I2
sg42
g43
sg1596
Vchop
p2052
sg1598
Vwhip
p2053
sg1600
Vpeel
p2054
sS'experimental_blocks.thisIndex'
p2055
g1605
sS'word_presentation.thisRepN'
p2056
I0
sS'experimental_blocks.thisRepN'
p2057
I0
sg44
g49
sg162
g1610
sg1611
g1612
sS'training_block.thisIndex'
p2058
g145
sg164
g1616
sg18
F6.105745470573311
sS'experimental_blocks.thisTrialN'
p2059
I2
sS'training_block.thisN'
p2060
I1
sS'word_presentation.thisN'
p2061
I21
sS'training_block.thisTrialN'
p2062
I0
sg17
S'space'
p2063
sg28
g29
sS'word_presentation.thisTrialN'
p2064
I21
sg41
g12
sS'word_presentation.thisIndex'
p2065
g31
(g131
S'\x15\x00\x00\x00'
p2066
tp2067
Rp2068
sa(dp2069
S'training_block.thisRepN'
p2070
I1
sg163
g1592
sg30
g40
sg1593
Vbrush
p2071
sS'experimental_blocks.thisN'
p2072
I2
sg42
g43
sg1596
Vsnatch
p2073
sg1598
Vwipe
p2074
sg1600
Vrub
p2075
sS'experimental_blocks.thisIndex'
p2076
g1605
sS'word_presentation.thisRepN'
p2077
I0
sS'experimental_blocks.thisRepN'
p2078
I0
sg44
g49
sg162
g1610
sg1611
g1612
sS'training_block.thisIndex'
p2079
g145
sg164
g1616
sg18
F5.819976545870304
sS'experimental_blocks.thisTrialN'
p2080
I2
sS'training_block.thisN'
p2081
I1
sS'word_presentation.thisN'
p2082
I22
sS'training_block.thisTrialN'
p2083
I0
sg17
S'space'
p2084
sg28
g29
sS'word_presentation.thisTrialN'
p2085
I22
sg41
g12
sS'word_presentation.thisIndex'
p2086
g31
(g131
S'\x16\x00\x00\x00'
p2087
tp2088
Rp2089
sa(dp2090
S'training_block.thisRepN'
p2091
I1
sg163
g1592
sg30
g40
sg1593
Vtoss
p2092
sS'experimental_blocks.thisN'
p2093
I2
sg42
g43
sg1596
Vscratch
p2094
sg1598
Vskim
p2095
sg1600
Vpunch
p2096
sS'experimental_blocks.thisIndex'
p2097
g1605
sS'word_presentation.thisRepN'
p2098
I0
sS'experimental_blocks.thisRepN'
p2099
I0
sg44
g49
sg162
g1610
sg1611
g1612
sS'training_block.thisIndex'
p2100
g145
sg164
g1616
sg18
F6.658565457793884
sS'experimental_blocks.thisTrialN'
p2101
I2
sS'training_block.thisN'
p2102
I1
sS'word_presentation.thisN'
p2103
I23
sS'training_block.thisTrialN'
p2104
I0
sg17
S'space'
p2105
sg28
g29
sS'word_presentation.thisTrialN'
p2106
I23
sg41
g12
sS'word_presentation.thisIndex'
p2107
g31
(g131
S'\x17\x00\x00\x00'
p2108
tp2109
Rp2110
sa(dp2111
S'training_block.thisRepN'
p2112
I1
sg163
g1592
sg30
g40
sg1593
Vhike
p2113
sS'experimental_blocks.thisN'
p2114
I2
sg42
g43
sg1596
Vcrawl
p2115
sg1598
Vsprint
p2116
sg1600
Vstride
p2117
sS'experimental_blocks.thisIndex'
p2118
g1605
sS'word_presentation.thisRepN'
p2119
I0
sS'experimental_blocks.thisRepN'
p2120
I0
sg44
g49
sg162
g1610
sg1611
g1658
sS'training_block.thisIndex'
p2121
g145
sg164
g1616
sg18
F7.245511277025798
sS'experimental_blocks.thisTrialN'
p2122
I2
sS'training_block.thisN'
p2123
I1
sS'word_presentation.thisN'
p2124
I24
sS'training_block.thisTrialN'
p2125
I0
sg17
S'space'
p2126
sg28
g29
sS'word_presentation.thisTrialN'
p2127
I24
sg41
g12
sS'word_presentation.thisIndex'
p2128
g31
(g131
S'\x18\x00\x00\x00'
p2129
tp2130
Rp2131
sa(dp2132
S'training_block.thisRepN'
p2133
I1
sg163
g1592
sg30
g40
sg1593
Vcatch
p2134
sS'experimental_blocks.thisN'
p2135
I2
sg42
g43
sg1596
Vhack
p2136
sg1598
Vclick
p2137
sg1600
Vpull
p2138
sS'experimental_blocks.thisIndex'
p2139
g1605
sS'word_presentation.thisRepN'
p2140
I0
sS'experimental_blocks.thisRepN'
p2141
I0
sg44
g49
sg162
g1610
sg1611
g1612
sS'training_block.thisIndex'
p2142
g145
sg164
g1616
sg18
F6.843132358568255
sS'experimental_blocks.thisTrialN'
p2143
I2
sS'training_block.thisN'
p2144
I1
sS'word_presentation.thisN'
p2145
I25
sS'training_block.thisTrialN'
p2146
I0
sg17
S'space'
p2147
sg28
g29
sS'word_presentation.thisTrialN'
p2148
I25
sg41
g12
sS'word_presentation.thisIndex'
p2149
g31
(g131
S'\x19\x00\x00\x00'
p2150
tp2151
Rp2152
sa(dp2153
S'training_block.thisRepN'
p2154
I1
sg163
g1592
sg30
g40
sg1593
Vstab
p2155
sS'experimental_blocks.thisN'
p2156
I2
sg42
g43
sg1596
Vpat
p2157
sg1598
Vbraid
p2158
sg1600
Vgrip
p2159
sS'experimental_blocks.thisIndex'
p2160
g1605
sS'word_presentation.thisRepN'
p2161
I0
sS'experimental_blocks.thisRepN'
p2162
I0
sg44
g49
sg162
g1610
sg1611
g1612
sS'training_block.thisIndex'
p2163
g145
sg164
g1616
sg18
F5.5180718464253005
sS'experimental_blocks.thisTrialN'
p2164
I2
sS'training_block.thisN'
p2165
I1
sS'word_presentation.thisN'
p2166
I26
sS'training_block.thisTrialN'
p2167
I0
sg17
S'space'
p2168
sg28
g29
sS'word_presentation.thisTrialN'
p2169
I26
sg41
g12
sS'word_presentation.thisIndex'
p2170
g31
(g131
S'\x1a\x00\x00\x00'
p2171
tp2172
Rp2173
sa(dp2174
S'training_block.thisRepN'
p2175
I1
sg163
g1592
sg30
g40
sg1593
Vpoke
p2176
sS'experimental_blocks.thisN'
p2177
I2
sg42
g43
sg1596
Vclutch
p2178
sg1598
Vgrasp
p2179
sg1600
Vfile
p2180
sS'experimental_blocks.thisIndex'
p2181
g1605
sS'word_presentation.thisRepN'
p2182
I0
sS'experimental_blocks.thisRepN'
p2183
I0
sg44
g49
sg162
g1610
sg1611
g1612
sS'training_block.thisIndex'
p2184
g145
sg164
g1616
sg18
F5.987625340887462
sS'experimental_blocks.thisTrialN'
p2185
I2
sS'training_block.thisN'
p2186
I1
sS'word_presentation.thisN'
p2187
I27
sS'training_block.thisTrialN'
p2188
I0
sg17
S'space'
p2189
sg28
g29
sS'word_presentation.thisTrialN'
p2190
I27
sg41
g12
sS'word_presentation.thisIndex'
p2191
g31
(g131
S'\x1b\x00\x00\x00'
p2192
tp2193
Rp2194
sa(dp2195
S'training_block.thisRepN'
p2196
I1
sg163
g1592
sS'experimental_blocks.thisRepN'
p2197
I0
sS'experimental_blocks.thisTrialN'
p2198
I2
sS'training_block.thisN'
p2199
I1
sg42
g43
sg41
g12
sg30
g40
sS'training_block.thisTrialN'
p2200
I0
sg44
g49
sS'experimental_blocks.thisN'
p2201
I2
sg164
g1616
sg28
g29
sS'experimental_blocks.thisIndex'
p2202
g1605
sg162
g1610
sS'training_block.thisIndex'
p2203
g145
sa(dp2204
S'training_block.thisRepN'
p2205
I1
sg163
g31
(g35
S'\x9a\x99\x99\x99\x99\x99\xd9?'
p2206
tp2207
Rp2208
sg30
g40
sS'word4'
p2209
Vroam
p2210
sS'experimental_blocks.thisN'
p2211
I3
sg42
g43
sS'word1'
p2212
Vkick
p2213
sS'word3'
p2214
Vbounce
p2215
sS'word2'
p2216
Vjump
p2217
sS'experimental_blocks.thisIndex'
p2218
g31
(g131
S'\x02\x00\x00\x00'
p2219
tp2220
Rp2221
sS'word_presentation.thisRepN'
p2222
I0
sS'experimental_blocks.thisRepN'
p2223
I0
sg44
g49
sg162
g31
(g35
S'333333\xd3?'
p2224
tp2225
Rp2226
sS'type'
p2227
Vleg
p2228
sS'training_block.thisIndex'
p2229
g145
sg164
g31
(g35
S'ffffff\xe6?'
p2230
tp2231
Rp2232
sg18
F5.283310903876554
sS'experimental_blocks.thisTrialN'
p2233
I3
sS'training_block.thisN'
p2234
I1
sS'word_presentation.thisN'
p2235
I0
sS'training_block.thisTrialN'
p2236
I0
sg17
S'space'
p2237
sg28
g29
sS'word_presentation.thisTrialN'
p2238
I0
sg41
g12
sS'word_presentation.thisIndex'
p2239
g31
(g131
S'\x00\x00\x00\x00'
p2240
tp2241
Rp2242
sa(dp2243
S'training_block.thisRepN'
p2244
I1
sg163
g2208
sg30
g40
sg2209
Vhike
p2245
sS'experimental_blocks.thisN'
p2246
I3
sg42
g43
sg2212
Vslip
p2247
sg2214
Vtraipse
p2248
sg2216
Vleap
p2249
sS'experimental_blocks.thisIndex'
p2250
g2221
sS'word_presentation.thisRepN'
p2251
I0
sS'experimental_blocks.thisRepN'
p2252
I0
sg44
g49
sg162
g2226
sg2227
g2228
sS'training_block.thisIndex'
p2253
g145
sg164
g2232
sg18
F5.903570590351592
sS'experimental_blocks.thisTrialN'
p2254
I3
sS'training_block.thisN'
p2255
I1
sS'word_presentation.thisN'
p2256
I1
sS'training_block.thisTrialN'
p2257
I0
sg17
S'space'
p2258
sg28
g29
sS'word_presentation.thisTrialN'
p2259
I1
sg41
g12
sS'word_presentation.thisIndex'
p2260
g31
(g131
S'\x01\x00\x00\x00'
p2261
tp2262
Rp2263
sa(dp2264
S'training_block.thisRepN'
p2265
I1
sg163
g2208
sg30
g40
sg2209
Vbrush
p2266
sS'experimental_blocks.thisN'
p2267
I3
sg42
g43
sg2212
Vpull
p2268
sg2214
Vfile
p2269
sg2216
Vbash
p2270
sS'experimental_blocks.thisIndex'
p2271
g2221
sS'word_presentation.thisRepN'
p2272
I0
sS'experimental_blocks.thisRepN'
p2273
I0
sg44
g49
sg162
g2226
sg2227
Varm
p2274
sS'training_block.thisIndex'
p2275
g145
sg164
g2232
sg18
F7.078070708506857
sS'experimental_blocks.thisTrialN'
p2276
I3
sS'training_block.thisN'
p2277
I1
sS'word_presentation.thisN'
p2278
I2
sS'training_block.thisTrialN'
p2279
I0
sg17
S'space'
p2280
sg28
g29
sS'word_presentation.thisTrialN'
p2281
I2
sg41
g12
sS'word_presentation.thisIndex'
p2282
g31
(g131
S'\x02\x00\x00\x00'
p2283
tp2284
Rp2285
sa(dp2286
S'training_block.thisRepN'
p2287
I1
sg163
g2208
sg30
g40
sg2209
Vclaw
p2288
sS'experimental_blocks.thisN'
p2289
I3
sg42
g43
sg2212
Vclutch
p2290
sg2214
Vscoop
p2291
sg2216
Vpat
p2292
sS'experimental_blocks.thisIndex'
p2293
g2221
sS'word_presentation.thisRepN'
p2294
I0
sS'experimental_blocks.thisRepN'
p2295
I0
sg44
g49
sg162
g2226
sg2227
g2274
sS'training_block.thisIndex'
p2296
g145
sg164
g2232
sg18
F5.921173433293006
sS'experimental_blocks.thisTrialN'
p2297
I3
sS'training_block.thisN'
p2298
I1
sS'word_presentation.thisN'
p2299
I3
sS'training_block.thisTrialN'
p2300
I0
sg17
S'space'
p2301
sg28
g29
sS'word_presentation.thisTrialN'
p2302
I3
sg41
g12
sS'word_presentation.thisIndex'
p2303
g31
(g131
S'\x03\x00\x00\x00'
p2304
tp2305
Rp2306
sa(dp2307
S'training_block.thisRepN'
p2308
I1
sg163
g2208
sg30
g40
sg2209
Vjog
p2309
sS'experimental_blocks.thisN'
p2310
I3
sg42
g43
sg2212
Vwalk
p2311
sg2214
Vmarch
p2312
sg2216
Vscuff
p2313
sS'experimental_blocks.thisIndex'
p2314
g2221
sS'word_presentation.thisRepN'
p2315
I0
sS'experimental_blocks.thisRepN'
p2316
I0
sg44
g49
sg162
g2226
sg2227
g2228
sS'training_block.thisIndex'
p2317
g145
sg164
g2232
sg18
F6.222560529888142
sS'experimental_blocks.thisTrialN'
p2318
I3
sS'training_block.thisN'
p2319
I1
sS'word_presentation.thisN'
p2320
I4
sS'training_block.thisTrialN'
p2321
I0
sg17
S'space'
p2322
sg28
g29
sS'word_presentation.thisTrialN'
p2323
I4
sg41
g12
sS'word_presentation.thisIndex'
p2324
g31
(g131
S'\x04\x00\x00\x00'
p2325
tp2326
Rp2327
sa(dp2328
S'training_block.thisRepN'
p2329
I1
sg163
g2208
sg30
g40
sg2209
Vscrub
p2330
sS'experimental_blocks.thisN'
p2331
I3
sg42
g43
sg2212
Vclap
p2332
sg2214
Vstir
p2333
sg2216
Vhack
p2334
sS'experimental_blocks.thisIndex'
p2335
g2221
sS'word_presentation.thisRepN'
p2336
I0
sS'experimental_blocks.thisRepN'
p2337
I0
sg44
g49
sg162
g2226
sg2227
g2274
sS'training_block.thisIndex'
p2338
g145
sg164
g2232
sg18
F5.870242894030525
sS'experimental_blocks.thisTrialN'
p2339
I3
sS'training_block.thisN'
p2340
I1
sS'word_presentation.thisN'
p2341
I5
sS'training_block.thisTrialN'
p2342
I0
sg17
S'space'
p2343
sg28
g29
sS'word_presentation.thisTrialN'
p2344
I5
sg41
g12
sS'word_presentation.thisIndex'
p2345
g31
(g131
S'\x05\x00\x00\x00'
p2346
tp2347
Rp2348
sa(dp2349
S'training_block.thisRepN'
p2350
I1
sg163
g2208
sg30
g40
sg2209
Vpolish
p2351
sS'experimental_blocks.thisN'
p2352
I3
sg42
g43
sg2212
Vknock
p2353
sg2214
Vswitch
p2354
sg2216
Vwrap
p2355
sS'experimental_blocks.thisIndex'
p2356
g2221
sS'word_presentation.thisRepN'
p2357
I0
sS'experimental_blocks.thisRepN'
p2358
I0
sg44
g49
sg162
g2226
sg2227
g2274
sS'training_block.thisIndex'
p2359
g145
sg164
g2232
sg18
F5.8368045650131535
sS'experimental_blocks.thisTrialN'
p2360
I3
sS'training_block.thisN'
p2361
I1
sS'word_presentation.thisN'
p2362
I6
sS'training_block.thisTrialN'
p2363
I0
sg17
S'space'
p2364
sg28
g29
sS'word_presentation.thisTrialN'
p2365
I6
sg41
g12
sS'word_presentation.thisIndex'
p2366
g31
(g131
S'\x06\x00\x00\x00'
p2367
tp2368
Rp2369
sa(dp2370
S'training_block.thisRepN'
p2371
I1
sg163
g2208
sg30
g40
sg2209
Vplod
p2372
sS'experimental_blocks.thisN'
p2373
I3
sg42
g43
sg2212
Vstroll
p2374
sg2214
Vtrek
p2375
sg2216
Vwobble
p2376
sS'experimental_blocks.thisIndex'
p2377
g2221
sS'word_presentation.thisRepN'
p2378
I0
sS'experimental_blocks.thisRepN'
p2379
I0
sg44
g49
sg162
g2226
sg2227
g2228
sS'training_block.thisIndex'
p2380
g145
sg164
g2232
sg18
F5.937366104830289
sS'experimental_blocks.thisTrialN'
p2381
I3
sS'training_block.thisN'
p2382
I1
sS'word_presentation.thisN'
p2383
I7
sS'training_block.thisTrialN'
p2384
I0
sg17
S'space'
p2385
sg28
g29
sS'word_presentation.thisTrialN'
p2386
I7
sg41
g12
sS'word_presentation.thisIndex'
p2387
g31
(g131
S'\x07\x00\x00\x00'
p2388
tp2389
Rp2390
sa(dp2391
S'training_block.thisRepN'
p2392
I1
sg163
g2208
sg30
g40
sg2209
Vstrut
p2393
sS'experimental_blocks.thisN'
p2394
I3
sg42
g43
sg2212
Vinch
p2395
sg2214
Vcreep
p2396
sg2216
Vstamp
p2397
sS'experimental_blocks.thisIndex'
p2398
g2221
sS'word_presentation.thisRepN'
p2399
I0
sS'experimental_blocks.thisRepN'
p2400
I0
sg44
g49
sg162
g2226
sg2227
g2228
sS'training_block.thisIndex'
p2401
g145
sg164
g2232
sg18
F7.346561181053403
sS'experimental_blocks.thisTrialN'
p2402
I3
sS'training_block.thisN'
p2403
I1
sS'word_presentation.thisN'
p2404
I8
sS'training_block.thisTrialN'
p2405
I0
sg17
S'space'
p2406
sg28
g29
sS'word_presentation.thisTrialN'
p2407
I8
sg41
g12
sS'word_presentation.thisIndex'
p2408
g31
(g131
S'\x08\x00\x00\x00'
p2409
tp2410
Rp2411
sa(dp2412
S'training_block.thisRepN'
p2413
I1
sg163
g2208
sg30
g40
sg2209
Vlift
p2414
sS'experimental_blocks.thisN'
p2415
I3
sg42
g43
sg2212
Vsqueeze
p2416
sg2214
Vsnatch
p2417
sg2216
Vdunk
p2418
sS'experimental_blocks.thisIndex'
p2419
g2221
sS'word_presentation.thisRepN'
p2420
I0
sS'experimental_blocks.thisRepN'
p2421
I0
sg44
g49
sg162
g2226
sg2227
g2274
sS'training_block.thisIndex'
p2422
g145
sg164
g2232
sg18
F6.356054649368161
sS'experimental_blocks.thisTrialN'
p2423
I3
sS'training_block.thisN'
p2424
I1
sS'word_presentation.thisN'
p2425
I9
sS'training_block.thisTrialN'
p2426
I0
sg17
S'space'
p2427
sg28
g29
sS'word_presentation.thisTrialN'
p2428
I9
sg41
g12
sS'word_presentation.thisIndex'
p2429
g31
(g131
S'\t\x00\x00\x00'
p2430
tp2431
Rp2432
sa(dp2433
S'training_block.thisRepN'
p2434
I1
sg163
g2208
sg30
g40
sg2209
Vstep
p2435
sS'experimental_blocks.thisN'
p2436
I3
sg42
g43
sg2212
Vramble
p2437
sg2214
Vslide
p2438
sg2216
Vskip
p2439
sS'experimental_blocks.thisIndex'
p2440
g2221
sS'word_presentation.thisRepN'
p2441
I0
sS'experimental_blocks.thisRepN'
p2442
I0
sg44
g49
sg162
g2226
sg2227
g2228
sS'training_block.thisIndex'
p2443
g145
sg164
g2232
sg18
F5.869547488677199
sS'experimental_blocks.thisTrialN'
p2444
I3
sS'training_block.thisN'
p2445
I1
sS'word_presentation.thisN'
p2446
I10
sS'training_block.thisTrialN'
p2447
I0
sg17
S'space'
p2448
sg28
g29
sS'word_presentation.thisTrialN'
p2449
I10
sg41
g12
sS'word_presentation.thisIndex'
p2450
g31
(g131
S'\n\x00\x00\x00'
p2451
tp2452
Rp2453
sa(dp2454
S'training_block.thisRepN'
p2455
I1
sg163
g2208
sg30
g40
sg2209
Vskate
p2456
sS'experimental_blocks.thisN'
p2457
I3
sg42
g43
sg2212
Vsway
p2458
sg2214
Vflit
p2459
sg2216
Vslither
p2460
sS'experimental_blocks.thisIndex'
p2461
g2221
sS'word_presentation.thisRepN'
p2462
I0
sS'experimental_blocks.thisRepN'
p2463
I0
sg44
g49
sg162
g2226
sg2227
g2228
sS'training_block.thisIndex'
p2464
g145
sg164
g2232
sg18
F6.440453941642772
sS'experimental_blocks.thisTrialN'
p2465
I3
sS'training_block.thisN'
p2466
I1
sS'word_presentation.thisN'
p2467
I11
sS'training_block.thisTrialN'
p2468
I0
sg17
S'space'
p2469
sg28
g29
sS'word_presentation.thisTrialN'
p2470
I11
sg41
g12
sS'word_presentation.thisIndex'
p2471
g31
(g131
S'\x0b\x00\x00\x00'
p2472
tp2473
Rp2474
sa(dp2475
S'training_block.thisRepN'
p2476
I1
sg163
g2208
sg30
g40
sg2209
Vpinch
p2477
sS'experimental_blocks.thisN'
p2478
I3
sg42
g43
sg2212
Vpeel
p2479
sg2214
Vbraid
p2480
sg2216
Vdig
p2481
sS'experimental_blocks.thisIndex'
p2482
g2221
sS'word_presentation.thisRepN'
p2483
I0
sS'experimental_blocks.thisRepN'
p2484
I0
sg44
g49
sg162
g2226
sg2227
g2274
sS'training_block.thisIndex'
p2485
g145
sg164
g2232
sg18
F7.681446664384566
sS'experimental_blocks.thisTrialN'
p2486
I3
sS'training_block.thisN'
p2487
I1
sS'word_presentation.thisN'
p2488
I12
sS'training_block.thisTrialN'
p2489
I0
sg17
S'space'
p2490
sg28
g29
sS'word_presentation.thisTrialN'
p2491
I12
sg41
g12
sS'word_presentation.thisIndex'
p2492
g31
(g131
S'\x0c\x00\x00\x00'
p2493
tp2494
Rp2495
sa(dp2496
S'training_block.thisRepN'
p2497
I1
sg163
g2208
sg30
g40
sg2209
Vcut
p2498
sS'experimental_blocks.thisN'
p2499
I3
sg42
g43
sg2212
Vgrasp
p2500
sg2214
Vseize
p2501
sg2216
Vtoss
p2502
sS'experimental_blocks.thisIndex'
p2503
g2221
sS'word_presentation.thisRepN'
p2504
I0
sS'experimental_blocks.thisRepN'
p2505
I0
sg44
g49
sg162
g2226
sg2227
g2274
sS'training_block.thisIndex'
p2506
g145
sg164
g2232
sg18
F6.859890442050528
sS'experimental_blocks.thisTrialN'
p2507
I3
sS'training_block.thisN'
p2508
I1
sS'word_presentation.thisN'
p2509
I13
sS'training_block.thisTrialN'
p2510
I0
sg17
S'space'
p2511
sg28
g29
sS'word_presentation.thisTrialN'
p2512
I13
sg41
g12
sS'word_presentation.thisIndex'
p2513
g31
(g131
S'\r\x00\x00\x00'
p2514
tp2515
Rp2516
sa(dp2517
S'training_block.thisRepN'
p2518
I1
sg163
g2208
sg30
g40
sg2209
Vhop
p2519
sS'experimental_blocks.thisN'
p2520
I3
sg42
g43
sg2212
Vtrudge
p2521
sg2214
Vtread
p2522
sg2216
Vglide
p2523
sS'experimental_blocks.thisIndex'
p2524
g2221
sS'word_presentation.thisRepN'
p2525
I0
sS'experimental_blocks.thisRepN'
p2526
I0
sg44
g49
sg162
g2226
sg2227
g2228
sS'training_block.thisIndex'
p2527
g145
sg164
g2232
sg18
F6.0548761743848445
sS'experimental_blocks.thisTrialN'
p2528
I3
sS'training_block.thisN'
p2529
I1
sS'word_presentation.thisN'
p2530
I14
sS'training_block.thisTrialN'
p2531
I0
sg17
S'space'
p2532
sg28
g29
sS'word_presentation.thisTrialN'
p2533
I14
sg41
g12
sS'word_presentation.thisIndex'
p2534
g31
(g131
S'\x0e\x00\x00\x00'
p2535
tp2536
Rp2537
sa(dp2538
S'training_block.thisRepN'
p2539
I1
sg163
g2208
sg30
g40
sg2209
Vlimp
p2540
sS'experimental_blocks.thisN'
p2541
I3
sg42
g43
sg2212
Vsneak
p2542
sg2214
Vtrip
p2543
sg2216
Vdance
p2544
sS'experimental_blocks.thisIndex'
p2545
g2221
sS'word_presentation.thisRepN'
p2546
I0
sS'experimental_blocks.thisRepN'
p2547
I0
sg44
g49
sg162
g2226
sg2227
g2228
sS'training_block.thisIndex'
p2548
g145
sg164
g2232
sg18
F8.838788445835235
sS'experimental_blocks.thisTrialN'
p2549
I3
sS'training_block.thisN'
p2550
I1
sS'word_presentation.thisN'
p2551
I15
sS'training_block.thisTrialN'
p2552
I0
sg17
S'space'
p2553
sg28
g29
sS'word_presentation.thisTrialN'
p2554
I15
sg41
g12
sS'word_presentation.thisIndex'
p2555
g31
(g131
S'\x0f\x00\x00\x00'
p2556
tp2557
Rp2558
sa(dp2559
S'training_block.thisRepN'
p2560
I1
sg163
g2208
sg30
g40
sg2209
Vgrate
p2561
sS'experimental_blocks.thisN'
p2562
I3
sg42
g43
sg2212
Vbind
p2563
sg2214
Vpoke
p2564
sg2216
Vclean
p2565
sS'experimental_blocks.thisIndex'
p2566
g2221
sS'word_presentation.thisRepN'
p2567
I0
sS'experimental_blocks.thisRepN'
p2568
I0
sg44
g49
sg162
g2226
sg2227
g2274
sS'training_block.thisIndex'
p2569
g145
sg164
g2232
sg18
F6.675226342587848
sS'experimental_blocks.thisTrialN'
p2570
I3
sS'training_block.thisN'
p2571
I1
sS'word_presentation.thisN'
p2572
I16
sS'training_block.thisTrialN'
p2573
I0
sg17
S'space'
p2574
sg28
g29
sS'word_presentation.thisTrialN'
p2575
I16
sg41
g12
sS'word_presentation.thisIndex'
p2576
g31
(g131
S'\x10\x00\x00\x00'
p2577
tp2578
Rp2579
sa(dp2580
S'training_block.thisRepN'
p2581
I1
sg163
g2208
sg30
g40
sg2209
Vcatch
p2582
sS'experimental_blocks.thisN'
p2583
I3
sg42
g43
sg2212
Vthrow
p2584
sg2214
Vpunch
p2585
sg2216
Vtug
p2586
sS'experimental_blocks.thisIndex'
p2587
g2221
sS'word_presentation.thisRepN'
p2588
I0
sS'experimental_blocks.thisRepN'
p2589
I0
sg44
g49
sg162
g2226
sg2227
g2274
sS'training_block.thisIndex'
p2590
g145
sg164
g2232
sg18
F7.0443186568591045
sS'experimental_blocks.thisTrialN'
p2591
I3
sS'training_block.thisN'
p2592
I1
sS'word_presentation.thisN'
p2593
I17
sS'training_block.thisTrialN'
p2594
I0
sg17
S'space'
p2595
sg28
g29
sS'word_presentation.thisTrialN'
p2596
I17
sg41
g12
sS'word_presentation.thisIndex'
p2597
g31
(g131
S'\x11\x00\x00\x00'
p2598
tp2599
Rp2600
sa(dp2601
S'training_block.thisRepN'
p2602
I1
sg163
g2208
sg30
g40
sg2209
Vsprint
p2603
sS'experimental_blocks.thisN'
p2604
I3
sg42
g43
sg2212
Vclimb
p2605
sg2214
Vrush
p2606
sg2216
Vwade
p2607
sS'experimental_blocks.thisIndex'
p2608
g2221
sS'word_presentation.thisRepN'
p2609
I0
sS'experimental_blocks.thisRepN'
p2610
I0
sg44
g49
sg162
g2226
sg2227
g2228
sS'training_block.thisIndex'
p2611
g145
sg164
g2232
sg18
F5.7361600506992545
sS'experimental_blocks.thisTrialN'
p2612
I3
sS'training_block.thisN'
p2613
I1
sS'word_presentation.thisN'
p2614
I18
sS'training_block.thisTrialN'
p2615
I0
sg17
S'space'
p2616
sg28
g29
sS'word_presentation.thisTrialN'
p2617
I18
sg41
g12
sS'word_presentation.thisIndex'
p2618
g31
(g131
S'\x12\x00\x00\x00'
p2619
tp2620
Rp2621
sa(dp2622
S'training_block.thisRepN'
p2623
I1
sg163
g2208
sg30
g40
sg2209
Vstagger
p2624
sS'experimental_blocks.thisN'
p2625
I3
sg42
g43
sg2212
Vstomp
p2626
sg2214
Vflee
p2627
sg2216
Vprance
p2628
sS'experimental_blocks.thisIndex'
p2629
g2221
sS'word_presentation.thisRepN'
p2630
I0
sS'experimental_blocks.thisRepN'
p2631
I0
sg44
g49
sg162
g2226
sg2227
g2228
sS'training_block.thisIndex'
p2632
g145
sg164
g2232
sg18
F6.054762380779721
sS'experimental_blocks.thisTrialN'
p2633
I3
sS'training_block.thisN'
p2634
I1
sS'word_presentation.thisN'
p2635
I19
sS'training_block.thisTrialN'
p2636
I0
sg17
S'space'
p2637
sg28
g29
sS'word_presentation.thisTrialN'
p2638
I19
sg41
g12
sS'word_presentation.thisIndex'
p2639
g31
(g131
S'\x13\x00\x00\x00'
p2640
tp2641
Rp2642
sa(dp2643
S'training_block.thisRepN'
p2644
I1
sg163
g2208
sg30
g40
sg2209
Vrun
p2645
sS'experimental_blocks.thisN'
p2646
I3
sg42
g43
sg2212
Vkneel
p2647
sg2214
Vtrot
p2648
sg2216
Vmount
p2649
sS'experimental_blocks.thisIndex'
p2650
g2221
sS'word_presentation.thisRepN'
p2651
I0
sS'experimental_blocks.thisRepN'
p2652
I0
sg44
g49
sg162
g2226
sg2227
g2228
sS'training_block.thisIndex'
p2653
g145
sg164
g2232
sg18
F7.027463374659419
sS'experimental_blocks.thisTrialN'
p2654
I3
sS'training_block.thisN'
p2655
I1
sS'word_presentation.thisN'
p2656
I20
sS'training_block.thisTrialN'
p2657
I0
sg17
S'space'
p2658
sg28
g29
sS'word_presentation.thisTrialN'
p2659
I20
sg41
g12
sS'word_presentation.thisIndex'
p2660
g31
(g131
S'\x14\x00\x00\x00'
p2661
tp2662
Rp2663
sa(dp2664
S'training_block.thisRepN'
p2665
I1
sg163
g2208
sg30
g40
sg2209
Vskim
p2666
sS'experimental_blocks.thisN'
p2667
I3
sg42
g43
sg2212
Vfold
p2668
sg2214
Vcarve
p2669
sg2216
Vpush
p2670
sS'experimental_blocks.thisIndex'
p2671
g2221
sS'word_presentation.thisRepN'
p2672
I0
sS'experimental_blocks.thisRepN'
p2673
I0
sg44
g49
sg162
g2226
sg2227
g2274
sS'training_block.thisIndex'
p2674
g145
sg164
g2232
sg18
F6.390460619106307
sS'experimental_blocks.thisTrialN'
p2675
I3
sS'training_block.thisN'
p2676
I1
sS'word_presentation.thisN'
p2677
I21
sS'training_block.thisTrialN'
p2678
I0
sg17
S'space'
p2679
sg28
g29
sS'word_presentation.thisTrialN'
p2680
I21
sg41
g12
sS'word_presentation.thisIndex'
p2681
g31
(g131
S'\x15\x00\x00\x00'
p2682
tp2683
Rp2684
sa(dp2685
S'training_block.thisRepN'
p2686
I1
sg163
g2208
sg30
g40
sg2209
Vwash
p2687
sS'experimental_blocks.thisN'
p2688
I3
sg42
g43
sg2212
Vclick
p2689
sg2214
Vrub
p2690
sg2216
Vshake
p2691
sS'experimental_blocks.thisIndex'
p2692
g2221
sS'word_presentation.thisRepN'
p2693
I0
sS'experimental_blocks.thisRepN'
p2694
I0
sg44
g49
sg162
g2226
sg2227
g2274
sS'training_block.thisIndex'
p2695
g145
sg164
g2232
sg18
F5.2659605404915055
sS'experimental_blocks.thisTrialN'
p2696
I3
sS'training_block.thisN'
p2697
I1
sS'word_presentation.thisN'
p2698
I22
sS'training_block.thisTrialN'
p2699
I0
sg17
S'space'
p2700
sg28
g29
sS'word_presentation.thisTrialN'
p2701
I22
sg41
g12
sS'word_presentation.thisIndex'
p2702
g31
(g131
S'\x16\x00\x00\x00'
p2703
tp2704
Rp2705
sa(dp2706
S'training_block.thisRepN'
p2707
I1
sg163
g2208
sg30
g40
sg2209
Vstumble
p2708
sS'experimental_blocks.thisN'
p2709
I3
sg42
g43
sg2212
Vstray
p2710
sg2214
Vcrawl
p2711
sg2216
Vwander
p2712
sS'experimental_blocks.thisIndex'
p2713
g2221
sS'word_presentation.thisRepN'
p2714
I0
sS'experimental_blocks.thisRepN'
p2715
I0
sg44
g49
sg162
g2226
sg2227
g2228
sS'training_block.thisIndex'
p2716
g145
sg164
g2232
sg18
F5.8706431472237455
sS'experimental_blocks.thisTrialN'
p2717
I3
sS'training_block.thisN'
p2718
I1
sS'word_presentation.thisN'
p2719
I23
sS'training_block.thisTrialN'
p2720
I0
sg17
S'space'
p2721
sg28
g29
sS'word_presentation.thisTrialN'
p2722
I23
sg41
g12
sS'word_presentation.thisIndex'
p2723
g31
(g131
S'\x17\x00\x00\x00'
p2724
tp2725
Rp2726
sa(dp2727
S'training_block.thisRepN'
p2728
I1
sg163
g2208
sg30
g40
sg2209
Vstride
p2729
sS'experimental_blocks.thisN'
p2730
I3
sg42
g43
sg2212
Vtiptoe
p2731
sg2214
Vpace
p2732
sg2216
Vroll
p2733
sS'experimental_blocks.thisIndex'
p2734
g2221
sS'word_presentation.thisRepN'
p2735
I0
sS'experimental_blocks.thisRepN'
p2736
I0
sg44
g49
sg162
g2226
sg2227
g2228
sS'training_block.thisIndex'
p2737
g145
sg164
g2232
sg18
F7.463652822043514
sS'experimental_blocks.thisTrialN'
p2738
I3
sS'training_block.thisN'
p2739
I1
sS'word_presentation.thisN'
p2740
I24
sS'training_block.thisTrialN'
p2741
I0
sg17
S'space'
p2742
sg28
g29
sS'word_presentation.thisTrialN'
p2743
I24
sg41
g12
sS'word_presentation.thisIndex'
p2744
g31
(g131
S'\x18\x00\x00\x00'
p2745
tp2746
Rp2747
sa(dp2748
S'training_block.thisRepN'
p2749
I1
sg163
g2208
sg30
g40
sg2209
Vgrab
p2750
sS'experimental_blocks.thisN'
p2751
I3
sg42
g43
sg2212
Vslap
p2752
sg2214
Vstab
p2753
sg2216
Vwipe
p2754
sS'experimental_blocks.thisIndex'
p2755
g2221
sS'word_presentation.thisRepN'
p2756
I0
sS'experimental_blocks.thisRepN'
p2757
I0
sg44
g49
sg162
g2226
sg2227
g2274
sS'training_block.thisIndex'
p2758
g145
sg164
g2232
sg18
F6.373302282430814
sS'experimental_blocks.thisTrialN'
p2759
I3
sS'training_block.thisN'
p2760
I1
sS'word_presentation.thisN'
p2761
I25
sS'training_block.thisTrialN'
p2762
I0
sg17
S'space'
p2763
sg28
g29
sS'word_presentation.thisTrialN'
p2764
I25
sg41
g12
sS'word_presentation.thisIndex'
p2765
g31
(g131
S'\x19\x00\x00\x00'
p2766
tp2767
Rp2768
sa(dp2769
S'training_block.thisRepN'
p2770
I1
sg163
g2208
sg30
g40
sg2209
Vtwine
p2771
sS'experimental_blocks.thisN'
p2772
I3
sg42
g43
sg2212
Vdelve
p2773
sg2214
Vscrape
p2774
sg2216
Vchop
p2775
sS'experimental_blocks.thisIndex'
p2776
g2221
sS'word_presentation.thisRepN'
p2777
I0
sS'experimental_blocks.thisRepN'
p2778
I0
sg44
g49
sg162
g2226
sg2227
g2274
sS'training_block.thisIndex'
p2779
g145
sg164
g2232
sg18
F6.574704709550133
sS'experimental_blocks.thisTrialN'
p2780
I3
sS'training_block.thisN'
p2781
I1
sS'word_presentation.thisN'
p2782
I26
sS'training_block.thisTrialN'
p2783
I0
sg17
S'space'
p2784
sg28
g29
sS'word_presentation.thisTrialN'
p2785
I26
sg41
g12
sS'word_presentation.thisIndex'
p2786
g31
(g131
S'\x1a\x00\x00\x00'
p2787
tp2788
Rp2789
sa(dp2790
S'training_block.thisRepN'
p2791
I1
sg163
g2208
sg30
g40
sg2209
Vnip
p2792
sS'experimental_blocks.thisN'
p2793
I3
sg42
g43
sg2212
Vwhip
p2794
sg2214
Vscratch
p2795
sg2216
Vgrip
p2796
sS'experimental_blocks.thisIndex'
p2797
g2221
sS'word_presentation.thisRepN'
p2798
I0
sS'experimental_blocks.thisRepN'
p2799
I0
sg44
g49
sg162
g2226
sg2227
g2274
sS'training_block.thisIndex'
p2800
g145
sg164
g2232
sg18
F5.618693443990196
sS'experimental_blocks.thisTrialN'
p2801
I3
sS'training_block.thisN'
p2802
I1
sS'word_presentation.thisN'
p2803
I27
sS'training_block.thisTrialN'
p2804
I0
sg17
S'space'
p2805
sg28
g29
sS'word_presentation.thisTrialN'
p2806
I27
sg41
g12
sS'word_presentation.thisIndex'
p2807
g31
(g131
S'\x1b\x00\x00\x00'
p2808
tp2809
Rp2810
sa(dp2811
S'training_block.thisRepN'
p2812
I1
sg163
g2208
sS'experimental_blocks.thisRepN'
p2813
I0
sS'experimental_blocks.thisTrialN'
p2814
I3
sS'training_block.thisN'
p2815
I1
sg42
g43
sg41
g12
sg30
g40
sS'training_block.thisTrialN'
p2816
I0
sg44
g49
sS'experimental_blocks.thisN'
p2817
I3
sg164
g2232
sg28
g29
sS'experimental_blocks.thisIndex'
p2818
g2221
sg162
g2226
sS'training_block.thisIndex'
p2819
g145
sa(dp2820
S'training_block.thisRepN'
p2821
I1
sS'training_block.thisN'
p2822
I1
sg42
g43
sg44
g49
sg30
g40
sS'training_block.thisTrialN'
p2823
I0
sg41
g12
sg28
g29
sg23
S'space'
p2824
sg24
F1.1580482500576181
sS'training_block.thisIndex'
p2825
g145
sasS'loops'
p2826
(lp2827
g54
ag0
(g52
g2
Ntp2828
Rp2829
(dp2830
g56
Nsg57
(lp2831
sg58
I360649680
sg11
S'word_presentation_training'
p2832
sg6
I-1
sg60
I1
sg25
I01
sg26
g27
sg61
g0
(g62
g63
(dp2833
g65
g66
(g67
g68
g69
g70
tp2834
Rp2835
(I1
(I4
I1
tp2836
g76
I00
S'\x00\x00\x80?\x00\x00\x80?\x00\x00\x80?\x00\x00\x80?'
p2837
S'\x00\x00\x00\x00'
p2838
Ntp2839
bsg18
g66
(g67
g68
g69
g70
tp2840
Rp2841
(I1
(I4
I1
tp2842
g76
I00
S'?\x1f\xdd@8 \xf3@,\x97\xf2@\xb8\x9a\xa1@'
p2843
S'\x00\x00\x00\x00'
p2844
Ntp2845
bsg105
g66
(g67
g68
g69
g70
tp2846
Rp2847
(I1
(I4
I1
tp2848
g76
I00
S'\x00\x00@@\x00\x00\x00\x00\x00\x00\x00@\x00\x00\x80?'
p2849
S'\x00\x00\x00\x00'
p2850
Ntp2851
bsg17
g88
(g68
(I0
tp2852
g70
tp2853
Rp2854
(I1
(I4
I1
tp2855
g95
I00
(lp2856
g245
ag176
ag225
ag205
atp2857
bstp2858
Rp2859
(dp2860
g115
(dp2861
g65
I01
sg18
I01
sg105
I01
sg17
I00
ssg117
g2829
sg118
(lp2862
g65
ag105
ag17
ag18
asg120
(lp2863
I4
aI1
asbsg122
g123
sg124
g88
(g68
(I0
tp2864
g70
tp2865
Rp2866
(I1
(I4
I1
tp2867
g131
I00
S'\x01\x00\x00\x00\x03\x00\x00\x00\x02\x00\x00\x00\x00\x00\x00\x00'
p2868
tp2869
bsg136
I01
sg137
I1
sg138
I-1
sg139
(lp2870
ccollections
OrderedDict
p2871
((lp2872
(lp2873
g156
ag248
aa(lp2874
g157
ag193
aa(lp2875
g158
ag249
aa(lp2876
g159
ag255
aa(lp2877
g160
ag254
aa(lp2878
g161
ag242
aatp2879
Rp2880
ag2871
((lp2881
(lp2882
g156
ag184
aa(lp2883
g157
ag193
aa(lp2884
g158
ag185
aa(lp2885
g159
ag191
aa(lp2886
g160
ag190
aa(lp2887
g161
ag173
aatp2888
Rp2889
ag2871
((lp2890
(lp2891
g156
ag228
aa(lp2892
g157
ag193
aa(lp2893
g158
ag229
aa(lp2894
g159
ag235
aa(lp2895
g160
ag234
aa(lp2896
g161
ag222
aatp2897
Rp2898
ag2871
((lp2899
(lp2900
g156
ag208
aa(lp2901
g157
ag193
aa(lp2902
g158
ag209
aa(lp2903
g159
ag215
aa(lp2904
g160
ag214
aa(lp2905
g161
ag202
aatp2906
Rp2907
asg141
Nsg142
g253
sg146
I4
sg147
I0
sg148
I4
sbag0
(g52
g2
Ntp2908
Rp2909
(dp2910
g56
Nsg57
(lp2911
sg58
I360649680
sg11
g2832
sg6
I-1
sg60
I1
sg25
I01
sg26
g27
sg61
g0
(g62
g63
(dp2912
g65
g66
(g67
g68
g69
g70
tp2913
Rp2914
(I1
(I4
I1
tp2915
g76
I00
S'\x00\x00\x80?\x00\x00\x80?\x00\x00\x80?\x00\x00\x80?'
p2916
S'\x00\x00\x00\x00'
p2917
Ntp2918
bsg18
g66
(g67
g68
g69
g70
tp2919
Rp2920
(I1
(I4
I1
tp2921
g76
I00
S'\xccF\xc9@\xd2\x88\x8b@b\xa8\xa2@\xb3\x9e\xa2@'
p2922
S'\x00\x00\x00\x00'
p2923
Ntp2924
bsg105
g66
(g67
g68
g69
g70
tp2925
Rp2926
(I1
(I4
I1
tp2927
g76
I00
S'\x00\x00@@\x00\x00\x00\x00\x00\x00\x00@\x00\x00\x80?'
p2928
S'\x00\x00\x00\x00'
p2929
Ntp2930
bsg17
g88
(g68
(I0
tp2931
g70
tp2932
Rp2933
(I1
(I4
I1
tp2934
g95
I00
(lp2935
g337
ag271
ag317
ag297
atp2936
bstp2937
Rp2938
(dp2939
g115
(dp2940
g65
I01
sg18
I01
sg105
I01
sg17
I00
ssg117
g2909
sg118
(lp2941
g65
ag105
ag17
ag18
asg120
(lp2942
I4
aI1
asbsg122
g123
sg124
g88
(g68
(I0
tp2943
g70
tp2944
Rp2945
(I1
(I4
I1
tp2946
g131
I00
S'\x01\x00\x00\x00\x03\x00\x00\x00\x02\x00\x00\x00\x00\x00\x00\x00'
p2947
tp2948
bsg136
I01
sg137
I1
sg138
I-1
sg139
(lp2949
g2871
((lp2950
(lp2951
g272
ag340
aa(lp2952
g287
ag288
aa(lp2953
g276
ag341
aa(lp2954
g284
ag347
aa(lp2955
g282
ag346
aa(lp2956
g267
ag334
aatp2957
Rp2958
ag2871
((lp2959
(lp2960
g272
ag275
aa(lp2961
g287
ag288
aa(lp2962
g276
ag277
aa(lp2963
g284
ag285
aa(lp2964
g282
ag283
aa(lp2965
g267
ag268
aatp2966
Rp2967
ag2871
((lp2968
(lp2969
g272
ag320
aa(lp2970
g287
ag288
aa(lp2971
g276
ag321
aa(lp2972
g284
ag327
aa(lp2973
g282
ag326
aa(lp2974
g267
ag314
aatp2975
Rp2976
ag2871
((lp2977
(lp2978
g272
ag300
aa(lp2979
g287
ag288
aa(lp2980
g276
ag301
aa(lp2981
g284
ag307
aa(lp2982
g282
ag306
aa(lp2983
g267
ag294
aatp2984
Rp2985
asg141
Nsg142
g345
sg146
I4
sg147
I0
sg148
I4
sbag0
(g52
g2
Ntp2986
Rp2987
(dp2988
g56
Nsg57
(lp2989
sg58
I360649680
sg11
S'experimental_blocks'
p2990
sg6
I-1
sg60
I1
sg25
I01
sg26
g27
sg61
g0
(g62
g63
(dp2991
g65
g66
(g67
g68
g69
g70
tp2992
Rp2993
(I1
(I4
I1
tp2994
g76
I00
S'\x00\x00\x80?\x00\x00\x80?\x00\x00\x80?\x00\x00\x80?'
p2995
S'\x00\x00\x00\x00'
p2996
Ntp2997
bsg105
g66
(g67
g68
g69
g70
tp2998
Rp2999
(I1
(I4
I1
tp3000
g76
I00
S'\x00\x00\x00\x00\x00\x00\x00@\x00\x00@@\x00\x00\x80?'
p3001
S'\x00\x00\x00\x00'
p3002
Ntp3003
bstp3004
Rp3005
(dp3006
g115
(dp3007
g65
I01
sg105
I01
ssg117
g2987
sg118
(lp3008
g65
ag105
asg120
(lp3009
I4
aI1
asbsg122
g123
sg124
g88
(g68
(I0
tp3010
g70
tp3011
Rp3012
(I1
(I4
I1
tp3013
g131
I00
S'\x00\x00\x00\x00\x03\x00\x00\x00\x01\x00\x00\x00\x02\x00\x00\x00'
p3014
tp3015
bsg136
I01
sg137
I1
sg138
I-1
sg139
(lp3016
g2871
((lp3017
(lp3018
g162
ag378
aa(lp3019
g163
ag360
aa(lp3020
g164
ag384
aatp3021
Rp3022
ag2871
((lp3023
(lp3024
g162
ag1610
aa(lp3025
g163
ag1592
aa(lp3026
g164
ag1616
aatp3027
Rp3028
ag2871
((lp3029
(lp3030
g162
ag2226
aa(lp3031
g163
ag2208
aa(lp3032
g164
ag2232
aatp3033
Rp3034
ag2871
((lp3035
(lp3036
g162
ag994
aa(lp3037
g163
ag976
aa(lp3038
g164
ag1000
aatp3039
Rp3040
asg141
Nsg142
g2221
sg146
I4
sg147
I0
sg148
I4
sbag0
(g52
g2
Ntp3041
Rp3042
(dp3043
g56
Nsg57
(lp3044
sg58
I360649680
sg11
S'word_presentation'
p3045
sg6
I-1
sg60
I1
sg25
I01
sg26
g27
sg61
g0
(g62
g63
(dp3046
g65
g66
(g67
g68
g69
g70
tp3047
Rp3048
(I1
(I28
I1
tp3049
g76
I00
S'\x00\x00\x80?\x00\x00\x80?\x00\x00\x80?\x00\x00\x80?\x00\x00\x80?\x00\x00\x80?\x00\x00\x80?\x00\x00\x80?\x00\x00\x80?\x00\x00\x80?\x00\x00\x80?\x00\x00\x80?\x00\x00\x80?\x00\x00\x80?\x00\x00\x80?\x00\x00\x80?\x00\x00\x80?\x00\x00\x80?\x00\x00\x80?\x00\x00\x80?\x00\x00\x80?\x00\x00\x80?\x00\x00\x80?\x00\x00\x80?\x00\x00\x80?\x00\x00\x80?\x00\x00\x80?\x00\x00\x80?'
p3050
S'\x00\x00\x00\x00\x00\x00\x00\x00\x00\x00\x00\x00\x00\x00\x00\x00\x00\x00\x00\x00\x00\x00\x00\x00\x00\x00\x00\x00'
p3051
Ntp3052
bsg18
g66
(g67
g68
g69
g70
tp3053
Rp3054
(I1
(I28
I1
tp3055
g76
I00
S'2#\xc0@Y\\\xe0@\xf4)\xec@~D\xdf@\xe4\xf8\xf7@\xd1v\xd3@1\xd3\xd8@\xf7\xde\xbb@u\x92\xb0@\x99\xe0\x13A\xddB\xa4@<I\xc2@\xc0\xdf\xca@k\x9d\x01Aj\x1b\xfa@X\x89\xbe@\x807\xde@\xd5\x05\xea@\xd0\xa5\xc7@\xac\xec\xb5@\xba\x9a\xbf@\x1fJ\xee@ <\xa4@Zk\xe1@\xe3\xd2\xac@\xbb.\xab@\x0cc\xd2@m\x10\xa9@'
p3056
S'\x00\x00\x00\x00\x00\x00\x00\x00\x00\x00\x00\x00\x00\x00\x00\x00\x00\x00\x00\x00\x00\x00\x00\x00\x00\x00\x00\x00'
p3057
Ntp3058
bsg105
g66
(g67
g68
g69
g70
tp3059
Rp3060
(I1
(I28
I1
tp3061
g76
I00
S'\x00\x00\x00\x00\x00\x00\x80?\x00\x00\x00@\x00\x00@@\x00\x00\x80@\x00\x00\xa0@\x00\x00\xc0@\x00\x00\xe0@\x00\x00\x00A\x00\x00\x10A\x00\x00 A\x00\x000A\x00\x00@A\x00\x00PA\x00\x00`A\x00\x00pA\x00\x00\x80A\x00\x00\x88A\x00\x00\x90A\x00\x00\x98A\x00\x00\xa0A\x00\x00\xa8A\x00\x00\xb0A\x00\x00\xb8A\x00\x00\xc0A\x00\x00\xc8A\x00\x00\xd0A\x00\x00\xd8A'
p3062
S'\x00\x00\x00\x00\x00\x00\x00\x00\x00\x00\x00\x00\x00\x00\x00\x00\x00\x00\x00\x00\x00\x00\x00\x00\x00\x00\x00\x00'
p3063
Ntp3064
bsg17
g88
(g68
(I0
tp3065
g70
tp3066
Rp3067
(I1
(I28
I1
tp3068
g95
I00
(lp3069
g389
ag410
ag432
ag453
ag474
ag495
ag516
ag537
ag558
ag579
ag600
ag621
ag642
ag663
ag684
ag705
ag726
ag747
ag768
ag789
ag810
ag831
ag852
ag873
ag894
ag915
ag936
ag957
atp3070
bstp3071
Rp3072
(dp3073
g115
(dp3074
g65
I01
sg18
I01
sg105
I01
sg17
I00
ssg117
g3042
sg118
(lp3075
g65
ag105
ag17
ag18
asg120
(lp3076
I28
aI1
asbsg122
S'sequential'
p3077
sg124
g88
(g68
(I0
tp3078
g70
tp3079
Rp3080
(I1
(I28
I1
tp3081
g131
I00
S'\x00\x00\x00\x00\x01\x00\x00\x00\x02\x00\x00\x00\x03\x00\x00\x00\x04\x00\x00\x00\x05\x00\x00\x00\x06\x00\x00\x00\x07\x00\x00\x00\x08\x00\x00\x00\t\x00\x00\x00\n\x00\x00\x00\x0b\x00\x00\x00\x0c\x00\x00\x00\r\x00\x00\x00\x0e\x00\x00\x00\x0f\x00\x00\x00\x10\x00\x00\x00\x11\x00\x00\x00\x12\x00\x00\x00\x13\x00\x00\x00\x14\x00\x00\x00\x15\x00\x00\x00\x16\x00\x00\x00\x17\x00\x00\x00\x18\x00\x00\x00\x19\x00\x00\x00\x1a\x00\x00\x00\x1b\x00\x00\x00'
p3082
tp3083
bsg136
I01
sg137
I1
sg138
I-1
sg139
(lp3084
g2871
((lp3085
(lp3086
g379
ag380
aa(lp3087
g364
ag365
aa(lp3088
g368
ag369
aa(lp3089
g366
ag367
aa(lp3090
g361
ag362
aatp3091
Rp3092
ag2871
((lp3093
(lp3094
g379
ag380
aa(lp3095
g364
ag399
aa(lp3096
g368
ag401
aa(lp3097
g366
ag400
aa(lp3098
g361
ag397
aatp3099
Rp3100
ag2871
((lp3101
(lp3102
g379
ag426
aa(lp3103
g364
ag420
aa(lp3104
g368
ag422
aa(lp3105
g366
ag421
aa(lp3106
g361
ag418
aatp3107
Rp3108
ag2871
((lp3109
(lp3110
g379
ag426
aa(lp3111
g364
ag442
aa(lp3112
g368
ag444
aa(lp3113
g366
ag443
aa(lp3114
g361
ag440
aatp3115
Rp3116
ag2871
((lp3117
(lp3118
g379
ag380
aa(lp3119
g364
ag463
aa(lp3120
g368
ag465
aa(lp3121
g366
ag464
aa(lp3122
g361
ag461
aatp3123
Rp3124
ag2871
((lp3125
(lp3126
g379
ag426
aa(lp3127
g364
ag484
aa(lp3128
g368
ag486
aa(lp3129
g366
ag485
aa(lp3130
g361
ag482
aatp3131
Rp3132
ag2871
((lp3133
(lp3134
g379
ag426
aa(lp3135
g364
ag505
aa(lp3136
g368
ag507
aa(lp3137
g366
ag506
aa(lp3138
g361
ag503
aatp3139
Rp3140
ag2871
((lp3141
(lp3142
g379
ag380
aa(lp3143
g364
ag526
aa(lp3144
g368
ag528
aa(lp3145
g366
ag527
aa(lp3146
g361
ag524
aatp3147
Rp3148
ag2871
((lp3149
(lp3150
g379
ag426
aa(lp3151
g364
ag547
aa(lp3152
g368
ag549
aa(lp3153
g366
ag548
aa(lp3154
g361
ag545
aatp3155
Rp3156
ag2871
((lp3157
(lp3158
g379
ag426
aa(lp3159
g364
ag568
aa(lp3160
g368
ag570
aa(lp3161
g366
ag569
aa(lp3162
g361
ag566
aatp3163
Rp3164
ag2871
((lp3165
(lp3166
g379
ag380
aa(lp3167
g364
ag589
aa(lp3168
g368
ag591
aa(lp3169
g366
ag590
aa(lp3170
g361
ag587
aatp3171
Rp3172
ag2871
((lp3173
(lp3174
g379
ag380
aa(lp3175
g364
ag610
aa(lp3176
g368
ag612
aa(lp3177
g366
ag611
aa(lp3178
g361
ag608
aatp3179
Rp3180
ag2871
((lp3181
(lp3182
g379
ag426
aa(lp3183
g364
ag631
aa(lp3184
g368
ag633
aa(lp3185
g366
ag632
aa(lp3186
g361
ag629
aatp3187
Rp3188
ag2871
((lp3189
(lp3190
g379
ag426
aa(lp3191
g364
ag652
aa(lp3192
g368
ag654
aa(lp3193
g366
ag653
aa(lp3194
g361
ag650
aatp3195
Rp3196
ag2871
((lp3197
(lp3198
g379
ag380
aa(lp3199
g364
ag673
aa(lp3200
g368
ag675
aa(lp3201
g366
ag674
aa(lp3202
g361
ag671
aatp3203
Rp3204
ag2871
((lp3205
(lp3206
g379
ag426
aa(lp3207
g364
ag694
aa(lp3208
g368
ag696
aa(lp3209
g366
ag695
aa(lp3210
g361
ag692
aatp3211
Rp3212
ag2871
((lp3213
(lp3214
g379
ag426
aa(lp3215
g364
ag715
aa(lp3216
g368
ag717
aa(lp3217
g366
ag716
aa(lp3218
g361
ag713
aatp3219
Rp3220
ag2871
((lp3221
(lp3222
g379
ag380
aa(lp3223
g364
ag736
aa(lp3224
g368
ag738
aa(lp3225
g366
ag737
aa(lp3226
g361
ag734
aatp3227
Rp3228
ag2871
((lp3229
(lp3230
g379
ag380
aa(lp3231
g364
ag757
aa(lp3232
g368
ag759
aa(lp3233
g366
ag758
aa(lp3234
g361
ag755
aatp3235
Rp3236
ag2871
((lp3237
(lp3238
g379
ag380
aa(lp3239
g364
ag778
aa(lp3240
g368
ag780
aa(lp3241
g366
ag779
aa(lp3242
g361
ag776
aatp3243
Rp3244
ag2871
((lp3245
(lp3246
g379
ag426
aa(lp3247
g364
ag799
aa(lp3248
g368
ag801
aa(lp3249
g366
ag800
aa(lp3250
g361
ag797
aatp3251
Rp3252
ag2871
((lp3253
(lp3254
g379
ag380
aa(lp3255
g364
ag820
aa(lp3256
g368
ag822
aa(lp3257
g366
ag821
aa(lp3258
g361
ag818
aatp3259
Rp3260
ag2871
((lp3261
(lp3262
g379
ag426
aa(lp3263
g364
ag841
aa(lp3264
g368
ag843
aa(lp3265
g366
ag842
aa(lp3266
g361
ag839
aatp3267
Rp3268
ag2871
((lp3269
(lp3270
g379
ag426
aa(lp3271
g364
ag862
aa(lp3272
g368
ag864
aa(lp3273
g366
ag863
aa(lp3274
g361
ag860
aatp3275
Rp3276
ag2871
((lp3277
(lp3278
g379
ag426
aa(lp3279
g364
ag883
aa(lp3280
g368
ag885
aa(lp3281
g366
ag884
aa(lp3282
g361
ag881
aatp3283
Rp3284
ag2871
((lp3285
(lp3286
g379
ag380
aa(lp3287
g364
ag904
aa(lp3288
g368
ag906
aa(lp3289
g366
ag905
aa(lp3290
g361
ag902
aatp3291
Rp3292
ag2871
((lp3293
(lp3294
g379
ag380
aa(lp3295
g364
ag925
aa(lp3296
g368
ag927
aa(lp3297
g366
ag926
aa(lp3298
g361
ag923
aatp3299
Rp3300
ag2871
((lp3301
(lp3302
g379
ag380
aa(lp3303
g364
ag946
aa(lp3304
g368
ag948
aa(lp3305
g366
ag947
aa(lp3306
g361
ag944
aatp3307
Rp3308
asg141
Nsg142
g962
sg146
I28
sg147
I0
sg148
I28
sbag0
(g52
g2
Ntp3309
Rp3310
(dp3311
g56
Nsg57
(lp3312
sg58
I360649680
sg11
g3045
sg6
I-1
sg60
I1
sg25
I01
sg26
g27
sg61
g0
(g62
g63
(dp3313
g65
g66
(g67
g68
g69
g70
tp3314
Rp3315
(I1
(I28
I1
tp3316
g76
I00
S'\x00\x00\x80?\x00\x00\x80?\x00\x00\x80?\x00\x00\x80?\x00\x00\x80?\x00\x00\x80?\x00\x00\x80?\x00\x00\x80?\x00\x00\x80?\x00\x00\x80?\x00\x00\x80?\x00\x00\x80?\x00\x00\x80?\x00\x00\x80?\x00\x00\x80?\x00\x00\x80?\x00\x00\x80?\x00\x00\x80?\x00\x00\x80?\x00\x00\x80?\x00\x00\x80?\x00\x00\x80?\x00\x00\x80?\x00\x00\x80?\x00\x00\x80?\x00\x00\x80?\x00\x00\x80?\x00\x00\x80?'
p3317
S'\x00\x00\x00\x00\x00\x00\x00\x00\x00\x00\x00\x00\x00\x00\x00\x00\x00\x00\x00\x00\x00\x00\x00\x00\x00\x00\x00\x00'
p3318
Ntp3319
bsg18
g66
(g67
g68
g69
g70
tp3320
Rp3321
(I1
(I28
I1
tp3322
g76
I00
S'L%\xc0@\x89j\xbc@\xa6\xd9\xd1@]\xe8\xc3@\xfd7\xc1@F*\xb9@z\x01\xbe@\x91\xff\xbd@;\x95\xb0@\x80\xd5\xee@/\x94\xb0@#\xb3\xcf@\xb2\xf4\xe1@\xe1\xbc\nA8{\xb6@\xd72\xde@\xd2\xc1\xde@UO\xbb@\x08\x05\xa8@\xac:\xd7@\xe6\xb7\xcf@\xbd\xf0\xb5@\xa3\xf6\x02A\t\xd2\xbb@\xc5\xce\xf5@\x1ep\x06A\x1c\x9f"A\xc3\xe2\xe0@'
p3323
S'\x00\x00\x00\x00\x00\x00\x00\x00\x00\x00\x00\x00\x00\x00\x00\x00\x00\x00\x00\x00\x00\x00\x00\x00\x00\x00\x00\x00'
p3324
Ntp3325
bsg105
g66
(g67
g68
g69
g70
tp3326
Rp3327
(I1
(I28
I1
tp3328
g76
I00
S'\x00\x00\x00\x00\x00\x00\x80?\x00\x00\x00@\x00\x00@@\x00\x00\x80@\x00\x00\xa0@\x00\x00\xc0@\x00\x00\xe0@\x00\x00\x00A\x00\x00\x10A\x00\x00 A\x00\x000A\x00\x00@A\x00\x00PA\x00\x00`A\x00\x00pA\x00\x00\x80A\x00\x00\x88A\x00\x00\x90A\x00\x00\x98A\x00\x00\xa0A\x00\x00\xa8A\x00\x00\xb0A\x00\x00\xb8A\x00\x00\xc0A\x00\x00\xc8A\x00\x00\xd0A\x00\x00\xd8A'
p3329
S'\x00\x00\x00\x00\x00\x00\x00\x00\x00\x00\x00\x00\x00\x00\x00\x00\x00\x00\x00\x00\x00\x00\x00\x00\x00\x00\x00\x00'
p3330
Ntp3331
bsg17
g88
(g68
(I0
tp3332
g70
tp3333
Rp3334
(I1
(I28
I1
tp3335
g95
I00
(lp3336
g1005
ag1026
ag1047
ag1069
ag1090
ag1111
ag1132
ag1153
ag1174
ag1195
ag1216
ag1237
ag1258
ag1279
ag1300
ag1321
ag1342
ag1363
ag1384
ag1405
ag1426
ag1447
ag1468
ag1489
ag1510
ag1531
ag1552
ag1573
atp3337
bstp3338
Rp3339
(dp3340
g115
(dp3341
g65
I01
sg18
I01
sg105
I01
sg17
I00
ssg117
g3310
sg118
(lp3342
g65
ag105
ag17
ag18
asg120
(lp3343
I28
aI1
asbsg122
g3077
sg124
g88
(g68
(I0
tp3344
g70
tp3345
Rp3346
(I1
(I28
I1
tp3347
g131
I00
S'\x00\x00\x00\x00\x01\x00\x00\x00\x02\x00\x00\x00\x03\x00\x00\x00\x04\x00\x00\x00\x05\x00\x00\x00\x06\x00\x00\x00\x07\x00\x00\x00\x08\x00\x00\x00\t\x00\x00\x00\n\x00\x00\x00\x0b\x00\x00\x00\x0c\x00\x00\x00\r\x00\x00\x00\x0e\x00\x00\x00\x0f\x00\x00\x00\x10\x00\x00\x00\x11\x00\x00\x00\x12\x00\x00\x00\x13\x00\x00\x00\x14\x00\x00\x00\x15\x00\x00\x00\x16\x00\x00\x00\x17\x00\x00\x00\x18\x00\x00\x00\x19\x00\x00\x00\x1a\x00\x00\x00\x1b\x00\x00\x00'
p3348
tp3349
bsg136
I01
sg137
I1
sg138
I-1
sg139
(lp3350
g2871
((lp3351
(lp3352
g995
ag996
aa(lp3353
g980
ag981
aa(lp3354
g984
ag985
aa(lp3355
g982
ag983
aa(lp3356
g977
ag978
aatp3357
Rp3358
ag2871
((lp3359
(lp3360
g995
ag996
aa(lp3361
g980
ag1015
aa(lp3362
g984
ag1017
aa(lp3363
g982
ag1016
aa(lp3364
g977
ag1013
aatp3365
Rp3366
ag2871
((lp3367
(lp3368
g995
ag996
aa(lp3369
g980
ag1036
aa(lp3370
g984
ag1038
aa(lp3371
g982
ag1037
aa(lp3372
g977
ag1034
aatp3373
Rp3374
ag2871
((lp3375
(lp3376
g995
ag1063
aa(lp3377
g980
ag1057
aa(lp3378
g984
ag1059
aa(lp3379
g982
ag1058
aa(lp3380
g977
ag1055
aatp3381
Rp3382
ag2871
((lp3383
(lp3384
g995
ag996
aa(lp3385
g980
ag1079
aa(lp3386
g984
ag1081
aa(lp3387
g982
ag1080
aa(lp3388
g977
ag1077
aatp3389
Rp3390
ag2871
((lp3391
(lp3392
g995
ag996
aa(lp3393
g980
ag1100
aa(lp3394
g984
ag1102
aa(lp3395
g982
ag1101
aa(lp3396
g977
ag1098
aatp3397
Rp3398
ag2871
((lp3399
(lp3400
g995
ag996
aa(lp3401
g980
ag1121
aa(lp3402
g984
ag1123
aa(lp3403
g982
ag1122
aa(lp3404
g977
ag1119
aatp3405
Rp3406
ag2871
((lp3407
(lp3408
g995
ag1063
aa(lp3409
g980
ag1142
aa(lp3410
g984
ag1144
aa(lp3411
g982
ag1143
aa(lp3412
g977
ag1140
aatp3413
Rp3414
ag2871
((lp3415
(lp3416
g995
ag1063
aa(lp3417
g980
ag1163
aa(lp3418
g984
ag1165
aa(lp3419
g982
ag1164
aa(lp3420
g977
ag1161
aatp3421
Rp3422
ag2871
((lp3423
(lp3424
g995
ag996
aa(lp3425
g980
ag1184
aa(lp3426
g984
ag1186
aa(lp3427
g982
ag1185
aa(lp3428
g977
ag1182
aatp3429
Rp3430
ag2871
((lp3431
(lp3432
g995
ag996
aa(lp3433
g980
ag1205
aa(lp3434
g984
ag1207
aa(lp3435
g982
ag1206
aa(lp3436
g977
ag1203
aatp3437
Rp3438
ag2871
((lp3439
(lp3440
g995
ag1063
aa(lp3441
g980
ag1226
aa(lp3442
g984
ag1228
aa(lp3443
g982
ag1227
aa(lp3444
g977
ag1224
aatp3445
Rp3446
ag2871
((lp3447
(lp3448
g995
ag996
aa(lp3449
g980
ag1247
aa(lp3450
g984
ag1249
aa(lp3451
g982
ag1248
aa(lp3452
g977
ag1245
aatp3453
Rp3454
ag2871
((lp3455
(lp3456
g995
ag1063
aa(lp3457
g980
ag1268
aa(lp3458
g984
ag1270
aa(lp3459
g982
ag1269
aa(lp3460
g977
ag1266
aatp3461
Rp3462
ag2871
((lp3463
(lp3464
g995
ag1063
aa(lp3465
g980
ag1289
aa(lp3466
g984
ag1291
aa(lp3467
g982
ag1290
aa(lp3468
g977
ag1287
aatp3469
Rp3470
ag2871
((lp3471
(lp3472
g995
ag996
aa(lp3473
g980
ag1310
aa(lp3474
g984
ag1312
aa(lp3475
g982
ag1311
aa(lp3476
g977
ag1308
aatp3477
Rp3478
ag2871
((lp3479
(lp3480
g995
ag996
aa(lp3481
g980
ag1331
aa(lp3482
g984
ag1333
aa(lp3483
g982
ag1332
aa(lp3484
g977
ag1329
aatp3485
Rp3486
ag2871
((lp3487
(lp3488
g995
ag1063
aa(lp3489
g980
ag1352
aa(lp3490
g984
ag1354
aa(lp3491
g982
ag1353
aa(lp3492
g977
ag1350
aatp3493
Rp3494
ag2871
((lp3495
(lp3496
g995
ag1063
aa(lp3497
g980
ag1373
aa(lp3498
g984
ag1375
aa(lp3499
g982
ag1374
aa(lp3500
g977
ag1371
aatp3501
Rp3502
ag2871
((lp3503
(lp3504
g995
ag996
aa(lp3505
g980
ag1394
aa(lp3506
g984
ag1396
aa(lp3507
g982
ag1395
aa(lp3508
g977
ag1392
aatp3509
Rp3510
ag2871
((lp3511
(lp3512
g995
ag1063
aa(lp3513
g980
ag1415
aa(lp3514
g984
ag1417
aa(lp3515
g982
ag1416
aa(lp3516
g977
ag1413
aatp3517
Rp3518
ag2871
((lp3519
(lp3520
g995
ag1063
aa(lp3521
g980
ag1436
aa(lp3522
g984
ag1438
aa(lp3523
g982
ag1437
aa(lp3524
g977
ag1434
aatp3525
Rp3526
ag2871
((lp3527
(lp3528
g995
ag1063
aa(lp3529
g980
ag1457
aa(lp3530
g984
ag1459
aa(lp3531
g982
ag1458
aa(lp3532
g977
ag1455
aatp3533
Rp3534
ag2871
((lp3535
(lp3536
g995
ag996
aa(lp3537
g980
ag1478
aa(lp3538
g984
ag1480
aa(lp3539
g982
ag1479
aa(lp3540
g977
ag1476
aatp3541
Rp3542
ag2871
((lp3543
(lp3544
g995
ag996
aa(lp3545
g980
ag1499
aa(lp3546
g984
ag1501
aa(lp3547
g982
ag1500
aa(lp3548
g977
ag1497
aatp3549
Rp3550
ag2871
((lp3551
(lp3552
g995
ag1063
aa(lp3553
g980
ag1520
aa(lp3554
g984
ag1522
aa(lp3555
g982
ag1521
aa(lp3556
g977
ag1518
aatp3557
Rp3558
ag2871
((lp3559
(lp3560
g995
ag1063
aa(lp3561
g980
ag1541
aa(lp3562
g984
ag1543
aa(lp3563
g982
ag1542
aa(lp3564
g977
ag1539
aatp3565
Rp3566
ag2871
((lp3567
(lp3568
g995
ag1063
aa(lp3569
g980
ag1562
aa(lp3570
g984
ag1564
aa(lp3571
g982
ag1563
aa(lp3572
g977
ag1560
aatp3573
Rp3574
asg141
Nsg142
g1578
sg146
I28
sg147
I0
sg148
I28
sbag0
(g52
g2
Ntp3575
Rp3576
(dp3577
g56
Nsg57
(lp3578
sg58
I360649680
sg11
g3045
sg6
I-1
sg60
I1
sg25
I01
sg26
g27
sg61
g0
(g62
g63
(dp3579
g65
g66
(g67
g68
g69
g70
tp3580
Rp3581
(I1
(I28
I1
tp3582
g76
I00
S'\x00\x00\x80?\x00\x00\x80?\x00\x00\x80?\x00\x00\x80?\x00\x00\x80?\x00\x00\x80?\x00\x00\x80?\x00\x00\x80?\x00\x00\x80?\x00\x00\x80?\x00\x00\x80?\x00\x00\x80?\x00\x00\x80?\x00\x00\x80?\x00\x00\x80?\x00\x00\x80?\x00\x00\x80?\x00\x00\x80?\x00\x00\x80?\x00\x00\x80?\x00\x00\x80?\x00\x00\x80?\x00\x00\x80?\x00\x00\x80?\x00\x00\x80?\x00\x00\x80?\x00\x00\x80?\x00\x00\x80?'
p3583
S'\x00\x00\x00\x00\x00\x00\x00\x00\x00\x00\x00\x00\x00\x00\x00\x00\x00\x00\x00\x00\x00\x00\x00\x00\x00\x00\x00\x00'
p3584
Ntp3585
bsg18
g66
(g67
g68
g69
g70
tp3586
Rp3587
(I1
(I28
I1
tp3588
g76
I00
S'\xe35\xc1@\x822\xb2@<\xeb\xa6@\xec\xc6\xd0@\x96\x12\xd5@t\x96\xc6@\xe0B\xb3@\xcf\xf8\xc4@/q\xda@5\xe7\x9e@\x1a|\xd3@\x92\xfd\xa7@\x15\xec\xbc@\xd8\xa5\xbf@\x1d\x1b\x10A\xae\n\xcd@>\t\xa1@\xbd?\xba@\xf1\xcc\xc9@?\xf6\xc4@[o\xf0@Db\xc3@?=\xba@\xf8\x12\xd5@:\xdb\xe7@\xf1\xfa\xda@\x0b\x94\xb0@\xa0\x9a\xbf@'
p3589
S'\x00\x00\x00\x00\x00\x00\x00\x00\x00\x00\x00\x00\x00\x00\x00\x00\x00\x00\x00\x00\x00\x00\x00\x00\x00\x00\x00\x00'
p3590
Ntp3591
bsg105
g66
(g67
g68
g69
g70
tp3592
Rp3593
(I1
(I28
I1
tp3594
g76
I00
S'\x00\x00\x00\x00\x00\x00\x80?\x00\x00\x00@\x00\x00@@\x00\x00\x80@\x00\x00\xa0@\x00\x00\xc0@\x00\x00\xe0@\x00\x00\x00A\x00\x00\x10A\x00\x00 A\x00\x000A\x00\x00@A\x00\x00PA\x00\x00`A\x00\x00pA\x00\x00\x80A\x00\x00\x88A\x00\x00\x90A\x00\x00\x98A\x00\x00\xa0A\x00\x00\xa8A\x00\x00\xb0A\x00\x00\xb8A\x00\x00\xc0A\x00\x00\xc8A\x00\x00\xd0A\x00\x00\xd8A'
p3595
S'\x00\x00\x00\x00\x00\x00\x00\x00\x00\x00\x00\x00\x00\x00\x00\x00\x00\x00\x00\x00\x00\x00\x00\x00\x00\x00\x00\x00'
p3596
Ntp3597
bsg17
g88
(g68
(I0
tp3598
g70
tp3599
Rp3600
(I1
(I28
I1
tp3601
g95
I00
(lp3602
g1621
ag1642
ag1664
ag1685
ag1706
ag1727
ag1748
ag1769
ag1790
ag1811
ag1832
ag1853
ag1874
ag1895
ag1916
ag1937
ag1958
ag1979
ag2000
ag2021
ag2042
ag2063
ag2084
ag2105
ag2126
ag2147
ag2168
ag2189
atp3603
bstp3604
Rp3605
(dp3606
g115
(dp3607
g65
I01
sg18
I01
sg105
I01
sg17
I00
ssg117
g3576
sg118
(lp3608
g65
ag105
ag17
ag18
asg120
(lp3609
I28
aI1
asbsg122
g3077
sg124
g88
(g68
(I0
tp3610
g70
tp3611
Rp3612
(I1
(I28
I1
tp3613
g131
I00
S'\x00\x00\x00\x00\x01\x00\x00\x00\x02\x00\x00\x00\x03\x00\x00\x00\x04\x00\x00\x00\x05\x00\x00\x00\x06\x00\x00\x00\x07\x00\x00\x00\x08\x00\x00\x00\t\x00\x00\x00\n\x00\x00\x00\x0b\x00\x00\x00\x0c\x00\x00\x00\r\x00\x00\x00\x0e\x00\x00\x00\x0f\x00\x00\x00\x10\x00\x00\x00\x11\x00\x00\x00\x12\x00\x00\x00\x13\x00\x00\x00\x14\x00\x00\x00\x15\x00\x00\x00\x16\x00\x00\x00\x17\x00\x00\x00\x18\x00\x00\x00\x19\x00\x00\x00\x1a\x00\x00\x00\x1b\x00\x00\x00'
p3614
tp3615
bsg136
I01
sg137
I1
sg138
I-1
sg139
(lp3616
g2871
((lp3617
(lp3618
g1611
ag1612
aa(lp3619
g1596
ag1597
aa(lp3620
g1600
ag1601
aa(lp3621
g1598
ag1599
aa(lp3622
g1593
ag1594
aatp3623
Rp3624
ag2871
((lp3625
(lp3626
g1611
ag1612
aa(lp3627
g1596
ag1631
aa(lp3628
g1600
ag1633
aa(lp3629
g1598
ag1632
aa(lp3630
g1593
ag1629
aatp3631
Rp3632
ag2871
((lp3633
(lp3634
g1611
ag1658
aa(lp3635
g1596
ag1652
aa(lp3636
g1600
ag1654
aa(lp3637
g1598
ag1653
aa(lp3638
g1593
ag1650
aatp3639
Rp3640
ag2871
((lp3641
(lp3642
g1611
ag1612
aa(lp3643
g1596
ag1674
aa(lp3644
g1600
ag1676
aa(lp3645
g1598
ag1675
aa(lp3646
g1593
ag1672
aatp3647
Rp3648
ag2871
((lp3649
(lp3650
g1611
ag1658
aa(lp3651
g1596
ag1695
aa(lp3652
g1600
ag1697
aa(lp3653
g1598
ag1696
aa(lp3654
g1593
ag1693
aatp3655
Rp3656
ag2871
((lp3657
(lp3658
g1611
ag1612
aa(lp3659
g1596
ag1716
aa(lp3660
g1600
ag1718
aa(lp3661
g1598
ag1717
aa(lp3662
g1593
ag1714
aatp3663
Rp3664
ag2871
((lp3665
(lp3666
g1611
ag1658
aa(lp3667
g1596
ag1737
aa(lp3668
g1600
ag1739
aa(lp3669
g1598
ag1738
aa(lp3670
g1593
ag1735
aatp3671
Rp3672
ag2871
((lp3673
(lp3674
g1611
ag1658
aa(lp3675
g1596
ag1758
aa(lp3676
g1600
ag1760
aa(lp3677
g1598
ag1759
aa(lp3678
g1593
ag1756
aatp3679
Rp3680
ag2871
((lp3681
(lp3682
g1611
ag1612
aa(lp3683
g1596
ag1779
aa(lp3684
g1600
ag1781
aa(lp3685
g1598
ag1780
aa(lp3686
g1593
ag1777
aatp3687
Rp3688
ag2871
((lp3689
(lp3690
g1611
ag1658
aa(lp3691
g1596
ag1800
aa(lp3692
g1600
ag1802
aa(lp3693
g1598
ag1801
aa(lp3694
g1593
ag1798
aatp3695
Rp3696
ag2871
((lp3697
(lp3698
g1611
ag1612
aa(lp3699
g1596
ag1821
aa(lp3700
g1600
ag1823
aa(lp3701
g1598
ag1822
aa(lp3702
g1593
ag1819
aatp3703
Rp3704
ag2871
((lp3705
(lp3706
g1611
ag1658
aa(lp3707
g1596
ag1842
aa(lp3708
g1600
ag1844
aa(lp3709
g1598
ag1843
aa(lp3710
g1593
ag1840
aatp3711
Rp3712
ag2871
((lp3713
(lp3714
g1611
ag1658
aa(lp3715
g1596
ag1863
aa(lp3716
g1600
ag1865
aa(lp3717
g1598
ag1864
aa(lp3718
g1593
ag1861
aatp3719
Rp3720
ag2871
((lp3721
(lp3722
g1611
ag1612
aa(lp3723
g1596
ag1884
aa(lp3724
g1600
ag1886
aa(lp3725
g1598
ag1885
aa(lp3726
g1593
ag1882
aatp3727
Rp3728
ag2871
((lp3729
(lp3730
g1611
ag1658
aa(lp3731
g1596
ag1905
aa(lp3732
g1600
ag1907
aa(lp3733
g1598
ag1906
aa(lp3734
g1593
ag1903
aatp3735
Rp3736
ag2871
((lp3737
(lp3738
g1611
ag1658
aa(lp3739
g1596
ag1926
aa(lp3740
g1600
ag1928
aa(lp3741
g1598
ag1927
aa(lp3742
g1593
ag1924
aatp3743
Rp3744
ag2871
((lp3745
(lp3746
g1611
ag1658
aa(lp3747
g1596
ag1947
aa(lp3748
g1600
ag1949
aa(lp3749
g1598
ag1948
aa(lp3750
g1593
ag1945
aatp3751
Rp3752
ag2871
((lp3753
(lp3754
g1611
ag1612
aa(lp3755
g1596
ag1968
aa(lp3756
g1600
ag1970
aa(lp3757
g1598
ag1969
aa(lp3758
g1593
ag1966
aatp3759
Rp3760
ag2871
((lp3761
(lp3762
g1611
ag1658
aa(lp3763
g1596
ag1989
aa(lp3764
g1600
ag1991
aa(lp3765
g1598
ag1990
aa(lp3766
g1593
ag1987
aatp3767
Rp3768
ag2871
((lp3769
(lp3770
g1611
ag1658
aa(lp3771
g1596
ag2010
aa(lp3772
g1600
ag2012
aa(lp3773
g1598
ag2011
aa(lp3774
g1593
ag2008
aatp3775
Rp3776
ag2871
((lp3777
(lp3778
g1611
ag1658
aa(lp3779
g1596
ag2031
aa(lp3780
g1600
ag2033
aa(lp3781
g1598
ag2032
aa(lp3782
g1593
ag2029
aatp3783
Rp3784
ag2871
((lp3785
(lp3786
g1611
ag1612
aa(lp3787
g1596
ag2052
aa(lp3788
g1600
ag2054
aa(lp3789
g1598
ag2053
aa(lp3790
g1593
ag2050
aatp3791
Rp3792
ag2871
((lp3793
(lp3794
g1611
ag1612
aa(lp3795
g1596
ag2073
aa(lp3796
g1600
ag2075
aa(lp3797
g1598
ag2074
aa(lp3798
g1593
ag2071
aatp3799
Rp3800
ag2871
((lp3801
(lp3802
g1611
ag1612
aa(lp3803
g1596
ag2094
aa(lp3804
g1600
ag2096
aa(lp3805
g1598
ag2095
aa(lp3806
g1593
ag2092
aatp3807
Rp3808
ag2871
((lp3809
(lp3810
g1611
ag1658
aa(lp3811
g1596
ag2115
aa(lp3812
g1600
ag2117
aa(lp3813
g1598
ag2116
aa(lp3814
g1593
ag2113
aatp3815
Rp3816
ag2871
((lp3817
(lp3818
g1611
ag1612
aa(lp3819
g1596
ag2136
aa(lp3820
g1600
ag2138
aa(lp3821
g1598
ag2137
aa(lp3822
g1593
ag2134
aatp3823
Rp3824
ag2871
((lp3825
(lp3826
g1611
ag1612
aa(lp3827
g1596
ag2157
aa(lp3828
g1600
ag2159
aa(lp3829
g1598
ag2158
aa(lp3830
g1593
ag2155
aatp3831
Rp3832
ag2871
((lp3833
(lp3834
g1611
ag1612
aa(lp3835
g1596
ag2178
aa(lp3836
g1600
ag2180
aa(lp3837
g1598
ag2179
aa(lp3838
g1593
ag2176
aatp3839
Rp3840
asg141
Nsg142
g2194
sg146
I28
sg147
I0
sg148
I28
sbag0
(g52
g2
Ntp3841
Rp3842
(dp3843
g56
Nsg57
(lp3844
sg58
I360649680
sg11
g3045
sg6
I-1
sg60
I1
sg25
I01
sg26
g27
sg61
g0
(g62
g63
(dp3845
g65
g66
(g67
g68
g69
g70
tp3846
Rp3847
(I1
(I28
I1
tp3848
g76
I00
S'\x00\x00\x80?\x00\x00\x80?\x00\x00\x80?\x00\x00\x80?\x00\x00\x80?\x00\x00\x80?\x00\x00\x80?\x00\x00\x80?\x00\x00\x80?\x00\x00\x80?\x00\x00\x80?\x00\x00\x80?\x00\x00\x80?\x00\x00\x80?\x00\x00\x80?\x00\x00\x80?\x00\x00\x80?\x00\x00\x80?\x00\x00\x80?\x00\x00\x80?\x00\x00\x80?\x00\x00\x80?\x00\x00\x80?\x00\x00\x80?\x00\x00\x80?\x00\x00\x80?\x00\x00\x80?\x00\x00\x80?'
p3849
S'\x00\x00\x00\x00\x00\x00\x00\x00\x00\x00\x00\x00\x00\x00\x00\x00\x00\x00\x00\x00\x00\x00\x00\x00\x00\x00\x00\x00'
p3850
Ntp3851
bsg18
g66
(g67
g68
g69
g70
tp3852
Rp3853
(I1
(I28
I1
tp3854
g76
I00
S'\xe2\x10\xa9@\r\xea\xbc@\x8e\x7f\xe2@Az\xbd@7\x1f\xc7@\x08\xd9\xbb@\x1a\xc7\xba@\xe7\xfe\xbd@\x07\x17\xeb@\xcdd\xcb@U\xd3\xbb@3\x18\xce@i\xce\xf5@9\x84\xdb@\x8c\xc1\xc1@\xadk\rAt\x9b\xd5@\x0fk\xe1@\xa0\x8e\xb7@\x9d\xc0\xc1@\xfb\xe0\xe0@\xa7~\xcc@\xc0\x82\xa8@O\xdc\xbb@>\xd6\xee@\x18\xf2\xcb@\xfbc\xd2@V\xcc\xb3@'
p3855
S'\x00\x00\x00\x00\x00\x00\x00\x00\x00\x00\x00\x00\x00\x00\x00\x00\x00\x00\x00\x00\x00\x00\x00\x00\x00\x00\x00\x00'
p3856
Ntp3857
bsg105
g66
(g67
g68
g69
g70
tp3858
Rp3859
(I1
(I28
I1
tp3860
g76
I00
S'\x00\x00\x00\x00\x00\x00\x80?\x00\x00\x00@\x00\x00@@\x00\x00\x80@\x00\x00\xa0@\x00\x00\xc0@\x00\x00\xe0@\x00\x00\x00A\x00\x00\x10A\x00\x00 A\x00\x000A\x00\x00@A\x00\x00PA\x00\x00`A\x00\x00pA\x00\x00\x80A\x00\x00\x88A\x00\x00\x90A\x00\x00\x98A\x00\x00\xa0A\x00\x00\xa8A\x00\x00\xb0A\x00\x00\xb8A\x00\x00\xc0A\x00\x00\xc8A\x00\x00\xd0A\x00\x00\xd8A'
p3861
S'\x00\x00\x00\x00\x00\x00\x00\x00\x00\x00\x00\x00\x00\x00\x00\x00\x00\x00\x00\x00\x00\x00\x00\x00\x00\x00\x00\x00'
p3862
Ntp3863
bsg17
g88
(g68
(I0
tp3864
g70
tp3865
Rp3866
(I1
(I28
I1
tp3867
g95
I00
(lp3868
g2237
ag2258
ag2280
ag2301
ag2322
ag2343
ag2364
ag2385
ag2406
ag2427
ag2448
ag2469
ag2490
ag2511
ag2532
ag2553
ag2574
ag2595
ag2616
ag2637
ag2658
ag2679
ag2700
ag2721
ag2742
ag2763
ag2784
ag2805
atp3869
bstp3870
Rp3871
(dp3872
g115
(dp3873
g65
I01
sg18
I01
sg105
I01
sg17
I00
ssg117
g3842
sg118
(lp3874
g65
ag105
ag17
ag18
asg120
(lp3875
I28
aI1
asbsg122
g3077
sg124
g88
(g68
(I0
tp3876
g70
tp3877
Rp3878
(I1
(I28
I1
tp3879
g131
I00
S'\x00\x00\x00\x00\x01\x00\x00\x00\x02\x00\x00\x00\x03\x00\x00\x00\x04\x00\x00\x00\x05\x00\x00\x00\x06\x00\x00\x00\x07\x00\x00\x00\x08\x00\x00\x00\t\x00\x00\x00\n\x00\x00\x00\x0b\x00\x00\x00\x0c\x00\x00\x00\r\x00\x00\x00\x0e\x00\x00\x00\x0f\x00\x00\x00\x10\x00\x00\x00\x11\x00\x00\x00\x12\x00\x00\x00\x13\x00\x00\x00\x14\x00\x00\x00\x15\x00\x00\x00\x16\x00\x00\x00\x17\x00\x00\x00\x18\x00\x00\x00\x19\x00\x00\x00\x1a\x00\x00\x00\x1b\x00\x00\x00'
p3880
tp3881
bsg136
I01
sg137
I1
sg138
I-1
sg139
(lp3882
g2871
((lp3883
(lp3884
g2227
ag2228
aa(lp3885
g2212
ag2213
aa(lp3886
g2216
ag2217
aa(lp3887
g2214
ag2215
aa(lp3888
g2209
ag2210
aatp3889
Rp3890
ag2871
((lp3891
(lp3892
g2227
ag2228
aa(lp3893
g2212
ag2247
aa(lp3894
g2216
ag2249
aa(lp3895
g2214
ag2248
aa(lp3896
g2209
ag2245
aatp3897
Rp3898
ag2871
((lp3899
(lp3900
g2227
ag2274
aa(lp3901
g2212
ag2268
aa(lp3902
g2216
ag2270
aa(lp3903
g2214
ag2269
aa(lp3904
g2209
ag2266
aatp3905
Rp3906
ag2871
((lp3907
(lp3908
g2227
ag2274
aa(lp3909
g2212
ag2290
aa(lp3910
g2216
ag2292
aa(lp3911
g2214
ag2291
aa(lp3912
g2209
ag2288
aatp3913
Rp3914
ag2871
((lp3915
(lp3916
g2227
ag2228
aa(lp3917
g2212
ag2311
aa(lp3918
g2216
ag2313
aa(lp3919
g2214
ag2312
aa(lp3920
g2209
ag2309
aatp3921
Rp3922
ag2871
((lp3923
(lp3924
g2227
ag2274
aa(lp3925
g2212
ag2332
aa(lp3926
g2216
ag2334
aa(lp3927
g2214
ag2333
aa(lp3928
g2209
ag2330
aatp3929
Rp3930
ag2871
((lp3931
(lp3932
g2227
ag2274
aa(lp3933
g2212
ag2353
aa(lp3934
g2216
ag2355
aa(lp3935
g2214
ag2354
aa(lp3936
g2209
ag2351
aatp3937
Rp3938
ag2871
((lp3939
(lp3940
g2227
ag2228
aa(lp3941
g2212
ag2374
aa(lp3942
g2216
ag2376
aa(lp3943
g2214
ag2375
aa(lp3944
g2209
ag2372
aatp3945
Rp3946
ag2871
((lp3947
(lp3948
g2227
ag2228
aa(lp3949
g2212
ag2395
aa(lp3950
g2216
ag2397
aa(lp3951
g2214
ag2396
aa(lp3952
g2209
ag2393
aatp3953
Rp3954
ag2871
((lp3955
(lp3956
g2227
ag2274
aa(lp3957
g2212
ag2416
aa(lp3958
g2216
ag2418
aa(lp3959
g2214
ag2417
aa(lp3960
g2209
ag2414
aatp3961
Rp3962
ag2871
((lp3963
(lp3964
g2227
ag2228
aa(lp3965
g2212
ag2437
aa(lp3966
g2216
ag2439
aa(lp3967
g2214
ag2438
aa(lp3968
g2209
ag2435
aatp3969
Rp3970
ag2871
((lp3971
(lp3972
g2227
ag2228
aa(lp3973
g2212
ag2458
aa(lp3974
g2216
ag2460
aa(lp3975
g2214
ag2459
aa(lp3976
g2209
ag2456
aatp3977
Rp3978
ag2871
((lp3979
(lp3980
g2227
ag2274
aa(lp3981
g2212
ag2479
aa(lp3982
g2216
ag2481
aa(lp3983
g2214
ag2480
aa(lp3984
g2209
ag2477
aatp3985
Rp3986
ag2871
((lp3987
(lp3988
g2227
ag2274
aa(lp3989
g2212
ag2500
aa(lp3990
g2216
ag2502
aa(lp3991
g2214
ag2501
aa(lp3992
g2209
ag2498
aatp3993
Rp3994
ag2871
((lp3995
(lp3996
g2227
ag2228
aa(lp3997
g2212
ag2521
aa(lp3998
g2216
ag2523
aa(lp3999
g2214
ag2522
aa(lp4000
g2209
ag2519
aatp4001
Rp4002
ag2871
((lp4003
(lp4004
g2227
ag2228
aa(lp4005
g2212
ag2542
aa(lp4006
g2216
ag2544
aa(lp4007
g2214
ag2543
aa(lp4008
g2209
ag2540
aatp4009
Rp4010
ag2871
((lp4011
(lp4012
g2227
ag2274
aa(lp4013
g2212
ag2563
aa(lp4014
g2216
ag2565
aa(lp4015
g2214
ag2564
aa(lp4016
g2209
ag2561
aatp4017
Rp4018
ag2871
((lp4019
(lp4020
g2227
ag2274
aa(lp4021
g2212
ag2584
aa(lp4022
g2216
ag2586
aa(lp4023
g2214
ag2585
aa(lp4024
g2209
ag2582
aatp4025
Rp4026
ag2871
((lp4027
(lp4028
g2227
ag2228
aa(lp4029
g2212
ag2605
aa(lp4030
g2216
ag2607
aa(lp4031
g2214
ag2606
aa(lp4032
g2209
ag2603
aatp4033
Rp4034
ag2871
((lp4035
(lp4036
g2227
ag2228
aa(lp4037
g2212
ag2626
aa(lp4038
g2216
ag2628
aa(lp4039
g2214
ag2627
aa(lp4040
g2209
ag2624
aatp4041
Rp4042
ag2871
((lp4043
(lp4044
g2227
ag2228
aa(lp4045
g2212
ag2647
aa(lp4046
g2216
ag2649
aa(lp4047
g2214
ag2648
aa(lp4048
g2209
ag2645
aatp4049
Rp4050
ag2871
((lp4051
(lp4052
g2227
ag2274
aa(lp4053
g2212
ag2668
aa(lp4054
g2216
ag2670
aa(lp4055
g2214
ag2669
aa(lp4056
g2209
ag2666
aatp4057
Rp4058
ag2871
((lp4059
(lp4060
g2227
ag2274
aa(lp4061
g2212
ag2689
aa(lp4062
g2216
ag2691
aa(lp4063
g2214
ag2690
aa(lp4064
g2209
ag2687
aatp4065
Rp4066
ag2871
((lp4067
(lp4068
g2227
ag2228
aa(lp4069
g2212
ag2710
aa(lp4070
g2216
ag2712
aa(lp4071
g2214
ag2711
aa(lp4072
g2209
ag2708
aatp4073
Rp4074
ag2871
((lp4075
(lp4076
g2227
ag2228
aa(lp4077
g2212
ag2731
aa(lp4078
g2216
ag2733
aa(lp4079
g2214
ag2732
aa(lp4080
g2209
ag2729
aatp4081
Rp4082
ag2871
((lp4083
(lp4084
g2227
ag2274
aa(lp4085
g2212
ag2752
aa(lp4086
g2216
ag2754
aa(lp4087
g2214
ag2753
aa(lp4088
g2209
ag2750
aatp4089
Rp4090
ag2871
((lp4091
(lp4092
g2227
ag2274
aa(lp4093
g2212
ag2773
aa(lp4094
g2216
ag2775
aa(lp4095
g2214
ag2774
aa(lp4096
g2209
ag2771
aatp4097
Rp4098
ag2871
((lp4099
(lp4100
g2227
ag2274
aa(lp4101
g2212
ag2794
aa(lp4102
g2216
ag2796
aa(lp4103
g2214
ag2795
aa(lp4104
g2209
ag2792
aatp4105
Rp4106
asg141
Nsg142
g2810
sg146
I28
sg147
I0
sg148
I28
sbasS'savePickle'
p4107
I00
sb.