ccopy_reg
_reconstructor
p0
(cpsychopy.data.experiment
ExperimentHandler
p1
c__builtin__
object
p2
Ntp3
Rp4
(dp5
S'originPath'
p6
VC:\u005cUsers\u005cadmin\u005cDocuments\u005cgit-repos\u005cpia\u005cPia_2018_replication_sheb-pulv2013-master\u005cexp-scripts_psychopy\u005cpilot\u005csheb_replic_pilot_control.psyexp
p7
sS'dataFileName'
p8
VC:\u005cUsers\u005cadmin\u005cDocuments\u005cgit-repos\u005cpia\u005cPia_2018_replication_sheb-pulv2013-master\u005cexp-scripts_psychopy\u005cpilot\u005cdata/905_sheb_replic_pilot_control_2018_Jun_13_1257
p9
sS'runtimeInfo'
p10
NsS'name'
p11
S'sheb_replic_pilot_control'
p12
sS'dataNames'
p13
(lp14
S'key_resp_6.keys'
p15
aS'key_resp_6.rt'
p16
aS'key_resp_2.keys'
p17
aS'key_resp_2.rt'
p18
aS'key_resp_8.keys'
p19
aS'key_resp_8.rt'
p20
aS'key_resp_7.keys'
p21
aS'key_resp_7.rt'
p22
aS'key_resp_3.keys'
p23
aS'key_resp_3.rt'
p24
asS'autoLog'
p25
I01
sS'extraInfo'
p26
(dp27
S'date'
p28
V2018_Jun_13_1257
p29
sS'frameRate'
p30
cnumpy.core.multiarray
scalar
p31
(cnumpy
dtype
p32
(S'f8'
p33
I0
I1
tp34
Rp35
(I3
S'<'
p36
NNNI-1
I-1
I0
tp37
bS'=X\x02\x0e#\x92M@'
p38
tp39
Rp40
sS'expName'
p41
g12
sVsession
p42
V001
p43
sVparticipant
p44
g0
(cfuture.types.newstr
newstr
p45
c__builtin__
unicode
p46
V905
p47
tp48
Rp49
ssS'loopsUnfinished'
p50
(lp51
g0
(cpsychopy.data.trial
TrialHandler
p52
g2
Ntp53
Rp54
(dp55
S'origin'
p56
NsS'thisTrial'
p57
NsS'_exp'
p58
I369040976
sg11
S'training_block'
p59
sg6
I-1
sS'thisRepN'
p60
I0
sg25
I01
sg26
g27
sS'data'
p61
g0
(cpsychopy.data.base
DataHandler
p62
c__builtin__
dict
p63
(dp64
S'ran'
p65
cnumpy.ma.core
_mareconstruct
p66
(cnumpy.ma.core
MaskedArray
p67
cnumpy
ndarray
p68
(I0
tp69
S'b'
p70
tp71
Rp72
(I1
(I1
I5
tp73
g32
(S'f4'
p74
I0
I1
tp75
Rp76
(I3
S'<'
p77
NNNI-1
I-1
I0
tp78
bI00
S'\x00\x00\x80?\x00\x00\x00\x00\x00\x00\x00\x00\x00\x00\x00\x00\x00\x00\x00\x00'
p79
S'\x00\x00\x00\x00\x00'
p80
Ntp81
bsg20
g66
(g67
g68
g69
g70
tp82
Rp83
(I1
(I1
I5
tp84
g76
I00
S'<\xfc\xf0@\x00\x00\x00\x00\x00\x00\x00\x00\x00\x00\x00\x00\x00\x00\x00\x00'
p85
S'\x00\x01\x01\x01\x01'
p86
Ntp87
bsg19
cnumpy.core.multiarray
_reconstruct
p88
(g68
(I0
tp89
g70
tp90
Rp91
(I1
(I1
I5
tp92
g32
(S'O4'
p93
I0
I1
tp94
Rp95
(I3
S'|'
p96
NNNI-1
I-1
I63
tp97
bI00
(lp98
S's'
p99
aS'--'
p100
aS'--'
p101
aS'--'
p102
aS'--'
p103
atp104
bsS'order'
p105
g66
(g67
g68
g69
g70
tp106
Rp107
(I1
(I1
I5
tp108
g76
I00
S'\x00\x00\x00\x00\x00\x00\x00\x00\x00\x00\x00\x00\x00\x00\x00\x00\x00\x00\x00\x00'
p109
S'\x00\x01\x01\x01\x01'
p110
Ntp111
bstp112
Rp113
(dp114
S'isNumeric'
p115
(dp116
g65
I01
sg20
I01
sg19
I00
sg105
I01
ssS'trials'
p117
g54
sS'dataTypes'
p118
(lp119
g65
ag105
ag19
ag20
asS'dataShape'
p120
(lp121
I1
aI5
asbsS'method'
p122
S'random'
p123
sS'sequenceIndices'
p124
g88
(g68
(I0
tp125
g70
tp126
Rp127
(I1
(I1
I5
tp128
g32
(S'i4'
p129
I0
I1
tp130
Rp131
(I3
S'<'
p132
NNNI-1
I-1
I0
tp133
bI00
S'\x00\x00\x00\x00\x00\x00\x00\x00\x00\x00\x00\x00\x00\x00\x00\x00\x00\x00\x00\x00'
p134
tp135
bsS'finished'
p136
I00
sS'nReps'
p137
I5
sS'nRemaining'
p138
I4
sS'trialList'
p139
(lp140
NasS'seed'
p141
NsS'thisIndex'
p142
g31
(g131
S'\x00\x00\x00\x00'
p143
tp144
Rp145
sS'thisN'
p146
I0
sS'thisTrialN'
p147
I0
sS'nTotal'
p148
I5
sbasS'saveWideText'
p149
I00
sS'thisEntry'
p150
(dp151
sS'version'
p152
S''
p153
sS'_paramNamesSoFar'
p154
(lp155
S'item'
p156
aS'type'
p157
aS'word1'
p158
aS'word2'
p159
aS'word3'
p160
aS'word4'
p161
aS'word_duration'
p162
aS'follow_blank'
p163
aS'SOA'
p164
asS'entries'
p165
(lp166
(dp167
g42
g43
sg41
g12
sg44
g49
sg28
g29
sg15
S'space'
p168
sg30
g40
sg16
F3.556091628581271
sa(dp169
S'training_block.thisRepN'
p170
I0
sg18
F25.4245512665766
sS'training_block.thisN'
p171
I0
sS'word_presentation_training.thisTrialN'
p172
I0
sg42
g43
sg161
Vsigh
p173
sS'word_presentation_training.thisRepN'
p174
I0
sg44
g49
sg30
g40
sS'training_block.thisTrialN'
p175
I0
sg17
S'space'
p176
sg156
g31
(g32
(S'i8'
p177
I0
I1
tp178
Rp179
(I3
S'<'
p180
NNNI-1
I-1
I0
tp181
bS'\x01\x00\x00\x00\x00\x00\x00\x00'
p182
tp183
Rp184
sg41
g12
sg158
Vwait
p185
sS'word_presentation_training.thisIndex'
p186
g31
(g131
S'\x00\x00\x00\x00'
p187
tp188
Rp189
sg160
Vblush
p190
sg159
Vbless
p191
sg28
g29
sS'word_presentation_training.thisN'
p192
I0
sg157
Vtraining
p193
sS'training_block.thisIndex'
p194
g145
sa(dp195
S'training_block.thisRepN'
p196
I0
sg18
F8.268740243314824
sS'training_block.thisN'
p197
I0
sS'word_presentation_training.thisTrialN'
p198
I1
sg42
g43
sg161
Vsoothe
p199
sS'word_presentation_training.thisRepN'
p200
I0
sg44
g49
sg30
g40
sS'training_block.thisTrialN'
p201
I0
sg17
S'space'
p202
sg156
g31
(g179
S'\x03\x00\x00\x00\x00\x00\x00\x00'
p203
tp204
Rp205
sg41
g12
sg158
Vlick
p206
sS'word_presentation_training.thisIndex'
p207
g31
(g131
S'\x02\x00\x00\x00'
p208
tp209
Rp210
sg160
Vchew
p211
sg159
Vruin
p212
sg28
g29
sS'word_presentation_training.thisN'
p213
I1
sg157
g193
sS'training_block.thisIndex'
p214
g145
sa(dp215
S'training_block.thisRepN'
p216
I0
sg18
F4.730045591450107
sS'training_block.thisN'
p217
I0
sS'word_presentation_training.thisTrialN'
p218
I2
sg42
g43
sg161
Vyell
p219
sS'word_presentation_training.thisRepN'
p220
I0
sg44
g49
sg30
g40
sS'training_block.thisTrialN'
p221
I0
sg17
S'space'
p222
sg156
g31
(g179
S'\x02\x00\x00\x00\x00\x00\x00\x00'
p223
tp224
Rp225
sg41
g12
sg158
Vlike
p226
sS'word_presentation_training.thisIndex'
p227
g31
(g131
S'\x01\x00\x00\x00'
p228
tp229
Rp230
sg160
Vstare
p231
sg159
Vthank
p232
sg28
g29
sS'word_presentation_training.thisN'
p233
I2
sg157
g193
sS'training_block.thisIndex'
p234
g145
sa(dp235
S'training_block.thisRepN'
p236
I0
sg18
F4.863471406270946
sS'training_block.thisN'
p237
I0
sS'word_presentation_training.thisTrialN'
p238
I3
sg42
g43
sg161
Vprint
p239
sS'word_presentation_training.thisRepN'
p240
I0
sg44
g49
sg30
g40
sS'training_block.thisTrialN'
p241
I0
sg17
S'space'
p242
sg156
g31
(g179
S'\x04\x00\x00\x00\x00\x00\x00\x00'
p243
tp244
Rp245
sg41
g12
sg158
Vsave
p246
sS'word_presentation_training.thisIndex'
p247
g31
(g131
S'\x03\x00\x00\x00'
p248
tp249
Rp250
sg160
Vstay
p251
sg159
Vlook
p252
sg28
g29
sS'word_presentation_training.thisN'
p253
I3
sg157
g193
sS'training_block.thisIndex'
p254
g145
sa(dp255
S'training_block.thisRepN'
p256
I0
sS'training_block.thisN'
p257
I0
sg42
g43
sg22
F4.327417257582965
sg30
g40
sS'training_block.thisTrialN'
p258
I0
sg20
F7.530790131953836
sg41
g12
sg19
g99
sg21
S'space'
p259
sg28
g29
sg44
g49
sS'training_block.thisIndex'
p260
g145
sa(dp261
S'training_block.thisRepN'
p262
I0
sg163
g31
(g35
S'\x9a\x99\x99\x99\x99\x99\xd9?'
p263
tp264
Rp265
sg30
g40
sS'word4'
p266
Vslither
p267
sS'experimental_blocks.thisN'
p268
I0
sg42
g43
sS'word1'
p269
Vglide
p270
sS'word3'
p271
Vtread
p272
sS'word2'
p273
Vpace
p274
sS'experimental_blocks.thisIndex'
p275
g31
(g131
S'\x01\x00\x00\x00'
p276
tp277
Rp278
sS'word_presentation.thisRepN'
p279
I0
sS'experimental_blocks.thisRepN'
p280
I0
sg44
g49
sg162
g31
(g35
S'\x9a\x99\x99\x99\x99\x99\xc9?'
p281
tp282
Rp283
sS'type'
p284
Vleg
p285
sS'training_block.thisIndex'
p286
g145
sg164
g31
(g35
S'333333\xe3?'
p287
tp288
Rp289
sg18
F21.61911087387125
sS'experimental_blocks.thisTrialN'
p290
I0
sS'training_block.thisN'
p291
I0
sS'word_presentation.thisN'
p292
I0
sS'training_block.thisTrialN'
p293
I0
sg17
S'space'
p294
sg28
g29
sS'word_presentation.thisTrialN'
p295
I0
sg41
g12
sS'word_presentation.thisIndex'
p296
g31
(g131
S'\x00\x00\x00\x00'
p297
tp298
Rp299
sa(dp300
S'training_block.thisRepN'
p301
I0
sg163
g265
sg30
g40
sg266
Vrush
p302
sS'experimental_blocks.thisN'
p303
I0
sg42
g43
sg269
Vwander
p304
sg271
Vtiptoe
p305
sg273
Vwobble
p306
sS'experimental_blocks.thisIndex'
p307
g278
sS'word_presentation.thisRepN'
p308
I0
sS'experimental_blocks.thisRepN'
p309
I0
sg44
g49
sg162
g283
sg284
g285
sS'training_block.thisIndex'
p310
g145
sg164
g289
sg18
F8.70456274049775
sS'experimental_blocks.thisTrialN'
p311
I0
sS'training_block.thisN'
p312
I0
sS'word_presentation.thisN'
p313
I1
sS'training_block.thisTrialN'
p314
I0
sg17
S'space'
p315
sg28
g29
sS'word_presentation.thisTrialN'
p316
I1
sg41
g12
sS'word_presentation.thisIndex'
p317
g31
(g131
S'\x01\x00\x00\x00'
p318
tp319
Rp320
sa(dp321
S'training_block.thisRepN'
p322
I0
sg163
g265
sg30
g40
sg266
Vsnatch
p323
sS'experimental_blocks.thisN'
p324
I0
sg42
g43
sg269
Vpoke
p325
sg271
Vcut
p326
sg273
Vpush
p327
sS'experimental_blocks.thisIndex'
p328
g278
sS'word_presentation.thisRepN'
p329
I0
sS'experimental_blocks.thisRepN'
p330
I0
sg44
g49
sg162
g283
sg284
Varm
p331
sS'training_block.thisIndex'
p332
g145
sg164
g289
sg18
F16.804672698903232
sS'experimental_blocks.thisTrialN'
p333
I0
sS'training_block.thisN'
p334
I0
sS'word_presentation.thisN'
p335
I2
sS'training_block.thisTrialN'
p336
I0
sg17
S'space'
p337
sg28
g29
sS'word_presentation.thisTrialN'
p338
I2
sg41
g12
sS'word_presentation.thisIndex'
p339
g31
(g131
S'\x02\x00\x00\x00'
p340
tp341
Rp342
sa(dp343
S'training_block.thisRepN'
p344
I0
sg163
g265
sg30
g40
sg266
Vstray
p345
sS'experimental_blocks.thisN'
p346
I0
sg42
g43
sg269
Vstrut
p347
sg271
Vsway
p348
sg273
Vflit
p349
sS'experimental_blocks.thisIndex'
p350
g278
sS'word_presentation.thisRepN'
p351
I0
sS'experimental_blocks.thisRepN'
p352
I0
sg44
g49
sg162
g283
sg284
g285
sS'training_block.thisIndex'
p353
g145
sg164
g289
sg18
F20.125931416456297
sS'experimental_blocks.thisTrialN'
p354
I0
sS'training_block.thisN'
p355
I0
sS'word_presentation.thisN'
p356
I3
sS'training_block.thisTrialN'
p357
I0
sg17
S'space'
p358
sg28
g29
sS'word_presentation.thisTrialN'
p359
I3
sg41
g12
sS'word_presentation.thisIndex'
p360
g31
(g131
S'\x03\x00\x00\x00'
p361
tp362
Rp363
sa(dp364
S'training_block.thisRepN'
p365
I0
sg163
g265
sg30
g40
sg266
Vmount
p366
sS'experimental_blocks.thisN'
p367
I0
sg42
g43
sg269
Vskate
p368
sg271
Vstep
p369
sg273
Vroam
p370
sS'experimental_blocks.thisIndex'
p371
g278
sS'word_presentation.thisRepN'
p372
I0
sS'experimental_blocks.thisRepN'
p373
I0
sg44
g49
sg162
g283
sg284
g285
sS'training_block.thisIndex'
p374
g145
sg164
g289
sg18
F11.773819152202122
sS'experimental_blocks.thisTrialN'
p375
I0
sS'training_block.thisN'
p376
I0
sS'word_presentation.thisN'
p377
I4
sS'training_block.thisTrialN'
p378
I0
sg17
S'space'
p379
sg28
g29
sS'word_presentation.thisTrialN'
p380
I4
sg41
g12
sS'word_presentation.thisIndex'
p381
g31
(g131
S'\x04\x00\x00\x00'
p382
tp383
Rp384
sa(dp385
S'training_block.thisRepN'
p386
I0
sg163
g265
sg30
g40
sg266
Vbrush
p387
sS'experimental_blocks.thisN'
p388
I0
sg42
g43
sg269
Vgrasp
p389
sg271
Vscrub
p390
sg273
Vpeel
p391
sS'experimental_blocks.thisIndex'
p392
g278
sS'word_presentation.thisRepN'
p393
I0
sS'experimental_blocks.thisRepN'
p394
I0
sg44
g49
sg162
g283
sg284
g331
sS'training_block.thisIndex'
p395
g145
sg164
g289
sg18
F12.814566979999654
sS'experimental_blocks.thisTrialN'
p396
I0
sS'training_block.thisN'
p397
I0
sS'word_presentation.thisN'
p398
I5
sS'training_block.thisTrialN'
p399
I0
sg17
S'space'
p400
sg28
g29
sS'word_presentation.thisTrialN'
p401
I5
sg41
g12
sS'word_presentation.thisIndex'
p402
g31
(g131
S'\x05\x00\x00\x00'
p403
tp404
Rp405
sa(dp406
S'training_block.thisRepN'
p407
I0
sg163
g265
sg30
g40
sg266
Vskim
p408
sS'experimental_blocks.thisN'
p409
I0
sg42
g43
sg269
Vtwine
p410
sg271
Vbind
p411
sg273
Vshake
p412
sS'experimental_blocks.thisIndex'
p413
g278
sS'word_presentation.thisRepN'
p414
I0
sS'experimental_blocks.thisRepN'
p415
I0
sg44
g49
sg162
g283
sg284
g331
sS'training_block.thisIndex'
p416
g145
sg164
g289
sg18
F4.813994469285717
sS'experimental_blocks.thisTrialN'
p417
I0
sS'training_block.thisN'
p418
I0
sS'word_presentation.thisN'
p419
I6
sS'training_block.thisTrialN'
p420
I0
sg17
S'space'
p421
sg28
g29
sS'word_presentation.thisTrialN'
p422
I6
sg41
g12
sS'word_presentation.thisIndex'
p423
g31
(g131
S'\x06\x00\x00\x00'
p424
tp425
Rp426
sa(dp427
S'training_block.thisRepN'
p428
I0
sg163
g265
sg30
g40
sg266
Vdunk
p429
sS'experimental_blocks.thisN'
p430
I0
sg42
g43
sg269
Vbraid
p431
sg271
Vwipe
p432
sg273
Vchop
p433
sS'experimental_blocks.thisIndex'
p434
g278
sS'word_presentation.thisRepN'
p435
I0
sS'experimental_blocks.thisRepN'
p436
I0
sg44
g49
sg162
g283
sg284
g331
sS'training_block.thisIndex'
p437
g145
sg164
g289
sg18
F13.23285460796069
sS'experimental_blocks.thisTrialN'
p438
I0
sS'training_block.thisN'
p439
I0
sS'word_presentation.thisN'
p440
I7
sS'training_block.thisTrialN'
p441
I0
sg17
S'space'
p442
sg28
g29
sS'word_presentation.thisTrialN'
p443
I7
sg41
g12
sS'word_presentation.thisIndex'
p444
g31
(g131
S'\x07\x00\x00\x00'
p445
tp446
Rp447
sa(dp448
S'training_block.thisRepN'
p449
I0
sg163
g265
sg30
g40
sg266
Vslide
p450
sS'experimental_blocks.thisN'
p451
I0
sg42
g43
sg269
Vskip
p452
sg271
Vleap
p453
sg273
Vcreep
p454
sS'experimental_blocks.thisIndex'
p455
g278
sS'word_presentation.thisRepN'
p456
I0
sS'experimental_blocks.thisRepN'
p457
I0
sg44
g49
sg162
g283
sg284
g285
sS'training_block.thisIndex'
p458
g145
sg164
g289
sg18
F16.702853110503384
sS'experimental_blocks.thisTrialN'
p459
I0
sS'training_block.thisN'
p460
I0
sS'word_presentation.thisN'
p461
I8
sS'training_block.thisTrialN'
p462
I0
sg17
S'space'
p463
sg28
g29
sS'word_presentation.thisTrialN'
p464
I8
sg41
g12
sS'word_presentation.thisIndex'
p465
g31
(g131
S'\x08\x00\x00\x00'
p466
tp467
Rp468
sa(dp469
S'training_block.thisRepN'
p470
I0
sg163
g265
sg30
g40
sg266
Vgrate
p471
sS'experimental_blocks.thisN'
p472
I0
sg42
g43
sg269
Vswitch
p473
sg271
Vgrip
p474
sg273
Vknock
p475
sS'experimental_blocks.thisIndex'
p476
g278
sS'word_presentation.thisRepN'
p477
I0
sS'experimental_blocks.thisRepN'
p478
I0
sg44
g49
sg162
g283
sg284
g331
sS'training_block.thisIndex'
p479
g145
sg164
g289
sg18
F8.805397721099325
sS'experimental_blocks.thisTrialN'
p480
I0
sS'training_block.thisN'
p481
I0
sS'word_presentation.thisN'
p482
I9
sS'training_block.thisTrialN'
p483
I0
sg17
S'space'
p484
sg28
g29
sS'word_presentation.thisTrialN'
p485
I9
sg41
g12
sS'word_presentation.thisIndex'
p486
g31
(g131
S'\t\x00\x00\x00'
p487
tp488
Rp489
sa(dp490
S'training_block.thisRepN'
p491
I0
sg163
g265
sg30
g40
sg266
Vsqueeze
p492
sS'experimental_blocks.thisN'
p493
I0
sg42
g43
sg269
Vwhip
p494
sg271
Vfold
p495
sg273
Vseize
p496
sS'experimental_blocks.thisIndex'
p497
g278
sS'word_presentation.thisRepN'
p498
I0
sS'experimental_blocks.thisRepN'
p499
I0
sg44
g49
sg162
g283
sg284
g331
sS'training_block.thisIndex'
p500
g145
sg164
g289
sg18
F12.512639685304748
sS'experimental_blocks.thisTrialN'
p501
I0
sS'training_block.thisN'
p502
I0
sS'word_presentation.thisN'
p503
I10
sS'training_block.thisTrialN'
p504
I0
sg17
S'space'
p505
sg28
g29
sS'word_presentation.thisTrialN'
p506
I10
sg41
g12
sS'word_presentation.thisIndex'
p507
g31
(g131
S'\n\x00\x00\x00'
p508
tp509
Rp510
sa(dp511
S'training_block.thisRepN'
p512
I0
sg163
g265
sg30
g40
sg266
Vinch
p513
sS'experimental_blocks.thisN'
p514
I0
sg42
g43
sg269
Vtrudge
p515
sg271
Vprance
p516
sg273
Vsneak
p517
sS'experimental_blocks.thisIndex'
p518
g278
sS'word_presentation.thisRepN'
p519
I0
sS'experimental_blocks.thisRepN'
p520
I0
sg44
g49
sg162
g283
sg284
g285
sS'training_block.thisIndex'
p521
g145
sg164
g289
sg18
F26.046427102475718
sS'experimental_blocks.thisTrialN'
p522
I0
sS'training_block.thisN'
p523
I0
sS'word_presentation.thisN'
p524
I11
sS'training_block.thisTrialN'
p525
I0
sg17
S'space'
p526
sg28
g29
sS'word_presentation.thisTrialN'
p527
I11
sg41
g12
sS'word_presentation.thisIndex'
p528
g31
(g131
S'\x0b\x00\x00\x00'
p529
tp530
Rp531
sa(dp532
S'training_block.thisRepN'
p533
I0
sg163
g265
sg30
g40
sg266
Vstomp
p534
sS'experimental_blocks.thisN'
p535
I0
sg42
g43
sg269
Vwade
p536
sg271
Vhop
p537
sg273
Vstagger
p538
sS'experimental_blocks.thisIndex'
p539
g278
sS'word_presentation.thisRepN'
p540
I0
sS'experimental_blocks.thisRepN'
p541
I0
sg44
g49
sg162
g283
sg284
g285
sS'training_block.thisIndex'
p542
g145
sg164
g289
sg18
F6.340141298331218
sS'experimental_blocks.thisTrialN'
p543
I0
sS'training_block.thisN'
p544
I0
sS'word_presentation.thisN'
p545
I12
sS'training_block.thisTrialN'
p546
I0
sg17
S'space'
p547
sg28
g29
sS'word_presentation.thisTrialN'
p548
I12
sg41
g12
sS'word_presentation.thisIndex'
p549
g31
(g131
S'\x0c\x00\x00\x00'
p550
tp551
Rp552
sa(dp553
S'training_block.thisRepN'
p554
I0
sg163
g265
sg30
g40
sg266
Vscrape
p555
sS'experimental_blocks.thisN'
p556
I0
sg42
g43
sg269
Vclean
p557
sg271
Vhack
p558
sg273
Vfile
p559
sS'experimental_blocks.thisIndex'
p560
g278
sS'word_presentation.thisRepN'
p561
I0
sS'experimental_blocks.thisRepN'
p562
I0
sg44
g49
sg162
g283
sg284
g331
sS'training_block.thisIndex'
p563
g145
sg164
g289
sg18
F11.372135915386934
sS'experimental_blocks.thisTrialN'
p564
I0
sS'training_block.thisN'
p565
I0
sS'word_presentation.thisN'
p566
I13
sS'training_block.thisTrialN'
p567
I0
sg17
S'space'
p568
sg28
g29
sS'word_presentation.thisTrialN'
p569
I13
sg41
g12
sS'word_presentation.thisIndex'
p570
g31
(g131
S'\r\x00\x00\x00'
p571
tp572
Rp573
sa(dp574
S'training_block.thisRepN'
p575
I0
sg163
g265
sg30
g40
sg266
Vrun
p576
sS'experimental_blocks.thisN'
p577
I0
sg42
g43
sg269
Vroll
p578
sg271
Vmarch
p579
sg273
Vtraipse
p580
sS'experimental_blocks.thisIndex'
p581
g278
sS'word_presentation.thisRepN'
p582
I0
sS'experimental_blocks.thisRepN'
p583
I0
sg44
g49
sg162
g283
sg284
g285
sS'training_block.thisIndex'
p584
g145
sg164
g289
sg18
F7.3295599253560795
sS'experimental_blocks.thisTrialN'
p585
I0
sS'training_block.thisN'
p586
I0
sS'word_presentation.thisN'
p587
I14
sS'training_block.thisTrialN'
p588
I0
sg17
S'space'
p589
sg28
g29
sS'word_presentation.thisTrialN'
p590
I14
sg41
g12
sS'word_presentation.thisIndex'
p591
g31
(g131
S'\x0e\x00\x00\x00'
p592
tp593
Rp594
sa(dp595
S'training_block.thisRepN'
p596
I0
sg163
g265
sg30
g40
sg266
Vdig
p597
sS'experimental_blocks.thisN'
p598
I0
sg42
g43
sg269
Vnip
p599
sg271
Vscoop
p600
sg273
Vscratch
p601
sS'experimental_blocks.thisIndex'
p602
g278
sS'word_presentation.thisRepN'
p603
I0
sS'experimental_blocks.thisRepN'
p604
I0
sg44
g49
sg162
g283
sg284
g331
sS'training_block.thisIndex'
p605
g145
sg164
g289
sg18
F8.974131524161749
sS'experimental_blocks.thisTrialN'
p606
I0
sS'training_block.thisN'
p607
I0
sS'word_presentation.thisN'
p608
I15
sS'training_block.thisTrialN'
p609
I0
sg17
S'space'
p610
sg28
g29
sS'word_presentation.thisTrialN'
p611
I15
sg41
g12
sS'word_presentation.thisIndex'
p612
g31
(g131
S'\x0f\x00\x00\x00'
p613
tp614
Rp615
sa(dp616
S'training_block.thisRepN'
p617
I0
sg163
g265
sg30
g40
sg266
Vkick
p618
sS'experimental_blocks.thisN'
p619
I0
sg42
g43
sg269
Vtrek
p620
sg271
Vstride
p621
sg273
Vtrot
p622
sS'experimental_blocks.thisIndex'
p623
g278
sS'word_presentation.thisRepN'
p624
I0
sS'experimental_blocks.thisRepN'
p625
I0
sg44
g49
sg162
g283
sg284
g285
sS'training_block.thisIndex'
p626
g145
sg164
g289
sg18
F11.739856109764332
sS'experimental_blocks.thisTrialN'
p627
I0
sS'training_block.thisN'
p628
I0
sS'word_presentation.thisN'
p629
I16
sS'training_block.thisTrialN'
p630
I0
sg17
S'space'
p631
sg28
g29
sS'word_presentation.thisTrialN'
p632
I16
sg41
g12
sS'word_presentation.thisIndex'
p633
g31
(g131
S'\x10\x00\x00\x00'
p634
tp635
Rp636
sa(dp637
S'training_block.thisRepN'
p638
I0
sg163
g265
sg30
g40
sg266
Vsprint
p639
sS'experimental_blocks.thisN'
p640
I0
sg42
g43
sg269
Vflee
p641
sg271
Vstroll
p642
sg273
Vtrip
p643
sS'experimental_blocks.thisIndex'
p644
g278
sS'word_presentation.thisRepN'
p645
I0
sS'experimental_blocks.thisRepN'
p646
I0
sg44
g49
sg162
g283
sg284
g285
sS'training_block.thisIndex'
p647
g145
sg164
g289
sg18
F6.038208077023228
sS'experimental_blocks.thisTrialN'
p648
I0
sS'training_block.thisN'
p649
I0
sS'word_presentation.thisN'
p650
I17
sS'training_block.thisTrialN'
p651
I0
sg17
S'space'
p652
sg28
g29
sS'word_presentation.thisTrialN'
p653
I17
sg41
g12
sS'word_presentation.thisIndex'
p654
g31
(g131
S'\x11\x00\x00\x00'
p655
tp656
Rp657
sa(dp658
S'training_block.thisRepN'
p659
I0
sg163
g265
sg30
g40
sg266
Vpolish
p660
sS'experimental_blocks.thisN'
p661
I0
sg42
g43
sg269
Vclick
p662
sg271
Vdelve
p663
sg273
Vclutch
p664
sS'experimental_blocks.thisIndex'
p665
g278
sS'word_presentation.thisRepN'
p666
I0
sS'experimental_blocks.thisRepN'
p667
I0
sg44
g49
sg162
g283
sg284
g331
sS'training_block.thisIndex'
p668
g145
sg164
g289
sg18
F7.295981322480657
sS'experimental_blocks.thisTrialN'
p669
I0
sS'training_block.thisN'
p670
I0
sS'word_presentation.thisN'
p671
I18
sS'training_block.thisTrialN'
p672
I0
sg17
S'space'
p673
sg28
g29
sS'word_presentation.thisTrialN'
p674
I18
sg41
g12
sS'word_presentation.thisIndex'
p675
g31
(g131
S'\x12\x00\x00\x00'
p676
tp677
Rp678
sa(dp679
S'training_block.thisRepN'
p680
I0
sg163
g265
sg30
g40
sg266
Vstir
p681
sS'experimental_blocks.thisN'
p682
I0
sg42
g43
sg269
Vpull
p683
sg271
Vclaw
p684
sg273
Vwash
p685
sS'experimental_blocks.thisIndex'
p686
g278
sS'word_presentation.thisRepN'
p687
I0
sS'experimental_blocks.thisRepN'
p688
I0
sg44
g49
sg162
g283
sg284
g331
sS'training_block.thisIndex'
p689
g145
sg164
g289
sg18
F5.149468363152664
sS'experimental_blocks.thisTrialN'
p690
I0
sS'training_block.thisN'
p691
I0
sS'word_presentation.thisN'
p692
I19
sS'training_block.thisTrialN'
p693
I0
sg17
S'space'
p694
sg28
g29
sS'word_presentation.thisTrialN'
p695
I19
sg41
g12
sS'word_presentation.thisIndex'
p696
g31
(g131
S'\x13\x00\x00\x00'
p697
tp698
Rp699
sa(dp700
S'training_block.thisRepN'
p701
I0
sg163
g265
sg30
g40
sg266
Vslip
p702
sS'experimental_blocks.thisN'
p703
I0
sg42
g43
sg269
Vjog
p704
sg271
Vbounce
p705
sg273
Vjump
p706
sS'experimental_blocks.thisIndex'
p707
g278
sS'word_presentation.thisRepN'
p708
I0
sS'experimental_blocks.thisRepN'
p709
I0
sg44
g49
sg162
g283
sg284
g285
sS'training_block.thisIndex'
p710
g145
sg164
g289
sg18
F13.165824626810718
sS'experimental_blocks.thisTrialN'
p711
I0
sS'training_block.thisN'
p712
I0
sS'word_presentation.thisN'
p713
I20
sS'training_block.thisTrialN'
p714
I0
sg17
S'space'
p715
sg28
g29
sS'word_presentation.thisTrialN'
p716
I20
sg41
g12
sS'word_presentation.thisIndex'
p717
g31
(g131
S'\x14\x00\x00\x00'
p718
tp719
Rp720
sa(dp721
S'training_block.thisRepN'
p722
I0
sg163
g265
sg30
g40
sg266
Vgrab
p723
sS'experimental_blocks.thisN'
p724
I0
sg42
g43
sg269
Vpinch
p725
sg271
Vcatch
p726
sg273
Vpat
p727
sS'experimental_blocks.thisIndex'
p728
g278
sS'word_presentation.thisRepN'
p729
I0
sS'experimental_blocks.thisRepN'
p730
I0
sg44
g49
sg162
g283
sg284
g331
sS'training_block.thisIndex'
p731
g145
sg164
g289
sg18
F14.508564942036173
sS'experimental_blocks.thisTrialN'
p732
I0
sS'training_block.thisN'
p733
I0
sS'word_presentation.thisN'
p734
I21
sS'training_block.thisTrialN'
p735
I0
sg17
S'space'
p736
sg28
g29
sS'word_presentation.thisTrialN'
p737
I21
sg41
g12
sS'word_presentation.thisIndex'
p738
g31
(g131
S'\x15\x00\x00\x00'
p739
tp740
Rp741
sa(dp742
S'training_block.thisRepN'
p743
I0
sg163
g265
sg30
g40
sg266
Vlimp
p744
sS'experimental_blocks.thisN'
p745
I0
sg42
g43
sg269
Vclimb
p746
sg271
Vhike
p747
sg273
Vstamp
p748
sS'experimental_blocks.thisIndex'
p749
g278
sS'word_presentation.thisRepN'
p750
I0
sS'experimental_blocks.thisRepN'
p751
I0
sg44
g49
sg162
g283
sg284
g285
sS'training_block.thisIndex'
p752
g145
sg164
g289
sg18
F10.717263074798211
sS'experimental_blocks.thisTrialN'
p753
I0
sS'training_block.thisN'
p754
I0
sS'word_presentation.thisN'
p755
I22
sS'training_block.thisTrialN'
p756
I0
sg17
S'space'
p757
sg28
g29
sS'word_presentation.thisTrialN'
p758
I22
sg41
g12
sS'word_presentation.thisIndex'
p759
g31
(g131
S'\x16\x00\x00\x00'
p760
tp761
Rp762
sa(dp763
S'training_block.thisRepN'
p764
I0
sg163
g265
sg30
g40
sg266
Vslap
p765
sS'experimental_blocks.thisN'
p766
I0
sg42
g43
sg269
Vcarve
p767
sg271
Vbash
p768
sg273
Vtug
p769
sS'experimental_blocks.thisIndex'
p770
g278
sS'word_presentation.thisRepN'
p771
I0
sS'experimental_blocks.thisRepN'
p772
I0
sg44
g49
sg162
g283
sg284
g331
sS'training_block.thisIndex'
p773
g145
sg164
g289
sg18
F5.350746772861385
sS'experimental_blocks.thisTrialN'
p774
I0
sS'training_block.thisN'
p775
I0
sS'word_presentation.thisN'
p776
I23
sS'training_block.thisTrialN'
p777
I0
sg17
S'space'
p778
sg28
g29
sS'word_presentation.thisTrialN'
p779
I23
sg41
g12
sS'word_presentation.thisIndex'
p780
g31
(g131
S'\x17\x00\x00\x00'
p781
tp782
Rp783
sa(dp784
S'training_block.thisRepN'
p785
I0
sg163
g265
sg30
g40
sg266
Vplod
p786
sS'experimental_blocks.thisN'
p787
I0
sg42
g43
sg269
Vwalk
p788
sg271
Vdance
p789
sg273
Vcrawl
p790
sS'experimental_blocks.thisIndex'
p791
g278
sS'word_presentation.thisRepN'
p792
I0
sS'experimental_blocks.thisRepN'
p793
I0
sg44
g49
sg162
g283
sg284
g285
sS'training_block.thisIndex'
p794
g145
sg164
g289
sg18
F4.478657677708725
sS'experimental_blocks.thisTrialN'
p795
I0
sS'training_block.thisN'
p796
I0
sS'word_presentation.thisN'
p797
I24
sS'training_block.thisTrialN'
p798
I0
sg17
S'space'
p799
sg28
g29
sS'word_presentation.thisTrialN'
p800
I24
sg41
g12
sS'word_presentation.thisIndex'
p801
g31
(g131
S'\x18\x00\x00\x00'
p802
tp803
Rp804
sa(dp805
S'training_block.thisRepN'
p806
I0
sg163
g265
sg30
g40
sg266
Vkneel
p807
sS'experimental_blocks.thisN'
p808
I0
sg42
g43
sg269
Vstumble
p809
sg271
Vramble
p810
sg273
Vscuff
p811
sS'experimental_blocks.thisIndex'
p812
g278
sS'word_presentation.thisRepN'
p813
I0
sS'experimental_blocks.thisRepN'
p814
I0
sg44
g49
sg162
g283
sg284
g285
sS'training_block.thisIndex'
p815
g145
sg164
g289
sg18
F4.0587730253819245
sS'experimental_blocks.thisTrialN'
p816
I0
sS'training_block.thisN'
p817
I0
sS'word_presentation.thisN'
p818
I25
sS'training_block.thisTrialN'
p819
I0
sg17
S'space'
p820
sg28
g29
sS'word_presentation.thisTrialN'
p821
I25
sg41
g12
sS'word_presentation.thisIndex'
p822
g31
(g131
S'\x19\x00\x00\x00'
p823
tp824
Rp825
sa(dp826
S'training_block.thisRepN'
p827
I0
sg163
g265
sg30
g40
sg266
Vrub
p828
sS'experimental_blocks.thisN'
p829
I0
sg42
g43
sg269
Vstab
p830
sg271
Vtoss
p831
sg273
Vpunch
p832
sS'experimental_blocks.thisIndex'
p833
g278
sS'word_presentation.thisRepN'
p834
I0
sS'experimental_blocks.thisRepN'
p835
I0
sg44
g49
sg162
g283
sg284
g331
sS'training_block.thisIndex'
p836
g145
sg164
g289
sg18
F15.36286906494206
sS'experimental_blocks.thisTrialN'
p837
I0
sS'training_block.thisN'
p838
I0
sS'word_presentation.thisN'
p839
I26
sS'training_block.thisTrialN'
p840
I0
sg17
S'space'
p841
sg28
g29
sS'word_presentation.thisTrialN'
p842
I26
sg41
g12
sS'word_presentation.thisIndex'
p843
g31
(g131
S'\x1a\x00\x00\x00'
p844
tp845
Rp846
sa(dp847
S'training_block.thisRepN'
p848
I0
sg163
g265
sg30
g40
sg266
Vlift
p849
sS'experimental_blocks.thisN'
p850
I0
sg42
g43
sg269
Vthrow
p851
sg271
Vwrap
p852
sg273
Vclap
p853
sS'experimental_blocks.thisIndex'
p854
g278
sS'word_presentation.thisRepN'
p855
I0
sS'experimental_blocks.thisRepN'
p856
I0
sg44
g49
sg162
g283
sg284
g331
sS'training_block.thisIndex'
p857
g145
sg164
g289
sg18
F15.949623798428547
sS'experimental_blocks.thisTrialN'
p858
I0
sS'training_block.thisN'
p859
I0
sS'word_presentation.thisN'
p860
I27
sS'training_block.thisTrialN'
p861
I0
sg17
S'space'
p862
sg28
g29
sS'word_presentation.thisTrialN'
p863
I27
sg41
g12
sS'word_presentation.thisIndex'
p864
g31
(g131
S'\x1b\x00\x00\x00'
p865
tp866
Rp867
sa(dp868
S'training_block.thisRepN'
p869
I0
sg163
g265
sS'experimental_blocks.thisRepN'
p870
I0
sS'experimental_blocks.thisTrialN'
p871
I0
sS'training_block.thisN'
p872
I0
sg42
g43
sg41
g12
sg30
g40
sS'training_block.thisTrialN'
p873
I0
sg44
g49
sS'experimental_blocks.thisN'
p874
I0
sg164
g289
sg28
g29
sS'experimental_blocks.thisIndex'
p875
g278
sg162
g283
sS'training_block.thisIndex'
p876
g145
sa(dp877
S'training_block.thisRepN'
p878
I0
sg163
g31
(g35
S'\x9a\x99\x99\x99\x99\x99\xd9?'
p879
tp880
Rp881
sg30
g40
sS'word4'
p882
Vclaw
p883
sS'experimental_blocks.thisN'
p884
I1
sg42
g43
sS'word1'
p885
Vcatch
p886
sS'word3'
p887
Vdig
p888
sS'word2'
p889
Vpull
p890
sS'experimental_blocks.thisIndex'
p891
g31
(g131
S'\x02\x00\x00\x00'
p892
tp893
Rp894
sS'word_presentation.thisRepN'
p895
I0
sS'experimental_blocks.thisRepN'
p896
I0
sg44
g49
sg162
g31
(g35
S'333333\xd3?'
p897
tp898
Rp899
sS'type'
p900
Varm
p901
sS'training_block.thisIndex'
p902
g145
sg164
g31
(g35
S'ffffff\xe6?'
p903
tp904
Rp905
sg18
F4.662950812676172
sS'experimental_blocks.thisTrialN'
p906
I1
sS'training_block.thisN'
p907
I0
sS'word_presentation.thisN'
p908
I0
sS'training_block.thisTrialN'
p909
I0
sg17
S'space'
p910
sg28
g29
sS'word_presentation.thisTrialN'
p911
I0
sg41
g12
sS'word_presentation.thisIndex'
p912
g31
(g131
S'\x00\x00\x00\x00'
p913
tp914
Rp915
sa(dp916
S'training_block.thisRepN'
p917
I0
sg163
g881
sg30
g40
sg882
Vdance
p918
sS'experimental_blocks.thisN'
p919
I1
sg42
g43
sg885
Vstomp
p920
sg887
Vslither
p921
sg889
Vslip
p922
sS'experimental_blocks.thisIndex'
p923
g894
sS'word_presentation.thisRepN'
p924
I0
sS'experimental_blocks.thisRepN'
p925
I0
sg44
g49
sg162
g899
sg900
Vleg
p926
sS'training_block.thisIndex'
p927
g145
sg164
g905
sg18
F4.694366992406685
sS'experimental_blocks.thisTrialN'
p928
I1
sS'training_block.thisN'
p929
I0
sS'word_presentation.thisN'
p930
I1
sS'training_block.thisTrialN'
p931
I0
sg17
S'space'
p932
sg28
g29
sS'word_presentation.thisTrialN'
p933
I1
sg41
g12
sS'word_presentation.thisIndex'
p934
g31
(g131
S'\x01\x00\x00\x00'
p935
tp936
Rp937
sa(dp938
S'training_block.thisRepN'
p939
I0
sg163
g881
sg30
g40
sg882
Vclick
p940
sS'experimental_blocks.thisN'
p941
I1
sg42
g43
sg885
Vscrape
p942
sg887
Vclap
p943
sg889
Vswitch
p944
sS'experimental_blocks.thisIndex'
p945
g894
sS'word_presentation.thisRepN'
p946
I0
sS'experimental_blocks.thisRepN'
p947
I0
sg44
g49
sg162
g899
sg900
g901
sS'training_block.thisIndex'
p948
g145
sg164
g905
sg18
F10.314772633434586
sS'experimental_blocks.thisTrialN'
p949
I1
sS'training_block.thisN'
p950
I0
sS'word_presentation.thisN'
p951
I2
sS'training_block.thisTrialN'
p952
I0
sg17
S'space'
p953
sg28
g29
sS'word_presentation.thisTrialN'
p954
I2
sg41
g12
sS'word_presentation.thisIndex'
p955
g31
(g131
S'\x02\x00\x00\x00'
p956
tp957
Rp958
sa(dp959
S'training_block.thisRepN'
p960
I0
sg163
g881
sg30
g40
sg882
Vjog
p961
sS'experimental_blocks.thisN'
p962
I1
sg42
g43
sg885
Vstamp
p963
sg887
Vstride
p964
sg889
Vtraipse
p965
sS'experimental_blocks.thisIndex'
p966
g894
sS'word_presentation.thisRepN'
p967
I0
sS'experimental_blocks.thisRepN'
p968
I0
sg44
g49
sg162
g899
sg900
g926
sS'training_block.thisIndex'
p969
g145
sg164
g905
sg18
F10.634783206510292
sS'experimental_blocks.thisTrialN'
p970
I1
sS'training_block.thisN'
p971
I0
sS'word_presentation.thisN'
p972
I3
sS'training_block.thisTrialN'
p973
I0
sg17
S'space'
p974
sg28
g29
sS'word_presentation.thisTrialN'
p975
I3
sg41
g12
sS'word_presentation.thisIndex'
p976
g31
(g131
S'\x03\x00\x00\x00'
p977
tp978
Rp979
sa(dp980
S'training_block.thisRepN'
p981
I0
sg163
g881
sg30
g40
sg882
Vroll
p982
sS'experimental_blocks.thisN'
p983
I1
sg42
g43
sg885
Vcrawl
p984
sg887
Vinch
p985
sg889
Vcreep
p986
sS'experimental_blocks.thisIndex'
p987
g894
sS'word_presentation.thisRepN'
p988
I0
sS'experimental_blocks.thisRepN'
p989
I0
sg44
g49
sg162
g899
sg900
g926
sS'training_block.thisIndex'
p990
g145
sg164
g905
sg18
F3.941918412679115
sS'experimental_blocks.thisTrialN'
p991
I1
sS'training_block.thisN'
p992
I0
sS'word_presentation.thisN'
p993
I4
sS'training_block.thisTrialN'
p994
I0
sg17
S'space'
p995
sg28
g29
sS'word_presentation.thisTrialN'
p996
I4
sg41
g12
sS'word_presentation.thisIndex'
p997
g31
(g131
S'\x04\x00\x00\x00'
p998
tp999
Rp1000
sa(dp1001
S'training_block.thisRepN'
p1002
I0
sg163
g881
sg30
g40
sg882
Vseize
p1003
sS'experimental_blocks.thisN'
p1004
I1
sg42
g43
sg885
Vfile
p1005
sg887
Vpolish
p1006
sg889
Vfold
p1007
sS'experimental_blocks.thisIndex'
p1008
g894
sS'word_presentation.thisRepN'
p1009
I0
sS'experimental_blocks.thisRepN'
p1010
I0
sg44
g49
sg162
g899
sg900
g901
sS'training_block.thisIndex'
p1011
g145
sg164
g905
sg18
F5.132325835643314
sS'experimental_blocks.thisTrialN'
p1012
I1
sS'training_block.thisN'
p1013
I0
sS'word_presentation.thisN'
p1014
I5
sS'training_block.thisTrialN'
p1015
I0
sg17
S'space'
p1016
sg28
g29
sS'word_presentation.thisTrialN'
p1017
I5
sg41
g12
sS'word_presentation.thisIndex'
p1018
g31
(g131
S'\x05\x00\x00\x00'
p1019
tp1020
Rp1021
sa(dp1022
S'training_block.thisRepN'
p1023
I0
sg163
g881
sg30
g40
sg882
Vflit
p1024
sS'experimental_blocks.thisN'
p1025
I1
sg42
g43
sg885
Vtrip
p1026
sg887
Vbounce
p1027
sg889
Vtiptoe
p1028
sS'experimental_blocks.thisIndex'
p1029
g894
sS'word_presentation.thisRepN'
p1030
I0
sS'experimental_blocks.thisRepN'
p1031
I0
sg44
g49
sg162
g899
sg900
g926
sS'training_block.thisIndex'
p1032
g145
sg164
g905
sg18
F6.4071392757759895
sS'experimental_blocks.thisTrialN'
p1033
I1
sS'training_block.thisN'
p1034
I0
sS'word_presentation.thisN'
p1035
I6
sS'training_block.thisTrialN'
p1036
I0
sg17
S'space'
p1037
sg28
g29
sS'word_presentation.thisTrialN'
p1038
I6
sg41
g12
sS'word_presentation.thisIndex'
p1039
g31
(g131
S'\x06\x00\x00\x00'
p1040
tp1041
Rp1042
sa(dp1043
S'training_block.thisRepN'
p1044
I0
sg163
g881
sg30
g40
sg882
Vtrot
p1045
sS'experimental_blocks.thisN'
p1046
I1
sg42
g43
sg885
Vhop
p1047
sg887
Vflee
p1048
sg889
Vkick
p1049
sS'experimental_blocks.thisIndex'
p1050
g894
sS'word_presentation.thisRepN'
p1051
I0
sS'experimental_blocks.thisRepN'
p1052
I0
sg44
g49
sg162
g899
sg900
g926
sS'training_block.thisIndex'
p1053
g145
sg164
g905
sg18
F4.545554902750155
sS'experimental_blocks.thisTrialN'
p1054
I1
sS'training_block.thisN'
p1055
I0
sS'word_presentation.thisN'
p1056
I7
sS'training_block.thisTrialN'
p1057
I0
sg17
S'space'
p1058
sg28
g29
sS'word_presentation.thisTrialN'
p1059
I7
sg41
g12
sS'word_presentation.thisIndex'
p1060
g31
(g131
S'\x07\x00\x00\x00'
p1061
tp1062
Rp1063
sa(dp1064
S'training_block.thisRepN'
p1065
I0
sg163
g881
sg30
g40
sg882
Vwipe
p1066
sS'experimental_blocks.thisN'
p1067
I1
sg42
g43
sg885
Vscratch
p1068
sg887
Vcut
p1069
sg889
Vstir
p1070
sS'experimental_blocks.thisIndex'
p1071
g894
sS'word_presentation.thisRepN'
p1072
I0
sS'experimental_blocks.thisRepN'
p1073
I0
sg44
g49
sg162
g899
sg900
g901
sS'training_block.thisIndex'
p1074
g145
sg164
g905
sg18
F15.143064856494675
sS'experimental_blocks.thisTrialN'
p1075
I1
sS'training_block.thisN'
p1076
I0
sS'word_presentation.thisN'
p1077
I8
sS'training_block.thisTrialN'
p1078
I0
sg17
S'space'
p1079
sg28
g29
sS'word_presentation.thisTrialN'
p1080
I8
sg41
g12
sS'word_presentation.thisIndex'
p1081
g31
(g131
S'\x08\x00\x00\x00'
p1082
tp1083
Rp1084
sa(dp1085
S'training_block.thisRepN'
p1086
I0
sg163
g881
sg30
g40
sg882
Vscuff
p1087
sS'experimental_blocks.thisN'
p1088
I1
sg42
g43
sg885
Vglide
p1089
sg887
Vleap
p1090
sg889
Vstrut
p1091
sS'experimental_blocks.thisIndex'
p1092
g894
sS'word_presentation.thisRepN'
p1093
I0
sS'experimental_blocks.thisRepN'
p1094
I0
sg44
g49
sg162
g899
sg900
g926
sS'training_block.thisIndex'
p1095
g145
sg164
g905
sg18
F8.352077494797413
sS'experimental_blocks.thisTrialN'
p1096
I1
sS'training_block.thisN'
p1097
I0
sS'word_presentation.thisN'
p1098
I9
sS'training_block.thisTrialN'
p1099
I0
sg17
S'space'
p1100
sg28
g29
sS'word_presentation.thisTrialN'
p1101
I9
sg41
g12
sS'word_presentation.thisIndex'
p1102
g31
(g131
S'\t\x00\x00\x00'
p1103
tp1104
Rp1105
sa(dp1106
S'training_block.thisRepN'
p1107
I0
sg163
g881
sg30
g40
sg882
Vtrek
p1108
sS'experimental_blocks.thisN'
p1109
I1
sg42
g43
sg885
Vstroll
p1110
sg887
Vpace
p1111
sg889
Vkneel
p1112
sS'experimental_blocks.thisIndex'
p1113
g894
sS'word_presentation.thisRepN'
p1114
I0
sS'experimental_blocks.thisRepN'
p1115
I0
sg44
g49
sg162
g899
sg900
g926
sS'training_block.thisIndex'
p1116
g145
sg164
g905
sg18
F19.68824914844481
sS'experimental_blocks.thisTrialN'
p1117
I1
sS'training_block.thisN'
p1118
I0
sS'word_presentation.thisN'
p1119
I10
sS'training_block.thisTrialN'
p1120
I0
sg17
S'space'
p1121
sg28
g29
sS'word_presentation.thisTrialN'
p1122
I10
sg41
g12
sS'word_presentation.thisIndex'
p1123
g31
(g131
S'\n\x00\x00\x00'
p1124
tp1125
Rp1126
sa(dp1127
S'training_block.thisRepN'
p1128
I0
sg163
g881
sg30
g40
sg882
Vstagger
p1129
sS'experimental_blocks.thisN'
p1130
I1
sg42
g43
sg885
Vtread
p1131
sg887
Vstumble
p1132
sg889
Vrun
p1133
sS'experimental_blocks.thisIndex'
p1134
g894
sS'word_presentation.thisRepN'
p1135
I0
sS'experimental_blocks.thisRepN'
p1136
I0
sg44
g49
sg162
g899
sg900
g926
sS'training_block.thisIndex'
p1137
g145
sg164
g905
sg18
F4.344405298074889
sS'experimental_blocks.thisTrialN'
p1138
I1
sS'training_block.thisN'
p1139
I0
sS'word_presentation.thisN'
p1140
I11
sS'training_block.thisTrialN'
p1141
I0
sg17
S'space'
p1142
sg28
g29
sS'word_presentation.thisTrialN'
p1143
I11
sg41
g12
sS'word_presentation.thisIndex'
p1144
g31
(g131
S'\x0b\x00\x00\x00'
p1145
tp1146
Rp1147
sa(dp1148
S'training_block.thisRepN'
p1149
I0
sg163
g881
sg30
g40
sg882
Vclean
p1150
sS'experimental_blocks.thisN'
p1151
I1
sg42
g43
sg885
Vdelve
p1152
sg887
Vrub
p1153
sg889
Vpinch
p1154
sS'experimental_blocks.thisIndex'
p1155
g894
sS'word_presentation.thisRepN'
p1156
I0
sS'experimental_blocks.thisRepN'
p1157
I0
sg44
g49
sg162
g899
sg900
g901
sS'training_block.thisIndex'
p1158
g145
sg164
g905
sg18
F5.065026786310227
sS'experimental_blocks.thisTrialN'
p1159
I1
sS'training_block.thisN'
p1160
I0
sS'word_presentation.thisN'
p1161
I12
sS'training_block.thisTrialN'
p1162
I0
sg17
S'space'
p1163
sg28
g29
sS'word_presentation.thisTrialN'
p1164
I12
sg41
g12
sS'word_presentation.thisIndex'
p1165
g31
(g131
S'\x0c\x00\x00\x00'
p1166
tp1167
Rp1168
sa(dp1169
S'training_block.thisRepN'
p1170
I0
sg163
g881
sg30
g40
sg882
Vgrasp
p1171
sS'experimental_blocks.thisN'
p1172
I1
sg42
g43
sg885
Vknock
p1173
sg887
Vbind
p1174
sg889
Vchop
p1175
sS'experimental_blocks.thisIndex'
p1176
g894
sS'word_presentation.thisRepN'
p1177
I0
sS'experimental_blocks.thisRepN'
p1178
I0
sg44
g49
sg162
g899
sg900
g901
sS'training_block.thisIndex'
p1179
g145
sg164
g905
sg18
F5.870048365104594
sS'experimental_blocks.thisTrialN'
p1180
I1
sS'training_block.thisN'
p1181
I0
sS'word_presentation.thisN'
p1182
I13
sS'training_block.thisTrialN'
p1183
I0
sg17
S'space'
p1184
sg28
g29
sS'word_presentation.thisTrialN'
p1185
I13
sg41
g12
sS'word_presentation.thisIndex'
p1186
g31
(g131
S'\r\x00\x00\x00'
p1187
tp1188
Rp1189
sa(dp1190
S'training_block.thisRepN'
p1191
I0
sg163
g881
sg30
g40
sg882
Vsneak
p1192
sS'experimental_blocks.thisN'
p1193
I1
sg42
g43
sg885
Vrush
p1194
sg887
Vskate
p1195
sg889
Vclimb
p1196
sS'experimental_blocks.thisIndex'
p1197
g894
sS'word_presentation.thisRepN'
p1198
I0
sS'experimental_blocks.thisRepN'
p1199
I0
sg44
g49
sg162
g899
sg900
g926
sS'training_block.thisIndex'
p1200
g145
sg164
g905
sg18
F4.89771378968544
sS'experimental_blocks.thisTrialN'
p1201
I1
sS'training_block.thisN'
p1202
I0
sS'word_presentation.thisN'
p1203
I14
sS'training_block.thisTrialN'
p1204
I0
sg17
S'space'
p1205
sg28
g29
sS'word_presentation.thisTrialN'
p1206
I14
sg41
g12
sS'word_presentation.thisIndex'
p1207
g31
(g131
S'\x0e\x00\x00\x00'
p1208
tp1209
Rp1210
sa(dp1211
S'training_block.thisRepN'
p1212
I0
sg163
g881
sg30
g40
sg882
Vpoke
p1213
sS'experimental_blocks.thisN'
p1214
I1
sg42
g43
sg885
Vskim
p1215
sg887
Vstab
p1216
sg889
Vpeel
p1217
sS'experimental_blocks.thisIndex'
p1218
g894
sS'word_presentation.thisRepN'
p1219
I0
sS'experimental_blocks.thisRepN'
p1220
I0
sg44
g49
sg162
g899
sg900
g901
sS'training_block.thisIndex'
p1221
g145
sg164
g905
sg18
F11.153362147203552
sS'experimental_blocks.thisTrialN'
p1222
I1
sS'training_block.thisN'
p1223
I0
sS'word_presentation.thisN'
p1224
I15
sS'training_block.thisTrialN'
p1225
I0
sg17
S'space'
p1226
sg28
g29
sS'word_presentation.thisTrialN'
p1227
I15
sg41
g12
sS'word_presentation.thisIndex'
p1228
g31
(g131
S'\x0f\x00\x00\x00'
p1229
tp1230
Rp1231
sa(dp1232
S'training_block.thisRepN'
p1233
I0
sg163
g881
sg30
g40
sg882
Vbraid
p1234
sS'experimental_blocks.thisN'
p1235
I1
sg42
g43
sg885
Vthrow
p1236
sg887
Vslap
p1237
sg889
Vdunk
p1238
sS'experimental_blocks.thisIndex'
p1239
g894
sS'word_presentation.thisRepN'
p1240
I0
sS'experimental_blocks.thisRepN'
p1241
I0
sg44
g49
sg162
g899
sg900
g901
sS'training_block.thisIndex'
p1242
g145
sg164
g905
sg18
F5.115932036775121
sS'experimental_blocks.thisTrialN'
p1243
I1
sS'training_block.thisN'
p1244
I0
sS'word_presentation.thisN'
p1245
I16
sS'training_block.thisTrialN'
p1246
I0
sg17
S'space'
p1247
sg28
g29
sS'word_presentation.thisTrialN'
p1248
I16
sg41
g12
sS'word_presentation.thisIndex'
p1249
g31
(g131
S'\x10\x00\x00\x00'
p1250
tp1251
Rp1252
sa(dp1253
S'training_block.thisRepN'
p1254
I0
sg163
g881
sg30
g40
sg882
Vgrab
p1255
sS'experimental_blocks.thisN'
p1256
I1
sg42
g43
sg885
Vtwine
p1257
sg887
Vsnatch
p1258
sg889
Vscoop
p1259
sS'experimental_blocks.thisIndex'
p1260
g894
sS'word_presentation.thisRepN'
p1261
I0
sS'experimental_blocks.thisRepN'
p1262
I0
sg44
g49
sg162
g899
sg900
g901
sS'training_block.thisIndex'
p1263
g145
sg164
g905
sg18
F5.771059326570139
sS'experimental_blocks.thisTrialN'
p1264
I1
sS'training_block.thisN'
p1265
I0
sS'word_presentation.thisN'
p1266
I17
sS'training_block.thisTrialN'
p1267
I0
sg17
S'space'
p1268
sg28
g29
sS'word_presentation.thisTrialN'
p1269
I17
sg41
g12
sS'word_presentation.thisIndex'
p1270
g31
(g131
S'\x11\x00\x00\x00'
p1271
tp1272
Rp1273
sa(dp1274
S'training_block.thisRepN'
p1275
I0
sg163
g881
sg30
g40
sg882
Vramble
p1276
sS'experimental_blocks.thisN'
p1277
I1
sg42
g43
sg885
Vskip
p1278
sg887
Vwade
p1279
sg889
Vroam
p1280
sS'experimental_blocks.thisIndex'
p1281
g894
sS'word_presentation.thisRepN'
p1282
I0
sS'experimental_blocks.thisRepN'
p1283
I0
sg44
g49
sg162
g899
sg900
g926
sS'training_block.thisIndex'
p1284
g145
sg164
g905
sg18
F7.094472565120668
sS'experimental_blocks.thisTrialN'
p1285
I1
sS'training_block.thisN'
p1286
I0
sS'word_presentation.thisN'
p1287
I18
sS'training_block.thisTrialN'
p1288
I0
sg17
S'space'
p1289
sg28
g29
sS'word_presentation.thisTrialN'
p1290
I18
sg41
g12
sS'word_presentation.thisIndex'
p1291
g31
(g131
S'\x12\x00\x00\x00'
p1292
tp1293
Rp1294
sa(dp1295
S'training_block.thisRepN'
p1296
I0
sg163
g881
sg30
g40
sg882
Vwhip
p1297
sS'experimental_blocks.thisN'
p1298
I1
sg42
g43
sg885
Vclutch
p1299
sg887
Vtug
p1300
sg889
Vgrip
p1301
sS'experimental_blocks.thisIndex'
p1302
g894
sS'word_presentation.thisRepN'
p1303
I0
sS'experimental_blocks.thisRepN'
p1304
I0
sg44
g49
sg162
g899
sg900
g901
sS'training_block.thisIndex'
p1305
g145
sg164
g905
sg18
F12.746501027082559
sS'experimental_blocks.thisTrialN'
p1306
I1
sS'training_block.thisN'
p1307
I0
sS'word_presentation.thisN'
p1308
I19
sS'training_block.thisTrialN'
p1309
I0
sg17
S'space'
p1310
sg28
g29
sS'word_presentation.thisTrialN'
p1311
I19
sg41
g12
sS'word_presentation.thisIndex'
p1312
g31
(g131
S'\x13\x00\x00\x00'
p1313
tp1314
Rp1315
sa(dp1316
S'training_block.thisRepN'
p1317
I0
sg163
g881
sg30
g40
sg882
Vslide
p1318
sS'experimental_blocks.thisN'
p1319
I1
sg42
g43
sg885
Vtrudge
p1320
sg887
Vwander
p1321
sg889
Vjump
p1322
sS'experimental_blocks.thisIndex'
p1323
g894
sS'word_presentation.thisRepN'
p1324
I0
sS'experimental_blocks.thisRepN'
p1325
I0
sg44
g49
sg162
g899
sg900
g926
sS'training_block.thisIndex'
p1326
g145
sg164
g905
sg18
F4.847634313819071
sS'experimental_blocks.thisTrialN'
p1327
I1
sS'training_block.thisN'
p1328
I0
sS'word_presentation.thisN'
p1329
I20
sS'training_block.thisTrialN'
p1330
I0
sg17
S'space'
p1331
sg28
g29
sS'word_presentation.thisTrialN'
p1332
I20
sg41
g12
sS'word_presentation.thisIndex'
p1333
g31
(g131
S'\x14\x00\x00\x00'
p1334
tp1335
Rp1336
sa(dp1337
S'training_block.thisRepN'
p1338
I0
sg163
g881
sg30
g40
sg882
Vpush
p1339
sS'experimental_blocks.thisN'
p1340
I1
sg42
g43
sg885
Vscrub
p1341
sg887
Vnip
p1342
sg889
Vwrap
p1343
sS'experimental_blocks.thisIndex'
p1344
g894
sS'word_presentation.thisRepN'
p1345
I0
sS'experimental_blocks.thisRepN'
p1346
I0
sg44
g49
sg162
g899
sg900
g901
sS'training_block.thisIndex'
p1347
g145
sg164
g905
sg18
F6.137305375002143
sS'experimental_blocks.thisTrialN'
p1348
I1
sS'training_block.thisN'
p1349
I0
sS'word_presentation.thisN'
p1350
I21
sS'training_block.thisTrialN'
p1351
I0
sg17
S'space'
p1352
sg28
g29
sS'word_presentation.thisTrialN'
p1353
I21
sg41
g12
sS'word_presentation.thisIndex'
p1354
g31
(g131
S'\x15\x00\x00\x00'
p1355
tp1356
Rp1357
sa(dp1358
S'training_block.thisRepN'
p1359
I0
sg163
g881
sg30
g40
sg882
Vtoss
p1360
sS'experimental_blocks.thisN'
p1361
I1
sg42
g43
sg885
Vbrush
p1362
sg887
Vlift
p1363
sg889
Vpat
p1364
sS'experimental_blocks.thisIndex'
p1365
g894
sS'word_presentation.thisRepN'
p1366
I0
sS'experimental_blocks.thisRepN'
p1367
I0
sg44
g49
sg162
g899
sg900
g901
sS'training_block.thisIndex'
p1368
g145
sg164
g905
sg18
F18.481830785745842
sS'experimental_blocks.thisTrialN'
p1369
I1
sS'training_block.thisN'
p1370
I0
sS'word_presentation.thisN'
p1371
I22
sS'training_block.thisTrialN'
p1372
I0
sg17
S'space'
p1373
sg28
g29
sS'word_presentation.thisTrialN'
p1374
I22
sg41
g12
sS'word_presentation.thisIndex'
p1375
g31
(g131
S'\x16\x00\x00\x00'
p1376
tp1377
Rp1378
sa(dp1379
S'training_block.thisRepN'
p1380
I0
sg163
g881
sg30
g40
sg882
Vwobble
p1381
sS'experimental_blocks.thisN'
p1382
I1
sg42
g43
sg885
Vsprint
p1383
sg887
Vstray
p1384
sg889
Vmarch
p1385
sS'experimental_blocks.thisIndex'
p1386
g894
sS'word_presentation.thisRepN'
p1387
I0
sS'experimental_blocks.thisRepN'
p1388
I0
sg44
g49
sg162
g899
sg900
g926
sS'training_block.thisIndex'
p1389
g145
sg164
g905
sg18
F4.84756477490464
sS'experimental_blocks.thisTrialN'
p1390
I1
sS'training_block.thisN'
p1391
I0
sS'word_presentation.thisN'
p1392
I23
sS'training_block.thisTrialN'
p1393
I0
sg17
S'space'
p1394
sg28
g29
sS'word_presentation.thisTrialN'
p1395
I23
sg41
g12
sS'word_presentation.thisIndex'
p1396
g31
(g131
S'\x17\x00\x00\x00'
p1397
tp1398
Rp1399
sa(dp1400
S'training_block.thisRepN'
p1401
I0
sg163
g881
sg30
g40
sg882
Vcarve
p1402
sS'experimental_blocks.thisN'
p1403
I1
sg42
g43
sg885
Vbash
p1404
sg887
Vshake
p1405
sg889
Vpunch
p1406
sS'experimental_blocks.thisIndex'
p1407
g894
sS'word_presentation.thisRepN'
p1408
I0
sS'experimental_blocks.thisRepN'
p1409
I0
sg44
g49
sg162
g899
sg900
g901
sS'training_block.thisIndex'
p1410
g145
sg164
g905
sg18
F10.801126609420862
sS'experimental_blocks.thisTrialN'
p1411
I1
sS'training_block.thisN'
p1412
I0
sS'word_presentation.thisN'
p1413
I24
sS'training_block.thisTrialN'
p1414
I0
sg17
S'space'
p1415
sg28
g29
sS'word_presentation.thisTrialN'
p1416
I24
sg41
g12
sS'word_presentation.thisIndex'
p1417
g31
(g131
S'\x18\x00\x00\x00'
p1418
tp1419
Rp1420
sa(dp1421
S'training_block.thisRepN'
p1422
I0
sg163
g881
sg30
g40
sg882
Vhack
p1423
sS'experimental_blocks.thisN'
p1424
I1
sg42
g43
sg885
Vwash
p1425
sg887
Vsqueeze
p1426
sg889
Vgrate
p1427
sS'experimental_blocks.thisIndex'
p1428
g894
sS'word_presentation.thisRepN'
p1429
I0
sS'experimental_blocks.thisRepN'
p1430
I0
sg44
g49
sg162
g899
sg900
g901
sS'training_block.thisIndex'
p1431
g145
sg164
g905
sg18
F5.518368743522842
sS'experimental_blocks.thisTrialN'
p1432
I1
sS'training_block.thisN'
p1433
I0
sS'word_presentation.thisN'
p1434
I25
sS'training_block.thisTrialN'
p1435
I0
sg17
S'space'
p1436
sg28
g29
sS'word_presentation.thisTrialN'
p1437
I25
sg41
g12
sS'word_presentation.thisIndex'
p1438
g31
(g131
S'\x19\x00\x00\x00'
p1439
tp1440
Rp1441
sa(dp1442
S'training_block.thisRepN'
p1443
I0
sg163
g881
sg30
g40
sg882
Vlimp
p1444
sS'experimental_blocks.thisN'
p1445
I1
sg42
g43
sg885
Vwalk
p1446
sg887
Vstep
p1447
sg889
Vmount
p1448
sS'experimental_blocks.thisIndex'
p1449
g894
sS'word_presentation.thisRepN'
p1450
I0
sS'experimental_blocks.thisRepN'
p1451
I0
sg44
g49
sg162
g899
sg900
g926
sS'training_block.thisIndex'
p1452
g145
sg164
g905
sg18
F5.03192547324943
sS'experimental_blocks.thisTrialN'
p1453
I1
sS'training_block.thisN'
p1454
I0
sS'word_presentation.thisN'
p1455
I26
sS'training_block.thisTrialN'
p1456
I0
sg17
S'space'
p1457
sg28
g29
sS'word_presentation.thisTrialN'
p1458
I26
sg41
g12
sS'word_presentation.thisIndex'
p1459
g31
(g131
S'\x1a\x00\x00\x00'
p1460
tp1461
Rp1462
sa(dp1463
S'training_block.thisRepN'
p1464
I0
sg163
g881
sg30
g40
sg882
Vhike
p1465
sS'experimental_blocks.thisN'
p1466
I1
sg42
g43
sg885
Vplod
p1467
sg887
Vprance
p1468
sg889
Vsway
p1469
sS'experimental_blocks.thisIndex'
p1470
g894
sS'word_presentation.thisRepN'
p1471
I0
sS'experimental_blocks.thisRepN'
p1472
I0
sg44
g49
sg162
g899
sg900
g926
sS'training_block.thisIndex'
p1473
g145
sg164
g905
sg18
F7.1105238058180475
sS'experimental_blocks.thisTrialN'
p1474
I1
sS'training_block.thisN'
p1475
I0
sS'word_presentation.thisN'
p1476
I27
sS'training_block.thisTrialN'
p1477
I0
sg17
S'space'
p1478
sg28
g29
sS'word_presentation.thisTrialN'
p1479
I27
sg41
g12
sS'word_presentation.thisIndex'
p1480
g31
(g131
S'\x1b\x00\x00\x00'
p1481
tp1482
Rp1483
sa(dp1484
S'training_block.thisRepN'
p1485
I0
sg163
g881
sS'experimental_blocks.thisRepN'
p1486
I0
sS'experimental_blocks.thisTrialN'
p1487
I1
sS'training_block.thisN'
p1488
I0
sg42
g43
sg41
g12
sg30
g40
sS'training_block.thisTrialN'
p1489
I0
sg44
g49
sS'experimental_blocks.thisN'
p1490
I1
sg164
g905
sg28
g29
sS'experimental_blocks.thisIndex'
p1491
g894
sg162
g899
sS'training_block.thisIndex'
p1492
g145
sa(dp1493
S'training_block.thisRepN'
p1494
I0
sg163
g31
(g35
S'\x9a\x99\x99\x99\x99\x99\xd9?'
p1495
tp1496
Rp1497
sg30
g40
sS'word4'
p1498
Vstride
p1499
sS'experimental_blocks.thisN'
p1500
I2
sg42
g43
sS'word1'
p1501
Vglide
p1502
sS'word3'
p1503
Vjump
p1504
sS'word2'
p1505
Vwade
p1506
sS'experimental_blocks.thisIndex'
p1507
g31
(g131
S'\x03\x00\x00\x00'
p1508
tp1509
Rp1510
sS'word_presentation.thisRepN'
p1511
I0
sS'experimental_blocks.thisRepN'
p1512
I0
sg44
g49
sg162
g31
(g35
S'\x9a\x99\x99\x99\x99\x99\xd9?'
p1513
tp1514
Rp1515
sS'type'
p1516
Vleg
p1517
sS'training_block.thisIndex'
p1518
g145
sg164
g31
(g35
S'\x9a\x99\x99\x99\x99\x99\xe9?'
p1519
tp1520
Rp1521
sg18
F4.644715022815035
sS'experimental_blocks.thisTrialN'
p1522
I2
sS'training_block.thisN'
p1523
I0
sS'word_presentation.thisN'
p1524
I0
sS'training_block.thisTrialN'
p1525
I0
sg17
S'space'
p1526
sg28
g29
sS'word_presentation.thisTrialN'
p1527
I0
sg41
g12
sS'word_presentation.thisIndex'
p1528
g31
(g131
S'\x00\x00\x00\x00'
p1529
tp1530
Rp1531
sa(dp1532
S'training_block.thisRepN'
p1533
I0
sg163
g1497
sg30
g40
sg1498
Vdunk
p1534
sS'experimental_blocks.thisN'
p1535
I2
sg42
g43
sg1501
Vwipe
p1536
sg1503
Vslap
p1537
sg1505
Vdig
p1538
sS'experimental_blocks.thisIndex'
p1539
g1510
sS'word_presentation.thisRepN'
p1540
I0
sS'experimental_blocks.thisRepN'
p1541
I0
sg44
g49
sg162
g1515
sg1516
Varm
p1542
sS'training_block.thisIndex'
p1543
g145
sg164
g1521
sg18
F8.234211406989743
sS'experimental_blocks.thisTrialN'
p1544
I2
sS'training_block.thisN'
p1545
I0
sS'word_presentation.thisN'
p1546
I1
sS'training_block.thisTrialN'
p1547
I0
sg17
S'space'
p1548
sg28
g29
sS'word_presentation.thisTrialN'
p1549
I1
sg41
g12
sS'word_presentation.thisIndex'
p1550
g31
(g131
S'\x01\x00\x00\x00'
p1551
tp1552
Rp1553
sa(dp1554
S'training_block.thisRepN'
p1555
I0
sg163
g1497
sg30
g40
sg1498
Vslide
p1556
sS'experimental_blocks.thisN'
p1557
I2
sg42
g43
sg1501
Vroam
p1558
sg1503
Vskate
p1559
sg1505
Vrush
p1560
sS'experimental_blocks.thisIndex'
p1561
g1510
sS'word_presentation.thisRepN'
p1562
I0
sS'experimental_blocks.thisRepN'
p1563
I0
sg44
g49
sg162
g1515
sg1516
g1517
sS'training_block.thisIndex'
p1564
g145
sg164
g1521
sg18
F4.662518565111895
sS'experimental_blocks.thisTrialN'
p1565
I2
sS'training_block.thisN'
p1566
I0
sS'word_presentation.thisN'
p1567
I2
sS'training_block.thisTrialN'
p1568
I0
sg17
S'space'
p1569
sg28
g29
sS'word_presentation.thisTrialN'
p1570
I2
sg41
g12
sS'word_presentation.thisIndex'
p1571
g31
(g131
S'\x02\x00\x00\x00'
p1572
tp1573
Rp1574
sa(dp1575
S'training_block.thisRepN'
p1576
I0
sg163
g1497
sg30
g40
sg1498
Vcarve
p1577
sS'experimental_blocks.thisN'
p1578
I2
sg42
g43
sg1501
Vlift
p1579
sg1503
Vgrab
p1580
sg1505
Vscratch
p1581
sS'experimental_blocks.thisIndex'
p1582
g1510
sS'word_presentation.thisRepN'
p1583
I0
sS'experimental_blocks.thisRepN'
p1584
I0
sg44
g49
sg162
g1515
sg1516
g1542
sS'training_block.thisIndex'
p1585
g145
sg164
g1521
sg18
F5.652572524938478
sS'experimental_blocks.thisTrialN'
p1586
I2
sS'training_block.thisN'
p1587
I0
sS'word_presentation.thisN'
p1588
I3
sS'training_block.thisTrialN'
p1589
I0
sg17
S'space'
p1590
sg28
g29
sS'word_presentation.thisTrialN'
p1591
I3
sg41
g12
sS'word_presentation.thisIndex'
p1592
g31
(g131
S'\x03\x00\x00\x00'
p1593
tp1594
Rp1595
sa(dp1596
S'training_block.thisRepN'
p1597
I0
sg163
g1497
sg30
g40
sg1498
Vtrek
p1598
sS'experimental_blocks.thisN'
p1599
I2
sg42
g43
sg1501
Vlimp
p1600
sg1503
Vpace
p1601
sg1505
Vstrut
p1602
sS'experimental_blocks.thisIndex'
p1603
g1510
sS'word_presentation.thisRepN'
p1604
I0
sS'experimental_blocks.thisRepN'
p1605
I0
sg44
g49
sg162
g1515
sg1516
g1517
sS'training_block.thisIndex'
p1606
g145
sg164
g1521
sg18
F5.753561992558389
sS'experimental_blocks.thisTrialN'
p1607
I2
sS'training_block.thisN'
p1608
I0
sS'word_presentation.thisN'
p1609
I4
sS'training_block.thisTrialN'
p1610
I0
sg17
S'space'
p1611
sg28
g29
sS'word_presentation.thisTrialN'
p1612
I4
sg41
g12
sS'word_presentation.thisIndex'
p1613
g31
(g131
S'\x04\x00\x00\x00'
p1614
tp1615
Rp1616
sa(dp1617
S'training_block.thisRepN'
p1618
I0
sg163
g1497
sg30
g40
sg1498
Vinch
p1619
sS'experimental_blocks.thisN'
p1620
I2
sg42
g43
sg1501
Vstagger
p1621
sg1503
Vwobble
p1622
sg1505
Vmarch
p1623
sS'experimental_blocks.thisIndex'
p1624
g1510
sS'word_presentation.thisRepN'
p1625
I0
sS'experimental_blocks.thisRepN'
p1626
I0
sg44
g49
sg162
g1515
sg1516
g1517
sS'training_block.thisIndex'
p1627
g145
sg164
g1521
sg18
F4.091991290250917
sS'experimental_blocks.thisTrialN'
p1628
I2
sS'training_block.thisN'
p1629
I0
sS'word_presentation.thisN'
p1630
I5
sS'training_block.thisTrialN'
p1631
I0
sg17
S'space'
p1632
sg28
g29
sS'word_presentation.thisTrialN'
p1633
I5
sg41
g12
sS'word_presentation.thisIndex'
p1634
g31
(g131
S'\x05\x00\x00\x00'
p1635
tp1636
Rp1637
sa(dp1638
S'training_block.thisRepN'
p1639
I0
sg163
g1497
sg30
g40
sg1498
Vtraipse
p1640
sS'experimental_blocks.thisN'
p1641
I2
sg42
g43
sg1501
Vflee
p1642
sg1503
Vdance
p1643
sg1505
Vleap
p1644
sS'experimental_blocks.thisIndex'
p1645
g1510
sS'word_presentation.thisRepN'
p1646
I0
sS'experimental_blocks.thisRepN'
p1647
I0
sg44
g49
sg162
g1515
sg1516
g1517
sS'training_block.thisIndex'
p1648
g145
sg164
g1521
sg18
F7.044468949887232
sS'experimental_blocks.thisTrialN'
p1649
I2
sS'training_block.thisN'
p1650
I0
sS'word_presentation.thisN'
p1651
I6
sS'training_block.thisTrialN'
p1652
I0
sg17
S'space'
p1653
sg28
g29
sS'word_presentation.thisTrialN'
p1654
I6
sg41
g12
sS'word_presentation.thisIndex'
p1655
g31
(g131
S'\x06\x00\x00\x00'
p1656
tp1657
Rp1658
sa(dp1659
S'training_block.thisRepN'
p1660
I0
sg163
g1497
sg30
g40
sg1498
Vpolish
p1661
sS'experimental_blocks.thisN'
p1662
I2
sg42
g43
sg1501
Vgrate
p1663
sg1503
Vscrape
p1664
sg1505
Vskim
p1665
sS'experimental_blocks.thisIndex'
p1666
g1510
sS'word_presentation.thisRepN'
p1667
I0
sS'experimental_blocks.thisRepN'
p1668
I0
sg44
g49
sg162
g1515
sg1516
g1542
sS'training_block.thisIndex'
p1669
g145
sg164
g1521
sg18
F16.184587490029116
sS'experimental_blocks.thisTrialN'
p1670
I2
sS'training_block.thisN'
p1671
I0
sS'word_presentation.thisN'
p1672
I7
sS'training_block.thisTrialN'
p1673
I0
sg17
S'space'
p1674
sg28
g29
sS'word_presentation.thisTrialN'
p1675
I7
sg41
g12
sS'word_presentation.thisIndex'
p1676
g31
(g131
S'\x07\x00\x00\x00'
p1677
tp1678
Rp1679
sa(dp1680
S'training_block.thisRepN'
p1681
I0
sg163
g1497
sg30
g40
sg1498
Vclap
p1682
sS'experimental_blocks.thisN'
p1683
I2
sg42
g43
sg1501
Vsnatch
p1684
sg1503
Vbraid
p1685
sg1505
Vstab
p1686
sS'experimental_blocks.thisIndex'
p1687
g1510
sS'word_presentation.thisRepN'
p1688
I0
sS'experimental_blocks.thisRepN'
p1689
I0
sg44
g49
sg162
g1515
sg1516
g1542
sS'training_block.thisIndex'
p1690
g145
sg164
g1521
sg18
F7.782401281412604
sS'experimental_blocks.thisTrialN'
p1691
I2
sS'training_block.thisN'
p1692
I0
sS'word_presentation.thisN'
p1693
I8
sS'training_block.thisTrialN'
p1694
I0
sg17
S'space'
p1695
sg28
g29
sS'word_presentation.thisTrialN'
p1696
I8
sg41
g12
sS'word_presentation.thisIndex'
p1697
g31
(g131
S'\x08\x00\x00\x00'
p1698
tp1699
Rp1700
sa(dp1701
S'training_block.thisRepN'
p1702
I0
sg163
g1497
sg30
g40
sg1498
Vstomp
p1703
sS'experimental_blocks.thisN'
p1704
I2
sg42
g43
sg1501
Vkneel
p1705
sg1503
Vclimb
p1706
sg1505
Vslither
p1707
sS'experimental_blocks.thisIndex'
p1708
g1510
sS'word_presentation.thisRepN'
p1709
I0
sS'experimental_blocks.thisRepN'
p1710
I0
sg44
g49
sg162
g1515
sg1516
g1517
sS'training_block.thisIndex'
p1711
g145
sg164
g1521
sg18
F5.3673717095944085
sS'experimental_blocks.thisTrialN'
p1712
I2
sS'training_block.thisN'
p1713
I0
sS'word_presentation.thisN'
p1714
I9
sS'training_block.thisTrialN'
p1715
I0
sg17
S'space'
p1716
sg28
g29
sS'word_presentation.thisTrialN'
p1717
I9
sg41
g12
sS'word_presentation.thisIndex'
p1718
g31
(g131
S'\t\x00\x00\x00'
p1719
tp1720
Rp1721
sa(dp1722
S'training_block.thisRepN'
p1723
I0
sg163
g1497
sg30
g40
sg1498
Vsway
p1724
sS'experimental_blocks.thisN'
p1725
I2
sg42
g43
sg1501
Vtrudge
p1726
sg1503
Vplod
p1727
sg1505
Vwalk
p1728
sS'experimental_blocks.thisIndex'
p1729
g1510
sS'word_presentation.thisRepN'
p1730
I0
sS'experimental_blocks.thisRepN'
p1731
I0
sg44
g49
sg162
g1515
sg1516
g1517
sS'training_block.thisIndex'
p1732
g145
sg164
g1521
sg18
F18.163112609182463
sS'experimental_blocks.thisTrialN'
p1733
I2
sS'training_block.thisN'
p1734
I0
sS'word_presentation.thisN'
p1735
I10
sS'training_block.thisTrialN'
p1736
I0
sg17
S'space'
p1737
sg28
g29
sS'word_presentation.thisTrialN'
p1738
I10
sg41
g12
sS'word_presentation.thisIndex'
p1739
g31
(g131
S'\n\x00\x00\x00'
p1740
tp1741
Rp1742
sa(dp1743
S'training_block.thisRepN'
p1744
I0
sg163
g1497
sg30
g40
sg1498
Vchop
p1745
sS'experimental_blocks.thisN'
p1746
I2
sg42
g43
sg1501
Vpunch
p1747
sg1503
Vtwine
p1748
sg1505
Vclaw
p1749
sS'experimental_blocks.thisIndex'
p1750
g1510
sS'word_presentation.thisRepN'
p1751
I0
sS'experimental_blocks.thisRepN'
p1752
I0
sg44
g49
sg162
g1515
sg1516
g1542
sS'training_block.thisIndex'
p1753
g145
sg164
g1521
sg18
F15.74863658292088
sS'experimental_blocks.thisTrialN'
p1754
I2
sS'training_block.thisN'
p1755
I0
sS'word_presentation.thisN'
p1756
I11
sS'training_block.thisTrialN'
p1757
I0
sg17
S'space'
p1758
sg28
g29
sS'word_presentation.thisTrialN'
p1759
I11
sg41
g12
sS'word_presentation.thisIndex'
p1760
g31
(g131
S'\x0b\x00\x00\x00'
p1761
tp1762
Rp1763
sa(dp1764
S'training_block.thisRepN'
p1765
I0
sg163
g1497
sg30
g40
sg1498
Vstamp
p1766
sS'experimental_blocks.thisN'
p1767
I2
sg42
g43
sg1501
Vskip
p1768
sg1503
Vhike
p1769
sg1505
Vstumble
p1770
sS'experimental_blocks.thisIndex'
p1771
g1510
sS'word_presentation.thisRepN'
p1772
I0
sS'experimental_blocks.thisRepN'
p1773
I0
sg44
g49
sg162
g1515
sg1516
g1517
sS'training_block.thisIndex'
p1774
g145
sg164
g1521
sg18
F4.47638027828998
sS'experimental_blocks.thisTrialN'
p1775
I2
sS'training_block.thisN'
p1776
I0
sS'word_presentation.thisN'
p1777
I12
sS'training_block.thisTrialN'
p1778
I0
sg17
S'space'
p1779
sg28
g29
sS'word_presentation.thisTrialN'
p1780
I12
sg41
g12
sS'word_presentation.thisIndex'
p1781
g31
(g131
S'\x0c\x00\x00\x00'
p1782
tp1783
Rp1784
sa(dp1785
S'training_block.thisRepN'
p1786
I0
sg163
g1497
sg30
g40
sg1498
Vpinch
p1787
sS'experimental_blocks.thisN'
p1788
I2
sg42
g43
sg1501
Vscrub
p1789
sg1503
Vcut
p1790
sg1505
Vpoke
p1791
sS'experimental_blocks.thisIndex'
p1792
g1510
sS'word_presentation.thisRepN'
p1793
I0
sS'experimental_blocks.thisRepN'
p1794
I0
sg44
g49
sg162
g1515
sg1516
g1542
sS'training_block.thisIndex'
p1795
g145
sg164
g1521
sg18
F18.76844569070181
sS'experimental_blocks.thisTrialN'
p1796
I2
sS'training_block.thisN'
p1797
I0
sS'word_presentation.thisN'
p1798
I13
sS'training_block.thisTrialN'
p1799
I0
sg17
S'space'
p1800
sg28
g29
sS'word_presentation.thisTrialN'
p1801
I13
sg41
g12
sS'word_presentation.thisIndex'
p1802
g31
(g131
S'\r\x00\x00\x00'
p1803
tp1804
Rp1805
sa(dp1806
S'training_block.thisRepN'
p1807
I0
sg163
g1497
sg30
g40
sg1498
Vgrasp
p1808
sS'experimental_blocks.thisN'
p1809
I2
sg42
g43
sg1501
Vbrush
p1810
sg1503
Vfile
p1811
sg1505
Vseize
p1812
sS'experimental_blocks.thisIndex'
p1813
g1510
sS'word_presentation.thisRepN'
p1814
I0
sS'experimental_blocks.thisRepN'
p1815
I0
sg44
g49
sg162
g1515
sg1516
g1542
sS'training_block.thisIndex'
p1816
g145
sg164
g1521
sg18
F31.980645265802195
sS'experimental_blocks.thisTrialN'
p1817
I2
sS'training_block.thisN'
p1818
I0
sS'word_presentation.thisN'
p1819
I14
sS'training_block.thisTrialN'
p1820
I0
sg17
S'space'
p1821
sg28
g29
sS'word_presentation.thisTrialN'
p1822
I14
sg41
g12
sS'word_presentation.thisIndex'
p1823
g31
(g131
S'\x0e\x00\x00\x00'
p1824
tp1825
Rp1826
sa(dp1827
S'training_block.thisRepN'
p1828
I0
sg163
g1497
sg30
g40
sg1498
Vclick
p1829
sS'experimental_blocks.thisN'
p1830
I2
sg42
g43
sg1501
Vbind
p1831
sg1503
Vnip
p1832
sg1505
Vwhip
p1833
sS'experimental_blocks.thisIndex'
p1834
g1510
sS'word_presentation.thisRepN'
p1835
I0
sS'experimental_blocks.thisRepN'
p1836
I0
sg44
g49
sg162
g1515
sg1516
g1542
sS'training_block.thisIndex'
p1837
g145
sg164
g1521
sg18
F8.63901994383923
sS'experimental_blocks.thisTrialN'
p1838
I2
sS'training_block.thisN'
p1839
I0
sS'word_presentation.thisN'
p1840
I15
sS'training_block.thisTrialN'
p1841
I0
sg17
S'space'
p1842
sg28
g29
sS'word_presentation.thisTrialN'
p1843
I15
sg41
g12
sS'word_presentation.thisIndex'
p1844
g31
(g131
S'\x0f\x00\x00\x00'
p1845
tp1846
Rp1847
sa(dp1848
S'training_block.thisRepN'
p1849
I0
sg163
g1497
sg30
g40
sg1498
Vsprint
p1850
sS'experimental_blocks.thisN'
p1851
I2
sg42
g43
sg1501
Vwander
p1852
sg1503
Vtrip
p1853
sg1505
Vstroll
p1854
sS'experimental_blocks.thisIndex'
p1855
g1510
sS'word_presentation.thisRepN'
p1856
I0
sS'experimental_blocks.thisRepN'
p1857
I0
sg44
g49
sg162
g1515
sg1516
g1517
sS'training_block.thisIndex'
p1858
g145
sg164
g1521
sg18
F6.608424797418593
sS'experimental_blocks.thisTrialN'
p1859
I2
sS'training_block.thisN'
p1860
I0
sS'word_presentation.thisN'
p1861
I16
sS'training_block.thisTrialN'
p1862
I0
sg17
S'space'
p1863
sg28
g29
sS'word_presentation.thisTrialN'
p1864
I16
sg41
g12
sS'word_presentation.thisIndex'
p1865
g31
(g131
S'\x10\x00\x00\x00'
p1866
tp1867
Rp1868
sa(dp1869
S'training_block.thisRepN'
p1870
I0
sg163
g1497
sg30
g40
sg1498
Vprance
p1871
sS'experimental_blocks.thisN'
p1872
I2
sg42
g43
sg1501
Vkick
p1873
sg1503
Vcreep
p1874
sg1505
Vscuff
p1875
sS'experimental_blocks.thisIndex'
p1876
g1510
sS'word_presentation.thisRepN'
p1877
I0
sS'experimental_blocks.thisRepN'
p1878
I0
sg44
g49
sg162
g1515
sg1516
g1517
sS'training_block.thisIndex'
p1879
g145
sg164
g1521
sg18
F17.225241282249954
sS'experimental_blocks.thisTrialN'
p1880
I2
sS'training_block.thisN'
p1881
I0
sS'word_presentation.thisN'
p1882
I17
sS'training_block.thisTrialN'
p1883
I0
sg17
S'space'
p1884
sg28
g29
sS'word_presentation.thisTrialN'
p1885
I17
sg41
g12
sS'word_presentation.thisIndex'
p1886
g31
(g131
S'\x11\x00\x00\x00'
p1887
tp1888
Rp1889
sa(dp1890
S'training_block.thisRepN'
p1891
I0
sg163
g1497
sg30
g40
sg1498
Vrub
p1892
sS'experimental_blocks.thisN'
p1893
I2
sg42
g43
sg1501
Vknock
p1894
sg1503
Vstir
p1895
sg1505
Vpull
p1896
sS'experimental_blocks.thisIndex'
p1897
g1510
sS'word_presentation.thisRepN'
p1898
I0
sS'experimental_blocks.thisRepN'
p1899
I0
sg44
g49
sg162
g1515
sg1516
g1542
sS'training_block.thisIndex'
p1900
g145
sg164
g1521
sg18
F4.495252586274546
sS'experimental_blocks.thisTrialN'
p1901
I2
sS'training_block.thisN'
p1902
I0
sS'word_presentation.thisN'
p1903
I18
sS'training_block.thisTrialN'
p1904
I0
sg17
S'space'
p1905
sg28
g29
sS'word_presentation.thisTrialN'
p1906
I18
sg41
g12
sS'word_presentation.thisIndex'
p1907
g31
(g131
S'\x12\x00\x00\x00'
p1908
tp1909
Rp1910
sa(dp1911
S'training_block.thisRepN'
p1912
I0
sg163
g1497
sg30
g40
sg1498
Vscoop
p1913
sS'experimental_blocks.thisN'
p1914
I2
sg42
g43
sg1501
Vwrap
p1915
sg1503
Vshake
p1916
sg1505
Vclean
p1917
sS'experimental_blocks.thisIndex'
p1918
g1510
sS'word_presentation.thisRepN'
p1919
I0
sS'experimental_blocks.thisRepN'
p1920
I0
sg44
g49
sg162
g1515
sg1516
g1542
sS'training_block.thisIndex'
p1921
g145
sg164
g1521
sg18
F8.017287927056714
sS'experimental_blocks.thisTrialN'
p1922
I2
sS'training_block.thisN'
p1923
I0
sS'word_presentation.thisN'
p1924
I19
sS'training_block.thisTrialN'
p1925
I0
sg17
S'space'
p1926
sg28
g29
sS'word_presentation.thisTrialN'
p1927
I19
sg41
g12
sS'word_presentation.thisIndex'
p1928
g31
(g131
S'\x13\x00\x00\x00'
p1929
tp1930
Rp1931
sa(dp1932
S'training_block.thisRepN'
p1933
I0
sg163
g1497
sg30
g40
sg1498
Vroll
p1934
sS'experimental_blocks.thisN'
p1935
I2
sg42
g43
sg1501
Vsneak
p1936
sg1503
Vmount
p1937
sg1505
Vstep
p1938
sS'experimental_blocks.thisIndex'
p1939
g1510
sS'word_presentation.thisRepN'
p1940
I0
sS'experimental_blocks.thisRepN'
p1941
I0
sg44
g49
sg162
g1515
sg1516
g1517
sS'training_block.thisIndex'
p1942
g145
sg164
g1521
sg18
F4.964765896852441
sS'experimental_blocks.thisTrialN'
p1943
I2
sS'training_block.thisN'
p1944
I0
sS'word_presentation.thisN'
p1945
I20
sS'training_block.thisTrialN'
p1946
I0
sg17
S'space'
p1947
sg28
g29
sS'word_presentation.thisTrialN'
p1948
I20
sg41
g12
sS'word_presentation.thisIndex'
p1949
g31
(g131
S'\x14\x00\x00\x00'
p1950
tp1951
Rp1952
sa(dp1953
S'training_block.thisRepN'
p1954
I0
sg163
g1497
sg30
g40
sg1498
Vbounce
p1955
sS'experimental_blocks.thisN'
p1956
I2
sg42
g43
sg1501
Vslip
p1957
sg1503
Vtrot
p1958
sg1505
Vhop
p1959
sS'experimental_blocks.thisIndex'
p1960
g1510
sS'word_presentation.thisRepN'
p1961
I0
sS'experimental_blocks.thisRepN'
p1962
I0
sg44
g49
sg162
g1515
sg1516
g1517
sS'training_block.thisIndex'
p1963
g145
sg164
g1521
sg18
F7.094631398321326
sS'experimental_blocks.thisTrialN'
p1964
I2
sS'training_block.thisN'
p1965
I0
sS'word_presentation.thisN'
p1966
I21
sS'training_block.thisTrialN'
p1967
I0
sg17
S'space'
p1968
sg28
g29
sS'word_presentation.thisTrialN'
p1969
I21
sg41
g12
sS'word_presentation.thisIndex'
p1970
g31
(g131
S'\x15\x00\x00\x00'
p1971
tp1972
Rp1973
sa(dp1974
S'training_block.thisRepN'
p1975
I0
sg163
g1497
sg30
g40
sg1498
Vswitch
p1976
sS'experimental_blocks.thisN'
p1977
I2
sg42
g43
sg1501
Vpat
p1978
sg1503
Vpeel
p1979
sg1505
Vwash
p1980
sS'experimental_blocks.thisIndex'
p1981
g1510
sS'word_presentation.thisRepN'
p1982
I0
sS'experimental_blocks.thisRepN'
p1983
I0
sg44
g49
sg162
g1515
sg1516
g1542
sS'training_block.thisIndex'
p1984
g145
sg164
g1521
sg18
F24.03315899874997
sS'experimental_blocks.thisTrialN'
p1985
I2
sS'training_block.thisN'
p1986
I0
sS'word_presentation.thisN'
p1987
I22
sS'training_block.thisTrialN'
p1988
I0
sg17
S'space'
p1989
sg28
g29
sS'word_presentation.thisTrialN'
p1990
I22
sg41
g12
sS'word_presentation.thisIndex'
p1991
g31
(g131
S'\x16\x00\x00\x00'
p1992
tp1993
Rp1994
sa(dp1995
S'training_block.thisRepN'
p1996
I0
sg163
g1497
sg30
g40
sg1498
Vtread
p1997
sS'experimental_blocks.thisN'
p1998
I2
sg42
g43
sg1501
Vcrawl
p1999
sg1503
Vtiptoe
p2000
sg1505
Vramble
p2001
sS'experimental_blocks.thisIndex'
p2002
g1510
sS'word_presentation.thisRepN'
p2003
I0
sS'experimental_blocks.thisRepN'
p2004
I0
sg44
g49
sg162
g1515
sg1516
g1517
sS'training_block.thisIndex'
p2005
g145
sg164
g1521
sg18
F5.533823767057584
sS'experimental_blocks.thisTrialN'
p2006
I2
sS'training_block.thisN'
p2007
I0
sS'word_presentation.thisN'
p2008
I23
sS'training_block.thisTrialN'
p2009
I0
sg17
S'space'
p2010
sg28
g29
sS'word_presentation.thisTrialN'
p2011
I23
sg41
g12
sS'word_presentation.thisIndex'
p2012
g31
(g131
S'\x17\x00\x00\x00'
p2013
tp2014
Rp2015
sa(dp2016
S'training_block.thisRepN'
p2017
I0
sg163
g1497
sg30
g40
sg1498
Vstray
p2018
sS'experimental_blocks.thisN'
p2019
I2
sg42
g43
sg1501
Vjog
p2020
sg1503
Vrun
p2021
sg1505
Vflit
p2022
sS'experimental_blocks.thisIndex'
p2023
g1510
sS'word_presentation.thisRepN'
p2024
I0
sS'experimental_blocks.thisRepN'
p2025
I0
sg44
g49
sg162
g1515
sg1516
g1517
sS'training_block.thisIndex'
p2026
g145
sg164
g1521
sg18
F5.0996445218152076
sS'experimental_blocks.thisTrialN'
p2027
I2
sS'training_block.thisN'
p2028
I0
sS'word_presentation.thisN'
p2029
I24
sS'training_block.thisTrialN'
p2030
I0
sg17
S'space'
p2031
sg28
g29
sS'word_presentation.thisTrialN'
p2032
I24
sg41
g12
sS'word_presentation.thisIndex'
p2033
g31
(g131
S'\x18\x00\x00\x00'
p2034
tp2035
Rp2036
sa(dp2037
S'training_block.thisRepN'
p2038
I0
sg163
g1497
sg30
g40
sg1498
Vhack
p2039
sS'experimental_blocks.thisN'
p2040
I2
sg42
g43
sg1501
Vfold
p2041
sg1503
Vclutch
p2042
sg1505
Vcatch
p2043
sS'experimental_blocks.thisIndex'
p2044
g1510
sS'word_presentation.thisRepN'
p2045
I0
sS'experimental_blocks.thisRepN'
p2046
I0
sg44
g49
sg162
g1515
sg1516
g1542
sS'training_block.thisIndex'
p2047
g145
sg164
g1521
sg18
F8.284830994758522
sS'experimental_blocks.thisTrialN'
p2048
I2
sS'training_block.thisN'
p2049
I0
sS'word_presentation.thisN'
p2050
I25
sS'training_block.thisTrialN'
p2051
I0
sg17
S'space'
p2052
sg28
g29
sS'word_presentation.thisTrialN'
p2053
I25
sg41
g12
sS'word_presentation.thisIndex'
p2054
g31
(g131
S'\x19\x00\x00\x00'
p2055
tp2056
Rp2057
sa(dp2058
S'training_block.thisRepN'
p2059
I0
sg163
g1497
sg30
g40
sg1498
Vdelve
p2060
sS'experimental_blocks.thisN'
p2061
I2
sg42
g43
sg1501
Vgrip
p2062
sg1503
Vbash
p2063
sg1505
Vtoss
p2064
sS'experimental_blocks.thisIndex'
p2065
g1510
sS'word_presentation.thisRepN'
p2066
I0
sS'experimental_blocks.thisRepN'
p2067
I0
sg44
g49
sg162
g1515
sg1516
g1542
sS'training_block.thisIndex'
p2068
g145
sg164
g1521
sg18
F19.854796426807297
sS'experimental_blocks.thisTrialN'
p2069
I2
sS'training_block.thisN'
p2070
I0
sS'word_presentation.thisN'
p2071
I26
sS'training_block.thisTrialN'
p2072
I0
sg17
S'space'
p2073
sg28
g29
sS'word_presentation.thisTrialN'
p2074
I26
sg41
g12
sS'word_presentation.thisIndex'
p2075
g31
(g131
S'\x1a\x00\x00\x00'
p2076
tp2077
Rp2078
sa(dp2079
S'training_block.thisRepN'
p2080
I0
sg163
g1497
sg30
g40
sg1498
Vthrow
p2081
sS'experimental_blocks.thisN'
p2082
I2
sg42
g43
sg1501
Vpush
p2083
sg1503
Vsqueeze
p2084
sg1505
Vtug
p2085
sS'experimental_blocks.thisIndex'
p2086
g1510
sS'word_presentation.thisRepN'
p2087
I0
sS'experimental_blocks.thisRepN'
p2088
I0
sg44
g49
sg162
g1515
sg1516
g1542
sS'training_block.thisIndex'
p2089
g145
sg164
g1521
sg18
F4.411478741045357
sS'experimental_blocks.thisTrialN'
p2090
I2
sS'training_block.thisN'
p2091
I0
sS'word_presentation.thisN'
p2092
I27
sS'training_block.thisTrialN'
p2093
I0
sg17
S'space'
p2094
sg28
g29
sS'word_presentation.thisTrialN'
p2095
I27
sg41
g12
sS'word_presentation.thisIndex'
p2096
g31
(g131
S'\x1b\x00\x00\x00'
p2097
tp2098
Rp2099
sa(dp2100
S'training_block.thisRepN'
p2101
I0
sg163
g1497
sS'experimental_blocks.thisRepN'
p2102
I0
sS'experimental_blocks.thisTrialN'
p2103
I2
sS'training_block.thisN'
p2104
I0
sg42
g43
sg41
g12
sg30
g40
sS'training_block.thisTrialN'
p2105
I0
sg44
g49
sS'experimental_blocks.thisN'
p2106
I2
sg164
g1521
sg28
g29
sS'experimental_blocks.thisIndex'
p2107
g1510
sg162
g1515
sS'training_block.thisIndex'
p2108
g145
sa(dp2109
S'training_block.thisRepN'
p2110
I0
sg163
g31
(g35
S'\x9a\x99\x99\x99\x99\x99\xd9?'
p2111
tp2112
Rp2113
sg30
g40
sS'word4'
p2114
Vpace
p2115
sS'experimental_blocks.thisN'
p2116
I3
sg42
g43
sS'word1'
p2117
Vramble
p2118
sS'word3'
p2119
Vrun
p2120
sS'word2'
p2121
Vjump
p2122
sS'experimental_blocks.thisIndex'
p2123
g31
(g131
S'\x00\x00\x00\x00'
p2124
tp2125
Rp2126
sS'word_presentation.thisRepN'
p2127
I0
sS'experimental_blocks.thisRepN'
p2128
I0
sg44
g49
sg162
g31
(g35
S'\x9a\x99\x99\x99\x99\x99\xb9?'
p2129
tp2130
Rp2131
sS'type'
p2132
Vleg
p2133
sS'training_block.thisIndex'
p2134
g145
sg164
g31
(g35
S'\x00\x00\x00\x00\x00\x00\xe0?'
p2135
tp2136
Rp2137
sg18
F7.044569702289664
sS'experimental_blocks.thisTrialN'
p2138
I3
sS'training_block.thisN'
p2139
I0
sS'word_presentation.thisN'
p2140
I0
sS'training_block.thisTrialN'
p2141
I0
sg17
S'space'
p2142
sg28
g29
sS'word_presentation.thisTrialN'
p2143
I0
sg41
g12
sS'word_presentation.thisIndex'
p2144
g31
(g131
S'\x00\x00\x00\x00'
p2145
tp2146
Rp2147
sa(dp2148
S'training_block.thisRepN'
p2149
I0
sg163
g2113
sg30
g40
sg2114
Vbash
p2150
sS'experimental_blocks.thisN'
p2151
I3
sg42
g43
sg2117
Vsqueeze
p2152
sg2119
Vscratch
p2153
sg2121
Vclutch
p2154
sS'experimental_blocks.thisIndex'
p2155
g2126
sS'word_presentation.thisRepN'
p2156
I0
sS'experimental_blocks.thisRepN'
p2157
I0
sg44
g49
sg162
g2131
sg2132
Varm
p2158
sS'training_block.thisIndex'
p2159
g145
sg164
g2137
sg18
F13.249771134002003
sS'experimental_blocks.thisTrialN'
p2160
I3
sS'training_block.thisN'
p2161
I0
sS'word_presentation.thisN'
p2162
I1
sS'training_block.thisTrialN'
p2163
I0
sg17
S'space'
p2164
sg28
g29
sS'word_presentation.thisTrialN'
p2165
I1
sg41
g12
sS'word_presentation.thisIndex'
p2166
g31
(g131
S'\x01\x00\x00\x00'
p2167
tp2168
Rp2169
sa(dp2170
S'training_block.thisRepN'
p2171
I0
sg163
g2113
sg30
g40
sg2114
Vroam
p2172
sS'experimental_blocks.thisN'
p2173
I3
sg42
g43
sg2117
Vbounce
p2174
sg2119
Vstroll
p2175
sg2121
Vwalk
p2176
sS'experimental_blocks.thisIndex'
p2177
g2126
sS'word_presentation.thisRepN'
p2178
I0
sS'experimental_blocks.thisRepN'
p2179
I0
sg44
g49
sg162
g2131
sg2132
g2133
sS'training_block.thisIndex'
p2180
g145
sg164
g2137
sg18
F8.335842134021732
sS'experimental_blocks.thisTrialN'
p2181
I3
sS'training_block.thisN'
p2182
I0
sS'word_presentation.thisN'
p2183
I2
sS'training_block.thisTrialN'
p2184
I0
sg17
S'space'
p2185
sg28
g29
sS'word_presentation.thisTrialN'
p2186
I2
sg41
g12
sS'word_presentation.thisIndex'
p2187
g31
(g131
S'\x02\x00\x00\x00'
p2188
tp2189
Rp2190
sa(dp2191
S'training_block.thisRepN'
p2192
I0
sg163
g2113
sg30
g40
sg2114
Vwander
p2193
sS'experimental_blocks.thisN'
p2194
I3
sg42
g43
sg2117
Vstagger
p2195
sg2119
Vstep
p2196
sg2121
Vhop
p2197
sS'experimental_blocks.thisIndex'
p2198
g2126
sS'word_presentation.thisRepN'
p2199
I0
sS'experimental_blocks.thisRepN'
p2200
I0
sg44
g49
sg162
g2131
sg2132
g2133
sS'training_block.thisIndex'
p2201
g145
sg164
g2137
sg18
F7.1115384417826135
sS'experimental_blocks.thisTrialN'
p2202
I3
sS'training_block.thisN'
p2203
I0
sS'word_presentation.thisN'
p2204
I3
sS'training_block.thisTrialN'
p2205
I0
sg17
S'space'
p2206
sg28
g29
sS'word_presentation.thisTrialN'
p2207
I3
sg41
g12
sS'word_presentation.thisIndex'
p2208
g31
(g131
S'\x03\x00\x00\x00'
p2209
tp2210
Rp2211
sa(dp2212
S'training_block.thisRepN'
p2213
I0
sg163
g2113
sg30
g40
sg2114
Vknock
p2214
sS'experimental_blocks.thisN'
p2215
I3
sg42
g43
sg2117
Vscrub
p2216
sg2119
Vseize
p2217
sg2121
Vcatch
p2218
sS'experimental_blocks.thisIndex'
p2219
g2126
sS'word_presentation.thisRepN'
p2220
I0
sS'experimental_blocks.thisRepN'
p2221
I0
sg44
g49
sg162
g2131
sg2132
g2158
sS'training_block.thisIndex'
p2222
g145
sg164
g2137
sg18
F18.93484796462326
sS'experimental_blocks.thisTrialN'
p2223
I3
sS'training_block.thisN'
p2224
I0
sS'word_presentation.thisN'
p2225
I4
sS'training_block.thisTrialN'
p2226
I0
sg17
S'space'
p2227
sg28
g29
sS'word_presentation.thisTrialN'
p2228
I4
sg41
g12
sS'word_presentation.thisIndex'
p2229
g31
(g131
S'\x04\x00\x00\x00'
p2230
tp2231
Rp2232
sa(dp2233
S'training_block.thisRepN'
p2234
I0
sg163
g2113
sg30
g40
sg2114
Vpinch
p2235
sS'experimental_blocks.thisN'
p2236
I3
sg42
g43
sg2117
Vwash
p2237
sg2119
Vpeel
p2238
sg2121
Vrub
p2239
sS'experimental_blocks.thisIndex'
p2240
g2126
sS'word_presentation.thisRepN'
p2241
I0
sS'experimental_blocks.thisRepN'
p2242
I0
sg44
g49
sg162
g2131
sg2132
g2158
sS'training_block.thisIndex'
p2243
g145
sg164
g2137
sg18
F14.019504084819346
sS'experimental_blocks.thisTrialN'
p2244
I3
sS'training_block.thisN'
p2245
I0
sS'word_presentation.thisN'
p2246
I5
sS'training_block.thisTrialN'
p2247
I0
sg17
S'space'
p2248
sg28
g29
sS'word_presentation.thisTrialN'
p2249
I5
sg41
g12
sS'word_presentation.thisIndex'
p2250
g31
(g131
S'\x05\x00\x00\x00'
p2251
tp2252
Rp2253
sa(dp2254
S'training_block.thisRepN'
p2255
I0
sg163
g2113
sg30
g40
sg2114
Vprance
p2256
sS'experimental_blocks.thisN'
p2257
I3
sg42
g43
sg2117
Vplod
p2258
sg2119
Vskip
p2259
sg2121
Vcrawl
p2260
sS'experimental_blocks.thisIndex'
p2261
g2126
sS'word_presentation.thisRepN'
p2262
I0
sS'experimental_blocks.thisRepN'
p2263
I0
sg44
g49
sg162
g2131
sg2132
g2133
sS'training_block.thisIndex'
p2264
g145
sg164
g2137
sg18
F29.583972781836565
sS'experimental_blocks.thisTrialN'
p2265
I3
sS'training_block.thisN'
p2266
I0
sS'word_presentation.thisN'
p2267
I6
sS'training_block.thisTrialN'
p2268
I0
sg17
S'space'
p2269
sg28
g29
sS'word_presentation.thisTrialN'
p2270
I6
sg41
g12
sS'word_presentation.thisIndex'
p2271
g31
(g131
S'\x06\x00\x00\x00'
p2272
tp2273
Rp2274
sa(dp2275
S'training_block.thisRepN'
p2276
I0
sg163
g2113
sg30
g40
sg2114
Vpat
p2277
sS'experimental_blocks.thisN'
p2278
I3
sg42
g43
sg2117
Vbind
p2279
sg2119
Vswitch
p2280
sg2121
Vscoop
p2281
sS'experimental_blocks.thisIndex'
p2282
g2126
sS'word_presentation.thisRepN'
p2283
I0
sS'experimental_blocks.thisRepN'
p2284
I0
sg44
g49
sg162
g2131
sg2132
g2158
sS'training_block.thisIndex'
p2285
g145
sg164
g2137
sg18
F12.479236905250218
sS'experimental_blocks.thisTrialN'
p2286
I3
sS'training_block.thisN'
p2287
I0
sS'word_presentation.thisN'
p2288
I7
sS'training_block.thisTrialN'
p2289
I0
sg17
S'space'
p2290
sg28
g29
sS'word_presentation.thisTrialN'
p2291
I7
sg41
g12
sS'word_presentation.thisIndex'
p2292
g31
(g131
S'\x07\x00\x00\x00'
p2293
tp2294
Rp2295
sa(dp2296
S'training_block.thisRepN'
p2297
I0
sg163
g2113
sg30
g40
sg2114
Vgrip
p2298
sS'experimental_blocks.thisN'
p2299
I3
sg42
g43
sg2117
Vgrate
p2300
sg2119
Vpolish
p2301
sg2121
Vstab
p2302
sS'experimental_blocks.thisIndex'
p2303
g2126
sS'word_presentation.thisRepN'
p2304
I0
sS'experimental_blocks.thisRepN'
p2305
I0
sg44
g49
sg162
g2131
sg2132
g2158
sS'training_block.thisIndex'
p2306
g145
sg164
g2137
sg18
F11.119770900888398
sS'experimental_blocks.thisTrialN'
p2307
I3
sS'training_block.thisN'
p2308
I0
sS'word_presentation.thisN'
p2309
I8
sS'training_block.thisTrialN'
p2310
I0
sg17
S'space'
p2311
sg28
g29
sS'word_presentation.thisTrialN'
p2312
I8
sg41
g12
sS'word_presentation.thisIndex'
p2313
g31
(g131
S'\x08\x00\x00\x00'
p2314
tp2315
Rp2316
sa(dp2317
S'training_block.thisRepN'
p2318
I0
sg163
g2113
sg30
g40
sg2114
Vglide
p2319
sS'experimental_blocks.thisN'
p2320
I3
sg42
g43
sg2117
Vrush
p2321
sg2119
Vlimp
p2322
sg2121
Vstumble
p2323
sS'experimental_blocks.thisIndex'
p2324
g2126
sS'word_presentation.thisRepN'
p2325
I0
sS'experimental_blocks.thisRepN'
p2326
I0
sg44
g49
sg162
g2131
sg2132
g2133
sS'training_block.thisIndex'
p2327
g145
sg164
g2137
sg18
F5.233356394439397
sS'experimental_blocks.thisTrialN'
p2328
I3
sS'training_block.thisN'
p2329
I0
sS'word_presentation.thisN'
p2330
I9
sS'training_block.thisTrialN'
p2331
I0
sg17
S'space'
p2332
sg28
g29
sS'word_presentation.thisTrialN'
p2333
I9
sg41
g12
sS'word_presentation.thisIndex'
p2334
g31
(g131
S'\t\x00\x00\x00'
p2335
tp2336
Rp2337
sa(dp2338
S'training_block.thisRepN'
p2339
I0
sg163
g2113
sg30
g40
sg2114
Vtiptoe
p2340
sS'experimental_blocks.thisN'
p2341
I3
sg42
g43
sg2117
Vflee
p2342
sg2119
Vmount
p2343
sg2121
Vkick
p2344
sS'experimental_blocks.thisIndex'
p2345
g2126
sS'word_presentation.thisRepN'
p2346
I0
sS'experimental_blocks.thisRepN'
p2347
I0
sg44
g49
sg162
g2131
sg2132
g2133
sS'training_block.thisIndex'
p2348
g145
sg164
g2137
sg18
F6.942926331819763
sS'experimental_blocks.thisTrialN'
p2349
I3
sS'training_block.thisN'
p2350
I0
sS'word_presentation.thisN'
p2351
I10
sS'training_block.thisTrialN'
p2352
I0
sg17
S'space'
p2353
sg28
g29
sS'word_presentation.thisTrialN'
p2354
I10
sg41
g12
sS'word_presentation.thisIndex'
p2355
g31
(g131
S'\n\x00\x00\x00'
p2356
tp2357
Rp2358
sa(dp2359
S'training_block.thisRepN'
p2360
I0
sg163
g2113
sg30
g40
sg2114
Vscrape
p2361
sS'experimental_blocks.thisN'
p2362
I3
sg42
g43
sg2117
Vchop
p2363
sg2119
Vdig
p2364
sg2121
Vwhip
p2365
sS'experimental_blocks.thisIndex'
p2366
g2126
sS'word_presentation.thisRepN'
p2367
I0
sS'experimental_blocks.thisRepN'
p2368
I0
sg44
g49
sg162
g2131
sg2132
g2158
sS'training_block.thisIndex'
p2369
g145
sg164
g2137
sg18
F6.6907699340608815
sS'experimental_blocks.thisTrialN'
p2370
I3
sS'training_block.thisN'
p2371
I0
sS'word_presentation.thisN'
p2372
I11
sS'training_block.thisTrialN'
p2373
I0
sg17
S'space'
p2374
sg28
g29
sS'word_presentation.thisTrialN'
p2375
I11
sg41
g12
sS'word_presentation.thisIndex'
p2376
g31
(g131
S'\x0b\x00\x00\x00'
p2377
tp2378
Rp2379
sa(dp2380
S'training_block.thisRepN'
p2381
I0
sg163
g2113
sg30
g40
sg2114
Vmarch
p2382
sS'experimental_blocks.thisN'
p2383
I3
sg42
g43
sg2117
Vsway
p2384
sg2119
Vskate
p2385
sg2121
Vdance
p2386
sS'experimental_blocks.thisIndex'
p2387
g2126
sS'word_presentation.thisRepN'
p2388
I0
sS'experimental_blocks.thisRepN'
p2389
I0
sg44
g49
sg162
g2131
sg2132
g2133
sS'training_block.thisIndex'
p2390
g145
sg164
g2137
sg18
F8.452372758605634
sS'experimental_blocks.thisTrialN'
p2391
I3
sS'training_block.thisN'
p2392
I0
sS'word_presentation.thisN'
p2393
I12
sS'training_block.thisTrialN'
p2394
I0
sg17
S'space'
p2395
sg28
g29
sS'word_presentation.thisTrialN'
p2396
I12
sg41
g12
sS'word_presentation.thisIndex'
p2397
g31
(g131
S'\x0c\x00\x00\x00'
p2398
tp2399
Rp2400
sa(dp2401
S'training_block.thisRepN'
p2402
I0
sg163
g2113
sg30
g40
sg2114
Vslap
p2403
sS'experimental_blocks.thisN'
p2404
I3
sg42
g43
sg2117
Vdelve
p2405
sg2119
Vtwine
p2406
sg2121
Vclean
p2407
sS'experimental_blocks.thisIndex'
p2408
g2126
sS'word_presentation.thisRepN'
p2409
I0
sS'experimental_blocks.thisRepN'
p2410
I0
sg44
g49
sg162
g2131
sg2132
g2158
sS'training_block.thisIndex'
p2411
g145
sg164
g2137
sg18
F12.393881444844737
sS'experimental_blocks.thisTrialN'
p2412
I3
sS'training_block.thisN'
p2413
I0
sS'word_presentation.thisN'
p2414
I13
sS'training_block.thisTrialN'
p2415
I0
sg17
S'space'
p2416
sg28
g29
sS'word_presentation.thisTrialN'
p2417
I13
sg41
g12
sS'word_presentation.thisIndex'
p2418
g31
(g131
S'\r\x00\x00\x00'
p2419
tp2420
Rp2421
sa(dp2422
S'training_block.thisRepN'
p2423
I0
sg163
g2113
sg30
g40
sg2114
Vlift
p2424
sS'experimental_blocks.thisN'
p2425
I3
sg42
g43
sg2117
Vskim
p2426
sg2119
Vstir
p2427
sg2121
Vpunch
p2428
sS'experimental_blocks.thisIndex'
p2429
g2126
sS'word_presentation.thisRepN'
p2430
I0
sS'experimental_blocks.thisRepN'
p2431
I0
sg44
g49
sg162
g2131
sg2132
g2158
sS'training_block.thisIndex'
p2432
g145
sg164
g2137
sg18
F13.500226594129344
sS'experimental_blocks.thisTrialN'
p2433
I3
sS'training_block.thisN'
p2434
I0
sS'word_presentation.thisN'
p2435
I14
sS'training_block.thisTrialN'
p2436
I0
sg17
S'space'
p2437
sg28
g29
sS'word_presentation.thisTrialN'
p2438
I14
sg41
g12
sS'word_presentation.thisIndex'
p2439
g31
(g131
S'\x0e\x00\x00\x00'
p2440
tp2441
Rp2442
sa(dp2443
S'training_block.thisRepN'
p2444
I0
sg163
g2113
sg30
g40
sg2114
Vthrow
p2445
sS'experimental_blocks.thisN'
p2446
I3
sg42
g43
sg2117
Vdunk
p2447
sg2119
Vtug
p2448
sg2121
Vshake
p2449
sS'experimental_blocks.thisIndex'
p2450
g2126
sS'word_presentation.thisRepN'
p2451
I0
sS'experimental_blocks.thisRepN'
p2452
I0
sg44
g49
sg162
g2131
sg2132
g2158
sS'training_block.thisIndex'
p2453
g145
sg164
g2137
sg18
F10.666468849529338
sS'experimental_blocks.thisTrialN'
p2454
I3
sS'training_block.thisN'
p2455
I0
sS'word_presentation.thisN'
p2456
I15
sS'training_block.thisTrialN'
p2457
I0
sg17
S'space'
p2458
sg28
g29
sS'word_presentation.thisTrialN'
p2459
I15
sg41
g12
sS'word_presentation.thisIndex'
p2460
g31
(g131
S'\x0f\x00\x00\x00'
p2461
tp2462
Rp2463
sa(dp2464
S'training_block.thisRepN'
p2465
I0
sg163
g2113
sg30
g40
sg2114
Vinch
p2466
sS'experimental_blocks.thisN'
p2467
I3
sg42
g43
sg2117
Vtrek
p2468
sg2119
Vkneel
p2469
sg2121
Vslip
p2470
sS'experimental_blocks.thisIndex'
p2471
g2126
sS'word_presentation.thisRepN'
p2472
I0
sS'experimental_blocks.thisRepN'
p2473
I0
sg44
g49
sg162
g2131
sg2132
g2133
sS'training_block.thisIndex'
p2474
g145
sg164
g2137
sg18
F7.496577776706545
sS'experimental_blocks.thisTrialN'
p2475
I3
sS'training_block.thisN'
p2476
I0
sS'word_presentation.thisN'
p2477
I16
sS'training_block.thisTrialN'
p2478
I0
sg17
S'space'
p2479
sg28
g29
sS'word_presentation.thisTrialN'
p2480
I16
sg41
g12
sS'word_presentation.thisIndex'
p2481
g31
(g131
S'\x10\x00\x00\x00'
p2482
tp2483
Rp2484
sa(dp2485
S'training_block.thisRepN'
p2486
I0
sg163
g2113
sg30
g40
sg2114
Vstrut
p2487
sS'experimental_blocks.thisN'
p2488
I3
sg42
g43
sg2117
Vslither
p2489
sg2119
Vtraipse
p2490
sg2121
Vwade
p2491
sS'experimental_blocks.thisIndex'
p2492
g2126
sS'word_presentation.thisRepN'
p2493
I0
sS'experimental_blocks.thisRepN'
p2494
I0
sg44
g49
sg162
g2131
sg2132
g2133
sS'training_block.thisIndex'
p2495
g145
sg164
g2137
sg18
F10.163861337827257
sS'experimental_blocks.thisTrialN'
p2496
I3
sS'training_block.thisN'
p2497
I0
sS'word_presentation.thisN'
p2498
I17
sS'training_block.thisTrialN'
p2499
I0
sg17
S'space'
p2500
sg28
g29
sS'word_presentation.thisTrialN'
p2501
I17
sg41
g12
sS'word_presentation.thisIndex'
p2502
g31
(g131
S'\x11\x00\x00\x00'
p2503
tp2504
Rp2505
sa(dp2506
S'training_block.thisRepN'
p2507
I0
sg163
g2113
sg30
g40
sg2114
Vleap
p2508
sS'experimental_blocks.thisN'
p2509
I3
sg42
g43
sg2117
Vslide
p2510
sg2119
Vscuff
p2511
sg2121
Vsneak
p2512
sS'experimental_blocks.thisIndex'
p2513
g2126
sS'word_presentation.thisRepN'
p2514
I0
sS'experimental_blocks.thisRepN'
p2515
I0
sg44
g49
sg162
g2131
sg2132
g2133
sS'training_block.thisIndex'
p2516
g145
sg164
g2137
sg18
F14.557851042114635
sS'experimental_blocks.thisTrialN'
p2517
I3
sS'training_block.thisN'
p2518
I0
sS'word_presentation.thisN'
p2519
I18
sS'training_block.thisTrialN'
p2520
I0
sg17
S'space'
p2521
sg28
g29
sS'word_presentation.thisTrialN'
p2522
I18
sg41
g12
sS'word_presentation.thisIndex'
p2523
g31
(g131
S'\x12\x00\x00\x00'
p2524
tp2525
Rp2526
sa(dp2527
S'training_block.thisRepN'
p2528
I0
sg163
g2113
sg30
g40
sg2114
Vbraid
p2529
sS'experimental_blocks.thisN'
p2530
I3
sg42
g43
sg2117
Vgrab
p2531
sg2119
Vbrush
p2532
sg2121
Vwrap
p2533
sS'experimental_blocks.thisIndex'
p2534
g2126
sS'word_presentation.thisRepN'
p2535
I0
sS'experimental_blocks.thisRepN'
p2536
I0
sg44
g49
sg162
g2131
sg2132
g2158
sS'training_block.thisIndex'
p2537
g145
sg164
g2137
sg18
F5.887778022304701
sS'experimental_blocks.thisTrialN'
p2538
I3
sS'training_block.thisN'
p2539
I0
sS'word_presentation.thisN'
p2540
I19
sS'training_block.thisTrialN'
p2541
I0
sg17
S'space'
p2542
sg28
g29
sS'word_presentation.thisTrialN'
p2543
I19
sg41
g12
sS'word_presentation.thisIndex'
p2544
g31
(g131
S'\x13\x00\x00\x00'
p2545
tp2546
Rp2547
sa(dp2548
S'training_block.thisRepN'
p2549
I0
sg163
g2113
sg30
g40
sg2114
Vpoke
p2550
sS'experimental_blocks.thisN'
p2551
I3
sg42
g43
sg2117
Vsnatch
p2552
sg2119
Vclaw
p2553
sg2121
Vclap
p2554
sS'experimental_blocks.thisIndex'
p2555
g2126
sS'word_presentation.thisRepN'
p2556
I0
sS'experimental_blocks.thisRepN'
p2557
I0
sg44
g49
sg162
g2131
sg2132
g2158
sS'training_block.thisIndex'
p2558
g145
sg164
g2137
sg18
F5.786488273011855
sS'experimental_blocks.thisTrialN'
p2559
I3
sS'training_block.thisN'
p2560
I0
sS'word_presentation.thisN'
p2561
I20
sS'training_block.thisTrialN'
p2562
I0
sg17
S'space'
p2563
sg28
g29
sS'word_presentation.thisTrialN'
p2564
I20
sg41
g12
sS'word_presentation.thisIndex'
p2565
g31
(g131
S'\x14\x00\x00\x00'
p2566
tp2567
Rp2568
sa(dp2569
S'training_block.thisRepN'
p2570
I0
sg163
g2113
sg30
g40
sg2114
Vtoss
p2571
sS'experimental_blocks.thisN'
p2572
I3
sg42
g43
sg2117
Vnip
p2573
sg2119
Vpush
p2574
sg2121
Vgrasp
p2575
sS'experimental_blocks.thisIndex'
p2576
g2126
sS'word_presentation.thisRepN'
p2577
I0
sS'experimental_blocks.thisRepN'
p2578
I0
sg44
g49
sg162
g2131
sg2132
g2158
sS'training_block.thisIndex'
p2579
g145
sg164
g2137
sg18
F10.24768891767053
sS'experimental_blocks.thisTrialN'
p2580
I3
sS'training_block.thisN'
p2581
I0
sS'word_presentation.thisN'
p2582
I21
sS'training_block.thisTrialN'
p2583
I0
sg17
S'space'
p2584
sg28
g29
sS'word_presentation.thisTrialN'
p2585
I21
sg41
g12
sS'word_presentation.thisIndex'
p2586
g31
(g131
S'\x15\x00\x00\x00'
p2587
tp2588
Rp2589
sa(dp2590
S'training_block.thisRepN'
p2591
I0
sg163
g2113
sg30
g40
sg2114
Vjog
p2592
sS'experimental_blocks.thisN'
p2593
I3
sg42
g43
sg2117
Vroll
p2594
sg2119
Vtread
p2595
sg2121
Vclimb
p2596
sS'experimental_blocks.thisIndex'
p2597
g2126
sS'word_presentation.thisRepN'
p2598
I0
sS'experimental_blocks.thisRepN'
p2599
I0
sg44
g49
sg162
g2131
sg2132
g2133
sS'training_block.thisIndex'
p2600
g145
sg164
g2137
sg18
F6.321199451433131
sS'experimental_blocks.thisTrialN'
p2601
I3
sS'training_block.thisN'
p2602
I0
sS'word_presentation.thisN'
p2603
I22
sS'training_block.thisTrialN'
p2604
I0
sg17
S'space'
p2605
sg28
g29
sS'word_presentation.thisTrialN'
p2606
I22
sg41
g12
sS'word_presentation.thisIndex'
p2607
g31
(g131
S'\x16\x00\x00\x00'
p2608
tp2609
Rp2610
sa(dp2611
S'training_block.thisRepN'
p2612
I0
sg163
g2113
sg30
g40
sg2114
Vpull
p2613
sS'experimental_blocks.thisN'
p2614
I3
sg42
g43
sg2117
Vcut
p2615
sg2119
Vwipe
p2616
sg2121
Vfold
p2617
sS'experimental_blocks.thisIndex'
p2618
g2126
sS'word_presentation.thisRepN'
p2619
I0
sS'experimental_blocks.thisRepN'
p2620
I0
sg44
g49
sg162
g2131
sg2132
g2158
sS'training_block.thisIndex'
p2621
g145
sg164
g2137
sg18
F5.064322704811275
sS'experimental_blocks.thisTrialN'
p2622
I3
sS'training_block.thisN'
p2623
I0
sS'word_presentation.thisN'
p2624
I23
sS'training_block.thisTrialN'
p2625
I0
sg17
S'space'
p2626
sg28
g29
sS'word_presentation.thisTrialN'
p2627
I23
sg41
g12
sS'word_presentation.thisIndex'
p2628
g31
(g131
S'\x17\x00\x00\x00'
p2629
tp2630
Rp2631
sa(dp2632
S'training_block.thisRepN'
p2633
I0
sg163
g2113
sg30
g40
sg2114
Vflit
p2634
sS'experimental_blocks.thisN'
p2635
I3
sg42
g43
sg2117
Vwobble
p2636
sg2119
Vhike
p2637
sg2121
Vtrip
p2638
sS'experimental_blocks.thisIndex'
p2639
g2126
sS'word_presentation.thisRepN'
p2640
I0
sS'experimental_blocks.thisRepN'
p2641
I0
sg44
g49
sg162
g2131
sg2132
g2133
sS'training_block.thisIndex'
p2642
g145
sg164
g2137
sg18
F5.7029348977484915
sS'experimental_blocks.thisTrialN'
p2643
I3
sS'training_block.thisN'
p2644
I0
sS'word_presentation.thisN'
p2645
I24
sS'training_block.thisTrialN'
p2646
I0
sg17
S'space'
p2647
sg28
g29
sS'word_presentation.thisTrialN'
p2648
I24
sg41
g12
sS'word_presentation.thisIndex'
p2649
g31
(g131
S'\x18\x00\x00\x00'
p2650
tp2651
Rp2652
sa(dp2653
S'training_block.thisRepN'
p2654
I0
sg163
g2113
sg30
g40
sg2114
Vstamp
p2655
sS'experimental_blocks.thisN'
p2656
I3
sg42
g43
sg2117
Vtrot
p2657
sg2119
Vstride
p2658
sg2121
Vsprint
p2659
sS'experimental_blocks.thisIndex'
p2660
g2126
sS'word_presentation.thisRepN'
p2661
I0
sS'experimental_blocks.thisRepN'
p2662
I0
sg44
g49
sg162
g2131
sg2132
g2133
sS'training_block.thisIndex'
p2663
g145
sg164
g2137
sg18
F12.025391581129952
sS'experimental_blocks.thisTrialN'
p2664
I3
sS'training_block.thisN'
p2665
I0
sS'word_presentation.thisN'
p2666
I25
sS'training_block.thisTrialN'
p2667
I0
sg17
S'space'
p2668
sg28
g29
sS'word_presentation.thisTrialN'
p2669
I25
sg41
g12
sS'word_presentation.thisIndex'
p2670
g31
(g131
S'\x19\x00\x00\x00'
p2671
tp2672
Rp2673
sa(dp2674
S'training_block.thisRepN'
p2675
I0
sg163
g2113
sg30
g40
sg2114
Vhack
p2676
sS'experimental_blocks.thisN'
p2677
I3
sg42
g43
sg2117
Vclick
p2678
sg2119
Vcarve
p2679
sg2121
Vfile
p2680
sS'experimental_blocks.thisIndex'
p2681
g2126
sS'word_presentation.thisRepN'
p2682
I0
sS'experimental_blocks.thisRepN'
p2683
I0
sg44
g49
sg162
g2131
sg2132
g2158
sS'training_block.thisIndex'
p2684
g145
sg164
g2137
sg18
F4.411577913018846
sS'experimental_blocks.thisTrialN'
p2685
I3
sS'training_block.thisN'
p2686
I0
sS'word_presentation.thisN'
p2687
I26
sS'training_block.thisTrialN'
p2688
I0
sg17
S'space'
p2689
sg28
g29
sS'word_presentation.thisTrialN'
p2690
I26
sg41
g12
sS'word_presentation.thisIndex'
p2691
g31
(g131
S'\x1a\x00\x00\x00'
p2692
tp2693
Rp2694
sa(dp2695
S'training_block.thisRepN'
p2696
I0
sg163
g2113
sg30
g40
sg2114
Vstray
p2697
sS'experimental_blocks.thisN'
p2698
I3
sg42
g43
sg2117
Vstomp
p2699
sg2119
Vtrudge
p2700
sg2121
Vcreep
p2701
sS'experimental_blocks.thisIndex'
p2702
g2126
sS'word_presentation.thisRepN'
p2703
I0
sS'experimental_blocks.thisRepN'
p2704
I0
sg44
g49
sg162
g2131
sg2132
g2133
sS'training_block.thisIndex'
p2705
g145
sg164
g2137
sg18
F14.724959768182089
sS'experimental_blocks.thisTrialN'
p2706
I3
sS'training_block.thisN'
p2707
I0
sS'word_presentation.thisN'
p2708
I27
sS'training_block.thisTrialN'
p2709
I0
sg17
S'space'
p2710
sg28
g29
sS'word_presentation.thisTrialN'
p2711
I27
sg41
g12
sS'word_presentation.thisIndex'
p2712
g31
(g131
S'\x1b\x00\x00\x00'
p2713
tp2714
Rp2715
sa(dp2716
S'training_block.thisRepN'
p2717
I0
sg163
g2113
sS'experimental_blocks.thisRepN'
p2718
I0
sS'experimental_blocks.thisTrialN'
p2719
I3
sS'training_block.thisN'
p2720
I0
sg42
g43
sg41
g12
sg30
g40
sS'training_block.thisTrialN'
p2721
I0
sg44
g49
sS'experimental_blocks.thisN'
p2722
I3
sg164
g2137
sg28
g29
sS'experimental_blocks.thisIndex'
p2723
g2126
sg162
g2131
sS'training_block.thisIndex'
p2724
g145
sa(dp2725
S'training_block.thisRepN'
p2726
I0
sS'training_block.thisN'
p2727
I0
sg42
g43
sg44
g49
sg30
g40
sS'training_block.thisTrialN'
p2728
I0
sg41
g12
sg28
g29
sg23
S'space'
p2729
sg24
F1.4934615641432174
sS'training_block.thisIndex'
p2730
g145
sasS'loops'
p2731
(lp2732
g54
ag0
(g52
g2
Ntp2733
Rp2734
(dp2735
g56
Nsg57
(lp2736
sg58
I369040976
sg11
S'word_presentation_training'
p2737
sg6
I-1
sg60
I1
sg25
I01
sg26
g27
sg61
g0
(g62
g63
(dp2738
g65
g66
(g67
g68
g69
g70
tp2739
Rp2740
(I1
(I4
I1
tp2741
g76
I00
S'\x00\x00\x80?\x00\x00\x80?\x00\x00\x80?\x00\x00\x80?'
p2742
S'\x00\x00\x00\x00'
p2743
Ntp2744
bsg18
g66
(g67
g68
g69
g70
tp2745
Rp2746
(I1
(I4
I1
tp2747
g76
I00
S'{e\xcbA\x89\\\x97@\xc3L\x04A\x8f\xa1\x9b@'
p2748
S'\x00\x00\x00\x00'
p2749
Ntp2750
bsg105
g66
(g67
g68
g69
g70
tp2751
Rp2752
(I1
(I4
I1
tp2753
g76
I00
S'\x00\x00\x00\x00\x00\x00\x00@\x00\x00\x80?\x00\x00@@'
p2754
S'\x00\x00\x00\x00'
p2755
Ntp2756
bsg17
g88
(g68
(I0
tp2757
g70
tp2758
Rp2759
(I1
(I4
I1
tp2760
g95
I00
(lp2761
g176
ag222
ag202
ag242
atp2762
bstp2763
Rp2764
(dp2765
g115
(dp2766
g65
I01
sg18
I01
sg105
I01
sg17
I00
ssg117
g2734
sg118
(lp2767
g65
ag105
ag17
ag18
asg120
(lp2768
I4
aI1
asbsg122
g123
sg124
g88
(g68
(I0
tp2769
g70
tp2770
Rp2771
(I1
(I4
I1
tp2772
g131
I00
S'\x00\x00\x00\x00\x02\x00\x00\x00\x01\x00\x00\x00\x03\x00\x00\x00'
p2773
tp2774
bsg136
I01
sg137
I1
sg138
I-1
sg139
(lp2775
ccollections
OrderedDict
p2776
((lp2777
(lp2778
g156
ag184
aa(lp2779
g157
ag193
aa(lp2780
g158
ag185
aa(lp2781
g159
ag191
aa(lp2782
g160
ag190
aa(lp2783
g161
ag173
aatp2784
Rp2785
ag2776
((lp2786
(lp2787
g156
ag225
aa(lp2788
g157
ag193
aa(lp2789
g158
ag226
aa(lp2790
g159
ag232
aa(lp2791
g160
ag231
aa(lp2792
g161
ag219
aatp2793
Rp2794
ag2776
((lp2795
(lp2796
g156
ag205
aa(lp2797
g157
ag193
aa(lp2798
g158
ag206
aa(lp2799
g159
ag212
aa(lp2800
g160
ag211
aa(lp2801
g161
ag199
aatp2802
Rp2803
ag2776
((lp2804
(lp2805
g156
ag245
aa(lp2806
g157
ag193
aa(lp2807
g158
ag246
aa(lp2808
g159
ag252
aa(lp2809
g160
ag251
aa(lp2810
g161
ag239
aatp2811
Rp2812
asg141
Nsg142
g250
sg146
I4
sg147
I0
sg148
I4
sbag0
(g52
g2
Ntp2813
Rp2814
(dp2815
g56
Nsg57
(lp2816
sg58
I369040976
sg11
S'experimental_blocks'
p2817
sg6
I-1
sg60
I1
sg25
I01
sg26
g27
sg61
g0
(g62
g63
(dp2818
g65
g66
(g67
g68
g69
g70
tp2819
Rp2820
(I1
(I4
I1
tp2821
g76
I00
S'\x00\x00\x80?\x00\x00\x80?\x00\x00\x80?\x00\x00\x80?'
p2822
S'\x00\x00\x00\x00'
p2823
Ntp2824
bsg105
g66
(g67
g68
g69
g70
tp2825
Rp2826
(I1
(I4
I1
tp2827
g76
I00
S'\x00\x00@@\x00\x00\x00\x00\x00\x00\x80?\x00\x00\x00@'
p2828
S'\x00\x00\x00\x00'
p2829
Ntp2830
bstp2831
Rp2832
(dp2833
g115
(dp2834
g65
I01
sg105
I01
ssg117
g2814
sg118
(lp2835
g65
ag105
asg120
(lp2836
I4
aI1
asbsg122
g123
sg124
g88
(g68
(I0
tp2837
g70
tp2838
Rp2839
(I1
(I4
I1
tp2840
g131
I00
S'\x01\x00\x00\x00\x02\x00\x00\x00\x03\x00\x00\x00\x00\x00\x00\x00'
p2841
tp2842
bsg136
I01
sg137
I1
sg138
I-1
sg139
(lp2843
g2776
((lp2844
(lp2845
g162
ag2131
aa(lp2846
g163
ag2113
aa(lp2847
g164
ag2137
aatp2848
Rp2849
ag2776
((lp2850
(lp2851
g162
ag283
aa(lp2852
g163
ag265
aa(lp2853
g164
ag289
aatp2854
Rp2855
ag2776
((lp2856
(lp2857
g162
ag899
aa(lp2858
g163
ag881
aa(lp2859
g164
ag905
aatp2860
Rp2861
ag2776
((lp2862
(lp2863
g162
ag1515
aa(lp2864
g163
ag1497
aa(lp2865
g164
ag1521
aatp2866
Rp2867
asg141
Nsg142
g2126
sg146
I4
sg147
I0
sg148
I4
sbag0
(g52
g2
Ntp2868
Rp2869
(dp2870
g56
Nsg57
(lp2871
sg58
I369040976
sg11
S'word_presentation'
p2872
sg6
I-1
sg60
I1
sg25
I01
sg26
g27
sg61
g0
(g62
g63
(dp2873
g65
g66
(g67
g68
g69
g70
tp2874
Rp2875
(I1
(I28
I1
tp2876
g76
I00
S'\x00\x00\x80?\x00\x00\x80?\x00\x00\x80?\x00\x00\x80?\x00\x00\x80?\x00\x00\x80?\x00\x00\x80?\x00\x00\x80?\x00\x00\x80?\x00\x00\x80?\x00\x00\x80?\x00\x00\x80?\x00\x00\x80?\x00\x00\x80?\x00\x00\x80?\x00\x00\x80?\x00\x00\x80?\x00\x00\x80?\x00\x00\x80?\x00\x00\x80?\x00\x00\x80?\x00\x00\x80?\x00\x00\x80?\x00\x00\x80?\x00\x00\x80?\x00\x00\x80?\x00\x00\x80?\x00\x00\x80?'
p2877
S'\x00\x00\x00\x00\x00\x00\x00\x00\x00\x00\x00\x00\x00\x00\x00\x00\x00\x00\x00\x00\x00\x00\x00\x00\x00\x00\x00\x00'
p2878
Ntp2879
bsg18
g66
(g67
g68
g69
g70
tp2880
Rp2881
(I1
(I28
I1
tp2882
g76
I00
S'\xf0\xf3\xacA\xe4E\x0bA\xf8o\x86A\xe8\x01\xa1A\x90a<Aw\x08MA>\x0c\x9a@\xc6\xb9SAq\x9f\x85A\xe9\xe2\x0cA\xc63HA\x15_\xd0Ap\xe2\xca@E\xf45A\xc1\x8b\xea@\x0b\x96\x0fAs\xd6;A\x009\xc1@\xaex\xe9@r\xc8\xa4@8\xa7RA\x15#hA\xe9y+AQ9\xab@*Q\x8f@x\xe1\x81@P\xceuA\xa91\x7fA'
p2883
S'\x00\x00\x00\x00\x00\x00\x00\x00\x00\x00\x00\x00\x00\x00\x00\x00\x00\x00\x00\x00\x00\x00\x00\x00\x00\x00\x00\x00'
p2884
Ntp2885
bsg105
g66
(g67
g68
g69
g70
tp2886
Rp2887
(I1
(I28
I1
tp2888
g76
I00
S'\x00\x00\x00\x00\x00\x00\x80?\x00\x00\x00@\x00\x00@@\x00\x00\x80@\x00\x00\xa0@\x00\x00\xc0@\x00\x00\xe0@\x00\x00\x00A\x00\x00\x10A\x00\x00 A\x00\x000A\x00\x00@A\x00\x00PA\x00\x00`A\x00\x00pA\x00\x00\x80A\x00\x00\x88A\x00\x00\x90A\x00\x00\x98A\x00\x00\xa0A\x00\x00\xa8A\x00\x00\xb0A\x00\x00\xb8A\x00\x00\xc0A\x00\x00\xc8A\x00\x00\xd0A\x00\x00\xd8A'
p2889
S'\x00\x00\x00\x00\x00\x00\x00\x00\x00\x00\x00\x00\x00\x00\x00\x00\x00\x00\x00\x00\x00\x00\x00\x00\x00\x00\x00\x00'
p2890
Ntp2891
bsg17
g88
(g68
(I0
tp2892
g70
tp2893
Rp2894
(I1
(I28
I1
tp2895
g95
I00
(lp2896
g294
ag315
ag337
ag358
ag379
ag400
ag421
ag442
ag463
ag484
ag505
ag526
ag547
ag568
ag589
ag610
ag631
ag652
ag673
ag694
ag715
ag736
ag757
ag778
ag799
ag820
ag841
ag862
atp2897
bstp2898
Rp2899
(dp2900
g115
(dp2901
g65
I01
sg18
I01
sg105
I01
sg17
I00
ssg117
g2869
sg118
(lp2902
g65
ag105
ag17
ag18
asg120
(lp2903
I28
aI1
asbsg122
S'sequential'
p2904
sg124
g88
(g68
(I0
tp2905
g70
tp2906
Rp2907
(I1
(I28
I1
tp2908
g131
I00
S'\x00\x00\x00\x00\x01\x00\x00\x00\x02\x00\x00\x00\x03\x00\x00\x00\x04\x00\x00\x00\x05\x00\x00\x00\x06\x00\x00\x00\x07\x00\x00\x00\x08\x00\x00\x00\t\x00\x00\x00\n\x00\x00\x00\x0b\x00\x00\x00\x0c\x00\x00\x00\r\x00\x00\x00\x0e\x00\x00\x00\x0f\x00\x00\x00\x10\x00\x00\x00\x11\x00\x00\x00\x12\x00\x00\x00\x13\x00\x00\x00\x14\x00\x00\x00\x15\x00\x00\x00\x16\x00\x00\x00\x17\x00\x00\x00\x18\x00\x00\x00\x19\x00\x00\x00\x1a\x00\x00\x00\x1b\x00\x00\x00'
p2909
tp2910
bsg136
I01
sg137
I1
sg138
I-1
sg139
(lp2911
g2776
((lp2912
(lp2913
g284
ag285
aa(lp2914
g269
ag270
aa(lp2915
g273
ag274
aa(lp2916
g271
ag272
aa(lp2917
g266
ag267
aatp2918
Rp2919
ag2776
((lp2920
(lp2921
g284
ag285
aa(lp2922
g269
ag304
aa(lp2923
g273
ag306
aa(lp2924
g271
ag305
aa(lp2925
g266
ag302
aatp2926
Rp2927
ag2776
((lp2928
(lp2929
g284
ag331
aa(lp2930
g269
ag325
aa(lp2931
g273
ag327
aa(lp2932
g271
ag326
aa(lp2933
g266
ag323
aatp2934
Rp2935
ag2776
((lp2936
(lp2937
g284
ag285
aa(lp2938
g269
ag347
aa(lp2939
g273
ag349
aa(lp2940
g271
ag348
aa(lp2941
g266
ag345
aatp2942
Rp2943
ag2776
((lp2944
(lp2945
g284
ag285
aa(lp2946
g269
ag368
aa(lp2947
g273
ag370
aa(lp2948
g271
ag369
aa(lp2949
g266
ag366
aatp2950
Rp2951
ag2776
((lp2952
(lp2953
g284
ag331
aa(lp2954
g269
ag389
aa(lp2955
g273
ag391
aa(lp2956
g271
ag390
aa(lp2957
g266
ag387
aatp2958
Rp2959
ag2776
((lp2960
(lp2961
g284
ag331
aa(lp2962
g269
ag410
aa(lp2963
g273
ag412
aa(lp2964
g271
ag411
aa(lp2965
g266
ag408
aatp2966
Rp2967
ag2776
((lp2968
(lp2969
g284
ag331
aa(lp2970
g269
ag431
aa(lp2971
g273
ag433
aa(lp2972
g271
ag432
aa(lp2973
g266
ag429
aatp2974
Rp2975
ag2776
((lp2976
(lp2977
g284
ag285
aa(lp2978
g269
ag452
aa(lp2979
g273
ag454
aa(lp2980
g271
ag453
aa(lp2981
g266
ag450
aatp2982
Rp2983
ag2776
((lp2984
(lp2985
g284
ag331
aa(lp2986
g269
ag473
aa(lp2987
g273
ag475
aa(lp2988
g271
ag474
aa(lp2989
g266
ag471
aatp2990
Rp2991
ag2776
((lp2992
(lp2993
g284
ag331
aa(lp2994
g269
ag494
aa(lp2995
g273
ag496
aa(lp2996
g271
ag495
aa(lp2997
g266
ag492
aatp2998
Rp2999
ag2776
((lp3000
(lp3001
g284
ag285
aa(lp3002
g269
ag515
aa(lp3003
g273
ag517
aa(lp3004
g271
ag516
aa(lp3005
g266
ag513
aatp3006
Rp3007
ag2776
((lp3008
(lp3009
g284
ag285
aa(lp3010
g269
ag536
aa(lp3011
g273
ag538
aa(lp3012
g271
ag537
aa(lp3013
g266
ag534
aatp3014
Rp3015
ag2776
((lp3016
(lp3017
g284
ag331
aa(lp3018
g269
ag557
aa(lp3019
g273
ag559
aa(lp3020
g271
ag558
aa(lp3021
g266
ag555
aatp3022
Rp3023
ag2776
((lp3024
(lp3025
g284
ag285
aa(lp3026
g269
ag578
aa(lp3027
g273
ag580
aa(lp3028
g271
ag579
aa(lp3029
g266
ag576
aatp3030
Rp3031
ag2776
((lp3032
(lp3033
g284
ag331
aa(lp3034
g269
ag599
aa(lp3035
g273
ag601
aa(lp3036
g271
ag600
aa(lp3037
g266
ag597
aatp3038
Rp3039
ag2776
((lp3040
(lp3041
g284
ag285
aa(lp3042
g269
ag620
aa(lp3043
g273
ag622
aa(lp3044
g271
ag621
aa(lp3045
g266
ag618
aatp3046
Rp3047
ag2776
((lp3048
(lp3049
g284
ag285
aa(lp3050
g269
ag641
aa(lp3051
g273
ag643
aa(lp3052
g271
ag642
aa(lp3053
g266
ag639
aatp3054
Rp3055
ag2776
((lp3056
(lp3057
g284
ag331
aa(lp3058
g269
ag662
aa(lp3059
g273
ag664
aa(lp3060
g271
ag663
aa(lp3061
g266
ag660
aatp3062
Rp3063
ag2776
((lp3064
(lp3065
g284
ag331
aa(lp3066
g269
ag683
aa(lp3067
g273
ag685
aa(lp3068
g271
ag684
aa(lp3069
g266
ag681
aatp3070
Rp3071
ag2776
((lp3072
(lp3073
g284
ag285
aa(lp3074
g269
ag704
aa(lp3075
g273
ag706
aa(lp3076
g271
ag705
aa(lp3077
g266
ag702
aatp3078
Rp3079
ag2776
((lp3080
(lp3081
g284
ag331
aa(lp3082
g269
ag725
aa(lp3083
g273
ag727
aa(lp3084
g271
ag726
aa(lp3085
g266
ag723
aatp3086
Rp3087
ag2776
((lp3088
(lp3089
g284
ag285
aa(lp3090
g269
ag746
aa(lp3091
g273
ag748
aa(lp3092
g271
ag747
aa(lp3093
g266
ag744
aatp3094
Rp3095
ag2776
((lp3096
(lp3097
g284
ag331
aa(lp3098
g269
ag767
aa(lp3099
g273
ag769
aa(lp3100
g271
ag768
aa(lp3101
g266
ag765
aatp3102
Rp3103
ag2776
((lp3104
(lp3105
g284
ag285
aa(lp3106
g269
ag788
aa(lp3107
g273
ag790
aa(lp3108
g271
ag789
aa(lp3109
g266
ag786
aatp3110
Rp3111
ag2776
((lp3112
(lp3113
g284
ag285
aa(lp3114
g269
ag809
aa(lp3115
g273
ag811
aa(lp3116
g271
ag810
aa(lp3117
g266
ag807
aatp3118
Rp3119
ag2776
((lp3120
(lp3121
g284
ag331
aa(lp3122
g269
ag830
aa(lp3123
g273
ag832
aa(lp3124
g271
ag831
aa(lp3125
g266
ag828
aatp3126
Rp3127
ag2776
((lp3128
(lp3129
g284
ag331
aa(lp3130
g269
ag851
aa(lp3131
g273
ag853
aa(lp3132
g271
ag852
aa(lp3133
g266
ag849
aatp3134
Rp3135
asg141
Nsg142
g867
sg146
I28
sg147
I0
sg148
I28
sbag0
(g52
g2
Ntp3136
Rp3137
(dp3138
g56
Nsg57
(lp3139
sg58
I369040976
sg11
g2872
sg6
I-1
sg60
I1
sg25
I01
sg26
g27
sg61
g0
(g62
g63
(dp3140
g65
g66
(g67
g68
g69
g70
tp3141
Rp3142
(I1
(I28
I1
tp3143
g76
I00
S'\x00\x00\x80?\x00\x00\x80?\x00\x00\x80?\x00\x00\x80?\x00\x00\x80?\x00\x00\x80?\x00\x00\x80?\x00\x00\x80?\x00\x00\x80?\x00\x00\x80?\x00\x00\x80?\x00\x00\x80?\x00\x00\x80?\x00\x00\x80?\x00\x00\x80?\x00\x00\x80?\x00\x00\x80?\x00\x00\x80?\x00\x00\x80?\x00\x00\x80?\x00\x00\x80?\x00\x00\x80?\x00\x00\x80?\x00\x00\x80?\x00\x00\x80?\x00\x00\x80?\x00\x00\x80?\x00\x00\x80?'
p3144
S'\x00\x00\x00\x00\x00\x00\x00\x00\x00\x00\x00\x00\x00\x00\x00\x00\x00\x00\x00\x00\x00\x00\x00\x00\x00\x00\x00\x00'
p3145
Ntp3146
bsg18
g66
(g67
g68
g69
g70
tp3147
Rp3148
(I1
(I28
I1
tp3149
g76
I00
S'\xe56\x95@A8\x96@O\t%A\x12(*AdH|@\x03<\xa4@I\x07\xcd@0u\x91@\xfeIrA\x1c\xa2\x05A\x89\x81\x9dA^\x05\x8b@\xb3\x14\xa2@p\xd7\xbb@\x12\xba\x9c@,t2A\xb7\xb5\xa3@\x85\xac\xb8@\xeb\x05\xe3@\xab\xf1KA\xd2\x1f\x9b@\xced\xc4@\xca\xda\x93A@\x1f\x9b@j\xd1,Az\x96\xb0@\x89\x05\xa1@i\x89\xe3@'
p3150
S'\x00\x00\x00\x00\x00\x00\x00\x00\x00\x00\x00\x00\x00\x00\x00\x00\x00\x00\x00\x00\x00\x00\x00\x00\x00\x00\x00\x00'
p3151
Ntp3152
bsg105
g66
(g67
g68
g69
g70
tp3153
Rp3154
(I1
(I28
I1
tp3155
g76
I00
S'\x00\x00\x00\x00\x00\x00\x80?\x00\x00\x00@\x00\x00@@\x00\x00\x80@\x00\x00\xa0@\x00\x00\xc0@\x00\x00\xe0@\x00\x00\x00A\x00\x00\x10A\x00\x00 A\x00\x000A\x00\x00@A\x00\x00PA\x00\x00`A\x00\x00pA\x00\x00\x80A\x00\x00\x88A\x00\x00\x90A\x00\x00\x98A\x00\x00\xa0A\x00\x00\xa8A\x00\x00\xb0A\x00\x00\xb8A\x00\x00\xc0A\x00\x00\xc8A\x00\x00\xd0A\x00\x00\xd8A'
p3156
S'\x00\x00\x00\x00\x00\x00\x00\x00\x00\x00\x00\x00\x00\x00\x00\x00\x00\x00\x00\x00\x00\x00\x00\x00\x00\x00\x00\x00'
p3157
Ntp3158
bsg17
g88
(g68
(I0
tp3159
g70
tp3160
Rp3161
(I1
(I28
I1
tp3162
g95
I00
(lp3163
g910
ag932
ag953
ag974
ag995
ag1016
ag1037
ag1058
ag1079
ag1100
ag1121
ag1142
ag1163
ag1184
ag1205
ag1226
ag1247
ag1268
ag1289
ag1310
ag1331
ag1352
ag1373
ag1394
ag1415
ag1436
ag1457
ag1478
atp3164
bstp3165
Rp3166
(dp3167
g115
(dp3168
g65
I01
sg18
I01
sg105
I01
sg17
I00
ssg117
g3137
sg118
(lp3169
g65
ag105
ag17
ag18
asg120
(lp3170
I28
aI1
asbsg122
g2904
sg124
g88
(g68
(I0
tp3171
g70
tp3172
Rp3173
(I1
(I28
I1
tp3174
g131
I00
S'\x00\x00\x00\x00\x01\x00\x00\x00\x02\x00\x00\x00\x03\x00\x00\x00\x04\x00\x00\x00\x05\x00\x00\x00\x06\x00\x00\x00\x07\x00\x00\x00\x08\x00\x00\x00\t\x00\x00\x00\n\x00\x00\x00\x0b\x00\x00\x00\x0c\x00\x00\x00\r\x00\x00\x00\x0e\x00\x00\x00\x0f\x00\x00\x00\x10\x00\x00\x00\x11\x00\x00\x00\x12\x00\x00\x00\x13\x00\x00\x00\x14\x00\x00\x00\x15\x00\x00\x00\x16\x00\x00\x00\x17\x00\x00\x00\x18\x00\x00\x00\x19\x00\x00\x00\x1a\x00\x00\x00\x1b\x00\x00\x00'
p3175
tp3176
bsg136
I01
sg137
I1
sg138
I-1
sg139
(lp3177
g2776
((lp3178
(lp3179
g900
ag901
aa(lp3180
g885
ag886
aa(lp3181
g889
ag890
aa(lp3182
g887
ag888
aa(lp3183
g882
ag883
aatp3184
Rp3185
ag2776
((lp3186
(lp3187
g900
ag926
aa(lp3188
g885
ag920
aa(lp3189
g889
ag922
aa(lp3190
g887
ag921
aa(lp3191
g882
ag918
aatp3192
Rp3193
ag2776
((lp3194
(lp3195
g900
ag901
aa(lp3196
g885
ag942
aa(lp3197
g889
ag944
aa(lp3198
g887
ag943
aa(lp3199
g882
ag940
aatp3200
Rp3201
ag2776
((lp3202
(lp3203
g900
ag926
aa(lp3204
g885
ag963
aa(lp3205
g889
ag965
aa(lp3206
g887
ag964
aa(lp3207
g882
ag961
aatp3208
Rp3209
ag2776
((lp3210
(lp3211
g900
ag926
aa(lp3212
g885
ag984
aa(lp3213
g889
ag986
aa(lp3214
g887
ag985
aa(lp3215
g882
ag982
aatp3216
Rp3217
ag2776
((lp3218
(lp3219
g900
ag901
aa(lp3220
g885
ag1005
aa(lp3221
g889
ag1007
aa(lp3222
g887
ag1006
aa(lp3223
g882
ag1003
aatp3224
Rp3225
ag2776
((lp3226
(lp3227
g900
ag926
aa(lp3228
g885
ag1026
aa(lp3229
g889
ag1028
aa(lp3230
g887
ag1027
aa(lp3231
g882
ag1024
aatp3232
Rp3233
ag2776
((lp3234
(lp3235
g900
ag926
aa(lp3236
g885
ag1047
aa(lp3237
g889
ag1049
aa(lp3238
g887
ag1048
aa(lp3239
g882
ag1045
aatp3240
Rp3241
ag2776
((lp3242
(lp3243
g900
ag901
aa(lp3244
g885
ag1068
aa(lp3245
g889
ag1070
aa(lp3246
g887
ag1069
aa(lp3247
g882
ag1066
aatp3248
Rp3249
ag2776
((lp3250
(lp3251
g900
ag926
aa(lp3252
g885
ag1089
aa(lp3253
g889
ag1091
aa(lp3254
g887
ag1090
aa(lp3255
g882
ag1087
aatp3256
Rp3257
ag2776
((lp3258
(lp3259
g900
ag926
aa(lp3260
g885
ag1110
aa(lp3261
g889
ag1112
aa(lp3262
g887
ag1111
aa(lp3263
g882
ag1108
aatp3264
Rp3265
ag2776
((lp3266
(lp3267
g900
ag926
aa(lp3268
g885
ag1131
aa(lp3269
g889
ag1133
aa(lp3270
g887
ag1132
aa(lp3271
g882
ag1129
aatp3272
Rp3273
ag2776
((lp3274
(lp3275
g900
ag901
aa(lp3276
g885
ag1152
aa(lp3277
g889
ag1154
aa(lp3278
g887
ag1153
aa(lp3279
g882
ag1150
aatp3280
Rp3281
ag2776
((lp3282
(lp3283
g900
ag901
aa(lp3284
g885
ag1173
aa(lp3285
g889
ag1175
aa(lp3286
g887
ag1174
aa(lp3287
g882
ag1171
aatp3288
Rp3289
ag2776
((lp3290
(lp3291
g900
ag926
aa(lp3292
g885
ag1194
aa(lp3293
g889
ag1196
aa(lp3294
g887
ag1195
aa(lp3295
g882
ag1192
aatp3296
Rp3297
ag2776
((lp3298
(lp3299
g900
ag901
aa(lp3300
g885
ag1215
aa(lp3301
g889
ag1217
aa(lp3302
g887
ag1216
aa(lp3303
g882
ag1213
aatp3304
Rp3305
ag2776
((lp3306
(lp3307
g900
ag901
aa(lp3308
g885
ag1236
aa(lp3309
g889
ag1238
aa(lp3310
g887
ag1237
aa(lp3311
g882
ag1234
aatp3312
Rp3313
ag2776
((lp3314
(lp3315
g900
ag901
aa(lp3316
g885
ag1257
aa(lp3317
g889
ag1259
aa(lp3318
g887
ag1258
aa(lp3319
g882
ag1255
aatp3320
Rp3321
ag2776
((lp3322
(lp3323
g900
ag926
aa(lp3324
g885
ag1278
aa(lp3325
g889
ag1280
aa(lp3326
g887
ag1279
aa(lp3327
g882
ag1276
aatp3328
Rp3329
ag2776
((lp3330
(lp3331
g900
ag901
aa(lp3332
g885
ag1299
aa(lp3333
g889
ag1301
aa(lp3334
g887
ag1300
aa(lp3335
g882
ag1297
aatp3336
Rp3337
ag2776
((lp3338
(lp3339
g900
ag926
aa(lp3340
g885
ag1320
aa(lp3341
g889
ag1322
aa(lp3342
g887
ag1321
aa(lp3343
g882
ag1318
aatp3344
Rp3345
ag2776
((lp3346
(lp3347
g900
ag901
aa(lp3348
g885
ag1341
aa(lp3349
g889
ag1343
aa(lp3350
g887
ag1342
aa(lp3351
g882
ag1339
aatp3352
Rp3353
ag2776
((lp3354
(lp3355
g900
ag901
aa(lp3356
g885
ag1362
aa(lp3357
g889
ag1364
aa(lp3358
g887
ag1363
aa(lp3359
g882
ag1360
aatp3360
Rp3361
ag2776
((lp3362
(lp3363
g900
ag926
aa(lp3364
g885
ag1383
aa(lp3365
g889
ag1385
aa(lp3366
g887
ag1384
aa(lp3367
g882
ag1381
aatp3368
Rp3369
ag2776
((lp3370
(lp3371
g900
ag901
aa(lp3372
g885
ag1404
aa(lp3373
g889
ag1406
aa(lp3374
g887
ag1405
aa(lp3375
g882
ag1402
aatp3376
Rp3377
ag2776
((lp3378
(lp3379
g900
ag901
aa(lp3380
g885
ag1425
aa(lp3381
g889
ag1427
aa(lp3382
g887
ag1426
aa(lp3383
g882
ag1423
aatp3384
Rp3385
ag2776
((lp3386
(lp3387
g900
ag926
aa(lp3388
g885
ag1446
aa(lp3389
g889
ag1448
aa(lp3390
g887
ag1447
aa(lp3391
g882
ag1444
aatp3392
Rp3393
ag2776
((lp3394
(lp3395
g900
ag926
aa(lp3396
g885
ag1467
aa(lp3397
g889
ag1469
aa(lp3398
g887
ag1468
aa(lp3399
g882
ag1465
aatp3400
Rp3401
asg141
Nsg142
g1483
sg146
I28
sg147
I0
sg148
I28
sbag0
(g52
g2
Ntp3402
Rp3403
(dp3404
g56
Nsg57
(lp3405
sg58
I369040976
sg11
g2872
sg6
I-1
sg60
I1
sg25
I01
sg26
g27
sg61
g0
(g62
g63
(dp3406
g65
g66
(g67
g68
g69
g70
tp3407
Rp3408
(I1
(I28
I1
tp3409
g76
I00
S'\x00\x00\x80?\x00\x00\x80?\x00\x00\x80?\x00\x00\x80?\x00\x00\x80?\x00\x00\x80?\x00\x00\x80?\x00\x00\x80?\x00\x00\x80?\x00\x00\x80?\x00\x00\x80?\x00\x00\x80?\x00\x00\x80?\x00\x00\x80?\x00\x00\x80?\x00\x00\x80?\x00\x00\x80?\x00\x00\x80?\x00\x00\x80?\x00\x00\x80?\x00\x00\x80?\x00\x00\x80?\x00\x00\x80?\x00\x00\x80?\x00\x00\x80?\x00\x00\x80?\x00\x00\x80?\x00\x00\x80?'
p3410
S'\x00\x00\x00\x00\x00\x00\x00\x00\x00\x00\x00\x00\x00\x00\x00\x00\x00\x00\x00\x00\x00\x00\x00\x00\x00\x00\x00\x00'
p3411
Ntp3412
bsg18
g66
(g67
g68
g69
g70
tp3413
Rp3414
(I1
(I28
I1
tp3415
g76
I00
S'\x81\xa1\x94@T\xbf\x03AZ3\x95@\xe0\xe1\xb4@.\x1d\xb8@\x98\xf1\x82@Jl\xe1@\tz\x81An\t\xf9@\x82\xc1\xab@\x0eN\x91Aj\xfa{A\x82>\x8f@\xc7%\x96A]\xd8\xffAm9\nA7x\xd3@K\xcd\x89A\x1c\xd9\x8f@\xd0F\x00A]\xdf\x9e@8\x07\xe3@\xe9C\xc0A\x16\x15\xb1@J0\xa3@\xab\x8e\x04A\xa0\xd6\x9eA\xd5*\x8d@'
p3416
S'\x00\x00\x00\x00\x00\x00\x00\x00\x00\x00\x00\x00\x00\x00\x00\x00\x00\x00\x00\x00\x00\x00\x00\x00\x00\x00\x00\x00'
p3417
Ntp3418
bsg105
g66
(g67
g68
g69
g70
tp3419
Rp3420
(I1
(I28
I1
tp3421
g76
I00
S'\x00\x00\x00\x00\x00\x00\x80?\x00\x00\x00@\x00\x00@@\x00\x00\x80@\x00\x00\xa0@\x00\x00\xc0@\x00\x00\xe0@\x00\x00\x00A\x00\x00\x10A\x00\x00 A\x00\x000A\x00\x00@A\x00\x00PA\x00\x00`A\x00\x00pA\x00\x00\x80A\x00\x00\x88A\x00\x00\x90A\x00\x00\x98A\x00\x00\xa0A\x00\x00\xa8A\x00\x00\xb0A\x00\x00\xb8A\x00\x00\xc0A\x00\x00\xc8A\x00\x00\xd0A\x00\x00\xd8A'
p3422
S'\x00\x00\x00\x00\x00\x00\x00\x00\x00\x00\x00\x00\x00\x00\x00\x00\x00\x00\x00\x00\x00\x00\x00\x00\x00\x00\x00\x00'
p3423
Ntp3424
bsg17
g88
(g68
(I0
tp3425
g70
tp3426
Rp3427
(I1
(I28
I1
tp3428
g95
I00
(lp3429
g1526
ag1548
ag1569
ag1590
ag1611
ag1632
ag1653
ag1674
ag1695
ag1716
ag1737
ag1758
ag1779
ag1800
ag1821
ag1842
ag1863
ag1884
ag1905
ag1926
ag1947
ag1968
ag1989
ag2010
ag2031
ag2052
ag2073
ag2094
atp3430
bstp3431
Rp3432
(dp3433
g115
(dp3434
g65
I01
sg18
I01
sg105
I01
sg17
I00
ssg117
g3403
sg118
(lp3435
g65
ag105
ag17
ag18
asg120
(lp3436
I28
aI1
asbsg122
g2904
sg124
g88
(g68
(I0
tp3437
g70
tp3438
Rp3439
(I1
(I28
I1
tp3440
g131
I00
S'\x00\x00\x00\x00\x01\x00\x00\x00\x02\x00\x00\x00\x03\x00\x00\x00\x04\x00\x00\x00\x05\x00\x00\x00\x06\x00\x00\x00\x07\x00\x00\x00\x08\x00\x00\x00\t\x00\x00\x00\n\x00\x00\x00\x0b\x00\x00\x00\x0c\x00\x00\x00\r\x00\x00\x00\x0e\x00\x00\x00\x0f\x00\x00\x00\x10\x00\x00\x00\x11\x00\x00\x00\x12\x00\x00\x00\x13\x00\x00\x00\x14\x00\x00\x00\x15\x00\x00\x00\x16\x00\x00\x00\x17\x00\x00\x00\x18\x00\x00\x00\x19\x00\x00\x00\x1a\x00\x00\x00\x1b\x00\x00\x00'
p3441
tp3442
bsg136
I01
sg137
I1
sg138
I-1
sg139
(lp3443
g2776
((lp3444
(lp3445
g1516
ag1517
aa(lp3446
g1501
ag1502
aa(lp3447
g1505
ag1506
aa(lp3448
g1503
ag1504
aa(lp3449
g1498
ag1499
aatp3450
Rp3451
ag2776
((lp3452
(lp3453
g1516
ag1542
aa(lp3454
g1501
ag1536
aa(lp3455
g1505
ag1538
aa(lp3456
g1503
ag1537
aa(lp3457
g1498
ag1534
aatp3458
Rp3459
ag2776
((lp3460
(lp3461
g1516
ag1517
aa(lp3462
g1501
ag1558
aa(lp3463
g1505
ag1560
aa(lp3464
g1503
ag1559
aa(lp3465
g1498
ag1556
aatp3466
Rp3467
ag2776
((lp3468
(lp3469
g1516
ag1542
aa(lp3470
g1501
ag1579
aa(lp3471
g1505
ag1581
aa(lp3472
g1503
ag1580
aa(lp3473
g1498
ag1577
aatp3474
Rp3475
ag2776
((lp3476
(lp3477
g1516
ag1517
aa(lp3478
g1501
ag1600
aa(lp3479
g1505
ag1602
aa(lp3480
g1503
ag1601
aa(lp3481
g1498
ag1598
aatp3482
Rp3483
ag2776
((lp3484
(lp3485
g1516
ag1517
aa(lp3486
g1501
ag1621
aa(lp3487
g1505
ag1623
aa(lp3488
g1503
ag1622
aa(lp3489
g1498
ag1619
aatp3490
Rp3491
ag2776
((lp3492
(lp3493
g1516
ag1517
aa(lp3494
g1501
ag1642
aa(lp3495
g1505
ag1644
aa(lp3496
g1503
ag1643
aa(lp3497
g1498
ag1640
aatp3498
Rp3499
ag2776
((lp3500
(lp3501
g1516
ag1542
aa(lp3502
g1501
ag1663
aa(lp3503
g1505
ag1665
aa(lp3504
g1503
ag1664
aa(lp3505
g1498
ag1661
aatp3506
Rp3507
ag2776
((lp3508
(lp3509
g1516
ag1542
aa(lp3510
g1501
ag1684
aa(lp3511
g1505
ag1686
aa(lp3512
g1503
ag1685
aa(lp3513
g1498
ag1682
aatp3514
Rp3515
ag2776
((lp3516
(lp3517
g1516
ag1517
aa(lp3518
g1501
ag1705
aa(lp3519
g1505
ag1707
aa(lp3520
g1503
ag1706
aa(lp3521
g1498
ag1703
aatp3522
Rp3523
ag2776
((lp3524
(lp3525
g1516
ag1517
aa(lp3526
g1501
ag1726
aa(lp3527
g1505
ag1728
aa(lp3528
g1503
ag1727
aa(lp3529
g1498
ag1724
aatp3530
Rp3531
ag2776
((lp3532
(lp3533
g1516
ag1542
aa(lp3534
g1501
ag1747
aa(lp3535
g1505
ag1749
aa(lp3536
g1503
ag1748
aa(lp3537
g1498
ag1745
aatp3538
Rp3539
ag2776
((lp3540
(lp3541
g1516
ag1517
aa(lp3542
g1501
ag1768
aa(lp3543
g1505
ag1770
aa(lp3544
g1503
ag1769
aa(lp3545
g1498
ag1766
aatp3546
Rp3547
ag2776
((lp3548
(lp3549
g1516
ag1542
aa(lp3550
g1501
ag1789
aa(lp3551
g1505
ag1791
aa(lp3552
g1503
ag1790
aa(lp3553
g1498
ag1787
aatp3554
Rp3555
ag2776
((lp3556
(lp3557
g1516
ag1542
aa(lp3558
g1501
ag1810
aa(lp3559
g1505
ag1812
aa(lp3560
g1503
ag1811
aa(lp3561
g1498
ag1808
aatp3562
Rp3563
ag2776
((lp3564
(lp3565
g1516
ag1542
aa(lp3566
g1501
ag1831
aa(lp3567
g1505
ag1833
aa(lp3568
g1503
ag1832
aa(lp3569
g1498
ag1829
aatp3570
Rp3571
ag2776
((lp3572
(lp3573
g1516
ag1517
aa(lp3574
g1501
ag1852
aa(lp3575
g1505
ag1854
aa(lp3576
g1503
ag1853
aa(lp3577
g1498
ag1850
aatp3578
Rp3579
ag2776
((lp3580
(lp3581
g1516
ag1517
aa(lp3582
g1501
ag1873
aa(lp3583
g1505
ag1875
aa(lp3584
g1503
ag1874
aa(lp3585
g1498
ag1871
aatp3586
Rp3587
ag2776
((lp3588
(lp3589
g1516
ag1542
aa(lp3590
g1501
ag1894
aa(lp3591
g1505
ag1896
aa(lp3592
g1503
ag1895
aa(lp3593
g1498
ag1892
aatp3594
Rp3595
ag2776
((lp3596
(lp3597
g1516
ag1542
aa(lp3598
g1501
ag1915
aa(lp3599
g1505
ag1917
aa(lp3600
g1503
ag1916
aa(lp3601
g1498
ag1913
aatp3602
Rp3603
ag2776
((lp3604
(lp3605
g1516
ag1517
aa(lp3606
g1501
ag1936
aa(lp3607
g1505
ag1938
aa(lp3608
g1503
ag1937
aa(lp3609
g1498
ag1934
aatp3610
Rp3611
ag2776
((lp3612
(lp3613
g1516
ag1517
aa(lp3614
g1501
ag1957
aa(lp3615
g1505
ag1959
aa(lp3616
g1503
ag1958
aa(lp3617
g1498
ag1955
aatp3618
Rp3619
ag2776
((lp3620
(lp3621
g1516
ag1542
aa(lp3622
g1501
ag1978
aa(lp3623
g1505
ag1980
aa(lp3624
g1503
ag1979
aa(lp3625
g1498
ag1976
aatp3626
Rp3627
ag2776
((lp3628
(lp3629
g1516
ag1517
aa(lp3630
g1501
ag1999
aa(lp3631
g1505
ag2001
aa(lp3632
g1503
ag2000
aa(lp3633
g1498
ag1997
aatp3634
Rp3635
ag2776
((lp3636
(lp3637
g1516
ag1517
aa(lp3638
g1501
ag2020
aa(lp3639
g1505
ag2022
aa(lp3640
g1503
ag2021
aa(lp3641
g1498
ag2018
aatp3642
Rp3643
ag2776
((lp3644
(lp3645
g1516
ag1542
aa(lp3646
g1501
ag2041
aa(lp3647
g1505
ag2043
aa(lp3648
g1503
ag2042
aa(lp3649
g1498
ag2039
aatp3650
Rp3651
ag2776
((lp3652
(lp3653
g1516
ag1542
aa(lp3654
g1501
ag2062
aa(lp3655
g1505
ag2064
aa(lp3656
g1503
ag2063
aa(lp3657
g1498
ag2060
aatp3658
Rp3659
ag2776
((lp3660
(lp3661
g1516
ag1542
aa(lp3662
g1501
ag2083
aa(lp3663
g1505
ag2085
aa(lp3664
g1503
ag2084
aa(lp3665
g1498
ag2081
aatp3666
Rp3667
asg141
Nsg142
g2099
sg146
I28
sg147
I0
sg148
I28
sbag0
(g52
g2
Ntp3668
Rp3669
(dp3670
g56
Nsg57
(lp3671
sg58
I369040976
sg11
g2872
sg6
I-1
sg60
I1
sg25
I01
sg26
g27
sg61
g0
(g62
g63
(dp3672
g65
g66
(g67
g68
g69
g70
tp3673
Rp3674
(I1
(I28
I1
tp3675
g76
I00
S'\x00\x00\x80?\x00\x00\x80?\x00\x00\x80?\x00\x00\x80?\x00\x00\x80?\x00\x00\x80?\x00\x00\x80?\x00\x00\x80?\x00\x00\x80?\x00\x00\x80?\x00\x00\x80?\x00\x00\x80?\x00\x00\x80?\x00\x00\x80?\x00\x00\x80?\x00\x00\x80?\x00\x00\x80?\x00\x00\x80?\x00\x00\x80?\x00\x00\x80?\x00\x00\x80?\x00\x00\x80?\x00\x00\x80?\x00\x00\x80?\x00\x00\x80?\x00\x00\x80?\x00\x00\x80?\x00\x00\x80?'
p3676
S'\x00\x00\x00\x00\x00\x00\x00\x00\x00\x00\x00\x00\x00\x00\x00\x00\x00\x00\x00\x00\x00\x00\x00\x00\x00\x00\x00\x00'
p3677
Ntp3678
bsg18
g66
(g67
g68
g69
g70
tp3679
Rp3680
(I1
(I28
I1
tp3681
g76
I00
S'\x1dm\xe1@\x10\xffSA\x9c_\x05A\xb9\x91\xe3@\x92z\x97A\xe4O`A\xfa\xab\xecA\xf4\xaaGA\x95\xea1A\xa8w\xa7@t,\xde@\xca\x1a\xd6@\xeb<\x07AWMFA\xee\x00XA\xdb\xa9*A\xf7\xe3\xef@-\x9f"A\xf5\xechA\xadh\xbc@\xe9*\xb9@\x89\xf6#ADG\xca@\xee\x0e\xa2@q~\xb6@\x01h@A\xa5+\x8d@o\x99kA'
p3682
S'\x00\x00\x00\x00\x00\x00\x00\x00\x00\x00\x00\x00\x00\x00\x00\x00\x00\x00\x00\x00\x00\x00\x00\x00\x00\x00\x00\x00'
p3683
Ntp3684
bsg105
g66
(g67
g68
g69
g70
tp3685
Rp3686
(I1
(I28
I1
tp3687
g76
I00
S'\x00\x00\x00\x00\x00\x00\x80?\x00\x00\x00@\x00\x00@@\x00\x00\x80@\x00\x00\xa0@\x00\x00\xc0@\x00\x00\xe0@\x00\x00\x00A\x00\x00\x10A\x00\x00 A\x00\x000A\x00\x00@A\x00\x00PA\x00\x00`A\x00\x00pA\x00\x00\x80A\x00\x00\x88A\x00\x00\x90A\x00\x00\x98A\x00\x00\xa0A\x00\x00\xa8A\x00\x00\xb0A\x00\x00\xb8A\x00\x00\xc0A\x00\x00\xc8A\x00\x00\xd0A\x00\x00\xd8A'
p3688
S'\x00\x00\x00\x00\x00\x00\x00\x00\x00\x00\x00\x00\x00\x00\x00\x00\x00\x00\x00\x00\x00\x00\x00\x00\x00\x00\x00\x00'
p3689
Ntp3690
bsg17
g88
(g68
(I0
tp3691
g70
tp3692
Rp3693
(I1
(I28
I1
tp3694
g95
I00
(lp3695
g2142
ag2164
ag2185
ag2206
ag2227
ag2248
ag2269
ag2290
ag2311
ag2332
ag2353
ag2374
ag2395
ag2416
ag2437
ag2458
ag2479
ag2500
ag2521
ag2542
ag2563
ag2584
ag2605
ag2626
ag2647
ag2668
ag2689
ag2710
atp3696
bstp3697
Rp3698
(dp3699
g115
(dp3700
g65
I01
sg18
I01
sg105
I01
sg17
I00
ssg117
g3669
sg118
(lp3701
g65
ag105
ag17
ag18
asg120
(lp3702
I28
aI1
asbsg122
g2904
sg124
g88
(g68
(I0
tp3703
g70
tp3704
Rp3705
(I1
(I28
I1
tp3706
g131
I00
S'\x00\x00\x00\x00\x01\x00\x00\x00\x02\x00\x00\x00\x03\x00\x00\x00\x04\x00\x00\x00\x05\x00\x00\x00\x06\x00\x00\x00\x07\x00\x00\x00\x08\x00\x00\x00\t\x00\x00\x00\n\x00\x00\x00\x0b\x00\x00\x00\x0c\x00\x00\x00\r\x00\x00\x00\x0e\x00\x00\x00\x0f\x00\x00\x00\x10\x00\x00\x00\x11\x00\x00\x00\x12\x00\x00\x00\x13\x00\x00\x00\x14\x00\x00\x00\x15\x00\x00\x00\x16\x00\x00\x00\x17\x00\x00\x00\x18\x00\x00\x00\x19\x00\x00\x00\x1a\x00\x00\x00\x1b\x00\x00\x00'
p3707
tp3708
bsg136
I01
sg137
I1
sg138
I-1
sg139
(lp3709
g2776
((lp3710
(lp3711
g2132
ag2133
aa(lp3712
g2117
ag2118
aa(lp3713
g2121
ag2122
aa(lp3714
g2119
ag2120
aa(lp3715
g2114
ag2115
aatp3716
Rp3717
ag2776
((lp3718
(lp3719
g2132
ag2158
aa(lp3720
g2117
ag2152
aa(lp3721
g2121
ag2154
aa(lp3722
g2119
ag2153
aa(lp3723
g2114
ag2150
aatp3724
Rp3725
ag2776
((lp3726
(lp3727
g2132
ag2133
aa(lp3728
g2117
ag2174
aa(lp3729
g2121
ag2176
aa(lp3730
g2119
ag2175
aa(lp3731
g2114
ag2172
aatp3732
Rp3733
ag2776
((lp3734
(lp3735
g2132
ag2133
aa(lp3736
g2117
ag2195
aa(lp3737
g2121
ag2197
aa(lp3738
g2119
ag2196
aa(lp3739
g2114
ag2193
aatp3740
Rp3741
ag2776
((lp3742
(lp3743
g2132
ag2158
aa(lp3744
g2117
ag2216
aa(lp3745
g2121
ag2218
aa(lp3746
g2119
ag2217
aa(lp3747
g2114
ag2214
aatp3748
Rp3749
ag2776
((lp3750
(lp3751
g2132
ag2158
aa(lp3752
g2117
ag2237
aa(lp3753
g2121
ag2239
aa(lp3754
g2119
ag2238
aa(lp3755
g2114
ag2235
aatp3756
Rp3757
ag2776
((lp3758
(lp3759
g2132
ag2133
aa(lp3760
g2117
ag2258
aa(lp3761
g2121
ag2260
aa(lp3762
g2119
ag2259
aa(lp3763
g2114
ag2256
aatp3764
Rp3765
ag2776
((lp3766
(lp3767
g2132
ag2158
aa(lp3768
g2117
ag2279
aa(lp3769
g2121
ag2281
aa(lp3770
g2119
ag2280
aa(lp3771
g2114
ag2277
aatp3772
Rp3773
ag2776
((lp3774
(lp3775
g2132
ag2158
aa(lp3776
g2117
ag2300
aa(lp3777
g2121
ag2302
aa(lp3778
g2119
ag2301
aa(lp3779
g2114
ag2298
aatp3780
Rp3781
ag2776
((lp3782
(lp3783
g2132
ag2133
aa(lp3784
g2117
ag2321
aa(lp3785
g2121
ag2323
aa(lp3786
g2119
ag2322
aa(lp3787
g2114
ag2319
aatp3788
Rp3789
ag2776
((lp3790
(lp3791
g2132
ag2133
aa(lp3792
g2117
ag2342
aa(lp3793
g2121
ag2344
aa(lp3794
g2119
ag2343
aa(lp3795
g2114
ag2340
aatp3796
Rp3797
ag2776
((lp3798
(lp3799
g2132
ag2158
aa(lp3800
g2117
ag2363
aa(lp3801
g2121
ag2365
aa(lp3802
g2119
ag2364
aa(lp3803
g2114
ag2361
aatp3804
Rp3805
ag2776
((lp3806
(lp3807
g2132
ag2133
aa(lp3808
g2117
ag2384
aa(lp3809
g2121
ag2386
aa(lp3810
g2119
ag2385
aa(lp3811
g2114
ag2382
aatp3812
Rp3813
ag2776
((lp3814
(lp3815
g2132
ag2158
aa(lp3816
g2117
ag2405
aa(lp3817
g2121
ag2407
aa(lp3818
g2119
ag2406
aa(lp3819
g2114
ag2403
aatp3820
Rp3821
ag2776
((lp3822
(lp3823
g2132
ag2158
aa(lp3824
g2117
ag2426
aa(lp3825
g2121
ag2428
aa(lp3826
g2119
ag2427
aa(lp3827
g2114
ag2424
aatp3828
Rp3829
ag2776
((lp3830
(lp3831
g2132
ag2158
aa(lp3832
g2117
ag2447
aa(lp3833
g2121
ag2449
aa(lp3834
g2119
ag2448
aa(lp3835
g2114
ag2445
aatp3836
Rp3837
ag2776
((lp3838
(lp3839
g2132
ag2133
aa(lp3840
g2117
ag2468
aa(lp3841
g2121
ag2470
aa(lp3842
g2119
ag2469
aa(lp3843
g2114
ag2466
aatp3844
Rp3845
ag2776
((lp3846
(lp3847
g2132
ag2133
aa(lp3848
g2117
ag2489
aa(lp3849
g2121
ag2491
aa(lp3850
g2119
ag2490
aa(lp3851
g2114
ag2487
aatp3852
Rp3853
ag2776
((lp3854
(lp3855
g2132
ag2133
aa(lp3856
g2117
ag2510
aa(lp3857
g2121
ag2512
aa(lp3858
g2119
ag2511
aa(lp3859
g2114
ag2508
aatp3860
Rp3861
ag2776
((lp3862
(lp3863
g2132
ag2158
aa(lp3864
g2117
ag2531
aa(lp3865
g2121
ag2533
aa(lp3866
g2119
ag2532
aa(lp3867
g2114
ag2529
aatp3868
Rp3869
ag2776
((lp3870
(lp3871
g2132
ag2158
aa(lp3872
g2117
ag2552
aa(lp3873
g2121
ag2554
aa(lp3874
g2119
ag2553
aa(lp3875
g2114
ag2550
aatp3876
Rp3877
ag2776
((lp3878
(lp3879
g2132
ag2158
aa(lp3880
g2117
ag2573
aa(lp3881
g2121
ag2575
aa(lp3882
g2119
ag2574
aa(lp3883
g2114
ag2571
aatp3884
Rp3885
ag2776
((lp3886
(lp3887
g2132
ag2133
aa(lp3888
g2117
ag2594
aa(lp3889
g2121
ag2596
aa(lp3890
g2119
ag2595
aa(lp3891
g2114
ag2592
aatp3892
Rp3893
ag2776
((lp3894
(lp3895
g2132
ag2158
aa(lp3896
g2117
ag2615
aa(lp3897
g2121
ag2617
aa(lp3898
g2119
ag2616
aa(lp3899
g2114
ag2613
aatp3900
Rp3901
ag2776
((lp3902
(lp3903
g2132
ag2133
aa(lp3904
g2117
ag2636
aa(lp3905
g2121
ag2638
aa(lp3906
g2119
ag2637
aa(lp3907
g2114
ag2634
aatp3908
Rp3909
ag2776
((lp3910
(lp3911
g2132
ag2133
aa(lp3912
g2117
ag2657
aa(lp3913
g2121
ag2659
aa(lp3914
g2119
ag2658
aa(lp3915
g2114
ag2655
aatp3916
Rp3917
ag2776
((lp3918
(lp3919
g2132
ag2158
aa(lp3920
g2117
ag2678
aa(lp3921
g2121
ag2680
aa(lp3922
g2119
ag2679
aa(lp3923
g2114
ag2676
aatp3924
Rp3925
ag2776
((lp3926
(lp3927
g2132
ag2133
aa(lp3928
g2117
ag2699
aa(lp3929
g2121
ag2701
aa(lp3930
g2119
ag2700
aa(lp3931
g2114
ag2697
aatp3932
Rp3933
asg141
Nsg142
g2715
sg146
I28
sg147
I0
sg148
I28
sbasS'savePickle'
p3934
I00
sb.