ccopy_reg
_reconstructor
p0
(cpsychopy.data.experiment
ExperimentHandler
p1
c__builtin__
object
p2
Ntp3
Rp4
(dp5
S'originPath'
p6
VC:\u005cUsers\u005cadmin\u005cDocuments\u005cgit-repos\u005cpia_rita\u005cPia_Rita_2018_replication_sheb-pulv2013\u005cexp-scripts_psychopy\u005cpilot\u005csheb_replic_pilot_control.psyexp
p7
sS'dataFileName'
p8
VC:\u005cUsers\u005cadmin\u005cDocuments\u005cgit-repos\u005cpia_rita\u005cPia_Rita_2018_replication_sheb-pulv2013\u005cexp-scripts_psychopy\u005cpilot\u005cdata/908_sheb_replic_pilot_control_2018_Jun_18_1053
p9
sS'runtimeInfo'
p10
NsS'name'
p11
S'sheb_replic_pilot_control'
p12
sS'dataNames'
p13
(lp14
S'key_resp_13.keys'
p15
aS'key_resp_13.rt'
p16
aS'key_resp_6.keys'
p17
aS'key_resp_6.rt'
p18
aS'key_resp_2.keys'
p19
aS'key_resp_2.rt'
p20
aS'key_resp_8.keys'
p21
aS'key_resp_8.rt'
p22
aS'key_resp_7.keys'
p23
aS'key_resp_7.rt'
p24
aS'key_resp_3.keys'
p25
aS'key_resp_3.rt'
p26
asS'autoLog'
p27
I01
sS'extraInfo'
p28
(dp29
S'date'
p30
V2018_Jun_18_1053
p31
sS'frameRate'
p32
cnumpy.core.multiarray
scalar
p33
(cnumpy
dtype
p34
(S'f8'
p35
I0
I1
tp36
Rp37
(I3
S'<'
p38
NNNI-1
I-1
I0
tp39
bS"'\xb9\xb6\xe1\xb6\xceM@"
p40
tp41
Rp42
sS'expName'
p43
g12
sVsession
p44
V001
p45
sVparticipant
p46
g0
(cfuture.types.newstr
newstr
p47
c__builtin__
unicode
p48
V908
p49
tp50
Rp51
ssS'loopsUnfinished'
p52
(lp53
g0
(cpsychopy.data.trial
TrialHandler
p54
g2
Ntp55
Rp56
(dp57
S'origin'
p58
NsS'thisTrial'
p59
NsS'_exp'
p60
I374820848
sg11
S'training_block'
p61
sg6
I-1
sS'thisRepN'
p62
I0
sg27
I01
sg28
g29
sS'data'
p63
g0
(cpsychopy.data.base
DataHandler
p64
c__builtin__
dict
p65
(dp66
S'ran'
p67
cnumpy.ma.core
_mareconstruct
p68
(cnumpy.ma.core
MaskedArray
p69
cnumpy
ndarray
p70
(I0
tp71
S'b'
p72
tp73
Rp74
(I1
(I1
I5
tp75
g34
(S'f4'
p76
I0
I1
tp77
Rp78
(I3
S'<'
p79
NNNI-1
I-1
I0
tp80
bI00
S'\x00\x00\x80?\x00\x00\x00\x00\x00\x00\x00\x00\x00\x00\x00\x00\x00\x00\x00\x00'
p81
S'\x00\x00\x00\x00\x00'
p82
Ntp83
bsg22
g68
(g69
g70
g71
g72
tp84
Rp85
(I1
(I1
I5
tp86
g78
I00
S'\xbd\x9dF@\x00\x00\x00\x00\x00\x00\x00\x00\x00\x00\x00\x00\x00\x00\x00\x00'
p87
S'\x00\x01\x01\x01\x01'
p88
Ntp89
bsg21
cnumpy.core.multiarray
_reconstruct
p90
(g70
(I0
tp91
g72
tp92
Rp93
(I1
(I1
I5
tp94
g34
(S'O4'
p95
I0
I1
tp96
Rp97
(I3
S'|'
p98
NNNI-1
I-1
I63
tp99
bI00
(lp100
S's'
p101
aS'--'
p102
aS'--'
p103
aS'--'
p104
aS'--'
p105
atp106
bsS'order'
p107
g68
(g69
g70
g71
g72
tp108
Rp109
(I1
(I1
I5
tp110
g78
I00
S'\x00\x00\x00\x00\x00\x00\x00\x00\x00\x00\x00\x00\x00\x00\x00\x00\x00\x00\x00\x00'
p111
S'\x00\x01\x01\x01\x01'
p112
Ntp113
bstp114
Rp115
(dp116
S'isNumeric'
p117
(dp118
g67
I01
sg22
I01
sg21
I00
sg107
I01
ssS'trials'
p119
g56
sS'dataTypes'
p120
(lp121
g67
ag107
ag21
ag22
asS'dataShape'
p122
(lp123
I1
aI5
asbsS'method'
p124
S'random'
p125
sS'sequenceIndices'
p126
g90
(g70
(I0
tp127
g72
tp128
Rp129
(I1
(I1
I5
tp130
g34
(S'i4'
p131
I0
I1
tp132
Rp133
(I3
S'<'
p134
NNNI-1
I-1
I0
tp135
bI00
S'\x00\x00\x00\x00\x00\x00\x00\x00\x00\x00\x00\x00\x00\x00\x00\x00\x00\x00\x00\x00'
p136
tp137
bsS'finished'
p138
I00
sS'nReps'
p139
I5
sS'nRemaining'
p140
I4
sS'trialList'
p141
(lp142
NasS'seed'
p143
NsS'thisIndex'
p144
g33
(g133
S'\x00\x00\x00\x00'
p145
tp146
Rp147
sS'thisN'
p148
I0
sS'thisTrialN'
p149
I0
sS'nTotal'
p150
I5
sbasS'saveWideText'
p151
I00
sS'thisEntry'
p152
(dp153
sS'version'
p154
S''
p155
sS'_paramNamesSoFar'
p156
(lp157
S'item'
p158
aS'type'
p159
aS'word1'
p160
aS'word2'
p161
aS'word3'
p162
aS'word4'
p163
aS'word_duration'
p164
aS'follow_blank'
p165
aS'SOA'
p166
asS'entries'
p167
(lp168
(dp169
g44
g45
sg43
g12
sg46
g51
sg15
S'space'
p170
sg30
g31
sg32
g42
sg16
F4474.114791419971
sa(dp171
g44
g45
sg43
g12
sg46
g51
sg30
g31
sg17
S'space'
p172
sg32
g42
sg18
F7.463690468428467
sa(dp173
S'training_block.thisRepN'
p174
I0
sg20
F42.98435210219759
sS'training_block.thisN'
p175
I0
sS'word_presentation_training.thisTrialN'
p176
I0
sg44
g45
sg163
Vsigh
p177
sS'word_presentation_training.thisRepN'
p178
I0
sg46
g51
sg32
g42
sS'training_block.thisTrialN'
p179
I0
sg19
S'space'
p180
sg158
g33
(g34
(S'i8'
p181
I0
I1
tp182
Rp183
(I3
S'<'
p184
NNNI-1
I-1
I0
tp185
bS'\x01\x00\x00\x00\x00\x00\x00\x00'
p186
tp187
Rp188
sg43
g12
sg160
Vwait
p189
sS'word_presentation_training.thisIndex'
p190
g33
(g133
S'\x00\x00\x00\x00'
p191
tp192
Rp193
sg162
Vblush
p194
sg161
Vbless
p195
sg30
g31
sS'word_presentation_training.thisN'
p196
I0
sg159
Vtraining
p197
sS'training_block.thisIndex'
p198
g147
sa(dp199
S'training_block.thisRepN'
p200
I0
sg20
F28.813274240827013
sS'training_block.thisN'
p201
I0
sS'word_presentation_training.thisTrialN'
p202
I1
sg44
g45
sg163
Vprint
p203
sS'word_presentation_training.thisRepN'
p204
I0
sg46
g51
sg32
g42
sS'training_block.thisTrialN'
p205
I0
sg19
S'space'
p206
sg158
g33
(g183
S'\x04\x00\x00\x00\x00\x00\x00\x00'
p207
tp208
Rp209
sg43
g12
sg160
Vsave
p210
sS'word_presentation_training.thisIndex'
p211
g33
(g133
S'\x03\x00\x00\x00'
p212
tp213
Rp214
sg162
Vstay
p215
sg161
Vlook
p216
sg30
g31
sS'word_presentation_training.thisN'
p217
I1
sg159
g197
sS'training_block.thisIndex'
p218
g147
sa(dp219
S'training_block.thisRepN'
p220
I0
sg20
F4.5121656044157135
sS'training_block.thisN'
p221
I0
sS'word_presentation_training.thisTrialN'
p222
I2
sg44
g45
sg163
Vyell
p223
sS'word_presentation_training.thisRepN'
p224
I0
sg46
g51
sg32
g42
sS'training_block.thisTrialN'
p225
I0
sg19
S'space'
p226
sg158
g33
(g183
S'\x02\x00\x00\x00\x00\x00\x00\x00'
p227
tp228
Rp229
sg43
g12
sg160
Vlike
p230
sS'word_presentation_training.thisIndex'
p231
g33
(g133
S'\x01\x00\x00\x00'
p232
tp233
Rp234
sg162
Vstare
p235
sg161
Vthank
p236
sg30
g31
sS'word_presentation_training.thisN'
p237
I2
sg159
g197
sS'training_block.thisIndex'
p238
g147
sa(dp239
S'training_block.thisRepN'
p240
I0
sg20
F4.763490898862074
sS'training_block.thisN'
p241
I0
sS'word_presentation_training.thisTrialN'
p242
I3
sg44
g45
sg163
Vsoothe
p243
sS'word_presentation_training.thisRepN'
p244
I0
sg46
g51
sg32
g42
sS'training_block.thisTrialN'
p245
I0
sg19
S'space'
p246
sg158
g33
(g183
S'\x03\x00\x00\x00\x00\x00\x00\x00'
p247
tp248
Rp249
sg43
g12
sg160
Vlick
p250
sS'word_presentation_training.thisIndex'
p251
g33
(g133
S'\x02\x00\x00\x00'
p252
tp253
Rp254
sg162
Vchew
p255
sg161
Vruin
p256
sg30
g31
sS'word_presentation_training.thisN'
p257
I3
sg159
g197
sS'training_block.thisIndex'
p258
g147
sa(dp259
S'training_block.thisRepN'
p260
I0
sS'training_block.thisN'
p261
I0
sg44
g45
sg24
F1.3924471749105578
sg32
g42
sS'training_block.thisTrialN'
p262
I0
sg22
F3.103377510473365
sg43
g12
sg21
g101
sg23
S'space'
p263
sg30
g31
sg46
g51
sS'training_block.thisIndex'
p264
g147
sa(dp265
S'training_block.thisRepN'
p266
I0
sg165
g33
(g37
S'\x9a\x99\x99\x99\x99\x99\xd9?'
p267
tp268
Rp269
sg32
g42
sS'word4'
p270
Vbind
p271
sS'experimental_blocks.thisN'
p272
I0
sg44
g45
sS'word1'
p273
Vdig
p274
sS'word3'
p275
Vgrate
p276
sS'word2'
p277
Vseize
p278
sS'experimental_blocks.thisIndex'
p279
g33
(g133
S'\x03\x00\x00\x00'
p280
tp281
Rp282
sS'word_presentation.thisRepN'
p283
I0
sS'experimental_blocks.thisRepN'
p284
I0
sg46
g51
sg164
g33
(g37
S'\x9a\x99\x99\x99\x99\x99\xd9?'
p285
tp286
Rp287
sS'type'
p288
Varm
p289
sS'training_block.thisIndex'
p290
g147
sg166
g33
(g37
S'\x9a\x99\x99\x99\x99\x99\xe9?'
p291
tp292
Rp293
sg20
F8.972845737189346
sS'experimental_blocks.thisTrialN'
p294
I0
sS'training_block.thisN'
p295
I0
sS'word_presentation.thisN'
p296
I0
sS'training_block.thisTrialN'
p297
I0
sg19
S'space'
p298
sg30
g31
sS'word_presentation.thisTrialN'
p299
I0
sg43
g12
sS'word_presentation.thisIndex'
p300
g33
(g133
S'\x00\x00\x00\x00'
p301
tp302
Rp303
sa(dp304
S'training_block.thisRepN'
p305
I0
sg165
g269
sg32
g42
sg270
Vtwine
p306
sS'experimental_blocks.thisN'
p307
I0
sg44
g45
sg273
Vclaw
p308
sg275
Vskim
p309
sg277
Vbash
p310
sS'experimental_blocks.thisIndex'
p311
g282
sS'word_presentation.thisRepN'
p312
I0
sS'experimental_blocks.thisRepN'
p313
I0
sg46
g51
sg164
g287
sg288
g289
sS'training_block.thisIndex'
p314
g147
sg166
g293
sg20
F5.551496337142453
sS'experimental_blocks.thisTrialN'
p315
I0
sS'training_block.thisN'
p316
I0
sS'word_presentation.thisN'
p317
I1
sS'training_block.thisTrialN'
p318
I0
sg19
S'space'
p319
sg30
g31
sS'word_presentation.thisTrialN'
p320
I1
sg43
g12
sS'word_presentation.thisIndex'
p321
g33
(g133
S'\x01\x00\x00\x00'
p322
tp323
Rp324
sa(dp325
S'training_block.thisRepN'
p326
I0
sg165
g269
sg32
g42
sg270
Vwalk
p327
sS'experimental_blocks.thisN'
p328
I0
sg44
g45
sg273
Vflit
p329
sg275
Vtrudge
p330
sg277
Vstroll
p331
sS'experimental_blocks.thisIndex'
p332
g282
sS'word_presentation.thisRepN'
p333
I0
sS'experimental_blocks.thisRepN'
p334
I0
sg46
g51
sg164
g287
sg288
Vleg
p335
sS'training_block.thisIndex'
p336
g147
sg166
g293
sg20
F4.260120026217919
sS'experimental_blocks.thisTrialN'
p337
I0
sS'training_block.thisN'
p338
I0
sS'word_presentation.thisN'
p339
I2
sS'training_block.thisTrialN'
p340
I0
sg19
S'space'
p341
sg30
g31
sS'word_presentation.thisTrialN'
p342
I2
sg43
g12
sS'word_presentation.thisIndex'
p343
g33
(g133
S'\x02\x00\x00\x00'
p344
tp345
Rp346
sa(dp347
S'training_block.thisRepN'
p348
I0
sg165
g269
sg32
g42
sg270
Vprance
p349
sS'experimental_blocks.thisN'
p350
I0
sg44
g45
sg273
Vmount
p351
sg275
Vkick
p352
sg277
Vtrek
p353
sS'experimental_blocks.thisIndex'
p354
g282
sS'word_presentation.thisRepN'
p355
I0
sS'experimental_blocks.thisRepN'
p356
I0
sg46
g51
sg164
g287
sg288
g335
sS'training_block.thisIndex'
p357
g147
sg166
g293
sg20
F12.460733472491484
sS'experimental_blocks.thisTrialN'
p358
I0
sS'training_block.thisN'
p359
I0
sS'word_presentation.thisN'
p360
I3
sS'training_block.thisTrialN'
p361
I0
sg19
S'space'
p362
sg30
g31
sS'word_presentation.thisTrialN'
p363
I3
sg43
g12
sS'word_presentation.thisIndex'
p364
g33
(g133
S'\x03\x00\x00\x00'
p365
tp366
Rp367
sa(dp368
S'training_block.thisRepN'
p369
I0
sg165
g269
sg32
g42
sg270
Vtread
p370
sS'experimental_blocks.thisN'
p371
I0
sg44
g45
sg273
Vsneak
p372
sg275
Vjump
p373
sg277
Vtrot
p374
sS'experimental_blocks.thisIndex'
p375
g282
sS'word_presentation.thisRepN'
p376
I0
sS'experimental_blocks.thisRepN'
p377
I0
sg46
g51
sg164
g287
sg288
g335
sS'training_block.thisIndex'
p378
g147
sg166
g293
sg20
F4.9486931176343205
sS'experimental_blocks.thisTrialN'
p379
I0
sS'training_block.thisN'
p380
I0
sS'word_presentation.thisN'
p381
I4
sS'training_block.thisTrialN'
p382
I0
sg19
S'space'
p383
sg30
g31
sS'word_presentation.thisTrialN'
p384
I4
sg43
g12
sS'word_presentation.thisIndex'
p385
g33
(g133
S'\x04\x00\x00\x00'
p386
tp387
Rp388
sa(dp389
S'training_block.thisRepN'
p390
I0
sg165
g269
sg32
g42
sg270
Vclutch
p391
sS'experimental_blocks.thisN'
p392
I0
sg44
g45
sg273
Vscoop
p393
sg275
Vscrub
p394
sg277
Vpunch
p395
sS'experimental_blocks.thisIndex'
p396
g282
sS'word_presentation.thisRepN'
p397
I0
sS'experimental_blocks.thisRepN'
p398
I0
sg46
g51
sg164
g287
sg288
g289
sS'training_block.thisIndex'
p399
g147
sg166
g293
sg20
F11.002044294093139
sS'experimental_blocks.thisTrialN'
p400
I0
sS'training_block.thisN'
p401
I0
sS'word_presentation.thisN'
p402
I5
sS'training_block.thisTrialN'
p403
I0
sg19
S'space'
p404
sg30
g31
sS'word_presentation.thisTrialN'
p405
I5
sg43
g12
sS'word_presentation.thisIndex'
p406
g33
(g133
S'\x05\x00\x00\x00'
p407
tp408
Rp409
sa(dp410
S'training_block.thisRepN'
p411
I0
sg165
g269
sg32
g42
sg270
Vrun
p412
sS'experimental_blocks.thisN'
p413
I0
sg44
g45
sg273
Vramble
p414
sg275
Vcreep
p415
sg277
Vroam
p416
sS'experimental_blocks.thisIndex'
p417
g282
sS'word_presentation.thisRepN'
p418
I0
sS'experimental_blocks.thisRepN'
p419
I0
sg46
g51
sg164
g287
sg288
g335
sS'training_block.thisIndex'
p420
g147
sg166
g293
sg20
F3.052616668781411
sS'experimental_blocks.thisTrialN'
p421
I0
sS'training_block.thisN'
p422
I0
sS'word_presentation.thisN'
p423
I6
sS'training_block.thisTrialN'
p424
I0
sg19
S'space'
p425
sg30
g31
sS'word_presentation.thisTrialN'
p426
I6
sg43
g12
sS'word_presentation.thisIndex'
p427
g33
(g133
S'\x06\x00\x00\x00'
p428
tp429
Rp430
sa(dp431
S'training_block.thisRepN'
p432
I0
sg165
g269
sg32
g42
sg270
Vlimp
p433
sS'experimental_blocks.thisN'
p434
I0
sg44
g45
sg273
Vmarch
p435
sg275
Vrush
p436
sg277
Vleap
p437
sS'experimental_blocks.thisIndex'
p438
g282
sS'word_presentation.thisRepN'
p439
I0
sS'experimental_blocks.thisRepN'
p440
I0
sg46
g51
sg164
g287
sg288
g335
sS'training_block.thisIndex'
p441
g147
sg166
g293
sg20
F6.944086936628082
sS'experimental_blocks.thisTrialN'
p442
I0
sS'training_block.thisN'
p443
I0
sS'word_presentation.thisN'
p444
I7
sS'training_block.thisTrialN'
p445
I0
sg19
S'space'
p446
sg30
g31
sS'word_presentation.thisTrialN'
p447
I7
sg43
g12
sS'word_presentation.thisIndex'
p448
g33
(g133
S'\x07\x00\x00\x00'
p449
tp450
Rp451
sa(dp452
S'training_block.thisRepN'
p453
I0
sg165
g269
sg32
g42
sg270
Vlift
p454
sS'experimental_blocks.thisN'
p455
I0
sg44
g45
sg273
Vpush
p456
sg275
Vwrap
p457
sg277
Vpat
p458
sS'experimental_blocks.thisIndex'
p459
g282
sS'word_presentation.thisRepN'
p460
I0
sS'experimental_blocks.thisRepN'
p461
I0
sg46
g51
sg164
g287
sg288
g289
sS'training_block.thisIndex'
p462
g147
sg166
g293
sg20
F7.698350064223632
sS'experimental_blocks.thisTrialN'
p463
I0
sS'training_block.thisN'
p464
I0
sS'word_presentation.thisN'
p465
I8
sS'training_block.thisTrialN'
p466
I0
sg19
S'space'
p467
sg30
g31
sS'word_presentation.thisTrialN'
p468
I8
sg43
g12
sS'word_presentation.thisIndex'
p469
g33
(g133
S'\x08\x00\x00\x00'
p470
tp471
Rp472
sa(dp473
S'training_block.thisRepN'
p474
I0
sg165
g269
sg32
g42
sg270
Vtug
p475
sS'experimental_blocks.thisN'
p476
I0
sg44
g45
sg273
Vsqueeze
p477
sg275
Vdelve
p478
sg277
Vgrip
p479
sS'experimental_blocks.thisIndex'
p480
g282
sS'word_presentation.thisRepN'
p481
I0
sS'experimental_blocks.thisRepN'
p482
I0
sg46
g51
sg164
g287
sg288
g289
sS'training_block.thisIndex'
p483
g147
sg166
g293
sg20
F9.107333737134468
sS'experimental_blocks.thisTrialN'
p484
I0
sS'training_block.thisN'
p485
I0
sS'word_presentation.thisN'
p486
I9
sS'training_block.thisTrialN'
p487
I0
sg19
S'space'
p488
sg30
g31
sS'word_presentation.thisTrialN'
p489
I9
sg43
g12
sS'word_presentation.thisIndex'
p490
g33
(g133
S'\t\x00\x00\x00'
p491
tp492
Rp493
sa(dp494
S'training_block.thisRepN'
p495
I0
sg165
g269
sg32
g42
sg270
Vkneel
p496
sS'experimental_blocks.thisN'
p497
I0
sg44
g45
sg273
Vclimb
p498
sg275
Vskip
p499
sg277
Vtrip
p500
sS'experimental_blocks.thisIndex'
p501
g282
sS'word_presentation.thisRepN'
p502
I0
sS'experimental_blocks.thisRepN'
p503
I0
sg46
g51
sg164
g287
sg288
g335
sS'training_block.thisIndex'
p504
g147
sg166
g293
sg20
F15.212341072334311
sS'experimental_blocks.thisTrialN'
p505
I0
sS'training_block.thisN'
p506
I0
sS'word_presentation.thisN'
p507
I10
sS'training_block.thisTrialN'
p508
I0
sg19
S'space'
p509
sg30
g31
sS'word_presentation.thisTrialN'
p510
I10
sg43
g12
sS'word_presentation.thisIndex'
p511
g33
(g133
S'\n\x00\x00\x00'
p512
tp513
Rp514
sa(dp515
S'training_block.thisRepN'
p516
I0
sg165
g269
sg32
g42
sg270
Vslide
p517
sS'experimental_blocks.thisN'
p518
I0
sg44
g45
sg273
Vwobble
p519
sg275
Vskate
p520
sg277
Vtiptoe
p521
sS'experimental_blocks.thisIndex'
p522
g282
sS'word_presentation.thisRepN'
p523
I0
sS'experimental_blocks.thisRepN'
p524
I0
sg46
g51
sg164
g287
sg288
g335
sS'training_block.thisIndex'
p525
g147
sg166
g293
sg20
F3.5222389089940407
sS'experimental_blocks.thisTrialN'
p526
I0
sS'training_block.thisN'
p527
I0
sS'word_presentation.thisN'
p528
I11
sS'training_block.thisTrialN'
p529
I0
sg19
S'space'
p530
sg30
g31
sS'word_presentation.thisTrialN'
p531
I11
sg43
g12
sS'word_presentation.thisIndex'
p532
g33
(g133
S'\x0b\x00\x00\x00'
p533
tp534
Rp535
sa(dp536
S'training_block.thisRepN'
p537
I0
sg165
g269
sg32
g42
sg270
Vwipe
p538
sS'experimental_blocks.thisN'
p539
I0
sg44
g45
sg273
Vtoss
p540
sg275
Vcarve
p541
sg277
Vwash
p542
sS'experimental_blocks.thisIndex'
p543
g282
sS'word_presentation.thisRepN'
p544
I0
sS'experimental_blocks.thisRepN'
p545
I0
sg46
g51
sg164
g287
sg288
g289
sS'training_block.thisIndex'
p546
g147
sg166
g293
sg20
F7.949789545176827
sS'experimental_blocks.thisTrialN'
p547
I0
sS'training_block.thisN'
p548
I0
sS'word_presentation.thisN'
p549
I12
sS'training_block.thisTrialN'
p550
I0
sg19
S'space'
p551
sg30
g31
sS'word_presentation.thisTrialN'
p552
I12
sg43
g12
sS'word_presentation.thisIndex'
p553
g33
(g133
S'\x0c\x00\x00\x00'
p554
tp555
Rp556
sa(dp557
S'training_block.thisRepN'
p558
I0
sg165
g269
sg32
g42
sg270
Vslip
p559
sS'experimental_blocks.thisN'
p560
I0
sg44
g45
sg273
Vstomp
p561
sg275
Vsprint
p562
sg277
Vjog
p563
sS'experimental_blocks.thisIndex'
p564
g282
sS'word_presentation.thisRepN'
p565
I0
sS'experimental_blocks.thisRepN'
p566
I0
sg46
g51
sg164
g287
sg288
g335
sS'training_block.thisIndex'
p567
g147
sg166
g293
sg20
F8.335613112403735
sS'experimental_blocks.thisTrialN'
p568
I0
sS'training_block.thisN'
p569
I0
sS'word_presentation.thisN'
p570
I13
sS'training_block.thisTrialN'
p571
I0
sg19
S'space'
p572
sg30
g31
sS'word_presentation.thisTrialN'
p573
I13
sg43
g12
sS'word_presentation.thisIndex'
p574
g33
(g133
S'\r\x00\x00\x00'
p575
tp576
Rp577
sa(dp578
S'training_block.thisRepN'
p579
I0
sg165
g269
sg32
g42
sg270
Vknock
p580
sS'experimental_blocks.thisN'
p581
I0
sg44
g45
sg273
Vswitch
p582
sg275
Vbraid
p583
sg277
Vgrab
p584
sS'experimental_blocks.thisIndex'
p585
g282
sS'word_presentation.thisRepN'
p586
I0
sS'experimental_blocks.thisRepN'
p587
I0
sg46
g51
sg164
g287
sg288
g289
sS'training_block.thisIndex'
p588
g147
sg166
g293
sg20
F3.6057930094939366
sS'experimental_blocks.thisTrialN'
p589
I0
sS'training_block.thisN'
p590
I0
sS'word_presentation.thisN'
p591
I14
sS'training_block.thisTrialN'
p592
I0
sg19
S'space'
p593
sg30
g31
sS'word_presentation.thisTrialN'
p594
I14
sg43
g12
sS'word_presentation.thisIndex'
p595
g33
(g133
S'\x0e\x00\x00\x00'
p596
tp597
Rp598
sa(dp599
S'training_block.thisRepN'
p600
I0
sg165
g269
sg32
g42
sg270
Vpeel
p601
sS'experimental_blocks.thisN'
p602
I0
sg44
g45
sg273
Vclick
p603
sg275
Vclap
p604
sg277
Vhack
p605
sS'experimental_blocks.thisIndex'
p606
g282
sS'word_presentation.thisRepN'
p607
I0
sS'experimental_blocks.thisRepN'
p608
I0
sg46
g51
sg164
g287
sg288
g289
sS'training_block.thisIndex'
p609
g147
sg166
g293
sg20
F11.438270339125665
sS'experimental_blocks.thisTrialN'
p610
I0
sS'training_block.thisN'
p611
I0
sS'word_presentation.thisN'
p612
I15
sS'training_block.thisTrialN'
p613
I0
sg19
S'space'
p614
sg30
g31
sS'word_presentation.thisTrialN'
p615
I15
sg43
g12
sS'word_presentation.thisIndex'
p616
g33
(g133
S'\x0f\x00\x00\x00'
p617
tp618
Rp619
sa(dp620
S'training_block.thisRepN'
p621
I0
sg165
g269
sg32
g42
sg270
Vbounce
p622
sS'experimental_blocks.thisN'
p623
I0
sg44
g45
sg273
Vdance
p624
sg275
Vpace
p625
sg277
Vsway
p626
sS'experimental_blocks.thisIndex'
p627
g282
sS'word_presentation.thisRepN'
p628
I0
sS'experimental_blocks.thisRepN'
p629
I0
sg46
g51
sg164
g287
sg288
g335
sS'training_block.thisIndex'
p630
g147
sg166
g293
sg20
F9.324968480177631
sS'experimental_blocks.thisTrialN'
p631
I0
sS'training_block.thisN'
p632
I0
sS'word_presentation.thisN'
p633
I16
sS'training_block.thisTrialN'
p634
I0
sg19
S'space'
p635
sg30
g31
sS'word_presentation.thisTrialN'
p636
I16
sg43
g12
sS'word_presentation.thisIndex'
p637
g33
(g133
S'\x10\x00\x00\x00'
p638
tp639
Rp640
sa(dp641
S'training_block.thisRepN'
p642
I0
sg165
g269
sg32
g42
sg270
Vscuff
p643
sS'experimental_blocks.thisN'
p644
I0
sg44
g45
sg273
Vstride
p645
sg275
Vstrut
p646
sg277
Vinch
p647
sS'experimental_blocks.thisIndex'
p648
g282
sS'word_presentation.thisRepN'
p649
I0
sS'experimental_blocks.thisRepN'
p650
I0
sg46
g51
sg164
g287
sg288
g335
sS'training_block.thisIndex'
p651
g147
sg166
g293
sg20
F5.115945138320967
sS'experimental_blocks.thisTrialN'
p652
I0
sS'training_block.thisN'
p653
I0
sS'word_presentation.thisN'
p654
I17
sS'training_block.thisTrialN'
p655
I0
sg19
S'space'
p656
sg30
g31
sS'word_presentation.thisTrialN'
p657
I17
sg43
g12
sS'word_presentation.thisIndex'
p658
g33
(g133
S'\x11\x00\x00\x00'
p659
tp660
Rp661
sa(dp662
S'training_block.thisRepN'
p663
I0
sg165
g269
sg32
g42
sg270
Vrub
p664
sS'experimental_blocks.thisN'
p665
I0
sg44
g45
sg273
Vstir
p666
sg275
Vbrush
p667
sg277
Vcatch
p668
sS'experimental_blocks.thisIndex'
p669
g282
sS'word_presentation.thisRepN'
p670
I0
sS'experimental_blocks.thisRepN'
p671
I0
sg46
g51
sg164
g287
sg288
g289
sS'training_block.thisIndex'
p672
g147
sg166
g293
sg20
F8.218126258669145
sS'experimental_blocks.thisTrialN'
p673
I0
sS'training_block.thisN'
p674
I0
sS'word_presentation.thisN'
p675
I18
sS'training_block.thisTrialN'
p676
I0
sg19
S'space'
p677
sg30
g31
sS'word_presentation.thisTrialN'
p678
I18
sg43
g12
sS'word_presentation.thisIndex'
p679
g33
(g133
S'\x12\x00\x00\x00'
p680
tp681
Rp682
sa(dp683
S'training_block.thisRepN'
p684
I0
sg165
g269
sg32
g42
sg270
Vslither
p685
sS'experimental_blocks.thisN'
p686
I0
sg44
g45
sg273
Vhop
p687
sg275
Vcrawl
p688
sg277
Vplod
p689
sS'experimental_blocks.thisIndex'
p690
g282
sS'word_presentation.thisRepN'
p691
I0
sS'experimental_blocks.thisRepN'
p692
I0
sg46
g51
sg164
g287
sg288
g335
sS'training_block.thisIndex'
p693
g147
sg166
g293
sg20
F10.867008277928107
sS'experimental_blocks.thisTrialN'
p694
I0
sS'training_block.thisN'
p695
I0
sS'word_presentation.thisN'
p696
I19
sS'training_block.thisTrialN'
p697
I0
sg19
S'space'
p698
sg30
g31
sS'word_presentation.thisTrialN'
p699
I19
sg43
g12
sS'word_presentation.thisIndex'
p700
g33
(g133
S'\x13\x00\x00\x00'
p701
tp702
Rp703
sa(dp704
S'training_block.thisRepN'
p705
I0
sg165
g269
sg32
g42
sg270
Vscrape
p706
sS'experimental_blocks.thisN'
p707
I0
sg44
g45
sg273
Vchop
p708
sg275
Vclean
p709
sg277
Vsnatch
p710
sS'experimental_blocks.thisIndex'
p711
g282
sS'word_presentation.thisRepN'
p712
I0
sS'experimental_blocks.thisRepN'
p713
I0
sg46
g51
sg164
g287
sg288
g289
sS'training_block.thisIndex'
p714
g147
sg166
g293
sg20
F7.832363933341185
sS'experimental_blocks.thisTrialN'
p715
I0
sS'training_block.thisN'
p716
I0
sS'word_presentation.thisN'
p717
I20
sS'training_block.thisTrialN'
p718
I0
sg19
S'space'
p719
sg30
g31
sS'word_presentation.thisTrialN'
p720
I20
sg43
g12
sS'word_presentation.thisIndex'
p721
g33
(g133
S'\x14\x00\x00\x00'
p722
tp723
Rp724
sa(dp725
S'training_block.thisRepN'
p726
I0
sg165
g269
sg32
g42
sg270
Vfile
p727
sS'experimental_blocks.thisN'
p728
I0
sg44
g45
sg273
Vpull
p729
sg275
Vpoke
p730
sg277
Vwhip
p731
sS'experimental_blocks.thisIndex'
p732
g282
sS'word_presentation.thisRepN'
p733
I0
sS'experimental_blocks.thisRepN'
p734
I0
sg46
g51
sg164
g287
sg288
g289
sS'training_block.thisIndex'
p735
g147
sg166
g293
sg20
F17.526052501296363
sS'experimental_blocks.thisTrialN'
p736
I0
sS'training_block.thisN'
p737
I0
sS'word_presentation.thisN'
p738
I21
sS'training_block.thisTrialN'
p739
I0
sg19
S'space'
p740
sg30
g31
sS'word_presentation.thisTrialN'
p741
I21
sg43
g12
sS'word_presentation.thisIndex'
p742
g33
(g133
S'\x15\x00\x00\x00'
p743
tp744
Rp745
sa(dp746
S'training_block.thisRepN'
p747
I0
sg165
g269
sg32
g42
sg270
Vstab
p748
sS'experimental_blocks.thisN'
p749
I0
sg44
g45
sg273
Vgrasp
p750
sg275
Vslap
p751
sg277
Vpinch
p752
sS'experimental_blocks.thisIndex'
p753
g282
sS'word_presentation.thisRepN'
p754
I0
sS'experimental_blocks.thisRepN'
p755
I0
sg46
g51
sg164
g287
sg288
g289
sS'training_block.thisIndex'
p756
g147
sg166
g293
sg20
F7.8491035173774435
sS'experimental_blocks.thisTrialN'
p757
I0
sS'training_block.thisN'
p758
I0
sS'word_presentation.thisN'
p759
I22
sS'training_block.thisTrialN'
p760
I0
sg19
S'space'
p761
sg30
g31
sS'word_presentation.thisTrialN'
p762
I22
sg43
g12
sS'word_presentation.thisIndex'
p763
g33
(g133
S'\x16\x00\x00\x00'
p764
tp765
Rp766
sa(dp767
S'training_block.thisRepN'
p768
I0
sg165
g269
sg32
g42
sg270
Vstagger
p769
sS'experimental_blocks.thisN'
p770
I0
sg44
g45
sg273
Vstumble
p771
sg275
Vstray
p772
sg277
Vflee
p773
sS'experimental_blocks.thisIndex'
p774
g282
sS'word_presentation.thisRepN'
p775
I0
sS'experimental_blocks.thisRepN'
p776
I0
sg46
g51
sg164
g287
sg288
g335
sS'training_block.thisIndex'
p777
g147
sg166
g293
sg20
F4.126306082267547
sS'experimental_blocks.thisTrialN'
p778
I0
sS'training_block.thisN'
p779
I0
sS'word_presentation.thisN'
p780
I23
sS'training_block.thisTrialN'
p781
I0
sg19
S'space'
p782
sg30
g31
sS'word_presentation.thisTrialN'
p783
I23
sg43
g12
sS'word_presentation.thisIndex'
p784
g33
(g133
S'\x17\x00\x00\x00'
p785
tp786
Rp787
sa(dp788
S'training_block.thisRepN'
p789
I0
sg165
g269
sg32
g42
sg270
Vwade
p790
sS'experimental_blocks.thisN'
p791
I0
sg44
g45
sg273
Vwander
p792
sg275
Vhike
p793
sg277
Vtraipse
p794
sS'experimental_blocks.thisIndex'
p795
g282
sS'word_presentation.thisRepN'
p796
I0
sS'experimental_blocks.thisRepN'
p797
I0
sg46
g51
sg164
g287
sg288
g335
sS'training_block.thisIndex'
p798
g147
sg166
g293
sg20
F34.07897083581702
sS'experimental_blocks.thisTrialN'
p799
I0
sS'training_block.thisN'
p800
I0
sS'word_presentation.thisN'
p801
I24
sS'training_block.thisTrialN'
p802
I0
sg19
S'space'
p803
sg30
g31
sS'word_presentation.thisTrialN'
p804
I24
sg43
g12
sS'word_presentation.thisIndex'
p805
g33
(g133
S'\x18\x00\x00\x00'
p806
tp807
Rp808
sa(dp809
S'training_block.thisRepN'
p810
I0
sg165
g269
sg32
g42
sg270
Vshake
p811
sS'experimental_blocks.thisN'
p812
I0
sg44
g45
sg273
Vthrow
p813
sg275
Vnip
p814
sg277
Vfold
p815
sS'experimental_blocks.thisIndex'
p816
g282
sS'word_presentation.thisRepN'
p817
I0
sS'experimental_blocks.thisRepN'
p818
I0
sg46
g51
sg164
g287
sg288
g289
sS'training_block.thisIndex'
p819
g147
sg166
g293
sg20
F2.3986120610206854
sS'experimental_blocks.thisTrialN'
p820
I0
sS'training_block.thisN'
p821
I0
sS'word_presentation.thisN'
p822
I25
sS'training_block.thisTrialN'
p823
I0
sg19
S'space'
p824
sg30
g31
sS'word_presentation.thisTrialN'
p825
I25
sg43
g12
sS'word_presentation.thisIndex'
p826
g33
(g133
S'\x19\x00\x00\x00'
p827
tp828
Rp829
sa(dp830
S'training_block.thisRepN'
p831
I0
sg165
g269
sg32
g42
sg270
Vscratch
p832
sS'experimental_blocks.thisN'
p833
I0
sg44
g45
sg273
Vdunk
p834
sg275
Vcut
p835
sg277
Vpolish
p836
sS'experimental_blocks.thisIndex'
p837
g282
sS'word_presentation.thisRepN'
p838
I0
sS'experimental_blocks.thisRepN'
p839
I0
sg46
g51
sg164
g287
sg288
g289
sS'training_block.thisIndex'
p840
g147
sg166
g293
sg20
F6.809376490302384
sS'experimental_blocks.thisTrialN'
p841
I0
sS'training_block.thisN'
p842
I0
sS'word_presentation.thisN'
p843
I26
sS'training_block.thisTrialN'
p844
I0
sg19
S'space'
p845
sg30
g31
sS'word_presentation.thisTrialN'
p846
I26
sg43
g12
sS'word_presentation.thisIndex'
p847
g33
(g133
S'\x1a\x00\x00\x00'
p848
tp849
Rp850
sa(dp851
S'training_block.thisRepN'
p852
I0
sg165
g269
sg32
g42
sg270
Vstep
p853
sS'experimental_blocks.thisN'
p854
I0
sg44
g45
sg273
Vstamp
p855
sg275
Vroll
p856
sg277
Vglide
p857
sS'experimental_blocks.thisIndex'
p858
g282
sS'word_presentation.thisRepN'
p859
I0
sS'experimental_blocks.thisRepN'
p860
I0
sg46
g51
sg164
g287
sg288
g335
sS'training_block.thisIndex'
p861
g147
sg166
g293
sg20
F3.472457937681611
sS'experimental_blocks.thisTrialN'
p862
I0
sS'training_block.thisN'
p863
I0
sS'word_presentation.thisN'
p864
I27
sS'training_block.thisTrialN'
p865
I0
sg19
S'space'
p866
sg30
g31
sS'word_presentation.thisTrialN'
p867
I27
sg43
g12
sS'word_presentation.thisIndex'
p868
g33
(g133
S'\x1b\x00\x00\x00'
p869
tp870
Rp871
sa(dp872
S'training_block.thisRepN'
p873
I0
sg165
g269
sS'experimental_blocks.thisRepN'
p874
I0
sS'experimental_blocks.thisTrialN'
p875
I0
sS'training_block.thisN'
p876
I0
sg44
g45
sg43
g12
sg32
g42
sS'training_block.thisTrialN'
p877
I0
sg46
g51
sS'experimental_blocks.thisN'
p878
I0
sg166
g293
sg30
g31
sS'experimental_blocks.thisIndex'
p879
g282
sg164
g287
sS'training_block.thisIndex'
p880
g147
sa(dp881
S'training_block.thisRepN'
p882
I0
sg165
g33
(g37
S'\x9a\x99\x99\x99\x99\x99\xd9?'
p883
tp884
Rp885
sg32
g42
sS'word4'
p886
Vstagger
p887
sS'experimental_blocks.thisN'
p888
I1
sg44
g45
sS'word1'
p889
Vbounce
p890
sS'word3'
p891
Vflee
p892
sS'word2'
p893
Vtrek
p894
sS'experimental_blocks.thisIndex'
p895
g33
(g133
S'\x00\x00\x00\x00'
p896
tp897
Rp898
sS'word_presentation.thisRepN'
p899
I0
sS'experimental_blocks.thisRepN'
p900
I0
sg46
g51
sg164
g33
(g37
S'\x9a\x99\x99\x99\x99\x99\xb9?'
p901
tp902
Rp903
sS'type'
p904
Vleg
p905
sS'training_block.thisIndex'
p906
g147
sg166
g33
(g37
S'\x00\x00\x00\x00\x00\x00\xe0?'
p907
tp908
Rp909
sg20
F3.1196915620912478
sS'experimental_blocks.thisTrialN'
p910
I1
sS'training_block.thisN'
p911
I0
sS'word_presentation.thisN'
p912
I0
sS'training_block.thisTrialN'
p913
I0
sg19
S'space'
p914
sg30
g31
sS'word_presentation.thisTrialN'
p915
I0
sg43
g12
sS'word_presentation.thisIndex'
p916
g33
(g133
S'\x00\x00\x00\x00'
p917
tp918
Rp919
sa(dp920
S'training_block.thisRepN'
p921
I0
sg165
g885
sg32
g42
sg886
Vstomp
p922
sS'experimental_blocks.thisN'
p923
I1
sg44
g45
sg889
Vwade
p924
sg891
Vcrawl
p925
sg893
Vplod
p926
sS'experimental_blocks.thisIndex'
p927
g898
sS'word_presentation.thisRepN'
p928
I0
sS'experimental_blocks.thisRepN'
p929
I0
sg46
g51
sg164
g903
sg904
g905
sS'training_block.thisIndex'
p930
g147
sg166
g909
sg20
F7.6646057779944385
sS'experimental_blocks.thisTrialN'
p931
I1
sS'training_block.thisN'
p932
I0
sS'word_presentation.thisN'
p933
I1
sS'training_block.thisTrialN'
p934
I0
sg19
S'space'
p935
sg30
g31
sS'word_presentation.thisTrialN'
p936
I1
sg43
g12
sS'word_presentation.thisIndex'
p937
g33
(g133
S'\x01\x00\x00\x00'
p938
tp939
Rp940
sa(dp941
S'training_block.thisRepN'
p942
I0
sg165
g885
sg32
g42
sg886
Vpolish
p943
sS'experimental_blocks.thisN'
p944
I1
sg44
g45
sg889
Vbind
p945
sg891
Vcut
p946
sg893
Vtwine
p947
sS'experimental_blocks.thisIndex'
p948
g898
sS'word_presentation.thisRepN'
p949
I0
sS'experimental_blocks.thisRepN'
p950
I0
sg46
g51
sg164
g903
sg904
Varm
p951
sS'training_block.thisIndex'
p952
g147
sg166
g909
sg20
F3.7234327704209136
sS'experimental_blocks.thisTrialN'
p953
I1
sS'training_block.thisN'
p954
I0
sS'word_presentation.thisN'
p955
I2
sS'training_block.thisTrialN'
p956
I0
sg19
S'space'
p957
sg30
g31
sS'word_presentation.thisTrialN'
p958
I2
sg43
g12
sS'word_presentation.thisIndex'
p959
g33
(g133
S'\x02\x00\x00\x00'
p960
tp961
Rp962
sa(dp963
S'training_block.thisRepN'
p964
I0
sg165
g885
sg32
g42
sg886
Vpace
p965
sS'experimental_blocks.thisN'
p966
I1
sg44
g45
sg889
Vstamp
p967
sg891
Vcreep
p968
sg893
Vroll
p969
sS'experimental_blocks.thisIndex'
p970
g898
sS'word_presentation.thisRepN'
p971
I0
sS'experimental_blocks.thisRepN'
p972
I0
sg46
g51
sg164
g903
sg904
g905
sS'training_block.thisIndex'
p973
g147
sg166
g909
sg20
F5.098562316794414
sS'experimental_blocks.thisTrialN'
p974
I1
sS'training_block.thisN'
p975
I0
sS'word_presentation.thisN'
p976
I3
sS'training_block.thisTrialN'
p977
I0
sg19
S'space'
p978
sg30
g31
sS'word_presentation.thisTrialN'
p979
I3
sg43
g12
sS'word_presentation.thisIndex'
p980
g33
(g133
S'\x03\x00\x00\x00'
p981
tp982
Rp983
sa(dp984
S'training_block.thisRepN'
p985
I0
sg165
g885
sg32
g42
sg886
Vrush
p986
sS'experimental_blocks.thisN'
p987
I1
sg44
g45
sg889
Vtrip
p988
sg891
Vglide
p989
sg893
Vslide
p990
sS'experimental_blocks.thisIndex'
p991
g898
sS'word_presentation.thisRepN'
p992
I0
sS'experimental_blocks.thisRepN'
p993
I0
sg46
g51
sg164
g903
sg904
g905
sS'training_block.thisIndex'
p994
g147
sg166
g909
sg20
F3.203583085700302
sS'experimental_blocks.thisTrialN'
p995
I1
sS'training_block.thisN'
p996
I0
sS'word_presentation.thisN'
p997
I4
sS'training_block.thisTrialN'
p998
I0
sg19
S'space'
p999
sg30
g31
sS'word_presentation.thisTrialN'
p1000
I4
sg43
g12
sS'word_presentation.thisIndex'
p1001
g33
(g133
S'\x04\x00\x00\x00'
p1002
tp1003
Rp1004
sa(dp1005
S'training_block.thisRepN'
p1006
I0
sg165
g885
sg32
g42
sg886
Vleap
p1007
sS'experimental_blocks.thisN'
p1008
I1
sg44
g45
sg889
Vsway
p1009
sg891
Vrun
p1010
sg893
Vslither
p1011
sS'experimental_blocks.thisIndex'
p1012
g898
sS'word_presentation.thisRepN'
p1013
I0
sS'experimental_blocks.thisRepN'
p1014
I0
sg46
g51
sg164
g903
sg904
g905
sS'training_block.thisIndex'
p1015
g147
sg166
g909
sg20
F4.092341720312106
sS'experimental_blocks.thisTrialN'
p1016
I1
sS'training_block.thisN'
p1017
I0
sS'word_presentation.thisN'
p1018
I5
sS'training_block.thisTrialN'
p1019
I0
sg19
S'space'
p1020
sg30
g31
sS'word_presentation.thisTrialN'
p1021
I5
sg43
g12
sS'word_presentation.thisIndex'
p1022
g33
(g133
S'\x05\x00\x00\x00'
p1023
tp1024
Rp1025
sa(dp1026
S'training_block.thisRepN'
p1027
I0
sg165
g885
sg32
g42
sg886
Vdig
p1028
sS'experimental_blocks.thisN'
p1029
I1
sg44
g45
sg889
Vscoop
p1030
sg891
Vclutch
p1031
sg893
Vpunch
p1032
sS'experimental_blocks.thisIndex'
p1033
g898
sS'word_presentation.thisRepN'
p1034
I0
sS'experimental_blocks.thisRepN'
p1035
I0
sg46
g51
sg164
g903
sg904
g951
sS'training_block.thisIndex'
p1036
g147
sg166
g909
sg20
F4.561895606662802
sS'experimental_blocks.thisTrialN'
p1037
I1
sS'training_block.thisN'
p1038
I0
sS'word_presentation.thisN'
p1039
I6
sS'training_block.thisTrialN'
p1040
I0
sg19
S'space'
p1041
sg30
g31
sS'word_presentation.thisTrialN'
p1042
I6
sg43
g12
sS'word_presentation.thisIndex'
p1043
g33
(g133
S'\x06\x00\x00\x00'
p1044
tp1045
Rp1046
sa(dp1047
S'training_block.thisRepN'
p1048
I0
sg165
g885
sg32
g42
sg886
Vcatch
p1049
sS'experimental_blocks.thisN'
p1050
I1
sg44
g45
sg889
Vgrasp
p1051
sg891
Vwhip
p1052
sg893
Vsnatch
p1053
sS'experimental_blocks.thisIndex'
p1054
g898
sS'word_presentation.thisRepN'
p1055
I0
sS'experimental_blocks.thisRepN'
p1056
I0
sg46
g51
sg164
g903
sg904
g951
sS'training_block.thisIndex'
p1057
g147
sg166
g909
sg20
F10.566022915534631
sS'experimental_blocks.thisTrialN'
p1058
I1
sS'training_block.thisN'
p1059
I0
sS'word_presentation.thisN'
p1060
I7
sS'training_block.thisTrialN'
p1061
I0
sg19
S'space'
p1062
sg30
g31
sS'word_presentation.thisTrialN'
p1063
I7
sg43
g12
sS'word_presentation.thisIndex'
p1064
g33
(g133
S'\x07\x00\x00\x00'
p1065
tp1066
Rp1067
sa(dp1068
S'training_block.thisRepN'
p1069
I0
sg165
g885
sg32
g42
sg886
Vmount
p1070
sS'experimental_blocks.thisN'
p1071
I1
sg44
g45
sg889
Vsneak
p1072
sg891
Vroam
p1073
sg893
Vwalk
p1074
sS'experimental_blocks.thisIndex'
p1075
g898
sS'word_presentation.thisRepN'
p1076
I0
sS'experimental_blocks.thisRepN'
p1077
I0
sg46
g51
sg164
g903
sg904
g905
sS'training_block.thisIndex'
p1078
g147
sg166
g909
sg20
F5.921832815938615
sS'experimental_blocks.thisTrialN'
p1079
I1
sS'training_block.thisN'
p1080
I0
sS'word_presentation.thisN'
p1081
I8
sS'training_block.thisTrialN'
p1082
I0
sg19
S'space'
p1083
sg30
g31
sS'word_presentation.thisTrialN'
p1084
I8
sg43
g12
sS'word_presentation.thisIndex'
p1085
g33
(g133
S'\x08\x00\x00\x00'
p1086
tp1087
Rp1088
sa(dp1089
S'training_block.thisRepN'
p1090
I0
sg165
g885
sg32
g42
sg886
Vnip
p1091
sS'experimental_blocks.thisN'
p1092
I1
sg44
g45
sg889
Vrub
p1093
sg891
Vstab
p1094
sg893
Vpull
p1095
sS'experimental_blocks.thisIndex'
p1096
g898
sS'word_presentation.thisRepN'
p1097
I0
sS'experimental_blocks.thisRepN'
p1098
I0
sg46
g51
sg164
g903
sg904
g951
sS'training_block.thisIndex'
p1099
g147
sg166
g909
sg20
F4.847114143442013
sS'experimental_blocks.thisTrialN'
p1100
I1
sS'training_block.thisN'
p1101
I0
sS'word_presentation.thisN'
p1102
I9
sS'training_block.thisTrialN'
p1103
I0
sg19
S'space'
p1104
sg30
g31
sS'word_presentation.thisTrialN'
p1105
I9
sg43
g12
sS'word_presentation.thisIndex'
p1106
g33
(g133
S'\t\x00\x00\x00'
p1107
tp1108
Rp1109
sa(dp1110
S'training_block.thisRepN'
p1111
I0
sg165
g885
sg32
g42
sg886
Vbash
p1112
sS'experimental_blocks.thisN'
p1113
I1
sg44
g45
sg889
Vbraid
p1114
sg891
Vgrate
p1115
sg893
Vseize
p1116
sS'experimental_blocks.thisIndex'
p1117
g898
sS'word_presentation.thisRepN'
p1118
I0
sS'experimental_blocks.thisRepN'
p1119
I0
sg46
g51
sg164
g903
sg904
g951
sS'training_block.thisIndex'
p1120
g147
sg166
g909
sg20
F8.001386042458762
sS'experimental_blocks.thisTrialN'
p1121
I1
sS'training_block.thisN'
p1122
I0
sS'word_presentation.thisN'
p1123
I10
sS'training_block.thisTrialN'
p1124
I0
sg19
S'space'
p1125
sg30
g31
sS'word_presentation.thisTrialN'
p1126
I10
sg43
g12
sS'word_presentation.thisIndex'
p1127
g33
(g133
S'\n\x00\x00\x00'
p1128
tp1129
Rp1130
sa(dp1131
S'training_block.thisRepN'
p1132
I0
sg165
g885
sg32
g42
sg886
Vsprint
p1133
sS'experimental_blocks.thisN'
p1134
I1
sg44
g45
sg889
Vjog
p1135
sg891
Vstumble
p1136
sg893
Vstrut
p1137
sS'experimental_blocks.thisIndex'
p1138
g898
sS'word_presentation.thisRepN'
p1139
I0
sS'experimental_blocks.thisRepN'
p1140
I0
sg46
g51
sg164
g903
sg904
g905
sS'training_block.thisIndex'
p1141
g147
sg166
g909
sg20
F12.444841792419538
sS'experimental_blocks.thisTrialN'
p1142
I1
sS'training_block.thisN'
p1143
I0
sS'word_presentation.thisN'
p1144
I11
sS'training_block.thisTrialN'
p1145
I0
sg19
S'space'
p1146
sg30
g31
sS'word_presentation.thisTrialN'
p1147
I11
sg43
g12
sS'word_presentation.thisIndex'
p1148
g33
(g133
S'\x0b\x00\x00\x00'
p1149
tp1150
Rp1151
sa(dp1152
S'training_block.thisRepN'
p1153
I0
sg165
g885
sg32
g42
sg886
Vwipe
p1154
sS'experimental_blocks.thisN'
p1155
I1
sg44
g45
sg889
Vscrape
p1156
sg891
Vclick
p1157
sg893
Vhack
p1158
sS'experimental_blocks.thisIndex'
p1159
g898
sS'word_presentation.thisRepN'
p1160
I0
sS'experimental_blocks.thisRepN'
p1161
I0
sg46
g51
sg164
g903
sg904
g951
sS'training_block.thisIndex'
p1162
g147
sg166
g909
sg20
F4.830346506663773
sS'experimental_blocks.thisTrialN'
p1163
I1
sS'training_block.thisN'
p1164
I0
sS'word_presentation.thisN'
p1165
I12
sS'training_block.thisTrialN'
p1166
I0
sg19
S'space'
p1167
sg30
g31
sS'word_presentation.thisTrialN'
p1168
I12
sg43
g12
sS'word_presentation.thisIndex'
p1169
g33
(g133
S'\x0c\x00\x00\x00'
p1170
tp1171
Rp1172
sa(dp1173
S'training_block.thisRepN'
p1174
I0
sg165
g885
sg32
g42
sg886
Vpeel
p1175
sS'experimental_blocks.thisN'
p1176
I1
sg44
g45
sg889
Vgrab
p1177
sg891
Vgrip
p1178
sg893
Vchop
p1179
sS'experimental_blocks.thisIndex'
p1180
g898
sS'word_presentation.thisRepN'
p1181
I0
sS'experimental_blocks.thisRepN'
p1182
I0
sg46
g51
sg164
g903
sg904
g951
sS'training_block.thisIndex'
p1183
g147
sg166
g909
sg20
F3.5390662072331907
sS'experimental_blocks.thisTrialN'
p1184
I1
sS'training_block.thisN'
p1185
I0
sS'word_presentation.thisN'
p1186
I13
sS'training_block.thisTrialN'
p1187
I0
sg19
S'space'
p1188
sg30
g31
sS'word_presentation.thisTrialN'
p1189
I13
sg43
g12
sS'word_presentation.thisIndex'
p1190
g33
(g133
S'\r\x00\x00\x00'
p1191
tp1192
Rp1193
sa(dp1194
S'training_block.thisRepN'
p1195
I0
sg165
g885
sg32
g42
sg886
Vtraipse
p1196
sS'experimental_blocks.thisN'
p1197
I1
sg44
g45
sg889
Vscuff
p1198
sg891
Vkick
p1199
sg893
Vtrudge
p1200
sS'experimental_blocks.thisIndex'
p1201
g898
sS'word_presentation.thisRepN'
p1202
I0
sS'experimental_blocks.thisRepN'
p1203
I0
sg46
g51
sg164
g903
sg904
g905
sS'training_block.thisIndex'
p1204
g147
sg166
g909
sg20
F8.923080965347253
sS'experimental_blocks.thisTrialN'
p1205
I1
sS'training_block.thisN'
p1206
I0
sS'word_presentation.thisN'
p1207
I14
sS'training_block.thisTrialN'
p1208
I0
sg19
S'space'
p1209
sg30
g31
sS'word_presentation.thisTrialN'
p1210
I14
sg43
g12
sS'word_presentation.thisIndex'
p1211
g33
(g133
S'\x0e\x00\x00\x00'
p1212
tp1213
Rp1214
sa(dp1215
S'training_block.thisRepN'
p1216
I0
sg165
g885
sg32
g42
sg886
Vwrap
p1217
sS'experimental_blocks.thisN'
p1218
I1
sg44
g45
sg889
Vshake
p1219
sg891
Vdunk
p1220
sg893
Vfile
p1221
sS'experimental_blocks.thisIndex'
p1222
g898
sS'word_presentation.thisRepN'
p1223
I0
sS'experimental_blocks.thisRepN'
p1224
I0
sg46
g51
sg164
g903
sg904
g951
sS'training_block.thisIndex'
p1225
g147
sg166
g909
sg20
F2.717343745245671
sS'experimental_blocks.thisTrialN'
p1226
I1
sS'training_block.thisN'
p1227
I0
sS'word_presentation.thisN'
p1228
I15
sS'training_block.thisTrialN'
p1229
I0
sg19
S'space'
p1230
sg30
g31
sS'word_presentation.thisTrialN'
p1231
I15
sg43
g12
sS'word_presentation.thisIndex'
p1232
g33
(g133
S'\x0f\x00\x00\x00'
p1233
tp1234
Rp1235
sa(dp1236
S'training_block.thisRepN'
p1237
I0
sg165
g885
sg32
g42
sg886
Vhike
p1238
sS'experimental_blocks.thisN'
p1239
I1
sg44
g45
sg889
Vwobble
p1240
sg891
Vjump
p1241
sg893
Vslip
p1242
sS'experimental_blocks.thisIndex'
p1243
g898
sS'word_presentation.thisRepN'
p1244
I0
sS'experimental_blocks.thisRepN'
p1245
I0
sg46
g51
sg164
g903
sg904
g905
sS'training_block.thisIndex'
p1246
g147
sg166
g909
sg20
F11.454897712201273
sS'experimental_blocks.thisTrialN'
p1247
I1
sS'training_block.thisN'
p1248
I0
sS'word_presentation.thisN'
p1249
I16
sS'training_block.thisTrialN'
p1250
I0
sg19
S'space'
p1251
sg30
g31
sS'word_presentation.thisTrialN'
p1252
I16
sg43
g12
sS'word_presentation.thisIndex'
p1253
g33
(g133
S'\x10\x00\x00\x00'
p1254
tp1255
Rp1256
sa(dp1257
S'training_block.thisRepN'
p1258
I0
sg165
g885
sg32
g42
sg886
Vsqueeze
p1259
sS'experimental_blocks.thisN'
p1260
I1
sg44
g45
sg889
Vknock
p1261
sg891
Vfold
p1262
sg893
Vskim
p1263
sS'experimental_blocks.thisIndex'
p1264
g898
sS'word_presentation.thisRepN'
p1265
I0
sS'experimental_blocks.thisRepN'
p1266
I0
sg46
g51
sg164
g903
sg904
g951
sS'training_block.thisIndex'
p1267
g147
sg166
g909
sg20
F3.102934198148432
sS'experimental_blocks.thisTrialN'
p1268
I1
sS'training_block.thisN'
p1269
I0
sS'word_presentation.thisN'
p1270
I17
sS'training_block.thisTrialN'
p1271
I0
sg19
S'space'
p1272
sg30
g31
sS'word_presentation.thisTrialN'
p1273
I17
sg43
g12
sS'word_presentation.thisIndex'
p1274
g33
(g133
S'\x11\x00\x00\x00'
p1275
tp1276
Rp1277
sa(dp1278
S'training_block.thisRepN'
p1279
I0
sg165
g885
sg32
g42
sg886
Vtrot
p1280
sS'experimental_blocks.thisN'
p1281
I1
sg44
g45
sg889
Vtread
p1282
sg891
Vramble
p1283
sg893
Vlimp
p1284
sS'experimental_blocks.thisIndex'
p1285
g898
sS'word_presentation.thisRepN'
p1286
I0
sS'experimental_blocks.thisRepN'
p1287
I0
sg46
g51
sg164
g903
sg904
g905
sS'training_block.thisIndex'
p1288
g147
sg166
g909
sg20
F7.3463043674964865
sS'experimental_blocks.thisTrialN'
p1289
I1
sS'training_block.thisN'
p1290
I0
sS'word_presentation.thisN'
p1291
I18
sS'training_block.thisTrialN'
p1292
I0
sg19
S'space'
p1293
sg30
g31
sS'word_presentation.thisTrialN'
p1294
I18
sg43
g12
sS'word_presentation.thisIndex'
p1295
g33
(g133
S'\x12\x00\x00\x00'
p1296
tp1297
Rp1298
sa(dp1299
S'training_block.thisRepN'
p1300
I0
sg165
g885
sg32
g42
sg886
Vslap
p1301
sS'experimental_blocks.thisN'
p1302
I1
sg44
g45
sg889
Vscratch
p1303
sg891
Vclap
p1304
sg893
Vscrub
p1305
sS'experimental_blocks.thisIndex'
p1306
g898
sS'word_presentation.thisRepN'
p1307
I0
sS'experimental_blocks.thisRepN'
p1308
I0
sg46
g51
sg164
g903
sg904
g951
sS'training_block.thisIndex'
p1309
g147
sg166
g909
sg20
F9.140377099955003
sS'experimental_blocks.thisTrialN'
p1310
I1
sS'training_block.thisN'
p1311
I0
sS'word_presentation.thisN'
p1312
I19
sS'training_block.thisTrialN'
p1313
I0
sg19
S'space'
p1314
sg30
g31
sS'word_presentation.thisTrialN'
p1315
I19
sg43
g12
sS'word_presentation.thisIndex'
p1316
g33
(g133
S'\x13\x00\x00\x00'
p1317
tp1318
Rp1319
sa(dp1320
S'training_block.thisRepN'
p1321
I0
sg165
g885
sg32
g42
sg886
Vhop
p1322
sS'experimental_blocks.thisN'
p1323
I1
sg44
g45
sg889
Vstroll
p1324
sg891
Vmarch
p1325
sg893
Vinch
p1326
sS'experimental_blocks.thisIndex'
p1327
g898
sS'word_presentation.thisRepN'
p1328
I0
sS'experimental_blocks.thisRepN'
p1329
I0
sg46
g51
sg164
g903
sg904
g905
sS'training_block.thisIndex'
p1330
g147
sg166
g909
sg20
F3.337360679617632
sS'experimental_blocks.thisTrialN'
p1331
I1
sS'training_block.thisN'
p1332
I0
sS'word_presentation.thisN'
p1333
I20
sS'training_block.thisTrialN'
p1334
I0
sg19
S'space'
p1335
sg30
g31
sS'word_presentation.thisTrialN'
p1336
I20
sg43
g12
sS'word_presentation.thisIndex'
p1337
g33
(g133
S'\x14\x00\x00\x00'
p1338
tp1339
Rp1340
sa(dp1341
S'training_block.thisRepN'
p1342
I0
sg165
g885
sg32
g42
sg886
Vpush
p1343
sS'experimental_blocks.thisN'
p1344
I1
sg44
g45
sg889
Vbrush
p1345
sg891
Vpoke
p1346
sg893
Vswitch
p1347
sS'experimental_blocks.thisIndex'
p1348
g898
sS'word_presentation.thisRepN'
p1349
I0
sS'experimental_blocks.thisRepN'
p1350
I0
sg46
g51
sg164
g903
sg904
g951
sS'training_block.thisIndex'
p1351
g147
sg166
g909
sg20
F3.9414748708677507
sS'experimental_blocks.thisTrialN'
p1352
I1
sS'training_block.thisN'
p1353
I0
sS'word_presentation.thisN'
p1354
I21
sS'training_block.thisTrialN'
p1355
I0
sg19
S'space'
p1356
sg30
g31
sS'word_presentation.thisTrialN'
p1357
I21
sg43
g12
sS'word_presentation.thisIndex'
p1358
g33
(g133
S'\x15\x00\x00\x00'
p1359
tp1360
Rp1361
sa(dp1362
S'training_block.thisRepN'
p1363
I0
sg165
g885
sg32
g42
sg886
Vclimb
p1364
sS'experimental_blocks.thisN'
p1365
I1
sg44
g45
sg889
Vkneel
p1366
sg891
Vstep
p1367
sg893
Vflit
p1368
sS'experimental_blocks.thisIndex'
p1369
g898
sS'word_presentation.thisRepN'
p1370
I0
sS'experimental_blocks.thisRepN'
p1371
I0
sg46
g51
sg164
g903
sg904
g905
sS'training_block.thisIndex'
p1372
g147
sg166
g909
sg20
F3.95814333528142
sS'experimental_blocks.thisTrialN'
p1373
I1
sS'training_block.thisN'
p1374
I0
sS'word_presentation.thisN'
p1375
I22
sS'training_block.thisTrialN'
p1376
I0
sg19
S'space'
p1377
sg30
g31
sS'word_presentation.thisTrialN'
p1378
I22
sg43
g12
sS'word_presentation.thisIndex'
p1379
g33
(g133
S'\x16\x00\x00\x00'
p1380
tp1381
Rp1382
sa(dp1383
S'training_block.thisRepN'
p1384
I0
sg165
g885
sg32
g42
sg886
Vthrow
p1385
sS'experimental_blocks.thisN'
p1386
I1
sg44
g45
sg889
Vdelve
p1387
sg891
Vstir
p1388
sg893
Vpinch
p1389
sS'experimental_blocks.thisIndex'
p1390
g898
sS'word_presentation.thisRepN'
p1391
I0
sS'experimental_blocks.thisRepN'
p1392
I0
sg46
g51
sg164
g903
sg904
g951
sS'training_block.thisIndex'
p1393
g147
sg166
g909
sg20
F2.6004527159202553
sS'experimental_blocks.thisTrialN'
p1394
I1
sS'training_block.thisN'
p1395
I0
sS'word_presentation.thisN'
p1396
I23
sS'training_block.thisTrialN'
p1397
I0
sg19
S'space'
p1398
sg30
g31
sS'word_presentation.thisTrialN'
p1399
I23
sg43
g12
sS'word_presentation.thisIndex'
p1400
g33
(g133
S'\x17\x00\x00\x00'
p1401
tp1402
Rp1403
sa(dp1404
S'training_block.thisRepN'
p1405
I0
sg165
g885
sg32
g42
sg886
Vclaw
p1406
sS'experimental_blocks.thisN'
p1407
I1
sg44
g45
sg889
Vpat
p1408
sg891
Vcarve
p1409
sg893
Vtug
p1410
sS'experimental_blocks.thisIndex'
p1411
g898
sS'word_presentation.thisRepN'
p1412
I0
sS'experimental_blocks.thisRepN'
p1413
I0
sg46
g51
sg164
g903
sg904
g951
sS'training_block.thisIndex'
p1414
g147
sg166
g909
sg20
F4.9145742680502735
sS'experimental_blocks.thisTrialN'
p1415
I1
sS'training_block.thisN'
p1416
I0
sS'word_presentation.thisN'
p1417
I24
sS'training_block.thisTrialN'
p1418
I0
sg19
S'space'
p1419
sg30
g31
sS'word_presentation.thisTrialN'
p1420
I24
sg43
g12
sS'word_presentation.thisIndex'
p1421
g33
(g133
S'\x18\x00\x00\x00'
p1422
tp1423
Rp1424
sa(dp1425
S'training_block.thisRepN'
p1426
I0
sg165
g885
sg32
g42
sg886
Vwander
p1427
sS'experimental_blocks.thisN'
p1428
I1
sg44
g45
sg889
Vskate
p1429
sg891
Vstray
p1430
sg893
Vdance
p1431
sS'experimental_blocks.thisIndex'
p1432
g898
sS'word_presentation.thisRepN'
p1433
I0
sS'experimental_blocks.thisRepN'
p1434
I0
sg46
g51
sg164
g903
sg904
g905
sS'training_block.thisIndex'
p1435
g147
sg166
g909
sg20
F5.130913843711824
sS'experimental_blocks.thisTrialN'
p1436
I1
sS'training_block.thisN'
p1437
I0
sS'word_presentation.thisN'
p1438
I25
sS'training_block.thisTrialN'
p1439
I0
sg19
S'space'
p1440
sg30
g31
sS'word_presentation.thisTrialN'
p1441
I25
sg43
g12
sS'word_presentation.thisIndex'
p1442
g33
(g133
S'\x19\x00\x00\x00'
p1443
tp1444
Rp1445
sa(dp1446
S'training_block.thisRepN'
p1447
I0
sg165
g885
sg32
g42
sg886
Vstride
p1448
sS'experimental_blocks.thisN'
p1449
I1
sg44
g45
sg889
Vskip
p1450
sg891
Vprance
p1451
sg893
Vtiptoe
p1452
sS'experimental_blocks.thisIndex'
p1453
g898
sS'word_presentation.thisRepN'
p1454
I0
sS'experimental_blocks.thisRepN'
p1455
I0
sg46
g51
sg164
g903
sg904
g905
sS'training_block.thisIndex'
p1456
g147
sg166
g909
sg20
F9.190599012938037
sS'experimental_blocks.thisTrialN'
p1457
I1
sS'training_block.thisN'
p1458
I0
sS'word_presentation.thisN'
p1459
I26
sS'training_block.thisTrialN'
p1460
I0
sg19
S'space'
p1461
sg30
g31
sS'word_presentation.thisTrialN'
p1462
I26
sg43
g12
sS'word_presentation.thisIndex'
p1463
g33
(g133
S'\x1a\x00\x00\x00'
p1464
tp1465
Rp1466
sa(dp1467
S'training_block.thisRepN'
p1468
I0
sg165
g885
sg32
g42
sg886
Vwash
p1469
sS'experimental_blocks.thisN'
p1470
I1
sg44
g45
sg889
Vtoss
p1471
sg891
Vlift
p1472
sg893
Vclean
p1473
sS'experimental_blocks.thisIndex'
p1474
g898
sS'word_presentation.thisRepN'
p1475
I0
sS'experimental_blocks.thisRepN'
p1476
I0
sg46
g51
sg164
g903
sg904
g951
sS'training_block.thisIndex'
p1477
g147
sg166
g909
sg20
F38.80812636534938
sS'experimental_blocks.thisTrialN'
p1478
I1
sS'training_block.thisN'
p1479
I0
sS'word_presentation.thisN'
p1480
I27
sS'training_block.thisTrialN'
p1481
I0
sg19
S'space'
p1482
sg30
g31
sS'word_presentation.thisTrialN'
p1483
I27
sg43
g12
sS'word_presentation.thisIndex'
p1484
g33
(g133
S'\x1b\x00\x00\x00'
p1485
tp1486
Rp1487
sa(dp1488
S'training_block.thisRepN'
p1489
I0
sg165
g885
sS'experimental_blocks.thisRepN'
p1490
I0
sS'experimental_blocks.thisTrialN'
p1491
I1
sS'training_block.thisN'
p1492
I0
sg44
g45
sg43
g12
sg32
g42
sS'training_block.thisTrialN'
p1493
I0
sg46
g51
sS'experimental_blocks.thisN'
p1494
I1
sg166
g909
sg30
g31
sS'experimental_blocks.thisIndex'
p1495
g898
sg164
g903
sS'training_block.thisIndex'
p1496
g147
sa(dp1497
S'training_block.thisRepN'
p1498
I0
sg165
g33
(g37
S'\x9a\x99\x99\x99\x99\x99\xd9?'
p1499
tp1500
Rp1501
sg32
g42
sS'word4'
p1502
Vfold
p1503
sS'experimental_blocks.thisN'
p1504
I2
sg44
g45
sS'word1'
p1505
Vgrab
p1506
sS'word3'
p1507
Vclean
p1508
sS'word2'
p1509
Vpull
p1510
sS'experimental_blocks.thisIndex'
p1511
g33
(g133
S'\x02\x00\x00\x00'
p1512
tp1513
Rp1514
sS'word_presentation.thisRepN'
p1515
I0
sS'experimental_blocks.thisRepN'
p1516
I0
sg46
g51
sg164
g33
(g37
S'333333\xd3?'
p1517
tp1518
Rp1519
sS'type'
p1520
Varm
p1521
sS'training_block.thisIndex'
p1522
g147
sg166
g33
(g37
S'ffffff\xe6?'
p1523
tp1524
Rp1525
sg20
F5.869655508391588
sS'experimental_blocks.thisTrialN'
p1526
I2
sS'training_block.thisN'
p1527
I0
sS'word_presentation.thisN'
p1528
I0
sS'training_block.thisTrialN'
p1529
I0
sg19
S'space'
p1530
sg30
g31
sS'word_presentation.thisTrialN'
p1531
I0
sg43
g12
sS'word_presentation.thisIndex'
p1532
g33
(g133
S'\x00\x00\x00\x00'
p1533
tp1534
Rp1535
sa(dp1536
S'training_block.thisRepN'
p1537
I0
sg165
g1501
sg32
g42
sg1502
Vbrush
p1538
sS'experimental_blocks.thisN'
p1539
I2
sg44
g45
sg1505
Vtug
p1540
sg1507
Vpunch
p1541
sg1509
Vhack
p1542
sS'experimental_blocks.thisIndex'
p1543
g1514
sS'word_presentation.thisRepN'
p1544
I0
sS'experimental_blocks.thisRepN'
p1545
I0
sg46
g51
sg164
g1519
sg1520
g1521
sS'training_block.thisIndex'
p1546
g147
sg166
g1525
sg20
F5.098578516262933
sS'experimental_blocks.thisTrialN'
p1547
I2
sS'training_block.thisN'
p1548
I0
sS'word_presentation.thisN'
p1549
I1
sS'training_block.thisTrialN'
p1550
I0
sg19
S'space'
p1551
sg30
g31
sS'word_presentation.thisTrialN'
p1552
I1
sg43
g12
sS'word_presentation.thisIndex'
p1553
g33
(g133
S'\x01\x00\x00\x00'
p1554
tp1555
Rp1556
sa(dp1557
S'training_block.thisRepN'
p1558
I0
sg165
g1501
sg32
g42
sg1502
Vdance
p1559
sS'experimental_blocks.thisN'
p1560
I2
sg44
g45
sg1505
Vroam
p1561
sg1507
Vstagger
p1562
sg1509
Vflit
p1563
sS'experimental_blocks.thisIndex'
p1564
g1514
sS'word_presentation.thisRepN'
p1565
I0
sS'experimental_blocks.thisRepN'
p1566
I0
sg46
g51
sg164
g1519
sg1520
Vleg
p1567
sS'training_block.thisIndex'
p1568
g147
sg166
g1525
sg20
F3.7905866855380737
sS'experimental_blocks.thisTrialN'
p1569
I2
sS'training_block.thisN'
p1570
I0
sS'word_presentation.thisN'
p1571
I2
sS'training_block.thisTrialN'
p1572
I0
sg19
S'space'
p1573
sg30
g31
sS'word_presentation.thisTrialN'
p1574
I2
sg43
g12
sS'word_presentation.thisIndex'
p1575
g33
(g133
S'\x02\x00\x00\x00'
p1576
tp1577
Rp1578
sa(dp1579
S'training_block.thisRepN'
p1580
I0
sg165
g1501
sg32
g42
sg1502
Vhike
p1581
sS'experimental_blocks.thisN'
p1582
I2
sg44
g45
sg1505
Vstrut
p1583
sg1507
Vrun
p1584
sg1509
Vtraipse
p1585
sS'experimental_blocks.thisIndex'
p1586
g1514
sS'word_presentation.thisRepN'
p1587
I0
sS'experimental_blocks.thisRepN'
p1588
I0
sg46
g51
sg164
g1519
sg1520
g1567
sS'training_block.thisIndex'
p1589
g147
sg166
g1525
sg20
F4.444495676914812
sS'experimental_blocks.thisTrialN'
p1590
I2
sS'training_block.thisN'
p1591
I0
sS'word_presentation.thisN'
p1592
I3
sS'training_block.thisTrialN'
p1593
I0
sg19
S'space'
p1594
sg30
g31
sS'word_presentation.thisTrialN'
p1595
I3
sg43
g12
sS'word_presentation.thisIndex'
p1596
g33
(g133
S'\x03\x00\x00\x00'
p1597
tp1598
Rp1599
sa(dp1600
S'training_block.thisRepN'
p1601
I0
sg165
g1501
sg32
g42
sg1502
Vsprint
p1602
sS'experimental_blocks.thisN'
p1603
I2
sg44
g45
sg1505
Vinch
p1604
sg1507
Vtrek
p1605
sg1509
Vslip
p1606
sS'experimental_blocks.thisIndex'
p1607
g1514
sS'word_presentation.thisRepN'
p1608
I0
sS'experimental_blocks.thisRepN'
p1609
I0
sg46
g51
sg164
g1519
sg1520
g1567
sS'training_block.thisIndex'
p1610
g147
sg166
g1525
sg20
F5.031364149466754
sS'experimental_blocks.thisTrialN'
p1611
I2
sS'training_block.thisN'
p1612
I0
sS'word_presentation.thisN'
p1613
I4
sS'training_block.thisTrialN'
p1614
I0
sg19
S'space'
p1615
sg30
g31
sS'word_presentation.thisTrialN'
p1616
I4
sg43
g12
sS'word_presentation.thisIndex'
p1617
g33
(g133
S'\x04\x00\x00\x00'
p1618
tp1619
Rp1620
sa(dp1621
S'training_block.thisRepN'
p1622
I0
sg165
g1501
sg32
g42
sg1502
Vnip
p1623
sS'experimental_blocks.thisN'
p1624
I2
sg44
g45
sg1505
Vpoke
p1625
sg1507
Vdelve
p1626
sg1509
Vtoss
p1627
sS'experimental_blocks.thisIndex'
p1628
g1514
sS'word_presentation.thisRepN'
p1629
I0
sS'experimental_blocks.thisRepN'
p1630
I0
sg46
g51
sg164
g1519
sg1520
g1521
sS'training_block.thisIndex'
p1631
g147
sg166
g1525
sg20
F3.9415041089378064
sS'experimental_blocks.thisTrialN'
p1632
I2
sS'training_block.thisN'
p1633
I0
sS'word_presentation.thisN'
p1634
I5
sS'training_block.thisTrialN'
p1635
I0
sg19
S'space'
p1636
sg30
g31
sS'word_presentation.thisTrialN'
p1637
I5
sg43
g12
sS'word_presentation.thisIndex'
p1638
g33
(g133
S'\x05\x00\x00\x00'
p1639
tp1640
Rp1641
sa(dp1642
S'training_block.thisRepN'
p1643
I0
sg165
g1501
sg32
g42
sg1502
Vtrudge
p1644
sS'experimental_blocks.thisN'
p1645
I2
sg44
g45
sg1505
Vmount
p1646
sg1507
Vpace
p1647
sg1509
Vrush
p1648
sS'experimental_blocks.thisIndex'
p1649
g1514
sS'word_presentation.thisRepN'
p1650
I0
sS'experimental_blocks.thisRepN'
p1651
I0
sg46
g51
sg164
g1519
sg1520
g1567
sS'training_block.thisIndex'
p1652
g147
sg166
g1525
sg20
F6.138572241930888
sS'experimental_blocks.thisTrialN'
p1653
I2
sS'training_block.thisN'
p1654
I0
sS'word_presentation.thisN'
p1655
I6
sS'training_block.thisTrialN'
p1656
I0
sg19
S'space'
p1657
sg30
g31
sS'word_presentation.thisTrialN'
p1658
I6
sg43
g12
sS'word_presentation.thisIndex'
p1659
g33
(g133
S'\x06\x00\x00\x00'
p1660
tp1661
Rp1662
sa(dp1663
S'training_block.thisRepN'
p1664
I0
sg165
g1501
sg32
g42
sg1502
Vwalk
p1665
sS'experimental_blocks.thisN'
p1666
I2
sg44
g45
sg1505
Vstride
p1667
sg1507
Vtrip
p1668
sg1509
Vroll
p1669
sS'experimental_blocks.thisIndex'
p1670
g1514
sS'word_presentation.thisRepN'
p1671
I0
sS'experimental_blocks.thisRepN'
p1672
I0
sg46
g51
sg164
g1519
sg1520
g1567
sS'training_block.thisIndex'
p1673
g147
sg166
g1525
sg20
F3.3042916347130813
sS'experimental_blocks.thisTrialN'
p1674
I2
sS'training_block.thisN'
p1675
I0
sS'word_presentation.thisN'
p1676
I7
sS'training_block.thisTrialN'
p1677
I0
sg19
S'space'
p1678
sg30
g31
sS'word_presentation.thisTrialN'
p1679
I7
sg43
g12
sS'word_presentation.thisIndex'
p1680
g33
(g133
S'\x07\x00\x00\x00'
p1681
tp1682
Rp1683
sa(dp1684
S'training_block.thisRepN'
p1685
I0
sg165
g1501
sg32
g42
sg1502
Vprance
p1686
sS'experimental_blocks.thisN'
p1687
I2
sg44
g45
sg1505
Vlimp
p1688
sg1507
Vleap
p1689
sg1509
Vstamp
p1690
sS'experimental_blocks.thisIndex'
p1691
g1514
sS'word_presentation.thisRepN'
p1692
I0
sS'experimental_blocks.thisRepN'
p1693
I0
sg46
g51
sg164
g1519
sg1520
g1567
sS'training_block.thisIndex'
p1694
g147
sg166
g1525
sg20
F8.268267569410455
sS'experimental_blocks.thisTrialN'
p1695
I2
sS'training_block.thisN'
p1696
I0
sS'word_presentation.thisN'
p1697
I8
sS'training_block.thisTrialN'
p1698
I0
sg19
S'space'
p1699
sg30
g31
sS'word_presentation.thisTrialN'
p1700
I8
sg43
g12
sS'word_presentation.thisIndex'
p1701
g33
(g133
S'\x08\x00\x00\x00'
p1702
tp1703
Rp1704
sa(dp1705
S'training_block.thisRepN'
p1706
I0
sg165
g1501
sg32
g42
sg1502
Vcut
p1707
sS'experimental_blocks.thisN'
p1708
I2
sg44
g45
sg1505
Vfile
p1709
sg1507
Vbind
p1710
sg1509
Vpinch
p1711
sS'experimental_blocks.thisIndex'
p1712
g1514
sS'word_presentation.thisRepN'
p1713
I0
sS'experimental_blocks.thisRepN'
p1714
I0
sg46
g51
sg164
g1519
sg1520
g1521
sS'training_block.thisIndex'
p1715
g147
sg166
g1525
sg20
F5.870147814237498
sS'experimental_blocks.thisTrialN'
p1716
I2
sS'training_block.thisN'
p1717
I0
sS'word_presentation.thisN'
p1718
I9
sS'training_block.thisTrialN'
p1719
I0
sg19
S'space'
p1720
sg30
g31
sS'word_presentation.thisTrialN'
p1721
I9
sg43
g12
sS'word_presentation.thisIndex'
p1722
g33
(g133
S'\t\x00\x00\x00'
p1723
tp1724
Rp1725
sa(dp1726
S'training_block.thisRepN'
p1727
I0
sg165
g1501
sg32
g42
sg1502
Vskate
p1728
sS'experimental_blocks.thisN'
p1729
I2
sg44
g45
sg1505
Vclimb
p1730
sg1507
Vslide
p1731
sg1509
Vsneak
p1732
sS'experimental_blocks.thisIndex'
p1733
g1514
sS'word_presentation.thisRepN'
p1734
I0
sS'experimental_blocks.thisRepN'
p1735
I0
sg46
g51
sg164
g1519
sg1520
g1567
sS'training_block.thisIndex'
p1736
g147
sg166
g1525
sg20
F7.6813777609713725
sS'experimental_blocks.thisTrialN'
p1737
I2
sS'training_block.thisN'
p1738
I0
sS'word_presentation.thisN'
p1739
I10
sS'training_block.thisTrialN'
p1740
I0
sg19
S'space'
p1741
sg30
g31
sS'word_presentation.thisTrialN'
p1742
I10
sg43
g12
sS'word_presentation.thisIndex'
p1743
g33
(g133
S'\n\x00\x00\x00'
p1744
tp1745
Rp1746
sa(dp1747
S'training_block.thisRepN'
p1748
I0
sg165
g1501
sg32
g42
sg1502
Vgrate
p1749
sS'experimental_blocks.thisN'
p1750
I2
sg44
g45
sg1505
Vclutch
p1751
sg1507
Vclaw
p1752
sg1509
Vlift
p1753
sS'experimental_blocks.thisIndex'
p1754
g1514
sS'word_presentation.thisRepN'
p1755
I0
sS'experimental_blocks.thisRepN'
p1756
I0
sg46
g51
sg164
g1519
sg1520
g1521
sS'training_block.thisIndex'
p1757
g147
sg166
g1525
sg20
F4.360849120901548
sS'experimental_blocks.thisTrialN'
p1758
I2
sS'training_block.thisN'
p1759
I0
sS'word_presentation.thisN'
p1760
I11
sS'training_block.thisTrialN'
p1761
I0
sg19
S'space'
p1762
sg30
g31
sS'word_presentation.thisTrialN'
p1763
I11
sg43
g12
sS'word_presentation.thisIndex'
p1764
g33
(g133
S'\x0b\x00\x00\x00'
p1765
tp1766
Rp1767
sa(dp1768
S'training_block.thisRepN'
p1769
I0
sg165
g1501
sg32
g42
sg1502
Vpat
p1770
sS'experimental_blocks.thisN'
p1771
I2
sg44
g45
sg1505
Vclap
p1772
sg1507
Vwhip
p1773
sg1509
Vpeel
p1774
sS'experimental_blocks.thisIndex'
p1775
g1514
sS'word_presentation.thisRepN'
p1776
I0
sS'experimental_blocks.thisRepN'
p1777
I0
sg46
g51
sg164
g1519
sg1520
g1521
sS'training_block.thisIndex'
p1778
g147
sg166
g1525
sg20
F6.205607229230736
sS'experimental_blocks.thisTrialN'
p1779
I2
sS'training_block.thisN'
p1780
I0
sS'word_presentation.thisN'
p1781
I12
sS'training_block.thisTrialN'
p1782
I0
sg19
S'space'
p1783
sg30
g31
sS'word_presentation.thisTrialN'
p1784
I12
sg43
g12
sS'word_presentation.thisIndex'
p1785
g33
(g133
S'\x0c\x00\x00\x00'
p1786
tp1787
Rp1788
sa(dp1789
S'training_block.thisRepN'
p1790
I0
sg165
g1501
sg32
g42
sg1502
Vtwine
p1791
sS'experimental_blocks.thisN'
p1792
I2
sg44
g45
sg1505
Vclick
p1793
sg1507
Vgrip
p1794
sg1509
Vchop
p1795
sS'experimental_blocks.thisIndex'
p1796
g1514
sS'word_presentation.thisRepN'
p1797
I0
sS'experimental_blocks.thisRepN'
p1798
I0
sg46
g51
sg164
g1519
sg1520
g1521
sS'training_block.thisIndex'
p1799
g147
sg166
g1525
sg20
F7.279104619732607
sS'experimental_blocks.thisTrialN'
p1800
I2
sS'training_block.thisN'
p1801
I0
sS'word_presentation.thisN'
p1802
I13
sS'training_block.thisTrialN'
p1803
I0
sg19
S'space'
p1804
sg30
g31
sS'word_presentation.thisTrialN'
p1805
I13
sg43
g12
sS'word_presentation.thisIndex'
p1806
g33
(g133
S'\r\x00\x00\x00'
p1807
tp1808
Rp1809
sa(dp1810
S'training_block.thisRepN'
p1811
I0
sg165
g1501
sg32
g42
sg1502
Vcreep
p1812
sS'experimental_blocks.thisN'
p1813
I2
sg44
g45
sg1505
Vtread
p1814
sg1507
Vjump
p1815
sg1509
Vbounce
p1816
sS'experimental_blocks.thisIndex'
p1817
g1514
sS'word_presentation.thisRepN'
p1818
I0
sS'experimental_blocks.thisRepN'
p1819
I0
sg46
g51
sg164
g1519
sg1520
g1567
sS'training_block.thisIndex'
p1820
g147
sg166
g1525
sg20
F2.8849877140837634
sS'experimental_blocks.thisTrialN'
p1821
I2
sS'training_block.thisN'
p1822
I0
sS'word_presentation.thisN'
p1823
I14
sS'training_block.thisTrialN'
p1824
I0
sg19
S'space'
p1825
sg30
g31
sS'word_presentation.thisTrialN'
p1826
I14
sg43
g12
sS'word_presentation.thisIndex'
p1827
g33
(g133
S'\x0e\x00\x00\x00'
p1828
tp1829
Rp1830
sa(dp1831
S'training_block.thisRepN'
p1832
I0
sg165
g1501
sg32
g42
sg1502
Vthrow
p1833
sS'experimental_blocks.thisN'
p1834
I2
sg44
g45
sg1505
Vscoop
p1835
sg1507
Vrub
p1836
sg1509
Vshake
p1837
sS'experimental_blocks.thisIndex'
p1838
g1514
sS'word_presentation.thisRepN'
p1839
I0
sS'experimental_blocks.thisRepN'
p1840
I0
sg46
g51
sg164
g1519
sg1520
g1521
sS'training_block.thisIndex'
p1841
g147
sg166
g1525
sg20
F13.718906006330144
sS'experimental_blocks.thisTrialN'
p1842
I2
sS'training_block.thisN'
p1843
I0
sS'word_presentation.thisN'
p1844
I15
sS'training_block.thisTrialN'
p1845
I0
sg19
S'space'
p1846
sg30
g31
sS'word_presentation.thisTrialN'
p1847
I15
sg43
g12
sS'word_presentation.thisIndex'
p1848
g33
(g133
S'\x0f\x00\x00\x00'
p1849
tp1850
Rp1851
sa(dp1852
S'training_block.thisRepN'
p1853
I0
sg165
g1501
sg32
g42
sg1502
Vswitch
p1854
sS'experimental_blocks.thisN'
p1855
I2
sg44
g45
sg1505
Vcatch
p1856
sg1507
Vdunk
p1857
sg1509
Vgrasp
p1858
sS'experimental_blocks.thisIndex'
p1859
g1514
sS'word_presentation.thisRepN'
p1860
I0
sS'experimental_blocks.thisRepN'
p1861
I0
sg46
g51
sg164
g1519
sg1520
g1521
sS'training_block.thisIndex'
p1862
g147
sg166
g1525
sg20
F13.786051624154425
sS'experimental_blocks.thisTrialN'
p1863
I2
sS'training_block.thisN'
p1864
I0
sS'word_presentation.thisN'
p1865
I16
sS'training_block.thisTrialN'
p1866
I0
sg19
S'space'
p1867
sg30
g31
sS'word_presentation.thisTrialN'
p1868
I16
sg43
g12
sS'word_presentation.thisIndex'
p1869
g33
(g133
S'\x10\x00\x00\x00'
p1870
tp1871
Rp1872
sa(dp1873
S'training_block.thisRepN'
p1874
I0
sg165
g1501
sg32
g42
sg1502
Vscrape
p1875
sS'experimental_blocks.thisN'
p1876
I2
sg44
g45
sg1505
Vwipe
p1877
sg1507
Vscratch
p1878
sg1509
Vsqueeze
p1879
sS'experimental_blocks.thisIndex'
p1880
g1514
sS'word_presentation.thisRepN'
p1881
I0
sS'experimental_blocks.thisRepN'
p1882
I0
sg46
g51
sg164
g1519
sg1520
g1521
sS'training_block.thisIndex'
p1883
g147
sg166
g1525
sg20
F43.92301656257405
sS'experimental_blocks.thisTrialN'
p1884
I2
sS'training_block.thisN'
p1885
I0
sS'word_presentation.thisN'
p1886
I17
sS'training_block.thisTrialN'
p1887
I0
sg19
S'space'
p1888
sg30
g31
sS'word_presentation.thisTrialN'
p1889
I17
sg43
g12
sS'word_presentation.thisIndex'
p1890
g33
(g133
S'\x11\x00\x00\x00'
p1891
tp1892
Rp1893
sa(dp1894
S'training_block.thisRepN'
p1895
I0
sg165
g1501
sg32
g42
sg1502
Vkick
p1896
sS'experimental_blocks.thisN'
p1897
I2
sg44
g45
sg1505
Vflee
p1898
sg1507
Vcrawl
p1899
sg1509
Vslither
p1900
sS'experimental_blocks.thisIndex'
p1901
g1514
sS'word_presentation.thisRepN'
p1902
I0
sS'experimental_blocks.thisRepN'
p1903
I0
sg46
g51
sg164
g1519
sg1520
g1567
sS'training_block.thisIndex'
p1904
g147
sg166
g1525
sg20
F4.595549017818485
sS'experimental_blocks.thisTrialN'
p1905
I2
sS'training_block.thisN'
p1906
I0
sS'word_presentation.thisN'
p1907
I18
sS'training_block.thisTrialN'
p1908
I0
sg19
S'space'
p1909
sg30
g31
sS'word_presentation.thisTrialN'
p1910
I18
sg43
g12
sS'word_presentation.thisIndex'
p1911
g33
(g133
S'\x12\x00\x00\x00'
p1912
tp1913
Rp1914
sa(dp1915
S'training_block.thisRepN'
p1916
I0
sg165
g1501
sg32
g42
sg1502
Vtrot
p1917
sS'experimental_blocks.thisN'
p1918
I2
sg44
g45
sg1505
Vstomp
p1919
sg1507
Vskip
p1920
sg1509
Vstumble
p1921
sS'experimental_blocks.thisIndex'
p1922
g1514
sS'word_presentation.thisRepN'
p1923
I0
sS'experimental_blocks.thisRepN'
p1924
I0
sg46
g51
sg164
g1519
sg1520
g1567
sS'training_block.thisIndex'
p1925
g147
sg166
g1525
sg20
F6.558008919189888
sS'experimental_blocks.thisTrialN'
p1926
I2
sS'training_block.thisN'
p1927
I0
sS'word_presentation.thisN'
p1928
I19
sS'training_block.thisTrialN'
p1929
I0
sg19
S'space'
p1930
sg30
g31
sS'word_presentation.thisTrialN'
p1931
I19
sg43
g12
sS'word_presentation.thisIndex'
p1932
g33
(g133
S'\x13\x00\x00\x00'
p1933
tp1934
Rp1935
sa(dp1936
S'training_block.thisRepN'
p1937
I0
sg165
g1501
sg32
g42
sg1502
Vstir
p1938
sS'experimental_blocks.thisN'
p1939
I2
sg44
g45
sg1505
Vcarve
p1940
sg1507
Vstab
p1941
sg1509
Vwrap
p1942
sS'experimental_blocks.thisIndex'
p1943
g1514
sS'word_presentation.thisRepN'
p1944
I0
sS'experimental_blocks.thisRepN'
p1945
I0
sg46
g51
sg164
g1519
sg1520
g1521
sS'training_block.thisIndex'
p1946
g147
sg166
g1525
sg20
F17.45881324263246
sS'experimental_blocks.thisTrialN'
p1947
I2
sS'training_block.thisN'
p1948
I0
sS'word_presentation.thisN'
p1949
I20
sS'training_block.thisTrialN'
p1950
I0
sg19
S'space'
p1951
sg30
g31
sS'word_presentation.thisTrialN'
p1952
I20
sg43
g12
sS'word_presentation.thisIndex'
p1953
g33
(g133
S'\x14\x00\x00\x00'
p1954
tp1955
Rp1956
sa(dp1957
S'training_block.thisRepN'
p1958
I0
sg165
g1501
sg32
g42
sg1502
Vstroll
p1959
sS'experimental_blocks.thisN'
p1960
I2
sg44
g45
sg1505
Vglide
p1961
sg1507
Vramble
p1962
sg1509
Vsway
p1963
sS'experimental_blocks.thisIndex'
p1964
g1514
sS'word_presentation.thisRepN'
p1965
I0
sS'experimental_blocks.thisRepN'
p1966
I0
sg46
g51
sg164
g1519
sg1520
g1567
sS'training_block.thisIndex'
p1967
g147
sg166
g1525
sg20
F44.9802394123617
sS'experimental_blocks.thisTrialN'
p1968
I2
sS'training_block.thisN'
p1969
I0
sS'word_presentation.thisN'
p1970
I21
sS'training_block.thisTrialN'
p1971
I0
sg19
S'space'
p1972
sg30
g31
sS'word_presentation.thisTrialN'
p1973
I21
sg43
g12
sS'word_presentation.thisIndex'
p1974
g33
(g133
S'\x15\x00\x00\x00'
p1975
tp1976
Rp1977
sa(dp1978
S'training_block.thisRepN'
p1979
I0
sg165
g1501
sg32
g42
sg1502
Vslap
p1980
sS'experimental_blocks.thisN'
p1981
I2
sg44
g45
sg1505
Vbash
p1982
sg1507
Vskim
p1983
sg1509
Vscrub
p1984
sS'experimental_blocks.thisIndex'
p1985
g1514
sS'word_presentation.thisRepN'
p1986
I0
sS'experimental_blocks.thisRepN'
p1987
I0
sg46
g51
sg164
g1519
sg1520
g1521
sS'training_block.thisIndex'
p1988
g147
sg166
g1525
sg20
F4.159522502841355
sS'experimental_blocks.thisTrialN'
p1989
I2
sS'training_block.thisN'
p1990
I0
sS'word_presentation.thisN'
p1991
I22
sS'training_block.thisTrialN'
p1992
I0
sg19
S'space'
p1993
sg30
g31
sS'word_presentation.thisTrialN'
p1994
I22
sg43
g12
sS'word_presentation.thisIndex'
p1995
g33
(g133
S'\x16\x00\x00\x00'
p1996
tp1997
Rp1998
sa(dp1999
S'training_block.thisRepN'
p2000
I0
sg165
g1501
sg32
g42
sg1502
Vwander
p2001
sS'experimental_blocks.thisN'
p2002
I2
sg44
g45
sg1505
Vtiptoe
p2003
sg1507
Vkneel
p2004
sg1509
Vhop
p2005
sS'experimental_blocks.thisIndex'
p2006
g1514
sS'word_presentation.thisRepN'
p2007
I0
sS'experimental_blocks.thisRepN'
p2008
I0
sg46
g51
sg164
g1519
sg1520
g1567
sS'training_block.thisIndex'
p2009
g147
sg166
g1525
sg20
F3.119685635456335
sS'experimental_blocks.thisTrialN'
p2010
I2
sS'training_block.thisN'
p2011
I0
sS'word_presentation.thisN'
p2012
I23
sS'training_block.thisTrialN'
p2013
I0
sg19
S'space'
p2014
sg30
g31
sS'word_presentation.thisTrialN'
p2015
I23
sg43
g12
sS'word_presentation.thisIndex'
p2016
g33
(g133
S'\x17\x00\x00\x00'
p2017
tp2018
Rp2019
sa(dp2020
S'training_block.thisRepN'
p2021
I0
sg165
g1501
sg32
g42
sg1502
Vstray
p2022
sS'experimental_blocks.thisN'
p2023
I2
sg44
g45
sg1505
Vplod
p2024
sg1507
Vwobble
p2025
sg1509
Vstep
p2026
sS'experimental_blocks.thisIndex'
p2027
g1514
sS'word_presentation.thisRepN'
p2028
I0
sS'experimental_blocks.thisRepN'
p2029
I0
sg46
g51
sg164
g1519
sg1520
g1567
sS'training_block.thisIndex'
p2030
g147
sg166
g1525
sg20
F5.434653906224412
sS'experimental_blocks.thisTrialN'
p2031
I2
sS'training_block.thisN'
p2032
I0
sS'word_presentation.thisN'
p2033
I24
sS'training_block.thisTrialN'
p2034
I0
sg19
S'space'
p2035
sg30
g31
sS'word_presentation.thisTrialN'
p2036
I24
sg43
g12
sS'word_presentation.thisIndex'
p2037
g33
(g133
S'\x18\x00\x00\x00'
p2038
tp2039
Rp2040
sa(dp2041
S'training_block.thisRepN'
p2042
I0
sg165
g1501
sg32
g42
sg1502
Vpolish
p2043
sS'experimental_blocks.thisN'
p2044
I2
sg44
g45
sg1505
Vknock
p2045
sg1507
Vpush
p2046
sg1509
Vseize
p2047
sS'experimental_blocks.thisIndex'
p2048
g1514
sS'word_presentation.thisRepN'
p2049
I0
sS'experimental_blocks.thisRepN'
p2050
I0
sg46
g51
sg164
g1519
sg1520
g1521
sS'training_block.thisIndex'
p2051
g147
sg166
g1525
sg20
F3.1869592686052783
sS'experimental_blocks.thisTrialN'
p2052
I2
sS'training_block.thisN'
p2053
I0
sS'word_presentation.thisN'
p2054
I25
sS'training_block.thisTrialN'
p2055
I0
sg19
S'space'
p2056
sg30
g31
sS'word_presentation.thisTrialN'
p2057
I25
sg43
g12
sS'word_presentation.thisIndex'
p2058
g33
(g133
S'\x19\x00\x00\x00'
p2059
tp2060
Rp2061
sa(dp2062
S'training_block.thisRepN'
p2063
I0
sg165
g1501
sg32
g42
sg1502
Vdig
p2064
sS'experimental_blocks.thisN'
p2065
I2
sg44
g45
sg1505
Vbraid
p2066
sg1507
Vsnatch
p2067
sg1509
Vwash
p2068
sS'experimental_blocks.thisIndex'
p2069
g1514
sS'word_presentation.thisRepN'
p2070
I0
sS'experimental_blocks.thisRepN'
p2071
I0
sg46
g51
sg164
g1519
sg1520
g1521
sS'training_block.thisIndex'
p2072
g147
sg166
g1525
sg20
F19.67254509873237
sS'experimental_blocks.thisTrialN'
p2073
I2
sS'training_block.thisN'
p2074
I0
sS'word_presentation.thisN'
p2075
I26
sS'training_block.thisTrialN'
p2076
I0
sg19
S'space'
p2077
sg30
g31
sS'word_presentation.thisTrialN'
p2078
I26
sg43
g12
sS'word_presentation.thisIndex'
p2079
g33
(g133
S'\x1a\x00\x00\x00'
p2080
tp2081
Rp2082
sa(dp2083
S'training_block.thisRepN'
p2084
I0
sg165
g1501
sg32
g42
sg1502
Vjog
p2085
sS'experimental_blocks.thisN'
p2086
I2
sg44
g45
sg1505
Vwade
p2087
sg1507
Vscuff
p2088
sg1509
Vmarch
p2089
sS'experimental_blocks.thisIndex'
p2090
g1514
sS'word_presentation.thisRepN'
p2091
I0
sS'experimental_blocks.thisRepN'
p2092
I0
sg46
g51
sg164
g1519
sg1520
g1567
sS'training_block.thisIndex'
p2093
g147
sg166
g1525
sg20
F5.2831043083879194
sS'experimental_blocks.thisTrialN'
p2094
I2
sS'training_block.thisN'
p2095
I0
sS'word_presentation.thisN'
p2096
I27
sS'training_block.thisTrialN'
p2097
I0
sg19
S'space'
p2098
sg30
g31
sS'word_presentation.thisTrialN'
p2099
I27
sg43
g12
sS'word_presentation.thisIndex'
p2100
g33
(g133
S'\x1b\x00\x00\x00'
p2101
tp2102
Rp2103
sa(dp2104
S'training_block.thisRepN'
p2105
I0
sg165
g1501
sS'experimental_blocks.thisRepN'
p2106
I0
sS'experimental_blocks.thisTrialN'
p2107
I2
sS'training_block.thisN'
p2108
I0
sg44
g45
sg43
g12
sg32
g42
sS'training_block.thisTrialN'
p2109
I0
sg46
g51
sS'experimental_blocks.thisN'
p2110
I2
sg166
g1525
sg30
g31
sS'experimental_blocks.thisIndex'
p2111
g1514
sg164
g1519
sS'training_block.thisIndex'
p2112
g147
sa(dp2113
S'training_block.thisRepN'
p2114
I0
sg165
g33
(g37
S'\x9a\x99\x99\x99\x99\x99\xd9?'
p2115
tp2116
Rp2117
sg32
g42
sS'word4'
p2118
Vgrate
p2119
sS'experimental_blocks.thisN'
p2120
I3
sg44
g45
sS'word1'
p2121
Vpeel
p2122
sS'word3'
p2123
Vpolish
p2124
sS'word2'
p2125
Vclaw
p2126
sS'experimental_blocks.thisIndex'
p2127
g33
(g133
S'\x01\x00\x00\x00'
p2128
tp2129
Rp2130
sS'word_presentation.thisRepN'
p2131
I0
sS'experimental_blocks.thisRepN'
p2132
I0
sg46
g51
sg164
g33
(g37
S'\x9a\x99\x99\x99\x99\x99\xc9?'
p2133
tp2134
Rp2135
sS'type'
p2136
Varm
p2137
sS'training_block.thisIndex'
p2138
g147
sg166
g33
(g37
S'333333\xe3?'
p2139
tp2140
Rp2141
sg20
F3.2706603496644675
sS'experimental_blocks.thisTrialN'
p2142
I3
sS'training_block.thisN'
p2143
I0
sS'word_presentation.thisN'
p2144
I0
sS'training_block.thisTrialN'
p2145
I0
sg19
S'space'
p2146
sg30
g31
sS'word_presentation.thisTrialN'
p2147
I0
sg43
g12
sS'word_presentation.thisIndex'
p2148
g33
(g133
S'\x00\x00\x00\x00'
p2149
tp2150
Rp2151
sa(dp2152
S'training_block.thisRepN'
p2153
I0
sg165
g2117
sg32
g42
sg2118
Vstir
p2154
sS'experimental_blocks.thisN'
p2155
I3
sg44
g45
sg2121
Vslap
p2156
sg2123
Vpunch
p2157
sg2125
Vdelve
p2158
sS'experimental_blocks.thisIndex'
p2159
g2130
sS'word_presentation.thisRepN'
p2160
I0
sS'experimental_blocks.thisRepN'
p2161
I0
sg46
g51
sg164
g2135
sg2136
g2137
sS'training_block.thisIndex'
p2162
g147
sg166
g2141
sg20
F3.5725062595156487
sS'experimental_blocks.thisTrialN'
p2163
I3
sS'training_block.thisN'
p2164
I0
sS'word_presentation.thisN'
p2165
I1
sS'training_block.thisTrialN'
p2166
I0
sg19
S'space'
p2167
sg30
g31
sS'word_presentation.thisTrialN'
p2168
I1
sg43
g12
sS'word_presentation.thisIndex'
p2169
g33
(g133
S'\x01\x00\x00\x00'
p2170
tp2171
Rp2172
sa(dp2173
S'training_block.thisRepN'
p2174
I0
sg165
g2117
sg32
g42
sg2118
Vscratch
p2175
sS'experimental_blocks.thisN'
p2176
I3
sg44
g45
sg2121
Vpoke
p2177
sg2123
Vskim
p2178
sg2125
Vgrip
p2179
sS'experimental_blocks.thisIndex'
p2180
g2130
sS'word_presentation.thisRepN'
p2181
I0
sS'experimental_blocks.thisRepN'
p2182
I0
sg46
g51
sg164
g2135
sg2136
g2137
sS'training_block.thisIndex'
p2183
g147
sg166
g2141
sg20
F4.56269570243785
sS'experimental_blocks.thisTrialN'
p2184
I3
sS'training_block.thisN'
p2185
I0
sS'word_presentation.thisN'
p2186
I2
sS'training_block.thisTrialN'
p2187
I0
sg19
S'space'
p2188
sg30
g31
sS'word_presentation.thisTrialN'
p2189
I2
sg43
g12
sS'word_presentation.thisIndex'
p2190
g33
(g133
S'\x02\x00\x00\x00'
p2191
tp2192
Rp2193
sa(dp2194
S'training_block.thisRepN'
p2195
I0
sg165
g2117
sg32
g42
sg2118
Vsway
p2196
sS'experimental_blocks.thisN'
p2197
I3
sg44
g45
sg2121
Vroam
p2198
sg2123
Vsneak
p2199
sg2125
Vstagger
p2200
sS'experimental_blocks.thisIndex'
p2201
g2130
sS'word_presentation.thisRepN'
p2202
I0
sS'experimental_blocks.thisRepN'
p2203
I0
sg46
g51
sg164
g2135
sg2136
Vleg
p2204
sS'training_block.thisIndex'
p2205
g147
sg166
g2141
sg20
F6.49156541010052
sS'experimental_blocks.thisTrialN'
p2206
I3
sS'training_block.thisN'
p2207
I0
sS'word_presentation.thisN'
p2208
I3
sS'training_block.thisTrialN'
p2209
I0
sg19
S'space'
p2210
sg30
g31
sS'word_presentation.thisTrialN'
p2211
I3
sg43
g12
sS'word_presentation.thisIndex'
p2212
g33
(g133
S'\x03\x00\x00\x00'
p2213
tp2214
Rp2215
sa(dp2216
S'training_block.thisRepN'
p2217
I0
sg165
g2117
sg32
g42
sg2118
Vstrut
p2218
sS'experimental_blocks.thisN'
p2219
I3
sg44
g45
sg2121
Vstray
p2220
sg2123
Vhop
p2221
sg2125
Vtiptoe
p2222
sS'experimental_blocks.thisIndex'
p2223
g2130
sS'word_presentation.thisRepN'
p2224
I0
sS'experimental_blocks.thisRepN'
p2225
I0
sg46
g51
sg164
g2135
sg2136
g2204
sS'training_block.thisIndex'
p2226
g147
sg166
g2141
sg20
F3.6224401380204654
sS'experimental_blocks.thisTrialN'
p2227
I3
sS'training_block.thisN'
p2228
I0
sS'word_presentation.thisN'
p2229
I4
sS'training_block.thisTrialN'
p2230
I0
sg19
S'space'
p2231
sg30
g31
sS'word_presentation.thisTrialN'
p2232
I4
sg43
g12
sS'word_presentation.thisIndex'
p2233
g33
(g133
S'\x04\x00\x00\x00'
p2234
tp2235
Rp2236
sa(dp2237
S'training_block.thisRepN'
p2238
I0
sg165
g2117
sg32
g42
sg2118
Vscrub
p2239
sS'experimental_blocks.thisN'
p2240
I3
sg44
g45
sg2121
Vthrow
p2241
sg2123
Vfold
p2242
sg2125
Vcarve
p2243
sS'experimental_blocks.thisIndex'
p2244
g2130
sS'word_presentation.thisRepN'
p2245
I0
sS'experimental_blocks.thisRepN'
p2246
I0
sg46
g51
sg164
g2135
sg2136
g2137
sS'training_block.thisIndex'
p2247
g147
sg166
g2141
sg20
F8.016847448800036
sS'experimental_blocks.thisTrialN'
p2248
I3
sS'training_block.thisN'
p2249
I0
sS'word_presentation.thisN'
p2250
I5
sS'training_block.thisTrialN'
p2251
I0
sg19
S'space'
p2252
sg30
g31
sS'word_presentation.thisTrialN'
p2253
I5
sg43
g12
sS'word_presentation.thisIndex'
p2254
g33
(g133
S'\x05\x00\x00\x00'
p2255
tp2256
Rp2257
sa(dp2258
S'training_block.thisRepN'
p2259
I0
sg165
g2117
sg32
g42
sg2118
Vstroll
p2260
sS'experimental_blocks.thisN'
p2261
I3
sg44
g45
sg2121
Vrush
p2262
sg2123
Vrun
p2263
sg2125
Vjump
p2264
sS'experimental_blocks.thisIndex'
p2265
g2130
sS'word_presentation.thisRepN'
p2266
I0
sS'experimental_blocks.thisRepN'
p2267
I0
sg46
g51
sg164
g2135
sg2136
g2204
sS'training_block.thisIndex'
p2268
g147
sg166
g2141
sg20
F4.645520036570815
sS'experimental_blocks.thisTrialN'
p2269
I3
sS'training_block.thisN'
p2270
I0
sS'word_presentation.thisN'
p2271
I6
sS'training_block.thisTrialN'
p2272
I0
sg19
S'space'
p2273
sg30
g31
sS'word_presentation.thisTrialN'
p2274
I6
sg43
g12
sS'word_presentation.thisIndex'
p2275
g33
(g133
S'\x06\x00\x00\x00'
p2276
tp2277
Rp2278
sa(dp2279
S'training_block.thisRepN'
p2280
I0
sg165
g2117
sg32
g42
sg2118
Vbind
p2281
sS'experimental_blocks.thisN'
p2282
I3
sg44
g45
sg2121
Vclap
p2283
sg2123
Vclutch
p2284
sg2125
Vwipe
p2285
sS'experimental_blocks.thisIndex'
p2286
g2130
sS'word_presentation.thisRepN'
p2287
I0
sS'experimental_blocks.thisRepN'
p2288
I0
sg46
g51
sg164
g2135
sg2136
g2137
sS'training_block.thisIndex'
p2289
g147
sg166
g2141
sg20
F4.110010205666185
sS'experimental_blocks.thisTrialN'
p2290
I3
sS'training_block.thisN'
p2291
I0
sS'word_presentation.thisN'
p2292
I7
sS'training_block.thisTrialN'
p2293
I0
sg19
S'space'
p2294
sg30
g31
sS'word_presentation.thisTrialN'
p2295
I7
sg43
g12
sS'word_presentation.thisIndex'
p2296
g33
(g133
S'\x07\x00\x00\x00'
p2297
tp2298
Rp2299
sa(dp2300
S'training_block.thisRepN'
p2301
I0
sg165
g2117
sg32
g42
sg2118
Vinch
p2302
sS'experimental_blocks.thisN'
p2303
I3
sg44
g45
sg2121
Vtraipse
p2304
sg2123
Vstep
p2305
sg2125
Vmarch
p2306
sS'experimental_blocks.thisIndex'
p2307
g2130
sS'word_presentation.thisRepN'
p2308
I0
sS'experimental_blocks.thisRepN'
p2309
I0
sg46
g51
sg164
g2135
sg2136
g2204
sS'training_block.thisIndex'
p2310
g147
sg166
g2141
sg20
F9.240870709658338
sS'experimental_blocks.thisTrialN'
p2311
I3
sS'training_block.thisN'
p2312
I0
sS'word_presentation.thisN'
p2313
I8
sS'training_block.thisTrialN'
p2314
I0
sg19
S'space'
p2315
sg30
g31
sS'word_presentation.thisTrialN'
p2316
I8
sg43
g12
sS'word_presentation.thisIndex'
p2317
g33
(g133
S'\x08\x00\x00\x00'
p2318
tp2319
Rp2320
sa(dp2321
S'training_block.thisRepN'
p2322
I0
sg165
g2117
sg32
g42
sg2118
Vshake
p2323
sS'experimental_blocks.thisN'
p2324
I3
sg44
g45
sg2121
Vgrasp
p2325
sg2123
Vsnatch
p2326
sg2125
Vtwine
p2327
sS'experimental_blocks.thisIndex'
p2328
g2130
sS'word_presentation.thisRepN'
p2329
I0
sS'experimental_blocks.thisRepN'
p2330
I0
sg46
g51
sg164
g2135
sg2136
g2137
sS'training_block.thisIndex'
p2331
g147
sg166
g2141
sg20
F6.440192149420909
sS'experimental_blocks.thisTrialN'
p2332
I3
sS'training_block.thisN'
p2333
I0
sS'word_presentation.thisN'
p2334
I9
sS'training_block.thisTrialN'
p2335
I0
sg19
S'space'
p2336
sg30
g31
sS'word_presentation.thisTrialN'
p2337
I9
sg43
g12
sS'word_presentation.thisIndex'
p2338
g33
(g133
S'\t\x00\x00\x00'
p2339
tp2340
Rp2341
sa(dp2342
S'training_block.thisRepN'
p2343
I0
sg165
g2117
sg32
g42
sg2118
Vscuff
p2344
sS'experimental_blocks.thisN'
p2345
I3
sg44
g45
sg2121
Vskate
p2346
sg2123
Vskip
p2347
sg2125
Vhike
p2348
sS'experimental_blocks.thisIndex'
p2349
g2130
sS'word_presentation.thisRepN'
p2350
I0
sS'experimental_blocks.thisRepN'
p2351
I0
sg46
g51
sg164
g2135
sg2136
g2204
sS'training_block.thisIndex'
p2352
g147
sg166
g2141
sg20
F19.790081341096084
sS'experimental_blocks.thisTrialN'
p2353
I3
sS'training_block.thisN'
p2354
I0
sS'word_presentation.thisN'
p2355
I10
sS'training_block.thisTrialN'
p2356
I0
sg19
S'space'
p2357
sg30
g31
sS'word_presentation.thisTrialN'
p2358
I10
sg43
g12
sS'word_presentation.thisIndex'
p2359
g33
(g133
S'\n\x00\x00\x00'
p2360
tp2361
Rp2362
sa(dp2363
S'training_block.thisRepN'
p2364
I0
sg165
g2117
sg32
g42
sg2118
Vramble
p2365
sS'experimental_blocks.thisN'
p2366
I3
sg44
g45
sg2121
Vslip
p2367
sg2123
Vstumble
p2368
sg2125
Vmount
p2369
sS'experimental_blocks.thisIndex'
p2370
g2130
sS'word_presentation.thisRepN'
p2371
I0
sS'experimental_blocks.thisRepN'
p2372
I0
sg46
g51
sg164
g2135
sg2136
g2204
sS'training_block.thisIndex'
p2373
g147
sg166
g2141
sg20
F3.907983849523589
sS'experimental_blocks.thisTrialN'
p2374
I3
sS'training_block.thisN'
p2375
I0
sS'word_presentation.thisN'
p2376
I11
sS'training_block.thisTrialN'
p2377
I0
sg19
S'space'
p2378
sg30
g31
sS'word_presentation.thisTrialN'
p2379
I11
sg43
g12
sS'word_presentation.thisIndex'
p2380
g33
(g133
S'\x0b\x00\x00\x00'
p2381
tp2382
Rp2383
sa(dp2384
S'training_block.thisRepN'
p2385
I0
sg165
g2117
sg32
g42
sg2118
Vtrudge
p2386
sS'experimental_blocks.thisN'
p2387
I3
sg44
g45
sg2121
Vtrip
p2388
sg2123
Vwobble
p2389
sg2125
Vkneel
p2390
sS'experimental_blocks.thisIndex'
p2391
g2130
sS'word_presentation.thisRepN'
p2392
I0
sS'experimental_blocks.thisRepN'
p2393
I0
sg46
g51
sg164
g2135
sg2136
g2204
sS'training_block.thisIndex'
p2394
g147
sg166
g2141
sg20
F101.90036417198826
sS'experimental_blocks.thisTrialN'
p2395
I3
sS'training_block.thisN'
p2396
I0
sS'word_presentation.thisN'
p2397
I12
sS'training_block.thisTrialN'
p2398
I0
sg19
S'space'
p2399
sg30
g31
sS'word_presentation.thisTrialN'
p2400
I12
sg43
g12
sS'word_presentation.thisIndex'
p2401
g33
(g133
S'\x0c\x00\x00\x00'
p2402
tp2403
Rp2404
sa(dp2405
S'training_block.thisRepN'
p2406
I0
sg165
g2117
sg32
g42
sg2118
Vdig
p2407
sS'experimental_blocks.thisN'
p2408
I3
sg44
g45
sg2121
Vpull
p2409
sg2123
Vclean
p2410
sg2125
Vpush
p2411
sS'experimental_blocks.thisIndex'
p2412
g2130
sS'word_presentation.thisRepN'
p2413
I0
sS'experimental_blocks.thisRepN'
p2414
I0
sg46
g51
sg164
g2135
sg2136
g2137
sS'training_block.thisIndex'
p2415
g147
sg166
g2141
sg20
F3.119897413893341
sS'experimental_blocks.thisTrialN'
p2416
I3
sS'training_block.thisN'
p2417
I0
sS'word_presentation.thisN'
p2418
I13
sS'training_block.thisTrialN'
p2419
I0
sg19
S'space'
p2420
sg30
g31
sS'word_presentation.thisTrialN'
p2421
I13
sg43
g12
sS'word_presentation.thisIndex'
p2422
g33
(g133
S'\r\x00\x00\x00'
p2423
tp2424
Rp2425
sa(dp2426
S'training_block.thisRepN'
p2427
I0
sg165
g2117
sg32
g42
sg2118
Vprance
p2428
sS'experimental_blocks.thisN'
p2429
I3
sg44
g45
sg2121
Vglide
p2430
sg2123
Vkick
p2431
sg2125
Vleap
p2432
sS'experimental_blocks.thisIndex'
p2433
g2130
sS'word_presentation.thisRepN'
p2434
I0
sS'experimental_blocks.thisRepN'
p2435
I0
sg46
g51
sg164
g2135
sg2136
g2204
sS'training_block.thisIndex'
p2436
g147
sg166
g2141
sg20
F3.9079597478739743
sS'experimental_blocks.thisTrialN'
p2437
I3
sS'training_block.thisN'
p2438
I0
sS'word_presentation.thisN'
p2439
I14
sS'training_block.thisTrialN'
p2440
I0
sg19
S'space'
p2441
sg30
g31
sS'word_presentation.thisTrialN'
p2442
I14
sg43
g12
sS'word_presentation.thisIndex'
p2443
g33
(g133
S'\x0e\x00\x00\x00'
p2444
tp2445
Rp2446
sa(dp2447
S'training_block.thisRepN'
p2448
I0
sg165
g2117
sg32
g42
sg2118
Vstride
p2449
sS'experimental_blocks.thisN'
p2450
I3
sg44
g45
sg2121
Vcreep
p2451
sg2123
Vcrawl
p2452
sg2125
Vflit
p2453
sS'experimental_blocks.thisIndex'
p2454
g2130
sS'word_presentation.thisRepN'
p2455
I0
sS'experimental_blocks.thisRepN'
p2456
I0
sg46
g51
sg164
g2135
sg2136
g2204
sS'training_block.thisIndex'
p2457
g147
sg166
g2141
sg20
F8.67099627135758
sS'experimental_blocks.thisTrialN'
p2458
I3
sS'training_block.thisN'
p2459
I0
sS'word_presentation.thisN'
p2460
I15
sS'training_block.thisTrialN'
p2461
I0
sg19
S'space'
p2462
sg30
g31
sS'word_presentation.thisTrialN'
p2463
I15
sg43
g12
sS'word_presentation.thisIndex'
p2464
g33
(g133
S'\x0f\x00\x00\x00'
p2465
tp2466
Rp2467
sa(dp2468
S'training_block.thisRepN'
p2469
I0
sg165
g2117
sg32
g42
sg2118
Vtrot
p2470
sS'experimental_blocks.thisN'
p2471
I3
sg44
g45
sg2121
Vroll
p2472
sg2123
Vbounce
p2473
sg2125
Vwander
p2474
sS'experimental_blocks.thisIndex'
p2475
g2130
sS'word_presentation.thisRepN'
p2476
I0
sS'experimental_blocks.thisRepN'
p2477
I0
sg46
g51
sg164
g2135
sg2136
g2204
sS'training_block.thisIndex'
p2478
g147
sg166
g2141
sg20
F3.6563523455861286
sS'experimental_blocks.thisTrialN'
p2479
I3
sS'training_block.thisN'
p2480
I0
sS'word_presentation.thisN'
p2481
I16
sS'training_block.thisTrialN'
p2482
I0
sg19
S'space'
p2483
sg30
g31
sS'word_presentation.thisTrialN'
p2484
I16
sg43
g12
sS'word_presentation.thisIndex'
p2485
g33
(g133
S'\x10\x00\x00\x00'
p2486
tp2487
Rp2488
sa(dp2489
S'training_block.thisRepN'
p2490
I0
sg165
g2117
sg32
g42
sg2118
Vtug
p2491
sS'experimental_blocks.thisN'
p2492
I3
sg44
g45
sg2121
Vchop
p2493
sg2123
Vcut
p2494
sg2125
Vdunk
p2495
sS'experimental_blocks.thisIndex'
p2496
g2130
sS'word_presentation.thisRepN'
p2497
I0
sS'experimental_blocks.thisRepN'
p2498
I0
sg46
g51
sg164
g2135
sg2136
g2137
sS'training_block.thisIndex'
p2499
g147
sg166
g2141
sg20
F3.4892311059848
sS'experimental_blocks.thisTrialN'
p2500
I3
sS'training_block.thisN'
p2501
I0
sS'word_presentation.thisN'
p2502
I17
sS'training_block.thisTrialN'
p2503
I0
sg19
S'space'
p2504
sg30
g31
sS'word_presentation.thisTrialN'
p2505
I17
sg43
g12
sS'word_presentation.thisIndex'
p2506
g33
(g133
S'\x11\x00\x00\x00'
p2507
tp2508
Rp2509
sa(dp2510
S'training_block.thisRepN'
p2511
I0
sg165
g2117
sg32
g42
sg2118
Vknock
p2512
sS'experimental_blocks.thisN'
p2513
I3
sg44
g45
sg2121
Vscoop
p2514
sg2123
Vnip
p2515
sg2125
Vwrap
p2516
sS'experimental_blocks.thisIndex'
p2517
g2130
sS'word_presentation.thisRepN'
p2518
I0
sS'experimental_blocks.thisRepN'
p2519
I0
sg46
g51
sg164
g2135
sg2136
g2137
sS'training_block.thisIndex'
p2520
g147
sg166
g2141
sg20
F7.094370605153017
sS'experimental_blocks.thisTrialN'
p2521
I3
sS'training_block.thisN'
p2522
I0
sS'word_presentation.thisN'
p2523
I18
sS'training_block.thisTrialN'
p2524
I0
sg19
S'space'
p2525
sg30
g31
sS'word_presentation.thisTrialN'
p2526
I18
sg43
g12
sS'word_presentation.thisIndex'
p2527
g33
(g133
S'\x12\x00\x00\x00'
p2528
tp2529
Rp2530
sa(dp2531
S'training_block.thisRepN'
p2532
I0
sg165
g2117
sg32
g42
sg2118
Vwash
p2533
sS'experimental_blocks.thisN'
p2534
I3
sg44
g45
sg2121
Vgrab
p2535
sg2123
Vwhip
p2536
sg2125
Vpat
p2537
sS'experimental_blocks.thisIndex'
p2538
g2130
sS'word_presentation.thisRepN'
p2539
I0
sS'experimental_blocks.thisRepN'
p2540
I0
sg46
g51
sg164
g2135
sg2136
g2137
sS'training_block.thisIndex'
p2541
g147
sg166
g2141
sg20
F7.296176885567547
sS'experimental_blocks.thisTrialN'
p2542
I3
sS'training_block.thisN'
p2543
I0
sS'word_presentation.thisN'
p2544
I19
sS'training_block.thisTrialN'
p2545
I0
sg19
S'space'
p2546
sg30
g31
sS'word_presentation.thisTrialN'
p2547
I19
sg43
g12
sS'word_presentation.thisIndex'
p2548
g33
(g133
S'\x13\x00\x00\x00'
p2549
tp2550
Rp2551
sa(dp2552
S'training_block.thisRepN'
p2553
I0
sg165
g2117
sg32
g42
sg2118
Vstomp
p2554
sS'experimental_blocks.thisN'
p2555
I3
sg44
g45
sg2121
Vsprint
p2556
sg2123
Vtrek
p2557
sg2125
Vclimb
p2558
sS'experimental_blocks.thisIndex'
p2559
g2130
sS'word_presentation.thisRepN'
p2560
I0
sS'experimental_blocks.thisRepN'
p2561
I0
sg46
g51
sg164
g2135
sg2136
g2204
sS'training_block.thisIndex'
p2562
g147
sg166
g2141
sg20
F10.750533298405571
sS'experimental_blocks.thisTrialN'
p2563
I3
sS'training_block.thisN'
p2564
I0
sS'word_presentation.thisN'
p2565
I20
sS'training_block.thisTrialN'
p2566
I0
sg19
S'space'
p2567
sg30
g31
sS'word_presentation.thisTrialN'
p2568
I20
sg43
g12
sS'word_presentation.thisIndex'
p2569
g33
(g133
S'\x14\x00\x00\x00'
p2570
tp2571
Rp2572
sa(dp2573
S'training_block.thisRepN'
p2574
I0
sg165
g2117
sg32
g42
sg2118
Vbash
p2575
sS'experimental_blocks.thisN'
p2576
I3
sg44
g45
sg2121
Vlift
p2577
sg2123
Vseize
p2578
sg2125
Vbrush
p2579
sS'experimental_blocks.thisIndex'
p2580
g2130
sS'word_presentation.thisRepN'
p2581
I0
sS'experimental_blocks.thisRepN'
p2582
I0
sg46
g51
sg164
g2135
sg2136
g2137
sS'training_block.thisIndex'
p2583
g147
sg166
g2141
sg20
F4.444006136833195
sS'experimental_blocks.thisTrialN'
p2584
I3
sS'training_block.thisN'
p2585
I0
sS'word_presentation.thisN'
p2586
I21
sS'training_block.thisTrialN'
p2587
I0
sg19
S'space'
p2588
sg30
g31
sS'word_presentation.thisTrialN'
p2589
I21
sg43
g12
sS'word_presentation.thisIndex'
p2590
g33
(g133
S'\x15\x00\x00\x00'
p2591
tp2592
Rp2593
sa(dp2594
S'training_block.thisRepN'
p2595
I0
sg165
g2117
sg32
g42
sg2118
Vhack
p2596
sS'experimental_blocks.thisN'
p2597
I3
sg44
g45
sg2121
Vpinch
p2598
sg2123
Vcatch
p2599
sg2125
Vclick
p2600
sS'experimental_blocks.thisIndex'
p2601
g2130
sS'word_presentation.thisRepN'
p2602
I0
sS'experimental_blocks.thisRepN'
p2603
I0
sg46
g51
sg164
g2135
sg2136
g2137
sS'training_block.thisIndex'
p2604
g147
sg166
g2141
sg20
F9.107180829942081
sS'experimental_blocks.thisTrialN'
p2605
I3
sS'training_block.thisN'
p2606
I0
sS'word_presentation.thisN'
p2607
I22
sS'training_block.thisTrialN'
p2608
I0
sg19
S'space'
p2609
sg30
g31
sS'word_presentation.thisTrialN'
p2610
I22
sg43
g12
sS'word_presentation.thisIndex'
p2611
g33
(g133
S'\x16\x00\x00\x00'
p2612
tp2613
Rp2614
sa(dp2615
S'training_block.thisRepN'
p2616
I0
sg165
g2117
sg32
g42
sg2118
Vwalk
p2617
sS'experimental_blocks.thisN'
p2618
I3
sg44
g45
sg2121
Vwade
p2619
sg2123
Vslide
p2620
sg2125
Vlimp
p2621
sS'experimental_blocks.thisIndex'
p2622
g2130
sS'word_presentation.thisRepN'
p2623
I0
sS'experimental_blocks.thisRepN'
p2624
I0
sg46
g51
sg164
g2135
sg2136
g2204
sS'training_block.thisIndex'
p2625
g147
sg166
g2141
sg20
F9.140507485933995
sS'experimental_blocks.thisTrialN'
p2626
I3
sS'training_block.thisN'
p2627
I0
sS'word_presentation.thisN'
p2628
I23
sS'training_block.thisTrialN'
p2629
I0
sg19
S'space'
p2630
sg30
g31
sS'word_presentation.thisTrialN'
p2631
I23
sg43
g12
sS'word_presentation.thisIndex'
p2632
g33
(g133
S'\x17\x00\x00\x00'
p2633
tp2634
Rp2635
sa(dp2636
S'training_block.thisRepN'
p2637
I0
sg165
g2117
sg32
g42
sg2118
Vbraid
p2638
sS'experimental_blocks.thisN'
p2639
I3
sg44
g45
sg2121
Vrub
p2640
sg2123
Vfile
p2641
sg2125
Vtoss
p2642
sS'experimental_blocks.thisIndex'
p2643
g2130
sS'word_presentation.thisRepN'
p2644
I0
sS'experimental_blocks.thisRepN'
p2645
I0
sg46
g51
sg164
g2135
sg2136
g2137
sS'training_block.thisIndex'
p2646
g147
sg166
g2141
sg20
F10.56599486279265
sS'experimental_blocks.thisTrialN'
p2647
I3
sS'training_block.thisN'
p2648
I0
sS'word_presentation.thisN'
p2649
I24
sS'training_block.thisTrialN'
p2650
I0
sg19
S'space'
p2651
sg30
g31
sS'word_presentation.thisTrialN'
p2652
I24
sg43
g12
sS'word_presentation.thisIndex'
p2653
g33
(g133
S'\x18\x00\x00\x00'
p2654
tp2655
Rp2656
sa(dp2657
S'training_block.thisRepN'
p2658
I0
sg165
g2117
sg32
g42
sg2118
Vsqueeze
p2659
sS'experimental_blocks.thisN'
p2660
I3
sg44
g45
sg2121
Vstab
p2661
sg2123
Vscrape
p2662
sg2125
Vswitch
p2663
sS'experimental_blocks.thisIndex'
p2664
g2130
sS'word_presentation.thisRepN'
p2665
I0
sS'experimental_blocks.thisRepN'
p2666
I0
sg46
g51
sg164
g2135
sg2136
g2137
sS'training_block.thisIndex'
p2667
g147
sg166
g2141
sg20
F14.57508553122716
sS'experimental_blocks.thisTrialN'
p2668
I3
sS'training_block.thisN'
p2669
I0
sS'word_presentation.thisN'
p2670
I25
sS'training_block.thisTrialN'
p2671
I0
sg19
S'space'
p2672
sg30
g31
sS'word_presentation.thisTrialN'
p2673
I25
sg43
g12
sS'word_presentation.thisIndex'
p2674
g33
(g133
S'\x19\x00\x00\x00'
p2675
tp2676
Rp2677
sa(dp2678
S'training_block.thisRepN'
p2679
I0
sg165
g2117
sg32
g42
sg2118
Vflee
p2680
sS'experimental_blocks.thisN'
p2681
I3
sg44
g45
sg2121
Vstamp
p2682
sg2123
Vslither
p2683
sg2125
Vtread
p2684
sS'experimental_blocks.thisIndex'
p2685
g2130
sS'word_presentation.thisRepN'
p2686
I0
sS'experimental_blocks.thisRepN'
p2687
I0
sg46
g51
sg164
g2135
sg2136
g2204
sS'training_block.thisIndex'
p2688
g147
sg166
g2141
sg20
F48.5355058798159
sS'experimental_blocks.thisTrialN'
p2689
I3
sS'training_block.thisN'
p2690
I0
sS'word_presentation.thisN'
p2691
I26
sS'training_block.thisTrialN'
p2692
I0
sg19
S'space'
p2693
sg30
g31
sS'word_presentation.thisTrialN'
p2694
I26
sg43
g12
sS'word_presentation.thisIndex'
p2695
g33
(g133
S'\x1a\x00\x00\x00'
p2696
tp2697
Rp2698
sa(dp2699
S'training_block.thisRepN'
p2700
I0
sg165
g2117
sg32
g42
sg2118
Vplod
p2701
sS'experimental_blocks.thisN'
p2702
I3
sg44
g45
sg2121
Vdance
p2703
sg2123
Vjog
p2704
sg2125
Vpace
p2705
sS'experimental_blocks.thisIndex'
p2706
g2130
sS'word_presentation.thisRepN'
p2707
I0
sS'experimental_blocks.thisRepN'
p2708
I0
sg46
g51
sg164
g2135
sg2136
g2204
sS'training_block.thisIndex'
p2709
g147
sg166
g2141
sg20
F6.089312024314495
sS'experimental_blocks.thisTrialN'
p2710
I3
sS'training_block.thisN'
p2711
I0
sS'word_presentation.thisN'
p2712
I27
sS'training_block.thisTrialN'
p2713
I0
sg19
S'space'
p2714
sg30
g31
sS'word_presentation.thisTrialN'
p2715
I27
sg43
g12
sS'word_presentation.thisIndex'
p2716
g33
(g133
S'\x1b\x00\x00\x00'
p2717
tp2718
Rp2719
sa(dp2720
S'training_block.thisRepN'
p2721
I0
sg165
g2117
sS'experimental_blocks.thisRepN'
p2722
I0
sS'experimental_blocks.thisTrialN'
p2723
I3
sS'training_block.thisN'
p2724
I0
sg44
g45
sg43
g12
sg32
g42
sS'training_block.thisTrialN'
p2725
I0
sg46
g51
sS'experimental_blocks.thisN'
p2726
I3
sg166
g2141
sg30
g31
sS'experimental_blocks.thisIndex'
p2727
g2130
sg164
g2135
sS'training_block.thisIndex'
p2728
g147
sa(dp2729
S'training_block.thisRepN'
p2730
I0
sS'training_block.thisN'
p2731
I0
sg44
g45
sg46
g51
sg32
g42
sS'training_block.thisTrialN'
p2732
I0
sg43
g12
sg30
g31
sg25
S'space'
p2733
sg26
F2.4659896078428574
sS'training_block.thisIndex'
p2734
g147
sasS'loops'
p2735
(lp2736
g56
ag0
(g54
g2
Ntp2737
Rp2738
(dp2739
g58
Nsg59
(lp2740
sg60
I374820848
sg11
S'word_presentation_training'
p2741
sg6
I-1
sg62
I1
sg27
I01
sg28
g29
sg63
g0
(g64
g65
(dp2742
g67
g68
(g69
g70
g71
g72
tp2743
Rp2744
(I1
(I4
I1
tp2745
g78
I00
S'\x00\x00\x80?\x00\x00\x80?\x00\x00\x80?\x00\x00\x80?'
p2746
S'\x00\x00\x00\x00'
p2747
Ntp2748
bsg20
g68
(g69
g70
g71
g72
tp2749
Rp2750
(I1
(I4
I1
tp2751
g78
I00
S'\xfa\xef+B\xa9c\x90@\x84n\x98@\x96\x81\xe6A'
p2752
S'\x00\x00\x00\x00'
p2753
Ntp2754
bsg107
g68
(g69
g70
g71
g72
tp2755
Rp2756
(I1
(I4
I1
tp2757
g78
I00
S'\x00\x00\x00\x00\x00\x00\x00@\x00\x00@@\x00\x00\x80?'
p2758
S'\x00\x00\x00\x00'
p2759
Ntp2760
bsg19
g90
(g70
(I0
tp2761
g72
tp2762
Rp2763
(I1
(I4
I1
tp2764
g97
I00
(lp2765
g180
ag226
ag246
ag206
atp2766
bstp2767
Rp2768
(dp2769
g117
(dp2770
g67
I01
sg20
I01
sg107
I01
sg19
I00
ssg119
g2738
sg120
(lp2771
g67
ag107
ag19
ag20
asg122
(lp2772
I4
aI1
asbsg124
g125
sg126
g90
(g70
(I0
tp2773
g72
tp2774
Rp2775
(I1
(I4
I1
tp2776
g133
I00
S'\x00\x00\x00\x00\x03\x00\x00\x00\x01\x00\x00\x00\x02\x00\x00\x00'
p2777
tp2778
bsg138
I01
sg139
I1
sg140
I-1
sg141
(lp2779
ccollections
OrderedDict
p2780
((lp2781
(lp2782
g158
ag188
aa(lp2783
g159
ag197
aa(lp2784
g160
ag189
aa(lp2785
g161
ag195
aa(lp2786
g162
ag194
aa(lp2787
g163
ag177
aatp2788
Rp2789
ag2780
((lp2790
(lp2791
g158
ag229
aa(lp2792
g159
ag197
aa(lp2793
g160
ag230
aa(lp2794
g161
ag236
aa(lp2795
g162
ag235
aa(lp2796
g163
ag223
aatp2797
Rp2798
ag2780
((lp2799
(lp2800
g158
ag249
aa(lp2801
g159
ag197
aa(lp2802
g160
ag250
aa(lp2803
g161
ag256
aa(lp2804
g162
ag255
aa(lp2805
g163
ag243
aatp2806
Rp2807
ag2780
((lp2808
(lp2809
g158
ag209
aa(lp2810
g159
ag197
aa(lp2811
g160
ag210
aa(lp2812
g161
ag216
aa(lp2813
g162
ag215
aa(lp2814
g163
ag203
aatp2815
Rp2816
asg143
Nsg144
g254
sg148
I4
sg149
I0
sg150
I4
sbag0
(g54
g2
Ntp2817
Rp2818
(dp2819
g58
Nsg59
(lp2820
sg60
I374820848
sg11
S'experimental_blocks'
p2821
sg6
I-1
sg62
I1
sg27
I01
sg28
g29
sg63
g0
(g64
g65
(dp2822
g67
g68
(g69
g70
g71
g72
tp2823
Rp2824
(I1
(I4
I1
tp2825
g78
I00
S'\x00\x00\x80?\x00\x00\x80?\x00\x00\x80?\x00\x00\x80?'
p2826
S'\x00\x00\x00\x00'
p2827
Ntp2828
bsg107
g68
(g69
g70
g71
g72
tp2829
Rp2830
(I1
(I4
I1
tp2831
g78
I00
S'\x00\x00\x80?\x00\x00@@\x00\x00\x00@\x00\x00\x00\x00'
p2832
S'\x00\x00\x00\x00'
p2833
Ntp2834
bstp2835
Rp2836
(dp2837
g117
(dp2838
g67
I01
sg107
I01
ssg119
g2818
sg120
(lp2839
g67
ag107
asg122
(lp2840
I4
aI1
asbsg124
g125
sg126
g90
(g70
(I0
tp2841
g72
tp2842
Rp2843
(I1
(I4
I1
tp2844
g133
I00
S'\x03\x00\x00\x00\x00\x00\x00\x00\x02\x00\x00\x00\x01\x00\x00\x00'
p2845
tp2846
bsg138
I01
sg139
I1
sg140
I-1
sg141
(lp2847
g2780
((lp2848
(lp2849
g164
ag903
aa(lp2850
g165
ag885
aa(lp2851
g166
ag909
aatp2852
Rp2853
ag2780
((lp2854
(lp2855
g164
ag2135
aa(lp2856
g165
ag2117
aa(lp2857
g166
ag2141
aatp2858
Rp2859
ag2780
((lp2860
(lp2861
g164
ag1519
aa(lp2862
g165
ag1501
aa(lp2863
g166
ag1525
aatp2864
Rp2865
ag2780
((lp2866
(lp2867
g164
ag287
aa(lp2868
g165
ag269
aa(lp2869
g166
ag293
aatp2870
Rp2871
asg143
Nsg144
g2130
sg148
I4
sg149
I0
sg150
I4
sbag0
(g54
g2
Ntp2872
Rp2873
(dp2874
g58
Nsg59
(lp2875
sg60
I374820848
sg11
S'word_presentation'
p2876
sg6
I-1
sg62
I1
sg27
I01
sg28
g29
sg63
g0
(g64
g65
(dp2877
g67
g68
(g69
g70
g71
g72
tp2878
Rp2879
(I1
(I28
I1
tp2880
g78
I00
S'\x00\x00\x80?\x00\x00\x80?\x00\x00\x80?\x00\x00\x80?\x00\x00\x80?\x00\x00\x80?\x00\x00\x80?\x00\x00\x80?\x00\x00\x80?\x00\x00\x80?\x00\x00\x80?\x00\x00\x80?\x00\x00\x80?\x00\x00\x80?\x00\x00\x80?\x00\x00\x80?\x00\x00\x80?\x00\x00\x80?\x00\x00\x80?\x00\x00\x80?\x00\x00\x80?\x00\x00\x80?\x00\x00\x80?\x00\x00\x80?\x00\x00\x80?\x00\x00\x80?\x00\x00\x80?\x00\x00\x80?'
p2881
S'\x00\x00\x00\x00\x00\x00\x00\x00\x00\x00\x00\x00\x00\x00\x00\x00\x00\x00\x00\x00\x00\x00\x00\x00\x00\x00\x00\x00'
p2882
Ntp2883
bsg20
g68
(g69
g70
g71
g72
tp2884
Rp2885
(I1
(I28
I1
tp2886
g78
I00
S'\xc7\x90\x0fA\xdc\xa5\xb1@\xe7R\x88@*_GA\xb2[\x9e@`\x080A\x12^C@\xf65\xde@\xe2X\xf6@\xa4\xb7\x11A\xc0esA]la@\xadd\xfe@\xac^\x05AP\xc5f@(\x037A\x123\x15A\xd3\xb5\xa3@r}\x03AD\xdf-A\xba\xa2\xfa@[5\x8cA\xdb+\xfb@\xb3\n\x84@\xdeP\x08B\xdc\x82\x19@j\xe6\xd9@\xc0<^@'
p2887
S'\x00\x00\x00\x00\x00\x00\x00\x00\x00\x00\x00\x00\x00\x00\x00\x00\x00\x00\x00\x00\x00\x00\x00\x00\x00\x00\x00\x00'
p2888
Ntp2889
bsg107
g68
(g69
g70
g71
g72
tp2890
Rp2891
(I1
(I28
I1
tp2892
g78
I00
S'\x00\x00\x00\x00\x00\x00\x80?\x00\x00\x00@\x00\x00@@\x00\x00\x80@\x00\x00\xa0@\x00\x00\xc0@\x00\x00\xe0@\x00\x00\x00A\x00\x00\x10A\x00\x00 A\x00\x000A\x00\x00@A\x00\x00PA\x00\x00`A\x00\x00pA\x00\x00\x80A\x00\x00\x88A\x00\x00\x90A\x00\x00\x98A\x00\x00\xa0A\x00\x00\xa8A\x00\x00\xb0A\x00\x00\xb8A\x00\x00\xc0A\x00\x00\xc8A\x00\x00\xd0A\x00\x00\xd8A'
p2893
S'\x00\x00\x00\x00\x00\x00\x00\x00\x00\x00\x00\x00\x00\x00\x00\x00\x00\x00\x00\x00\x00\x00\x00\x00\x00\x00\x00\x00'
p2894
Ntp2895
bsg19
g90
(g70
(I0
tp2896
g72
tp2897
Rp2898
(I1
(I28
I1
tp2899
g97
I00
(lp2900
g298
ag319
ag341
ag362
ag383
ag404
ag425
ag446
ag467
ag488
ag509
ag530
ag551
ag572
ag593
ag614
ag635
ag656
ag677
ag698
ag719
ag740
ag761
ag782
ag803
ag824
ag845
ag866
atp2901
bstp2902
Rp2903
(dp2904
g117
(dp2905
g67
I01
sg20
I01
sg107
I01
sg19
I00
ssg119
g2873
sg120
(lp2906
g67
ag107
ag19
ag20
asg122
(lp2907
I28
aI1
asbsg124
S'sequential'
p2908
sg126
g90
(g70
(I0
tp2909
g72
tp2910
Rp2911
(I1
(I28
I1
tp2912
g133
I00
S'\x00\x00\x00\x00\x01\x00\x00\x00\x02\x00\x00\x00\x03\x00\x00\x00\x04\x00\x00\x00\x05\x00\x00\x00\x06\x00\x00\x00\x07\x00\x00\x00\x08\x00\x00\x00\t\x00\x00\x00\n\x00\x00\x00\x0b\x00\x00\x00\x0c\x00\x00\x00\r\x00\x00\x00\x0e\x00\x00\x00\x0f\x00\x00\x00\x10\x00\x00\x00\x11\x00\x00\x00\x12\x00\x00\x00\x13\x00\x00\x00\x14\x00\x00\x00\x15\x00\x00\x00\x16\x00\x00\x00\x17\x00\x00\x00\x18\x00\x00\x00\x19\x00\x00\x00\x1a\x00\x00\x00\x1b\x00\x00\x00'
p2913
tp2914
bsg138
I01
sg139
I1
sg140
I-1
sg141
(lp2915
g2780
((lp2916
(lp2917
g288
ag289
aa(lp2918
g273
ag274
aa(lp2919
g277
ag278
aa(lp2920
g275
ag276
aa(lp2921
g270
ag271
aatp2922
Rp2923
ag2780
((lp2924
(lp2925
g288
ag289
aa(lp2926
g273
ag308
aa(lp2927
g277
ag310
aa(lp2928
g275
ag309
aa(lp2929
g270
ag306
aatp2930
Rp2931
ag2780
((lp2932
(lp2933
g288
ag335
aa(lp2934
g273
ag329
aa(lp2935
g277
ag331
aa(lp2936
g275
ag330
aa(lp2937
g270
ag327
aatp2938
Rp2939
ag2780
((lp2940
(lp2941
g288
ag335
aa(lp2942
g273
ag351
aa(lp2943
g277
ag353
aa(lp2944
g275
ag352
aa(lp2945
g270
ag349
aatp2946
Rp2947
ag2780
((lp2948
(lp2949
g288
ag335
aa(lp2950
g273
ag372
aa(lp2951
g277
ag374
aa(lp2952
g275
ag373
aa(lp2953
g270
ag370
aatp2954
Rp2955
ag2780
((lp2956
(lp2957
g288
ag289
aa(lp2958
g273
ag393
aa(lp2959
g277
ag395
aa(lp2960
g275
ag394
aa(lp2961
g270
ag391
aatp2962
Rp2963
ag2780
((lp2964
(lp2965
g288
ag335
aa(lp2966
g273
ag414
aa(lp2967
g277
ag416
aa(lp2968
g275
ag415
aa(lp2969
g270
ag412
aatp2970
Rp2971
ag2780
((lp2972
(lp2973
g288
ag335
aa(lp2974
g273
ag435
aa(lp2975
g277
ag437
aa(lp2976
g275
ag436
aa(lp2977
g270
ag433
aatp2978
Rp2979
ag2780
((lp2980
(lp2981
g288
ag289
aa(lp2982
g273
ag456
aa(lp2983
g277
ag458
aa(lp2984
g275
ag457
aa(lp2985
g270
ag454
aatp2986
Rp2987
ag2780
((lp2988
(lp2989
g288
ag289
aa(lp2990
g273
ag477
aa(lp2991
g277
ag479
aa(lp2992
g275
ag478
aa(lp2993
g270
ag475
aatp2994
Rp2995
ag2780
((lp2996
(lp2997
g288
ag335
aa(lp2998
g273
ag498
aa(lp2999
g277
ag500
aa(lp3000
g275
ag499
aa(lp3001
g270
ag496
aatp3002
Rp3003
ag2780
((lp3004
(lp3005
g288
ag335
aa(lp3006
g273
ag519
aa(lp3007
g277
ag521
aa(lp3008
g275
ag520
aa(lp3009
g270
ag517
aatp3010
Rp3011
ag2780
((lp3012
(lp3013
g288
ag289
aa(lp3014
g273
ag540
aa(lp3015
g277
ag542
aa(lp3016
g275
ag541
aa(lp3017
g270
ag538
aatp3018
Rp3019
ag2780
((lp3020
(lp3021
g288
ag335
aa(lp3022
g273
ag561
aa(lp3023
g277
ag563
aa(lp3024
g275
ag562
aa(lp3025
g270
ag559
aatp3026
Rp3027
ag2780
((lp3028
(lp3029
g288
ag289
aa(lp3030
g273
ag582
aa(lp3031
g277
ag584
aa(lp3032
g275
ag583
aa(lp3033
g270
ag580
aatp3034
Rp3035
ag2780
((lp3036
(lp3037
g288
ag289
aa(lp3038
g273
ag603
aa(lp3039
g277
ag605
aa(lp3040
g275
ag604
aa(lp3041
g270
ag601
aatp3042
Rp3043
ag2780
((lp3044
(lp3045
g288
ag335
aa(lp3046
g273
ag624
aa(lp3047
g277
ag626
aa(lp3048
g275
ag625
aa(lp3049
g270
ag622
aatp3050
Rp3051
ag2780
((lp3052
(lp3053
g288
ag335
aa(lp3054
g273
ag645
aa(lp3055
g277
ag647
aa(lp3056
g275
ag646
aa(lp3057
g270
ag643
aatp3058
Rp3059
ag2780
((lp3060
(lp3061
g288
ag289
aa(lp3062
g273
ag666
aa(lp3063
g277
ag668
aa(lp3064
g275
ag667
aa(lp3065
g270
ag664
aatp3066
Rp3067
ag2780
((lp3068
(lp3069
g288
ag335
aa(lp3070
g273
ag687
aa(lp3071
g277
ag689
aa(lp3072
g275
ag688
aa(lp3073
g270
ag685
aatp3074
Rp3075
ag2780
((lp3076
(lp3077
g288
ag289
aa(lp3078
g273
ag708
aa(lp3079
g277
ag710
aa(lp3080
g275
ag709
aa(lp3081
g270
ag706
aatp3082
Rp3083
ag2780
((lp3084
(lp3085
g288
ag289
aa(lp3086
g273
ag729
aa(lp3087
g277
ag731
aa(lp3088
g275
ag730
aa(lp3089
g270
ag727
aatp3090
Rp3091
ag2780
((lp3092
(lp3093
g288
ag289
aa(lp3094
g273
ag750
aa(lp3095
g277
ag752
aa(lp3096
g275
ag751
aa(lp3097
g270
ag748
aatp3098
Rp3099
ag2780
((lp3100
(lp3101
g288
ag335
aa(lp3102
g273
ag771
aa(lp3103
g277
ag773
aa(lp3104
g275
ag772
aa(lp3105
g270
ag769
aatp3106
Rp3107
ag2780
((lp3108
(lp3109
g288
ag335
aa(lp3110
g273
ag792
aa(lp3111
g277
ag794
aa(lp3112
g275
ag793
aa(lp3113
g270
ag790
aatp3114
Rp3115
ag2780
((lp3116
(lp3117
g288
ag289
aa(lp3118
g273
ag813
aa(lp3119
g277
ag815
aa(lp3120
g275
ag814
aa(lp3121
g270
ag811
aatp3122
Rp3123
ag2780
((lp3124
(lp3125
g288
ag289
aa(lp3126
g273
ag834
aa(lp3127
g277
ag836
aa(lp3128
g275
ag835
aa(lp3129
g270
ag832
aatp3130
Rp3131
ag2780
((lp3132
(lp3133
g288
ag335
aa(lp3134
g273
ag855
aa(lp3135
g277
ag857
aa(lp3136
g275
ag856
aa(lp3137
g270
ag853
aatp3138
Rp3139
asg143
Nsg144
g871
sg148
I28
sg149
I0
sg150
I28
sbag0
(g54
g2
Ntp3140
Rp3141
(dp3142
g58
Nsg59
(lp3143
sg60
I374820848
sg11
g2876
sg6
I-1
sg62
I1
sg27
I01
sg28
g29
sg63
g0
(g64
g65
(dp3144
g67
g68
(g69
g70
g71
g72
tp3145
Rp3146
(I1
(I28
I1
tp3147
g78
I00
S'\x00\x00\x80?\x00\x00\x80?\x00\x00\x80?\x00\x00\x80?\x00\x00\x80?\x00\x00\x80?\x00\x00\x80?\x00\x00\x80?\x00\x00\x80?\x00\x00\x80?\x00\x00\x80?\x00\x00\x80?\x00\x00\x80?\x00\x00\x80?\x00\x00\x80?\x00\x00\x80?\x00\x00\x80?\x00\x00\x80?\x00\x00\x80?\x00\x00\x80?\x00\x00\x80?\x00\x00\x80?\x00\x00\x80?\x00\x00\x80?\x00\x00\x80?\x00\x00\x80?\x00\x00\x80?\x00\x00\x80?'
p3148
S'\x00\x00\x00\x00\x00\x00\x00\x00\x00\x00\x00\x00\x00\x00\x00\x00\x00\x00\x00\x00\x00\x00\x00\x00\x00\x00\x00\x00'
p3149
Ntp3150
bsg20
g68
(g69
g70
g71
g72
tp3151
Rp3152
(I1
(I28
I1
tp3153
g78
I00
S"\x07\xa9G@sD\xf5@\xb9Ln@l'\xa3@\x81\x07M@w\xf4\x82@\x0c\xfb\x91@n\x0e)A\xa8\x7f\xbd@\x8f\x1b\x9b@\xad\x05\x00A\x12\x1eGA3\x92\x9a@\x10\x80b@\xf1\xc4\x0eA\xf6\xe8-@CG7Ay\x96F@\xed\x14\xeb@\xfc>\x12AQ\x97U@ A|@8R}@\xd1m&@1D\x9d@r0\xa4@\xb2\x0c\x13A\x85;\x1bB"
p3154
S'\x00\x00\x00\x00\x00\x00\x00\x00\x00\x00\x00\x00\x00\x00\x00\x00\x00\x00\x00\x00\x00\x00\x00\x00\x00\x00\x00\x00'
p3155
Ntp3156
bsg107
g68
(g69
g70
g71
g72
tp3157
Rp3158
(I1
(I28
I1
tp3159
g78
I00
S'\x00\x00\x00\x00\x00\x00\x80?\x00\x00\x00@\x00\x00@@\x00\x00\x80@\x00\x00\xa0@\x00\x00\xc0@\x00\x00\xe0@\x00\x00\x00A\x00\x00\x10A\x00\x00 A\x00\x000A\x00\x00@A\x00\x00PA\x00\x00`A\x00\x00pA\x00\x00\x80A\x00\x00\x88A\x00\x00\x90A\x00\x00\x98A\x00\x00\xa0A\x00\x00\xa8A\x00\x00\xb0A\x00\x00\xb8A\x00\x00\xc0A\x00\x00\xc8A\x00\x00\xd0A\x00\x00\xd8A'
p3160
S'\x00\x00\x00\x00\x00\x00\x00\x00\x00\x00\x00\x00\x00\x00\x00\x00\x00\x00\x00\x00\x00\x00\x00\x00\x00\x00\x00\x00'
p3161
Ntp3162
bsg19
g90
(g70
(I0
tp3163
g72
tp3164
Rp3165
(I1
(I28
I1
tp3166
g97
I00
(lp3167
g914
ag935
ag957
ag978
ag999
ag1020
ag1041
ag1062
ag1083
ag1104
ag1125
ag1146
ag1167
ag1188
ag1209
ag1230
ag1251
ag1272
ag1293
ag1314
ag1335
ag1356
ag1377
ag1398
ag1419
ag1440
ag1461
ag1482
atp3168
bstp3169
Rp3170
(dp3171
g117
(dp3172
g67
I01
sg20
I01
sg107
I01
sg19
I00
ssg119
g3141
sg120
(lp3173
g67
ag107
ag19
ag20
asg122
(lp3174
I28
aI1
asbsg124
g2908
sg126
g90
(g70
(I0
tp3175
g72
tp3176
Rp3177
(I1
(I28
I1
tp3178
g133
I00
S'\x00\x00\x00\x00\x01\x00\x00\x00\x02\x00\x00\x00\x03\x00\x00\x00\x04\x00\x00\x00\x05\x00\x00\x00\x06\x00\x00\x00\x07\x00\x00\x00\x08\x00\x00\x00\t\x00\x00\x00\n\x00\x00\x00\x0b\x00\x00\x00\x0c\x00\x00\x00\r\x00\x00\x00\x0e\x00\x00\x00\x0f\x00\x00\x00\x10\x00\x00\x00\x11\x00\x00\x00\x12\x00\x00\x00\x13\x00\x00\x00\x14\x00\x00\x00\x15\x00\x00\x00\x16\x00\x00\x00\x17\x00\x00\x00\x18\x00\x00\x00\x19\x00\x00\x00\x1a\x00\x00\x00\x1b\x00\x00\x00'
p3179
tp3180
bsg138
I01
sg139
I1
sg140
I-1
sg141
(lp3181
g2780
((lp3182
(lp3183
g904
ag905
aa(lp3184
g889
ag890
aa(lp3185
g893
ag894
aa(lp3186
g891
ag892
aa(lp3187
g886
ag887
aatp3188
Rp3189
ag2780
((lp3190
(lp3191
g904
ag905
aa(lp3192
g889
ag924
aa(lp3193
g893
ag926
aa(lp3194
g891
ag925
aa(lp3195
g886
ag922
aatp3196
Rp3197
ag2780
((lp3198
(lp3199
g904
ag951
aa(lp3200
g889
ag945
aa(lp3201
g893
ag947
aa(lp3202
g891
ag946
aa(lp3203
g886
ag943
aatp3204
Rp3205
ag2780
((lp3206
(lp3207
g904
ag905
aa(lp3208
g889
ag967
aa(lp3209
g893
ag969
aa(lp3210
g891
ag968
aa(lp3211
g886
ag965
aatp3212
Rp3213
ag2780
((lp3214
(lp3215
g904
ag905
aa(lp3216
g889
ag988
aa(lp3217
g893
ag990
aa(lp3218
g891
ag989
aa(lp3219
g886
ag986
aatp3220
Rp3221
ag2780
((lp3222
(lp3223
g904
ag905
aa(lp3224
g889
ag1009
aa(lp3225
g893
ag1011
aa(lp3226
g891
ag1010
aa(lp3227
g886
ag1007
aatp3228
Rp3229
ag2780
((lp3230
(lp3231
g904
ag951
aa(lp3232
g889
ag1030
aa(lp3233
g893
ag1032
aa(lp3234
g891
ag1031
aa(lp3235
g886
ag1028
aatp3236
Rp3237
ag2780
((lp3238
(lp3239
g904
ag951
aa(lp3240
g889
ag1051
aa(lp3241
g893
ag1053
aa(lp3242
g891
ag1052
aa(lp3243
g886
ag1049
aatp3244
Rp3245
ag2780
((lp3246
(lp3247
g904
ag905
aa(lp3248
g889
ag1072
aa(lp3249
g893
ag1074
aa(lp3250
g891
ag1073
aa(lp3251
g886
ag1070
aatp3252
Rp3253
ag2780
((lp3254
(lp3255
g904
ag951
aa(lp3256
g889
ag1093
aa(lp3257
g893
ag1095
aa(lp3258
g891
ag1094
aa(lp3259
g886
ag1091
aatp3260
Rp3261
ag2780
((lp3262
(lp3263
g904
ag951
aa(lp3264
g889
ag1114
aa(lp3265
g893
ag1116
aa(lp3266
g891
ag1115
aa(lp3267
g886
ag1112
aatp3268
Rp3269
ag2780
((lp3270
(lp3271
g904
ag905
aa(lp3272
g889
ag1135
aa(lp3273
g893
ag1137
aa(lp3274
g891
ag1136
aa(lp3275
g886
ag1133
aatp3276
Rp3277
ag2780
((lp3278
(lp3279
g904
ag951
aa(lp3280
g889
ag1156
aa(lp3281
g893
ag1158
aa(lp3282
g891
ag1157
aa(lp3283
g886
ag1154
aatp3284
Rp3285
ag2780
((lp3286
(lp3287
g904
ag951
aa(lp3288
g889
ag1177
aa(lp3289
g893
ag1179
aa(lp3290
g891
ag1178
aa(lp3291
g886
ag1175
aatp3292
Rp3293
ag2780
((lp3294
(lp3295
g904
ag905
aa(lp3296
g889
ag1198
aa(lp3297
g893
ag1200
aa(lp3298
g891
ag1199
aa(lp3299
g886
ag1196
aatp3300
Rp3301
ag2780
((lp3302
(lp3303
g904
ag951
aa(lp3304
g889
ag1219
aa(lp3305
g893
ag1221
aa(lp3306
g891
ag1220
aa(lp3307
g886
ag1217
aatp3308
Rp3309
ag2780
((lp3310
(lp3311
g904
ag905
aa(lp3312
g889
ag1240
aa(lp3313
g893
ag1242
aa(lp3314
g891
ag1241
aa(lp3315
g886
ag1238
aatp3316
Rp3317
ag2780
((lp3318
(lp3319
g904
ag951
aa(lp3320
g889
ag1261
aa(lp3321
g893
ag1263
aa(lp3322
g891
ag1262
aa(lp3323
g886
ag1259
aatp3324
Rp3325
ag2780
((lp3326
(lp3327
g904
ag905
aa(lp3328
g889
ag1282
aa(lp3329
g893
ag1284
aa(lp3330
g891
ag1283
aa(lp3331
g886
ag1280
aatp3332
Rp3333
ag2780
((lp3334
(lp3335
g904
ag951
aa(lp3336
g889
ag1303
aa(lp3337
g893
ag1305
aa(lp3338
g891
ag1304
aa(lp3339
g886
ag1301
aatp3340
Rp3341
ag2780
((lp3342
(lp3343
g904
ag905
aa(lp3344
g889
ag1324
aa(lp3345
g893
ag1326
aa(lp3346
g891
ag1325
aa(lp3347
g886
ag1322
aatp3348
Rp3349
ag2780
((lp3350
(lp3351
g904
ag951
aa(lp3352
g889
ag1345
aa(lp3353
g893
ag1347
aa(lp3354
g891
ag1346
aa(lp3355
g886
ag1343
aatp3356
Rp3357
ag2780
((lp3358
(lp3359
g904
ag905
aa(lp3360
g889
ag1366
aa(lp3361
g893
ag1368
aa(lp3362
g891
ag1367
aa(lp3363
g886
ag1364
aatp3364
Rp3365
ag2780
((lp3366
(lp3367
g904
ag951
aa(lp3368
g889
ag1387
aa(lp3369
g893
ag1389
aa(lp3370
g891
ag1388
aa(lp3371
g886
ag1385
aatp3372
Rp3373
ag2780
((lp3374
(lp3375
g904
ag951
aa(lp3376
g889
ag1408
aa(lp3377
g893
ag1410
aa(lp3378
g891
ag1409
aa(lp3379
g886
ag1406
aatp3380
Rp3381
ag2780
((lp3382
(lp3383
g904
ag905
aa(lp3384
g889
ag1429
aa(lp3385
g893
ag1431
aa(lp3386
g891
ag1430
aa(lp3387
g886
ag1427
aatp3388
Rp3389
ag2780
((lp3390
(lp3391
g904
ag905
aa(lp3392
g889
ag1450
aa(lp3393
g893
ag1452
aa(lp3394
g891
ag1451
aa(lp3395
g886
ag1448
aatp3396
Rp3397
ag2780
((lp3398
(lp3399
g904
ag951
aa(lp3400
g889
ag1471
aa(lp3401
g893
ag1473
aa(lp3402
g891
ag1472
aa(lp3403
g886
ag1469
aatp3404
Rp3405
asg143
Nsg144
g1487
sg148
I28
sg149
I0
sg150
I28
sbag0
(g54
g2
Ntp3406
Rp3407
(dp3408
g58
Nsg59
(lp3409
sg60
I374820848
sg11
g2876
sg6
I-1
sg62
I1
sg27
I01
sg28
g29
sg63
g0
(g64
g65
(dp3410
g67
g68
(g69
g70
g71
g72
tp3411
Rp3412
(I1
(I28
I1
tp3413
g78
I00
S'\x00\x00\x80?\x00\x00\x80?\x00\x00\x80?\x00\x00\x80?\x00\x00\x80?\x00\x00\x80?\x00\x00\x80?\x00\x00\x80?\x00\x00\x80?\x00\x00\x80?\x00\x00\x80?\x00\x00\x80?\x00\x00\x80?\x00\x00\x80?\x00\x00\x80?\x00\x00\x80?\x00\x00\x80?\x00\x00\x80?\x00\x00\x80?\x00\x00\x80?\x00\x00\x80?\x00\x00\x80?\x00\x00\x80?\x00\x00\x80?\x00\x00\x80?\x00\x00\x80?\x00\x00\x80?\x00\x00\x80?'
p3414
S'\x00\x00\x00\x00\x00\x00\x00\x00\x00\x00\x00\x00\x00\x00\x00\x00\x00\x00\x00\x00\x00\x00\x00\x00\x00\x00\x00\x00'
p3415
Ntp3416
bsg20
g68
(g69
g70
g71
g72
tp3417
Rp3418
(I1
(I28
I1
tp3419
g78
I00
S"8\xd4\xbb@\x8e'\xa3@\xf9\x98r@O9\x8e@\xef\x00\xa1@\x9aA|@/o\xc4@\x84yS@\xd3J\x04A@\xd8\xbb@\xd9\xcd\xf5@\x13\x8c\x8b@V\x94\xc6@m\xee\xe8@\xa4\xa38@\xa4\x80[A\xab\x93\\A+\xb1/B\xbd\x0e\x93@6\xdb\xd1@\xa6\xab\x8bA\xc4\xeb3B\xcf\x1a\x85@\xee\xa8G@\xaf\xe8\xad@$\xf7K@_a\x9dA1\x0f\xa9@"
p3420
S'\x00\x00\x00\x00\x00\x00\x00\x00\x00\x00\x00\x00\x00\x00\x00\x00\x00\x00\x00\x00\x00\x00\x00\x00\x00\x00\x00\x00'
p3421
Ntp3422
bsg107
g68
(g69
g70
g71
g72
tp3423
Rp3424
(I1
(I28
I1
tp3425
g78
I00
S'\x00\x00\x00\x00\x00\x00\x80?\x00\x00\x00@\x00\x00@@\x00\x00\x80@\x00\x00\xa0@\x00\x00\xc0@\x00\x00\xe0@\x00\x00\x00A\x00\x00\x10A\x00\x00 A\x00\x000A\x00\x00@A\x00\x00PA\x00\x00`A\x00\x00pA\x00\x00\x80A\x00\x00\x88A\x00\x00\x90A\x00\x00\x98A\x00\x00\xa0A\x00\x00\xa8A\x00\x00\xb0A\x00\x00\xb8A\x00\x00\xc0A\x00\x00\xc8A\x00\x00\xd0A\x00\x00\xd8A'
p3426
S'\x00\x00\x00\x00\x00\x00\x00\x00\x00\x00\x00\x00\x00\x00\x00\x00\x00\x00\x00\x00\x00\x00\x00\x00\x00\x00\x00\x00'
p3427
Ntp3428
bsg19
g90
(g70
(I0
tp3429
g72
tp3430
Rp3431
(I1
(I28
I1
tp3432
g97
I00
(lp3433
g1530
ag1551
ag1573
ag1594
ag1615
ag1636
ag1657
ag1678
ag1699
ag1720
ag1741
ag1762
ag1783
ag1804
ag1825
ag1846
ag1867
ag1888
ag1909
ag1930
ag1951
ag1972
ag1993
ag2014
ag2035
ag2056
ag2077
ag2098
atp3434
bstp3435
Rp3436
(dp3437
g117
(dp3438
g67
I01
sg20
I01
sg107
I01
sg19
I00
ssg119
g3407
sg120
(lp3439
g67
ag107
ag19
ag20
asg122
(lp3440
I28
aI1
asbsg124
g2908
sg126
g90
(g70
(I0
tp3441
g72
tp3442
Rp3443
(I1
(I28
I1
tp3444
g133
I00
S'\x00\x00\x00\x00\x01\x00\x00\x00\x02\x00\x00\x00\x03\x00\x00\x00\x04\x00\x00\x00\x05\x00\x00\x00\x06\x00\x00\x00\x07\x00\x00\x00\x08\x00\x00\x00\t\x00\x00\x00\n\x00\x00\x00\x0b\x00\x00\x00\x0c\x00\x00\x00\r\x00\x00\x00\x0e\x00\x00\x00\x0f\x00\x00\x00\x10\x00\x00\x00\x11\x00\x00\x00\x12\x00\x00\x00\x13\x00\x00\x00\x14\x00\x00\x00\x15\x00\x00\x00\x16\x00\x00\x00\x17\x00\x00\x00\x18\x00\x00\x00\x19\x00\x00\x00\x1a\x00\x00\x00\x1b\x00\x00\x00'
p3445
tp3446
bsg138
I01
sg139
I1
sg140
I-1
sg141
(lp3447
g2780
((lp3448
(lp3449
g1520
ag1521
aa(lp3450
g1505
ag1506
aa(lp3451
g1509
ag1510
aa(lp3452
g1507
ag1508
aa(lp3453
g1502
ag1503
aatp3454
Rp3455
ag2780
((lp3456
(lp3457
g1520
ag1521
aa(lp3458
g1505
ag1540
aa(lp3459
g1509
ag1542
aa(lp3460
g1507
ag1541
aa(lp3461
g1502
ag1538
aatp3462
Rp3463
ag2780
((lp3464
(lp3465
g1520
ag1567
aa(lp3466
g1505
ag1561
aa(lp3467
g1509
ag1563
aa(lp3468
g1507
ag1562
aa(lp3469
g1502
ag1559
aatp3470
Rp3471
ag2780
((lp3472
(lp3473
g1520
ag1567
aa(lp3474
g1505
ag1583
aa(lp3475
g1509
ag1585
aa(lp3476
g1507
ag1584
aa(lp3477
g1502
ag1581
aatp3478
Rp3479
ag2780
((lp3480
(lp3481
g1520
ag1567
aa(lp3482
g1505
ag1604
aa(lp3483
g1509
ag1606
aa(lp3484
g1507
ag1605
aa(lp3485
g1502
ag1602
aatp3486
Rp3487
ag2780
((lp3488
(lp3489
g1520
ag1521
aa(lp3490
g1505
ag1625
aa(lp3491
g1509
ag1627
aa(lp3492
g1507
ag1626
aa(lp3493
g1502
ag1623
aatp3494
Rp3495
ag2780
((lp3496
(lp3497
g1520
ag1567
aa(lp3498
g1505
ag1646
aa(lp3499
g1509
ag1648
aa(lp3500
g1507
ag1647
aa(lp3501
g1502
ag1644
aatp3502
Rp3503
ag2780
((lp3504
(lp3505
g1520
ag1567
aa(lp3506
g1505
ag1667
aa(lp3507
g1509
ag1669
aa(lp3508
g1507
ag1668
aa(lp3509
g1502
ag1665
aatp3510
Rp3511
ag2780
((lp3512
(lp3513
g1520
ag1567
aa(lp3514
g1505
ag1688
aa(lp3515
g1509
ag1690
aa(lp3516
g1507
ag1689
aa(lp3517
g1502
ag1686
aatp3518
Rp3519
ag2780
((lp3520
(lp3521
g1520
ag1521
aa(lp3522
g1505
ag1709
aa(lp3523
g1509
ag1711
aa(lp3524
g1507
ag1710
aa(lp3525
g1502
ag1707
aatp3526
Rp3527
ag2780
((lp3528
(lp3529
g1520
ag1567
aa(lp3530
g1505
ag1730
aa(lp3531
g1509
ag1732
aa(lp3532
g1507
ag1731
aa(lp3533
g1502
ag1728
aatp3534
Rp3535
ag2780
((lp3536
(lp3537
g1520
ag1521
aa(lp3538
g1505
ag1751
aa(lp3539
g1509
ag1753
aa(lp3540
g1507
ag1752
aa(lp3541
g1502
ag1749
aatp3542
Rp3543
ag2780
((lp3544
(lp3545
g1520
ag1521
aa(lp3546
g1505
ag1772
aa(lp3547
g1509
ag1774
aa(lp3548
g1507
ag1773
aa(lp3549
g1502
ag1770
aatp3550
Rp3551
ag2780
((lp3552
(lp3553
g1520
ag1521
aa(lp3554
g1505
ag1793
aa(lp3555
g1509
ag1795
aa(lp3556
g1507
ag1794
aa(lp3557
g1502
ag1791
aatp3558
Rp3559
ag2780
((lp3560
(lp3561
g1520
ag1567
aa(lp3562
g1505
ag1814
aa(lp3563
g1509
ag1816
aa(lp3564
g1507
ag1815
aa(lp3565
g1502
ag1812
aatp3566
Rp3567
ag2780
((lp3568
(lp3569
g1520
ag1521
aa(lp3570
g1505
ag1835
aa(lp3571
g1509
ag1837
aa(lp3572
g1507
ag1836
aa(lp3573
g1502
ag1833
aatp3574
Rp3575
ag2780
((lp3576
(lp3577
g1520
ag1521
aa(lp3578
g1505
ag1856
aa(lp3579
g1509
ag1858
aa(lp3580
g1507
ag1857
aa(lp3581
g1502
ag1854
aatp3582
Rp3583
ag2780
((lp3584
(lp3585
g1520
ag1521
aa(lp3586
g1505
ag1877
aa(lp3587
g1509
ag1879
aa(lp3588
g1507
ag1878
aa(lp3589
g1502
ag1875
aatp3590
Rp3591
ag2780
((lp3592
(lp3593
g1520
ag1567
aa(lp3594
g1505
ag1898
aa(lp3595
g1509
ag1900
aa(lp3596
g1507
ag1899
aa(lp3597
g1502
ag1896
aatp3598
Rp3599
ag2780
((lp3600
(lp3601
g1520
ag1567
aa(lp3602
g1505
ag1919
aa(lp3603
g1509
ag1921
aa(lp3604
g1507
ag1920
aa(lp3605
g1502
ag1917
aatp3606
Rp3607
ag2780
((lp3608
(lp3609
g1520
ag1521
aa(lp3610
g1505
ag1940
aa(lp3611
g1509
ag1942
aa(lp3612
g1507
ag1941
aa(lp3613
g1502
ag1938
aatp3614
Rp3615
ag2780
((lp3616
(lp3617
g1520
ag1567
aa(lp3618
g1505
ag1961
aa(lp3619
g1509
ag1963
aa(lp3620
g1507
ag1962
aa(lp3621
g1502
ag1959
aatp3622
Rp3623
ag2780
((lp3624
(lp3625
g1520
ag1521
aa(lp3626
g1505
ag1982
aa(lp3627
g1509
ag1984
aa(lp3628
g1507
ag1983
aa(lp3629
g1502
ag1980
aatp3630
Rp3631
ag2780
((lp3632
(lp3633
g1520
ag1567
aa(lp3634
g1505
ag2003
aa(lp3635
g1509
ag2005
aa(lp3636
g1507
ag2004
aa(lp3637
g1502
ag2001
aatp3638
Rp3639
ag2780
((lp3640
(lp3641
g1520
ag1567
aa(lp3642
g1505
ag2024
aa(lp3643
g1509
ag2026
aa(lp3644
g1507
ag2025
aa(lp3645
g1502
ag2022
aatp3646
Rp3647
ag2780
((lp3648
(lp3649
g1520
ag1521
aa(lp3650
g1505
ag2045
aa(lp3651
g1509
ag2047
aa(lp3652
g1507
ag2046
aa(lp3653
g1502
ag2043
aatp3654
Rp3655
ag2780
((lp3656
(lp3657
g1520
ag1521
aa(lp3658
g1505
ag2066
aa(lp3659
g1509
ag2068
aa(lp3660
g1507
ag2067
aa(lp3661
g1502
ag2064
aatp3662
Rp3663
ag2780
((lp3664
(lp3665
g1520
ag1567
aa(lp3666
g1505
ag2087
aa(lp3667
g1509
ag2089
aa(lp3668
g1507
ag2088
aa(lp3669
g1502
ag2085
aatp3670
Rp3671
asg143
Nsg144
g2103
sg148
I28
sg149
I0
sg150
I28
sbag0
(g54
g2
Ntp3672
Rp3673
(dp3674
g58
Nsg59
(lp3675
sg60
I374820848
sg11
g2876
sg6
I-1
sg62
I1
sg27
I01
sg28
g29
sg63
g0
(g64
g65
(dp3676
g67
g68
(g69
g70
g71
g72
tp3677
Rp3678
(I1
(I28
I1
tp3679
g78
I00
S'\x00\x00\x80?\x00\x00\x80?\x00\x00\x80?\x00\x00\x80?\x00\x00\x80?\x00\x00\x80?\x00\x00\x80?\x00\x00\x80?\x00\x00\x80?\x00\x00\x80?\x00\x00\x80?\x00\x00\x80?\x00\x00\x80?\x00\x00\x80?\x00\x00\x80?\x00\x00\x80?\x00\x00\x80?\x00\x00\x80?\x00\x00\x80?\x00\x00\x80?\x00\x00\x80?\x00\x00\x80?\x00\x00\x80?\x00\x00\x80?\x00\x00\x80?\x00\x00\x80?\x00\x00\x80?\x00\x00\x80?'
p3680
S'\x00\x00\x00\x00\x00\x00\x00\x00\x00\x00\x00\x00\x00\x00\x00\x00\x00\x00\x00\x00\x00\x00\x00\x00\x00\x00\x00\x00'
p3681
Ntp3682
bsg20
g68
(g69
g70
g71
g72
tp3683
Rp3684
(I1
(I28
I1
tp3685
g78
I00
S'\x80RQ@\xf1\xa3d@\x9a\x01\x92@\xe7\xba\xcf@\x0f\xd6g@\x02E\x00A\x1a\xa8\x94@4\x85\x83@\x9b\xda\x13A\x0e\x16\xce@\x16R\x9eAh\x1cz@\xfd\xcc\xcbBf\xacG@\x03\x1cz@g\xbc\nA\xad\x01j@\x90O_@\x16\x05\xe3@Hz\xe9@/\x02,AL5\x8e@\x03\xb7\x11A\x85?\x12AQ\x0e)A\x8d3iA\\$BB\xa5\xdb\xc2@'
p3686
S'\x00\x00\x00\x00\x00\x00\x00\x00\x00\x00\x00\x00\x00\x00\x00\x00\x00\x00\x00\x00\x00\x00\x00\x00\x00\x00\x00\x00'
p3687
Ntp3688
bsg107
g68
(g69
g70
g71
g72
tp3689
Rp3690
(I1
(I28
I1
tp3691
g78
I00
S'\x00\x00\x00\x00\x00\x00\x80?\x00\x00\x00@\x00\x00@@\x00\x00\x80@\x00\x00\xa0@\x00\x00\xc0@\x00\x00\xe0@\x00\x00\x00A\x00\x00\x10A\x00\x00 A\x00\x000A\x00\x00@A\x00\x00PA\x00\x00`A\x00\x00pA\x00\x00\x80A\x00\x00\x88A\x00\x00\x90A\x00\x00\x98A\x00\x00\xa0A\x00\x00\xa8A\x00\x00\xb0A\x00\x00\xb8A\x00\x00\xc0A\x00\x00\xc8A\x00\x00\xd0A\x00\x00\xd8A'
p3692
S'\x00\x00\x00\x00\x00\x00\x00\x00\x00\x00\x00\x00\x00\x00\x00\x00\x00\x00\x00\x00\x00\x00\x00\x00\x00\x00\x00\x00'
p3693
Ntp3694
bsg19
g90
(g70
(I0
tp3695
g72
tp3696
Rp3697
(I1
(I28
I1
tp3698
g97
I00
(lp3699
g2146
ag2167
ag2188
ag2210
ag2231
ag2252
ag2273
ag2294
ag2315
ag2336
ag2357
ag2378
ag2399
ag2420
ag2441
ag2462
ag2483
ag2504
ag2525
ag2546
ag2567
ag2588
ag2609
ag2630
ag2651
ag2672
ag2693
ag2714
atp3700
bstp3701
Rp3702
(dp3703
g117
(dp3704
g67
I01
sg20
I01
sg107
I01
sg19
I00
ssg119
g3673
sg120
(lp3705
g67
ag107
ag19
ag20
asg122
(lp3706
I28
aI1
asbsg124
g2908
sg126
g90
(g70
(I0
tp3707
g72
tp3708
Rp3709
(I1
(I28
I1
tp3710
g133
I00
S'\x00\x00\x00\x00\x01\x00\x00\x00\x02\x00\x00\x00\x03\x00\x00\x00\x04\x00\x00\x00\x05\x00\x00\x00\x06\x00\x00\x00\x07\x00\x00\x00\x08\x00\x00\x00\t\x00\x00\x00\n\x00\x00\x00\x0b\x00\x00\x00\x0c\x00\x00\x00\r\x00\x00\x00\x0e\x00\x00\x00\x0f\x00\x00\x00\x10\x00\x00\x00\x11\x00\x00\x00\x12\x00\x00\x00\x13\x00\x00\x00\x14\x00\x00\x00\x15\x00\x00\x00\x16\x00\x00\x00\x17\x00\x00\x00\x18\x00\x00\x00\x19\x00\x00\x00\x1a\x00\x00\x00\x1b\x00\x00\x00'
p3711
tp3712
bsg138
I01
sg139
I1
sg140
I-1
sg141
(lp3713
g2780
((lp3714
(lp3715
g2136
ag2137
aa(lp3716
g2121
ag2122
aa(lp3717
g2125
ag2126
aa(lp3718
g2123
ag2124
aa(lp3719
g2118
ag2119
aatp3720
Rp3721
ag2780
((lp3722
(lp3723
g2136
ag2137
aa(lp3724
g2121
ag2156
aa(lp3725
g2125
ag2158
aa(lp3726
g2123
ag2157
aa(lp3727
g2118
ag2154
aatp3728
Rp3729
ag2780
((lp3730
(lp3731
g2136
ag2137
aa(lp3732
g2121
ag2177
aa(lp3733
g2125
ag2179
aa(lp3734
g2123
ag2178
aa(lp3735
g2118
ag2175
aatp3736
Rp3737
ag2780
((lp3738
(lp3739
g2136
ag2204
aa(lp3740
g2121
ag2198
aa(lp3741
g2125
ag2200
aa(lp3742
g2123
ag2199
aa(lp3743
g2118
ag2196
aatp3744
Rp3745
ag2780
((lp3746
(lp3747
g2136
ag2204
aa(lp3748
g2121
ag2220
aa(lp3749
g2125
ag2222
aa(lp3750
g2123
ag2221
aa(lp3751
g2118
ag2218
aatp3752
Rp3753
ag2780
((lp3754
(lp3755
g2136
ag2137
aa(lp3756
g2121
ag2241
aa(lp3757
g2125
ag2243
aa(lp3758
g2123
ag2242
aa(lp3759
g2118
ag2239
aatp3760
Rp3761
ag2780
((lp3762
(lp3763
g2136
ag2204
aa(lp3764
g2121
ag2262
aa(lp3765
g2125
ag2264
aa(lp3766
g2123
ag2263
aa(lp3767
g2118
ag2260
aatp3768
Rp3769
ag2780
((lp3770
(lp3771
g2136
ag2137
aa(lp3772
g2121
ag2283
aa(lp3773
g2125
ag2285
aa(lp3774
g2123
ag2284
aa(lp3775
g2118
ag2281
aatp3776
Rp3777
ag2780
((lp3778
(lp3779
g2136
ag2204
aa(lp3780
g2121
ag2304
aa(lp3781
g2125
ag2306
aa(lp3782
g2123
ag2305
aa(lp3783
g2118
ag2302
aatp3784
Rp3785
ag2780
((lp3786
(lp3787
g2136
ag2137
aa(lp3788
g2121
ag2325
aa(lp3789
g2125
ag2327
aa(lp3790
g2123
ag2326
aa(lp3791
g2118
ag2323
aatp3792
Rp3793
ag2780
((lp3794
(lp3795
g2136
ag2204
aa(lp3796
g2121
ag2346
aa(lp3797
g2125
ag2348
aa(lp3798
g2123
ag2347
aa(lp3799
g2118
ag2344
aatp3800
Rp3801
ag2780
((lp3802
(lp3803
g2136
ag2204
aa(lp3804
g2121
ag2367
aa(lp3805
g2125
ag2369
aa(lp3806
g2123
ag2368
aa(lp3807
g2118
ag2365
aatp3808
Rp3809
ag2780
((lp3810
(lp3811
g2136
ag2204
aa(lp3812
g2121
ag2388
aa(lp3813
g2125
ag2390
aa(lp3814
g2123
ag2389
aa(lp3815
g2118
ag2386
aatp3816
Rp3817
ag2780
((lp3818
(lp3819
g2136
ag2137
aa(lp3820
g2121
ag2409
aa(lp3821
g2125
ag2411
aa(lp3822
g2123
ag2410
aa(lp3823
g2118
ag2407
aatp3824
Rp3825
ag2780
((lp3826
(lp3827
g2136
ag2204
aa(lp3828
g2121
ag2430
aa(lp3829
g2125
ag2432
aa(lp3830
g2123
ag2431
aa(lp3831
g2118
ag2428
aatp3832
Rp3833
ag2780
((lp3834
(lp3835
g2136
ag2204
aa(lp3836
g2121
ag2451
aa(lp3837
g2125
ag2453
aa(lp3838
g2123
ag2452
aa(lp3839
g2118
ag2449
aatp3840
Rp3841
ag2780
((lp3842
(lp3843
g2136
ag2204
aa(lp3844
g2121
ag2472
aa(lp3845
g2125
ag2474
aa(lp3846
g2123
ag2473
aa(lp3847
g2118
ag2470
aatp3848
Rp3849
ag2780
((lp3850
(lp3851
g2136
ag2137
aa(lp3852
g2121
ag2493
aa(lp3853
g2125
ag2495
aa(lp3854
g2123
ag2494
aa(lp3855
g2118
ag2491
aatp3856
Rp3857
ag2780
((lp3858
(lp3859
g2136
ag2137
aa(lp3860
g2121
ag2514
aa(lp3861
g2125
ag2516
aa(lp3862
g2123
ag2515
aa(lp3863
g2118
ag2512
aatp3864
Rp3865
ag2780
((lp3866
(lp3867
g2136
ag2137
aa(lp3868
g2121
ag2535
aa(lp3869
g2125
ag2537
aa(lp3870
g2123
ag2536
aa(lp3871
g2118
ag2533
aatp3872
Rp3873
ag2780
((lp3874
(lp3875
g2136
ag2204
aa(lp3876
g2121
ag2556
aa(lp3877
g2125
ag2558
aa(lp3878
g2123
ag2557
aa(lp3879
g2118
ag2554
aatp3880
Rp3881
ag2780
((lp3882
(lp3883
g2136
ag2137
aa(lp3884
g2121
ag2577
aa(lp3885
g2125
ag2579
aa(lp3886
g2123
ag2578
aa(lp3887
g2118
ag2575
aatp3888
Rp3889
ag2780
((lp3890
(lp3891
g2136
ag2137
aa(lp3892
g2121
ag2598
aa(lp3893
g2125
ag2600
aa(lp3894
g2123
ag2599
aa(lp3895
g2118
ag2596
aatp3896
Rp3897
ag2780
((lp3898
(lp3899
g2136
ag2204
aa(lp3900
g2121
ag2619
aa(lp3901
g2125
ag2621
aa(lp3902
g2123
ag2620
aa(lp3903
g2118
ag2617
aatp3904
Rp3905
ag2780
((lp3906
(lp3907
g2136
ag2137
aa(lp3908
g2121
ag2640
aa(lp3909
g2125
ag2642
aa(lp3910
g2123
ag2641
aa(lp3911
g2118
ag2638
aatp3912
Rp3913
ag2780
((lp3914
(lp3915
g2136
ag2137
aa(lp3916
g2121
ag2661
aa(lp3917
g2125
ag2663
aa(lp3918
g2123
ag2662
aa(lp3919
g2118
ag2659
aatp3920
Rp3921
ag2780
((lp3922
(lp3923
g2136
ag2204
aa(lp3924
g2121
ag2682
aa(lp3925
g2125
ag2684
aa(lp3926
g2123
ag2683
aa(lp3927
g2118
ag2680
aatp3928
Rp3929
ag2780
((lp3930
(lp3931
g2136
ag2204
aa(lp3932
g2121
ag2703
aa(lp3933
g2125
ag2705
aa(lp3934
g2123
ag2704
aa(lp3935
g2118
ag2701
aatp3936
Rp3937
asg143
Nsg144
g2719
sg148
I28
sg149
I0
sg150
I28
sbasS'savePickle'
p3938
I00
sb.