ccopy_reg
_reconstructor
p0
(cpsychopy.data.experiment
ExperimentHandler
p1
c__builtin__
object
p2
Ntp3
Rp4
(dp5
S'originPath'
p6
VC:\u005cUsers\u005cadmin\u005cDocuments\u005cgit-repos\u005cpia_rita\u005cPia_Rita_2018_replication_sheb-pulv2013\u005cexp-scripts_psychopy\u005cpilot\u005csheb_replic_pilot_control.psyexp
p7
sS'dataFileName'
p8
VC:\u005cUsers\u005cadmin\u005cDocuments\u005cgit-repos\u005cpia_rita\u005cPia_Rita_2018_replication_sheb-pulv2013\u005cexp-scripts_psychopy\u005cpilot\u005cdata/910_sheb_replic_pilot_control_2018_Jun_19_0936
p9
sS'runtimeInfo'
p10
NsS'name'
p11
S'sheb_replic_pilot_control'
p12
sS'dataNames'
p13
(lp14
S'key_resp_13.keys'
p15
aS'key_resp_13.rt'
p16
aS'key_resp_6.keys'
p17
aS'key_resp_6.rt'
p18
aS'key_resp_2.keys'
p19
aS'key_resp_2.rt'
p20
aS'key_resp_8.keys'
p21
aS'key_resp_8.rt'
p22
aS'key_resp_7.keys'
p23
aS'key_resp_7.rt'
p24
asS'autoLog'
p25
I01
sS'extraInfo'
p26
(dp27
S'date'
p28
V2018_Jun_19_0936
p29
sS'frameRate'
p30
cnumpy.core.multiarray
scalar
p31
(cnumpy
dtype
p32
(S'f8'
p33
I0
I1
tp34
Rp35
(I3
S'<'
p36
NNNI-1
I-1
I0
tp37
bS'\xbb\x9a\xf7\xdfJ\xd0M@'
p38
tp39
Rp40
sS'expName'
p41
g12
sVsession
p42
V001
p43
sVparticipant
p44
g0
(cfuture.types.newstr
newstr
p45
c__builtin__
unicode
p46
V910
p47
tp48
Rp49
ssS'loopsUnfinished'
p50
(lp51
g0
(cpsychopy.data.trial
TrialHandler
p52
g2
Ntp53
Rp54
(dp55
S'origin'
p56
NsS'thisTrial'
p57
NsS'_exp'
p58
I368807920
sg11
S'training_block'
p59
sg6
I-1
sS'thisRepN'
p60
I0
sg25
I01
sg26
g27
sS'data'
p61
g0
(cpsychopy.data.base
DataHandler
p62
c__builtin__
dict
p63
(dp64
S'ran'
p65
cnumpy.ma.core
_mareconstruct
p66
(cnumpy.ma.core
MaskedArray
p67
cnumpy
ndarray
p68
(I0
tp69
S'b'
p70
tp71
Rp72
(I1
(I1
I5
tp73
g32
(S'f4'
p74
I0
I1
tp75
Rp76
(I3
S'<'
p77
NNNI-1
I-1
I0
tp78
bI00
S'\x00\x00\x80?\x00\x00\x00\x00\x00\x00\x00\x00\x00\x00\x00\x00\x00\x00\x00\x00'
p79
S'\x00\x00\x00\x00\x00'
p80
Ntp81
bsg22
g66
(g67
g68
g69
g70
tp82
Rp83
(I1
(I1
I5
tp84
g76
I00
S'\x0e[\x17A\x00\x00\x00\x00\x00\x00\x00\x00\x00\x00\x00\x00\x00\x00\x00\x00'
p85
S'\x00\x01\x01\x01\x01'
p86
Ntp87
bsg21
cnumpy.core.multiarray
_reconstruct
p88
(g68
(I0
tp89
g70
tp90
Rp91
(I1
(I1
I5
tp92
g32
(S'O4'
p93
I0
I1
tp94
Rp95
(I3
S'|'
p96
NNNI-1
I-1
I63
tp97
bI00
(lp98
S's'
p99
aS'--'
p100
aS'--'
p101
aS'--'
p102
aS'--'
p103
atp104
bsS'order'
p105
g66
(g67
g68
g69
g70
tp106
Rp107
(I1
(I1
I5
tp108
g76
I00
S'\x00\x00\x00\x00\x00\x00\x00\x00\x00\x00\x00\x00\x00\x00\x00\x00\x00\x00\x00\x00'
p109
S'\x00\x01\x01\x01\x01'
p110
Ntp111
bstp112
Rp113
(dp114
S'isNumeric'
p115
(dp116
g65
I01
sg22
I01
sg21
I00
sg105
I01
ssS'trials'
p117
g54
sS'dataTypes'
p118
(lp119
g65
ag105
ag21
ag22
asS'dataShape'
p120
(lp121
I1
aI5
asbsS'method'
p122
S'random'
p123
sS'sequenceIndices'
p124
g88
(g68
(I0
tp125
g70
tp126
Rp127
(I1
(I1
I5
tp128
g32
(S'i4'
p129
I0
I1
tp130
Rp131
(I3
S'<'
p132
NNNI-1
I-1
I0
tp133
bI00
S'\x00\x00\x00\x00\x00\x00\x00\x00\x00\x00\x00\x00\x00\x00\x00\x00\x00\x00\x00\x00'
p134
tp135
bsS'finished'
p136
I00
sS'nReps'
p137
I5
sS'nRemaining'
p138
I4
sS'trialList'
p139
(lp140
NasS'seed'
p141
NsS'thisIndex'
p142
g31
(g131
S'\x00\x00\x00\x00'
p143
tp144
Rp145
sS'thisN'
p146
I0
sS'thisTrialN'
p147
I0
sS'nTotal'
p148
I5
sbag0
(g52
g2
Ntp149
Rp150
(dp151
g56
Nsg57
ccollections
OrderedDict
p152
((lp153
(lp154
S'word_duration'
p155
ag31
(g35
S'\x9a\x99\x99\x99\x99\x99\xc9?'
p156
tp157
Rp158
aa(lp159
S'follow_blank'
p160
ag31
(g35
S'\x9a\x99\x99\x99\x99\x99\xd9?'
p161
tp162
Rp163
aa(lp164
S'SOA'
p165
ag31
(g35
S'333333\xe3?'
p166
tp167
Rp168
aatp169
Rp170
sg58
I368807920
sg11
S'experimental_blocks'
p171
sg6
I-1
sg60
I0
sg25
I01
sg26
g27
sg61
g0
(g62
g63
(dp172
g65
g66
(g67
g68
g69
g70
tp173
Rp174
(I1
(I4
I1
tp175
g76
I00
S'\x00\x00\x80?\x00\x00\x80?\x00\x00\x80?\x00\x00\x80?'
p176
S'\x00\x00\x00\x00'
p177
Ntp178
bsg105
g66
(g67
g68
g69
g70
tp179
Rp180
(I1
(I4
I1
tp181
g76
I00
S'\x00\x00\x00@\x00\x00@@\x00\x00\x00\x00\x00\x00\x80?'
p182
S'\x00\x00\x00\x00'
p183
Ntp184
bstp185
Rp186
(dp187
g115
(dp188
g65
I01
sg105
I01
ssg117
g150
sg118
(lp189
g65
ag105
asg120
(lp190
I4
aI1
asbsg122
g123
sg124
g88
(g68
(I0
tp191
g70
tp192
Rp193
(I1
(I4
I1
tp194
g131
I00
S'\x02\x00\x00\x00\x03\x00\x00\x00\x00\x00\x00\x00\x01\x00\x00\x00'
p195
tp196
bsg136
I00
sg137
I1
sg138
I0
sg139
(lp197
g152
((lp198
(lp199
g155
ag31
(g35
S'\x9a\x99\x99\x99\x99\x99\xb9?'
p200
tp201
Rp202
aa(lp203
g160
ag31
(g35
S'\x9a\x99\x99\x99\x99\x99\xd9?'
p204
tp205
Rp206
aa(lp207
g165
ag31
(g35
S'\x00\x00\x00\x00\x00\x00\xe0?'
p208
tp209
Rp210
aatp211
Rp212
ag170
ag152
((lp213
(lp214
g155
ag31
(g35
S'333333\xd3?'
p215
tp216
Rp217
aa(lp218
g160
ag31
(g35
S'\x9a\x99\x99\x99\x99\x99\xd9?'
p219
tp220
Rp221
aa(lp222
g165
ag31
(g35
S'ffffff\xe6?'
p223
tp224
Rp225
aatp226
Rp227
ag152
((lp228
(lp229
g155
ag31
(g35
S'\x9a\x99\x99\x99\x99\x99\xd9?'
p230
tp231
Rp232
aa(lp233
g160
ag31
(g35
S'\x9a\x99\x99\x99\x99\x99\xd9?'
p234
tp235
Rp236
aa(lp237
g165
ag31
(g35
S'\x9a\x99\x99\x99\x99\x99\xe9?'
p238
tp239
Rp240
aatp241
Rp242
asg141
Nsg142
g31
(g131
S'\x01\x00\x00\x00'
p243
tp244
Rp245
sg146
I3
sg147
I3
sg148
I4
sbasS'saveWideText'
p246
I00
sS'thisEntry'
p247
(dp248
sS'version'
p249
S''
p250
sS'_paramNamesSoFar'
p251
(lp252
S'item'
p253
aS'type'
p254
aS'word1'
p255
aS'word2'
p256
aS'word3'
p257
aS'word4'
p258
ag155
ag160
ag165
asS'entries'
p259
(lp260
(dp261
g42
g43
sg41
g12
sg44
g49
sg15
S'space'
p262
sg28
g29
sg30
g40
sg16
F1957.4477861217638
sa(dp263
g42
g43
sg41
g12
sg44
g49
sg28
g29
sg17
S'space'
p264
sg30
g40
sg18
F7.363588734117457
sa(dp265
S'training_block.thisRepN'
p266
I0
sg20
F6.725947470028132
sS'training_block.thisN'
p267
I0
sS'word_presentation_training.thisTrialN'
p268
I0
sg42
g43
sg258
Vyell
p269
sS'word_presentation_training.thisRepN'
p270
I0
sg44
g49
sg30
g40
sS'training_block.thisTrialN'
p271
I0
sg19
S'space'
p272
sg253
g31
(g32
(S'i8'
p273
I0
I1
tp274
Rp275
(I3
S'<'
p276
NNNI-1
I-1
I0
tp277
bS'\x02\x00\x00\x00\x00\x00\x00\x00'
p278
tp279
Rp280
sg41
g12
sg255
Vlike
p281
sS'word_presentation_training.thisIndex'
p282
g31
(g131
S'\x01\x00\x00\x00'
p283
tp284
Rp285
sg257
Vstare
p286
sg256
Vthank
p287
sg28
g29
sS'word_presentation_training.thisN'
p288
I0
sg254
Vtraining
p289
sS'training_block.thisIndex'
p290
g145
sa(dp291
S'training_block.thisRepN'
p292
I0
sg20
F9.811649066853079
sS'training_block.thisN'
p293
I0
sS'word_presentation_training.thisTrialN'
p294
I1
sg42
g43
sg258
Vprint
p295
sS'word_presentation_training.thisRepN'
p296
I0
sg44
g49
sg30
g40
sS'training_block.thisTrialN'
p297
I0
sg19
S'space'
p298
sg253
g31
(g275
S'\x04\x00\x00\x00\x00\x00\x00\x00'
p299
tp300
Rp301
sg41
g12
sg255
Vsave
p302
sS'word_presentation_training.thisIndex'
p303
g31
(g131
S'\x03\x00\x00\x00'
p304
tp305
Rp306
sg257
Vstay
p307
sg256
Vlook
p308
sg28
g29
sS'word_presentation_training.thisN'
p309
I1
sg254
g289
sS'training_block.thisIndex'
p310
g145
sa(dp311
S'training_block.thisRepN'
p312
I0
sg20
F3.723746670154469
sS'training_block.thisN'
p313
I0
sS'word_presentation_training.thisTrialN'
p314
I2
sg42
g43
sg258
Vsigh
p315
sS'word_presentation_training.thisRepN'
p316
I0
sg44
g49
sg30
g40
sS'training_block.thisTrialN'
p317
I0
sg19
S'space'
p318
sg253
g31
(g275
S'\x01\x00\x00\x00\x00\x00\x00\x00'
p319
tp320
Rp321
sg41
g12
sg255
Vwait
p322
sS'word_presentation_training.thisIndex'
p323
g31
(g131
S'\x00\x00\x00\x00'
p324
tp325
Rp326
sg257
Vblush
p327
sg256
Vbless
p328
sg28
g29
sS'word_presentation_training.thisN'
p329
I2
sg254
g289
sS'training_block.thisIndex'
p330
g145
sa(dp331
S'training_block.thisRepN'
p332
I0
sg20
F9.141005682567993
sS'training_block.thisN'
p333
I0
sS'word_presentation_training.thisTrialN'
p334
I3
sg42
g43
sg258
Vsoothe
p335
sS'word_presentation_training.thisRepN'
p336
I0
sg44
g49
sg30
g40
sS'training_block.thisTrialN'
p337
I0
sg19
S'space'
p338
sg253
g31
(g275
S'\x03\x00\x00\x00\x00\x00\x00\x00'
p339
tp340
Rp341
sg41
g12
sg255
Vlick
p342
sS'word_presentation_training.thisIndex'
p343
g31
(g131
S'\x02\x00\x00\x00'
p344
tp345
Rp346
sg257
Vchew
p347
sg256
Vruin
p348
sg28
g29
sS'word_presentation_training.thisN'
p349
I3
sg254
g289
sS'training_block.thisIndex'
p350
g145
sa(dp351
S'training_block.thisRepN'
p352
I0
sS'training_block.thisN'
p353
I0
sg42
g43
sg24
F3.187996118373576
sg30
g40
sS'training_block.thisTrialN'
p354
I0
sg22
F9.459729708585655
sg41
g12
sg21
g99
sg23
S'space'
p355
sg28
g29
sg44
g49
sS'training_block.thisIndex'
p356
g145
sa(dp357
S'training_block.thisRepN'
p358
I0
sg160
g221
sg30
g40
sS'word4'
p359
Vslap
p360
sS'experimental_blocks.thisN'
p361
I0
sg42
g43
sS'word1'
p362
Vtug
p363
sS'word3'
p364
Vknock
p365
sS'word2'
p366
Vgrab
p367
sS'experimental_blocks.thisIndex'
p368
g31
(g131
S'\x02\x00\x00\x00'
p369
tp370
Rp371
sS'word_presentation.thisRepN'
p372
I0
sS'experimental_blocks.thisRepN'
p373
I0
sg44
g49
sg155
g217
sS'type'
p374
Varm
p375
sS'training_block.thisIndex'
p376
g145
sg165
g225
sg20
F6.994372353211929
sS'experimental_blocks.thisTrialN'
p377
I0
sS'training_block.thisN'
p378
I0
sS'word_presentation.thisN'
p379
I0
sS'training_block.thisTrialN'
p380
I0
sg19
S'space'
p381
sg28
g29
sS'word_presentation.thisTrialN'
p382
I0
sg41
g12
sS'word_presentation.thisIndex'
p383
g31
(g131
S'\x00\x00\x00\x00'
p384
tp385
Rp386
sa(dp387
S'training_block.thisRepN'
p388
I0
sg160
g221
sg30
g40
sg359
Vpush
p389
sS'experimental_blocks.thisN'
p390
I0
sg42
g43
sg362
Vpunch
p391
sg364
Vlift
p392
sg366
Vseize
p393
sS'experimental_blocks.thisIndex'
p394
g371
sS'word_presentation.thisRepN'
p395
I0
sS'experimental_blocks.thisRepN'
p396
I0
sg44
g49
sg155
g217
sg374
g375
sS'training_block.thisIndex'
p397
g145
sg165
g225
sg20
F7.815141503134328
sS'experimental_blocks.thisTrialN'
p398
I0
sS'training_block.thisN'
p399
I0
sS'word_presentation.thisN'
p400
I1
sS'training_block.thisTrialN'
p401
I0
sg19
S'space'
p402
sg28
g29
sS'word_presentation.thisTrialN'
p403
I1
sg41
g12
sS'word_presentation.thisIndex'
p404
g31
(g131
S'\x01\x00\x00\x00'
p405
tp406
Rp407
sa(dp408
S'training_block.thisRepN'
p409
I0
sg160
g221
sg30
g40
sg359
Vbounce
p410
sS'experimental_blocks.thisN'
p411
I0
sg42
g43
sg362
Vroam
p412
sg364
Vpace
p413
sg366
Vtiptoe
p414
sS'experimental_blocks.thisIndex'
p415
g371
sS'word_presentation.thisRepN'
p416
I0
sS'experimental_blocks.thisRepN'
p417
I0
sg44
g49
sg155
g217
sg374
Vleg
p418
sS'training_block.thisIndex'
p419
g145
sg165
g225
sg20
F8.90626054467657
sS'experimental_blocks.thisTrialN'
p420
I0
sS'training_block.thisN'
p421
I0
sS'word_presentation.thisN'
p422
I2
sS'training_block.thisTrialN'
p423
I0
sg19
S'space'
p424
sg28
g29
sS'word_presentation.thisTrialN'
p425
I2
sg41
g12
sS'word_presentation.thisIndex'
p426
g31
(g131
S'\x02\x00\x00\x00'
p427
tp428
Rp429
sa(dp430
S'training_block.thisRepN'
p431
I0
sg160
g221
sg30
g40
sg359
Vclick
p432
sS'experimental_blocks.thisN'
p433
I0
sg42
g43
sg362
Vskim
p434
sg364
Vscratch
p435
sg366
Vhack
p436
sS'experimental_blocks.thisIndex'
p437
g371
sS'word_presentation.thisRepN'
p438
I0
sS'experimental_blocks.thisRepN'
p439
I0
sg44
g49
sg155
g217
sg374
g375
sS'training_block.thisIndex'
p440
g145
sg165
g225
sg20
F17.27623673494554
sS'experimental_blocks.thisTrialN'
p441
I0
sS'training_block.thisN'
p442
I0
sS'word_presentation.thisN'
p443
I3
sS'training_block.thisTrialN'
p444
I0
sg19
S'space'
p445
sg28
g29
sS'word_presentation.thisTrialN'
p446
I3
sg41
g12
sS'word_presentation.thisIndex'
p447
g31
(g131
S'\x03\x00\x00\x00'
p448
tp449
Rp450
sa(dp451
S'training_block.thisRepN'
p452
I0
sg160
g221
sg30
g40
sg359
Vkneel
p453
sS'experimental_blocks.thisN'
p454
I0
sg42
g43
sg362
Vglide
p455
sg364
Vwander
p456
sg366
Vtrudge
p457
sS'experimental_blocks.thisIndex'
p458
g371
sS'word_presentation.thisRepN'
p459
I0
sS'experimental_blocks.thisRepN'
p460
I0
sg44
g49
sg155
g217
sg374
g418
sS'training_block.thisIndex'
p461
g145
sg165
g225
sg20
F12.713280029459838
sS'experimental_blocks.thisTrialN'
p462
I0
sS'training_block.thisN'
p463
I0
sS'word_presentation.thisN'
p464
I4
sS'training_block.thisTrialN'
p465
I0
sg19
S'space'
p466
sg28
g29
sS'word_presentation.thisTrialN'
p467
I4
sg41
g12
sS'word_presentation.thisIndex'
p468
g31
(g131
S'\x04\x00\x00\x00'
p469
tp470
Rp471
sa(dp472
S'training_block.thisRepN'
p473
I0
sg160
g221
sg30
g40
sg359
Vslip
p474
sS'experimental_blocks.thisN'
p475
I0
sg42
g43
sg362
Vstrut
p476
sg364
Vsway
p477
sg366
Vtrip
p478
sS'experimental_blocks.thisIndex'
p479
g371
sS'word_presentation.thisRepN'
p480
I0
sS'experimental_blocks.thisRepN'
p481
I0
sg44
g49
sg155
g217
sg374
g418
sS'training_block.thisIndex'
p482
g145
sg165
g225
sg20
F8.035123106502397
sS'experimental_blocks.thisTrialN'
p483
I0
sS'training_block.thisN'
p484
I0
sS'word_presentation.thisN'
p485
I5
sS'training_block.thisTrialN'
p486
I0
sg19
S'space'
p487
sg28
g29
sS'word_presentation.thisTrialN'
p488
I5
sg41
g12
sS'word_presentation.thisIndex'
p489
g31
(g131
S'\x05\x00\x00\x00'
p490
tp491
Rp492
sa(dp493
S'training_block.thisRepN'
p494
I0
sg160
g221
sg30
g40
sg359
Vcrawl
p495
sS'experimental_blocks.thisN'
p496
I0
sg42
g43
sg362
Vmarch
p497
sg364
Vhike
p498
sg366
Vstumble
p499
sS'experimental_blocks.thisIndex'
p500
g371
sS'word_presentation.thisRepN'
p501
I0
sS'experimental_blocks.thisRepN'
p502
I0
sg44
g49
sg155
g217
sg374
g418
sS'training_block.thisIndex'
p503
g145
sg165
g225
sg20
F12.142891574452733
sS'experimental_blocks.thisTrialN'
p504
I0
sS'training_block.thisN'
p505
I0
sS'word_presentation.thisN'
p506
I6
sS'training_block.thisTrialN'
p507
I0
sg19
S'space'
p508
sg28
g29
sS'word_presentation.thisTrialN'
p509
I6
sg41
g12
sS'word_presentation.thisIndex'
p510
g31
(g131
S'\x06\x00\x00\x00'
p511
tp512
Rp513
sa(dp514
S'training_block.thisRepN'
p515
I0
sg160
g221
sg30
g40
sg359
Vwrap
p516
sS'experimental_blocks.thisN'
p517
I0
sg42
g43
sg362
Vfold
p518
sg364
Vstab
p519
sg366
Vtwine
p520
sS'experimental_blocks.thisIndex'
p521
g371
sS'word_presentation.thisRepN'
p522
I0
sS'experimental_blocks.thisRepN'
p523
I0
sg44
g49
sg155
g217
sg374
g375
sS'training_block.thisIndex'
p524
g145
sg165
g225
sg20
F10.51625470485169
sS'experimental_blocks.thisTrialN'
p525
I0
sS'training_block.thisN'
p526
I0
sS'word_presentation.thisN'
p527
I7
sS'training_block.thisTrialN'
p528
I0
sg19
S'space'
p529
sg28
g29
sS'word_presentation.thisTrialN'
p530
I7
sg41
g12
sS'word_presentation.thisIndex'
p531
g31
(g131
S'\x07\x00\x00\x00'
p532
tp533
Rp534
sa(dp535
S'training_block.thisRepN'
p536
I0
sg160
g221
sg30
g40
sg359
Vdig
p537
sS'experimental_blocks.thisN'
p538
I0
sg42
g43
sg362
Vpolish
p539
sg364
Vpull
p540
sg366
Vpoke
p541
sS'experimental_blocks.thisIndex'
p542
g371
sS'word_presentation.thisRepN'
p543
I0
sS'experimental_blocks.thisRepN'
p544
I0
sg44
g49
sg155
g217
sg374
g375
sS'training_block.thisIndex'
p545
g145
sg165
g225
sg20
F8.753374098837412
sS'experimental_blocks.thisTrialN'
p546
I0
sS'training_block.thisN'
p547
I0
sS'word_presentation.thisN'
p548
I8
sS'training_block.thisTrialN'
p549
I0
sg19
S'space'
p550
sg28
g29
sS'word_presentation.thisTrialN'
p551
I8
sg41
g12
sS'word_presentation.thisIndex'
p552
g31
(g131
S'\x08\x00\x00\x00'
p553
tp554
Rp555
sa(dp556
S'training_block.thisRepN'
p557
I0
sg160
g221
sg30
g40
sg359
Vtrek
p558
sS'experimental_blocks.thisN'
p559
I0
sg42
g43
sg362
Vjump
p560
sg364
Vstagger
p561
sg366
Vflit
p562
sS'experimental_blocks.thisIndex'
p563
g371
sS'word_presentation.thisRepN'
p564
I0
sS'experimental_blocks.thisRepN'
p565
I0
sg44
g49
sg155
g217
sg374
g418
sS'training_block.thisIndex'
p566
g145
sg165
g225
sg20
F12.813791784576097
sS'experimental_blocks.thisTrialN'
p567
I0
sS'training_block.thisN'
p568
I0
sS'word_presentation.thisN'
p569
I9
sS'training_block.thisTrialN'
p570
I0
sg19
S'space'
p571
sg28
g29
sS'word_presentation.thisTrialN'
p572
I9
sg41
g12
sS'word_presentation.thisIndex'
p573
g31
(g131
S'\t\x00\x00\x00'
p574
tp575
Rp576
sa(dp577
S'training_block.thisRepN'
p578
I0
sg160
g221
sg30
g40
sg359
Vtrot
p579
sS'experimental_blocks.thisN'
p580
I0
sg42
g43
sg362
Vcreep
p581
sg364
Vclimb
p582
sg366
Vjog
p583
sS'experimental_blocks.thisIndex'
p584
g371
sS'word_presentation.thisRepN'
p585
I0
sS'experimental_blocks.thisRepN'
p586
I0
sg44
g49
sg155
g217
sg374
g418
sS'training_block.thisIndex'
p587
g145
sg165
g225
sg20
F11.82561920709577
sS'experimental_blocks.thisTrialN'
p588
I0
sS'training_block.thisN'
p589
I0
sS'word_presentation.thisN'
p590
I10
sS'training_block.thisTrialN'
p591
I0
sg19
S'space'
p592
sg28
g29
sS'word_presentation.thisTrialN'
p593
I10
sg41
g12
sS'word_presentation.thisIndex'
p594
g31
(g131
S'\n\x00\x00\x00'
p595
tp596
Rp597
sa(dp598
S'training_block.thisRepN'
p599
I0
sg160
g221
sg30
g40
sg359
Vclap
p600
sS'experimental_blocks.thisN'
p601
I0
sg42
g43
sg362
Vshake
p602
sg364
Vnip
p603
sg366
Vthrow
p604
sS'experimental_blocks.thisIndex'
p605
g371
sS'word_presentation.thisRepN'
p606
I0
sS'experimental_blocks.thisRepN'
p607
I0
sg44
g49
sg155
g217
sg374
g375
sS'training_block.thisIndex'
p608
g145
sg165
g225
sg20
F9.593849692875665
sS'experimental_blocks.thisTrialN'
p609
I0
sS'training_block.thisN'
p610
I0
sS'word_presentation.thisN'
p611
I11
sS'training_block.thisTrialN'
p612
I0
sg19
S'space'
p613
sg28
g29
sS'word_presentation.thisTrialN'
p614
I11
sg41
g12
sS'word_presentation.thisIndex'
p615
g31
(g131
S'\x0b\x00\x00\x00'
p616
tp617
Rp618
sa(dp619
S'training_block.thisRepN'
p620
I0
sg160
g221
sg30
g40
sg359
Vrub
p621
sS'experimental_blocks.thisN'
p622
I0
sg42
g43
sg362
Vwipe
p623
sg364
Vgrip
p624
sg366
Vclutch
p625
sS'experimental_blocks.thisIndex'
p626
g371
sS'word_presentation.thisRepN'
p627
I0
sS'experimental_blocks.thisRepN'
p628
I0
sg44
g49
sg155
g217
sg374
g375
sS'training_block.thisIndex'
p629
g145
sg165
g225
sg20
F13.484785242234466
sS'experimental_blocks.thisTrialN'
p630
I0
sS'training_block.thisN'
p631
I0
sS'word_presentation.thisN'
p632
I12
sS'training_block.thisTrialN'
p633
I0
sg19
S'space'
p634
sg28
g29
sS'word_presentation.thisTrialN'
p635
I12
sg41
g12
sS'word_presentation.thisIndex'
p636
g31
(g131
S'\x0c\x00\x00\x00'
p637
tp638
Rp639
sa(dp640
S'training_block.thisRepN'
p641
I0
sg160
g221
sg30
g40
sg359
Vlimp
p642
sS'experimental_blocks.thisN'
p643
I0
sg42
g43
sg362
Vstray
p644
sg364
Vstamp
p645
sg366
Vroll
p646
sS'experimental_blocks.thisIndex'
p647
g371
sS'word_presentation.thisRepN'
p648
I0
sS'experimental_blocks.thisRepN'
p649
I0
sg44
g49
sg155
g217
sg374
g418
sS'training_block.thisIndex'
p650
g145
sg165
g225
sg20
F8.905468730861685
sS'experimental_blocks.thisTrialN'
p651
I0
sS'training_block.thisN'
p652
I0
sS'word_presentation.thisN'
p653
I13
sS'training_block.thisTrialN'
p654
I0
sg19
S'space'
p655
sg28
g29
sS'word_presentation.thisTrialN'
p656
I13
sg41
g12
sS'word_presentation.thisIndex'
p657
g31
(g131
S'\r\x00\x00\x00'
p658
tp659
Rp660
sa(dp661
S'training_block.thisRepN'
p662
I0
sg160
g221
sg30
g40
sg359
Vstride
p663
sS'experimental_blocks.thisN'
p664
I0
sg42
g43
sg362
Vprance
p665
sg364
Vwalk
p666
sg366
Vslither
p667
sS'experimental_blocks.thisIndex'
p668
g371
sS'word_presentation.thisRepN'
p669
I0
sS'experimental_blocks.thisRepN'
p670
I0
sg44
g49
sg155
g217
sg374
g418
sS'training_block.thisIndex'
p671
g145
sg165
g225
sg20
F11.6734992876045
sS'experimental_blocks.thisTrialN'
p672
I0
sS'training_block.thisN'
p673
I0
sS'word_presentation.thisN'
p674
I14
sS'training_block.thisTrialN'
p675
I0
sg19
S'space'
p676
sg28
g29
sS'word_presentation.thisTrialN'
p677
I14
sg41
g12
sS'word_presentation.thisIndex'
p678
g31
(g131
S'\x0e\x00\x00\x00'
p679
tp680
Rp681
sa(dp682
S'training_block.thisRepN'
p683
I0
sg160
g221
sg30
g40
sg359
Vsqueeze
p684
sS'experimental_blocks.thisN'
p685
I0
sg42
g43
sg362
Vbrush
p686
sg364
Vgrasp
p687
sg366
Vcatch
p688
sS'experimental_blocks.thisIndex'
p689
g371
sS'word_presentation.thisRepN'
p690
I0
sS'experimental_blocks.thisRepN'
p691
I0
sg44
g49
sg155
g217
sg374
g375
sS'training_block.thisIndex'
p692
g145
sg165
g225
sg20
F8.553057847451782
sS'experimental_blocks.thisTrialN'
p693
I0
sS'training_block.thisN'
p694
I0
sS'word_presentation.thisN'
p695
I15
sS'training_block.thisTrialN'
p696
I0
sg19
S'space'
p697
sg28
g29
sS'word_presentation.thisTrialN'
p698
I15
sg41
g12
sS'word_presentation.thisIndex'
p699
g31
(g131
S'\x0f\x00\x00\x00'
p700
tp701
Rp702
sa(dp703
S'training_block.thisRepN'
p704
I0
sg160
g221
sg30
g40
sg359
Vkick
p705
sS'experimental_blocks.thisN'
p706
I0
sg42
g43
sg362
Vstomp
p707
sg364
Vstroll
p708
sg366
Vskip
p709
sS'experimental_blocks.thisIndex'
p710
g371
sS'word_presentation.thisRepN'
p711
I0
sS'experimental_blocks.thisRepN'
p712
I0
sg44
g49
sg155
g217
sg374
g418
sS'training_block.thisIndex'
p713
g145
sg165
g225
sg20
F8.201813348463475
sS'experimental_blocks.thisTrialN'
p714
I0
sS'training_block.thisN'
p715
I0
sS'word_presentation.thisN'
p716
I16
sS'training_block.thisTrialN'
p717
I0
sg19
S'space'
p718
sg28
g29
sS'word_presentation.thisTrialN'
p719
I16
sg41
g12
sS'word_presentation.thisIndex'
p720
g31
(g131
S'\x10\x00\x00\x00'
p721
tp722
Rp723
sa(dp724
S'training_block.thisRepN'
p725
I0
sg160
g221
sg30
g40
sg359
Vwash
p726
sS'experimental_blocks.thisN'
p727
I0
sg42
g43
sg362
Vpeel
p728
sg364
Vwhip
p729
sg366
Vswitch
p730
sS'experimental_blocks.thisIndex'
p731
g371
sS'word_presentation.thisRepN'
p732
I0
sS'experimental_blocks.thisRepN'
p733
I0
sg44
g49
sg155
g217
sg374
g375
sS'training_block.thisIndex'
p734
g145
sg165
g225
sg20
F11.237431931275296
sS'experimental_blocks.thisTrialN'
p735
I0
sS'training_block.thisN'
p736
I0
sS'word_presentation.thisN'
p737
I17
sS'training_block.thisTrialN'
p738
I0
sg19
S'space'
p739
sg28
g29
sS'word_presentation.thisTrialN'
p740
I17
sg41
g12
sS'word_presentation.thisIndex'
p741
g31
(g131
S'\x11\x00\x00\x00'
p742
tp743
Rp744
sa(dp745
S'training_block.thisRepN'
p746
I0
sg160
g221
sg30
g40
sg359
Vbind
p747
sS'experimental_blocks.thisN'
p748
I0
sg42
g43
sg362
Vscrub
p749
sg364
Vcarve
p750
sg366
Vbash
p751
sS'experimental_blocks.thisIndex'
p752
g371
sS'word_presentation.thisRepN'
p753
I0
sS'experimental_blocks.thisRepN'
p754
I0
sg44
g49
sg155
g217
sg374
g375
sS'training_block.thisIndex'
p755
g145
sg165
g225
sg20
F7.765732163050416
sS'experimental_blocks.thisTrialN'
p756
I0
sS'training_block.thisN'
p757
I0
sS'word_presentation.thisN'
p758
I18
sS'training_block.thisTrialN'
p759
I0
sg19
S'space'
p760
sg28
g29
sS'word_presentation.thisTrialN'
p761
I18
sg41
g12
sS'word_presentation.thisIndex'
p762
g31
(g131
S'\x12\x00\x00\x00'
p763
tp764
Rp765
sa(dp766
S'training_block.thisRepN'
p767
I0
sg160
g221
sg30
g40
sg359
Vtoss
p768
sS'experimental_blocks.thisN'
p769
I0
sg42
g43
sg362
Vpat
p770
sg364
Vscrape
p771
sg366
Vscoop
p772
sS'experimental_blocks.thisIndex'
p773
g371
sS'word_presentation.thisRepN'
p774
I0
sS'experimental_blocks.thisRepN'
p775
I0
sg44
g49
sg155
g217
sg374
g375
sS'training_block.thisIndex'
p776
g145
sg165
g225
sg20
F8.621654448341815
sS'experimental_blocks.thisTrialN'
p777
I0
sS'training_block.thisN'
p778
I0
sS'word_presentation.thisN'
p779
I19
sS'training_block.thisTrialN'
p780
I0
sg19
S'space'
p781
sg28
g29
sS'word_presentation.thisTrialN'
p782
I19
sg41
g12
sS'word_presentation.thisIndex'
p783
g31
(g131
S'\x13\x00\x00\x00'
p784
tp785
Rp786
sa(dp787
S'training_block.thisRepN'
p788
I0
sg160
g221
sg30
g40
sg359
Vhop
p789
sS'experimental_blocks.thisN'
p790
I0
sg42
g43
sg362
Vramble
p791
sg364
Vtread
p792
sg366
Vmount
p793
sS'experimental_blocks.thisIndex'
p794
g371
sS'word_presentation.thisRepN'
p795
I0
sS'experimental_blocks.thisRepN'
p796
I0
sg44
g49
sg155
g217
sg374
g418
sS'training_block.thisIndex'
p797
g145
sg165
g225
sg20
F8.604131418966517
sS'experimental_blocks.thisTrialN'
p798
I0
sS'training_block.thisN'
p799
I0
sS'word_presentation.thisN'
p800
I20
sS'training_block.thisTrialN'
p801
I0
sg19
S'space'
p802
sg28
g29
sS'word_presentation.thisTrialN'
p803
I20
sg41
g12
sS'word_presentation.thisIndex'
p804
g31
(g131
S'\x14\x00\x00\x00'
p805
tp806
Rp807
sa(dp808
S'training_block.thisRepN'
p809
I0
sg160
g221
sg30
g40
sg359
Vdelve
p810
sS'experimental_blocks.thisN'
p811
I0
sg42
g43
sg362
Vclaw
p812
sg364
Vclean
p813
sg366
Vpinch
p814
sS'experimental_blocks.thisIndex'
p815
g371
sS'word_presentation.thisRepN'
p816
I0
sS'experimental_blocks.thisRepN'
p817
I0
sg44
g49
sg155
g217
sg374
g375
sS'training_block.thisIndex'
p818
g145
sg165
g225
sg20
F9.224882235474979
sS'experimental_blocks.thisTrialN'
p819
I0
sS'training_block.thisN'
p820
I0
sS'word_presentation.thisN'
p821
I21
sS'training_block.thisTrialN'
p822
I0
sg19
S'space'
p823
sg28
g29
sS'word_presentation.thisTrialN'
p824
I21
sg41
g12
sS'word_presentation.thisIndex'
p825
g31
(g131
S'\x15\x00\x00\x00'
p826
tp827
Rp828
sa(dp829
S'training_block.thisRepN'
p830
I0
sg160
g221
sg30
g40
sg359
Vskate
p831
sS'experimental_blocks.thisN'
p832
I0
sg42
g43
sg362
Vrun
p833
sg364
Vinch
p834
sg366
Vdance
p835
sS'experimental_blocks.thisIndex'
p836
g371
sS'word_presentation.thisRepN'
p837
I0
sS'experimental_blocks.thisRepN'
p838
I0
sg44
g49
sg155
g217
sg374
g418
sS'training_block.thisIndex'
p839
g145
sg165
g225
sg20
F6.491111850418292
sS'experimental_blocks.thisTrialN'
p840
I0
sS'training_block.thisN'
p841
I0
sS'word_presentation.thisN'
p842
I22
sS'training_block.thisTrialN'
p843
I0
sg19
S'space'
p844
sg28
g29
sS'word_presentation.thisTrialN'
p845
I22
sg41
g12
sS'word_presentation.thisIndex'
p846
g31
(g131
S'\x16\x00\x00\x00'
p847
tp848
Rp849
sa(dp850
S'training_block.thisRepN'
p851
I0
sg160
g221
sg30
g40
sg359
Vrush
p852
sS'experimental_blocks.thisN'
p853
I0
sg42
g43
sg362
Vslide
p854
sg364
Vwobble
p855
sg366
Vscuff
p856
sS'experimental_blocks.thisIndex'
p857
g371
sS'word_presentation.thisRepN'
p858
I0
sS'experimental_blocks.thisRepN'
p859
I0
sg44
g49
sg155
g217
sg374
g418
sS'training_block.thisIndex'
p860
g145
sg165
g225
sg20
F10.968952521990104
sS'experimental_blocks.thisTrialN'
p861
I0
sS'training_block.thisN'
p862
I0
sS'word_presentation.thisN'
p863
I23
sS'training_block.thisTrialN'
p864
I0
sg19
S'space'
p865
sg28
g29
sS'word_presentation.thisTrialN'
p866
I23
sg41
g12
sS'word_presentation.thisIndex'
p867
g31
(g131
S'\x17\x00\x00\x00'
p868
tp869
Rp870
sa(dp871
S'training_block.thisRepN'
p872
I0
sg160
g221
sg30
g40
sg359
Vdunk
p873
sS'experimental_blocks.thisN'
p874
I0
sg42
g43
sg362
Vbraid
p875
sg364
Vfile
p876
sg366
Vsnatch
p877
sS'experimental_blocks.thisIndex'
p878
g371
sS'word_presentation.thisRepN'
p879
I0
sS'experimental_blocks.thisRepN'
p880
I0
sg44
g49
sg155
g217
sg374
g375
sS'training_block.thisIndex'
p881
g145
sg165
g225
sg20
F5.636527035067957
sS'experimental_blocks.thisTrialN'
p882
I0
sS'training_block.thisN'
p883
I0
sS'word_presentation.thisN'
p884
I24
sS'training_block.thisTrialN'
p885
I0
sg19
S'space'
p886
sg28
g29
sS'word_presentation.thisTrialN'
p887
I24
sg41
g12
sS'word_presentation.thisIndex'
p888
g31
(g131
S'\x18\x00\x00\x00'
p889
tp890
Rp891
sa(dp892
S'training_block.thisRepN'
p893
I0
sg160
g221
sg30
g40
sg359
Vwade
p894
sS'experimental_blocks.thisN'
p895
I0
sg42
g43
sg362
Vstep
p896
sg364
Vtraipse
p897
sg366
Vsneak
p898
sS'experimental_blocks.thisIndex'
p899
g371
sS'word_presentation.thisRepN'
p900
I0
sS'experimental_blocks.thisRepN'
p901
I0
sg44
g49
sg155
g217
sg374
g418
sS'training_block.thisIndex'
p902
g145
sg165
g225
sg20
F9.123979709968353
sS'experimental_blocks.thisTrialN'
p903
I0
sS'training_block.thisN'
p904
I0
sS'word_presentation.thisN'
p905
I25
sS'training_block.thisTrialN'
p906
I0
sg19
S'space'
p907
sg28
g29
sS'word_presentation.thisTrialN'
p908
I25
sg41
g12
sS'word_presentation.thisIndex'
p909
g31
(g131
S'\x19\x00\x00\x00'
p910
tp911
Rp912
sa(dp913
S'training_block.thisRepN'
p914
I0
sg160
g221
sg30
g40
sg359
Vgrate
p915
sS'experimental_blocks.thisN'
p916
I0
sg42
g43
sg362
Vchop
p917
sg364
Vcut
p918
sg366
Vstir
p919
sS'experimental_blocks.thisIndex'
p920
g371
sS'word_presentation.thisRepN'
p921
I0
sS'experimental_blocks.thisRepN'
p922
I0
sg44
g49
sg155
g217
sg374
g375
sS'training_block.thisIndex'
p923
g145
sg165
g225
sg20
F8.537285580058779
sS'experimental_blocks.thisTrialN'
p924
I0
sS'training_block.thisN'
p925
I0
sS'word_presentation.thisN'
p926
I26
sS'training_block.thisTrialN'
p927
I0
sg19
S'space'
p928
sg28
g29
sS'word_presentation.thisTrialN'
p929
I26
sg41
g12
sS'word_presentation.thisIndex'
p930
g31
(g131
S'\x1a\x00\x00\x00'
p931
tp932
Rp933
sa(dp934
S'training_block.thisRepN'
p935
I0
sg160
g221
sg30
g40
sg359
Vplod
p936
sS'experimental_blocks.thisN'
p937
I0
sg42
g43
sg362
Vsprint
p938
sg364
Vleap
p939
sg366
Vflee
p940
sS'experimental_blocks.thisIndex'
p941
g371
sS'word_presentation.thisRepN'
p942
I0
sS'experimental_blocks.thisRepN'
p943
I0
sg44
g49
sg155
g217
sg374
g418
sS'training_block.thisIndex'
p944
g145
sg165
g225
sg20
F6.440987349154511
sS'experimental_blocks.thisTrialN'
p945
I0
sS'training_block.thisN'
p946
I0
sS'word_presentation.thisN'
p947
I27
sS'training_block.thisTrialN'
p948
I0
sg19
S'space'
p949
sg28
g29
sS'word_presentation.thisTrialN'
p950
I27
sg41
g12
sS'word_presentation.thisIndex'
p951
g31
(g131
S'\x1b\x00\x00\x00'
p952
tp953
Rp954
sa(dp955
S'training_block.thisRepN'
p956
I0
sg160
g221
sS'experimental_blocks.thisRepN'
p957
I0
sS'experimental_blocks.thisTrialN'
p958
I0
sS'training_block.thisN'
p959
I0
sg42
g43
sg41
g12
sg30
g40
sS'training_block.thisTrialN'
p960
I0
sg44
g49
sS'experimental_blocks.thisN'
p961
I0
sg165
g225
sg28
g29
sS'experimental_blocks.thisIndex'
p962
g371
sg155
g217
sS'training_block.thisIndex'
p963
g145
sa(dp964
S'training_block.thisRepN'
p965
I0
sg160
g236
sg30
g40
sS'word4'
p966
Vwrap
p967
sS'experimental_blocks.thisN'
p968
I1
sg42
g43
sS'word1'
p969
Vtoss
p970
sS'word3'
p971
Vstir
p972
sS'word2'
p973
Vknock
p974
sS'experimental_blocks.thisIndex'
p975
g31
(g131
S'\x03\x00\x00\x00'
p976
tp977
Rp978
sS'word_presentation.thisRepN'
p979
I0
sS'experimental_blocks.thisRepN'
p980
I0
sg44
g49
sg155
g232
sS'type'
p981
Varm
p982
sS'training_block.thisIndex'
p983
g145
sg165
g240
sg20
F5.136044202492485
sS'experimental_blocks.thisTrialN'
p984
I1
sS'training_block.thisN'
p985
I0
sS'word_presentation.thisN'
p986
I0
sS'training_block.thisTrialN'
p987
I0
sg19
S'space'
p988
sg28
g29
sS'word_presentation.thisTrialN'
p989
I0
sg41
g12
sS'word_presentation.thisIndex'
p990
g31
(g131
S'\x00\x00\x00\x00'
p991
tp992
Rp993
sa(dp994
S'training_block.thisRepN'
p995
I0
sg160
g236
sg30
g40
sg966
Vkick
p996
sS'experimental_blocks.thisN'
p997
I1
sg42
g43
sg969
Vstomp
p998
sg971
Vplod
p999
sg973
Vroam
p1000
sS'experimental_blocks.thisIndex'
p1001
g978
sS'word_presentation.thisRepN'
p1002
I0
sS'experimental_blocks.thisRepN'
p1003
I0
sg44
g49
sg155
g232
sg981
Vleg
p1004
sS'training_block.thisIndex'
p1005
g145
sg165
g240
sg20
F4.86414189746074
sS'experimental_blocks.thisTrialN'
p1006
I1
sS'training_block.thisN'
p1007
I0
sS'word_presentation.thisN'
p1008
I1
sS'training_block.thisTrialN'
p1009
I0
sg19
S'space'
p1010
sg28
g29
sS'word_presentation.thisTrialN'
p1011
I1
sg41
g12
sS'word_presentation.thisIndex'
p1012
g31
(g131
S'\x01\x00\x00\x00'
p1013
tp1014
Rp1015
sa(dp1016
S'training_block.thisRepN'
p1017
I0
sg160
g236
sg30
g40
sg966
Vclap
p1018
sS'experimental_blocks.thisN'
p1019
I1
sg42
g43
sg969
Vscrub
p1020
sg971
Vfold
p1021
sg973
Vclaw
p1022
sS'experimental_blocks.thisIndex'
p1023
g978
sS'word_presentation.thisRepN'
p1024
I0
sS'experimental_blocks.thisRepN'
p1025
I0
sg44
g49
sg155
g232
sg981
g982
sS'training_block.thisIndex'
p1026
g145
sg165
g240
sg20
F6.944022635444071
sS'experimental_blocks.thisTrialN'
p1027
I1
sS'training_block.thisN'
p1028
I0
sS'word_presentation.thisN'
p1029
I2
sS'training_block.thisTrialN'
p1030
I0
sg19
S'space'
p1031
sg28
g29
sS'word_presentation.thisTrialN'
p1032
I2
sg41
g12
sS'word_presentation.thisIndex'
p1033
g31
(g131
S'\x02\x00\x00\x00'
p1034
tp1035
Rp1036
sa(dp1037
S'training_block.thisRepN'
p1038
I0
sg160
g236
sg30
g40
sg966
Vbrush
p1039
sS'experimental_blocks.thisN'
p1040
I1
sg42
g43
sg969
Vskim
p1041
sg971
Vsnatch
p1042
sg973
Vcut
p1043
sS'experimental_blocks.thisIndex'
p1044
g978
sS'word_presentation.thisRepN'
p1045
I0
sS'experimental_blocks.thisRepN'
p1046
I0
sg44
g49
sg155
g232
sg981
g982
sS'training_block.thisIndex'
p1047
g145
sg165
g240
sg20
F5.183103388599648
sS'experimental_blocks.thisTrialN'
p1048
I1
sS'training_block.thisN'
p1049
I0
sS'word_presentation.thisN'
p1050
I3
sS'training_block.thisTrialN'
p1051
I0
sg19
S'space'
p1052
sg28
g29
sS'word_presentation.thisTrialN'
p1053
I3
sg41
g12
sS'word_presentation.thisIndex'
p1054
g31
(g131
S'\x03\x00\x00\x00'
p1055
tp1056
Rp1057
sa(dp1058
S'training_block.thisRepN'
p1059
I0
sg160
g236
sg30
g40
sg966
Vsprint
p1060
sS'experimental_blocks.thisN'
p1061
I1
sg42
g43
sg969
Vwobble
p1062
sg971
Vtiptoe
p1063
sg973
Vstamp
p1064
sS'experimental_blocks.thisIndex'
p1065
g978
sS'word_presentation.thisRepN'
p1066
I0
sS'experimental_blocks.thisRepN'
p1067
I0
sg44
g49
sg155
g232
sg981
g1004
sS'training_block.thisIndex'
p1068
g145
sg165
g240
sg20
F8.334338246740572
sS'experimental_blocks.thisTrialN'
p1069
I1
sS'training_block.thisN'
p1070
I0
sS'word_presentation.thisN'
p1071
I4
sS'training_block.thisTrialN'
p1072
I0
sg19
S'space'
p1073
sg28
g29
sS'word_presentation.thisTrialN'
p1074
I4
sg41
g12
sS'word_presentation.thisIndex'
p1075
g31
(g131
S'\x04\x00\x00\x00'
p1076
tp1077
Rp1078
sa(dp1079
S'training_block.thisRepN'
p1080
I0
sg160
g236
sg30
g40
sg966
Vclick
p1081
sS'experimental_blocks.thisN'
p1082
I1
sg42
g43
sg969
Vbind
p1083
sg971
Vgrate
p1084
sg973
Vpolish
p1085
sS'experimental_blocks.thisIndex'
p1086
g978
sS'word_presentation.thisRepN'
p1087
I0
sS'experimental_blocks.thisRepN'
p1088
I0
sg44
g49
sg155
g232
sg981
g982
sS'training_block.thisIndex'
p1089
g145
sg165
g240
sg20
F8.587625419910182
sS'experimental_blocks.thisTrialN'
p1090
I1
sS'training_block.thisN'
p1091
I0
sS'word_presentation.thisN'
p1092
I5
sS'training_block.thisTrialN'
p1093
I0
sg19
S'space'
p1094
sg28
g29
sS'word_presentation.thisTrialN'
p1095
I5
sg41
g12
sS'word_presentation.thisIndex'
p1096
g31
(g131
S'\x05\x00\x00\x00'
p1097
tp1098
Rp1099
sa(dp1100
S'training_block.thisRepN'
p1101
I0
sg160
g236
sg30
g40
sg966
Vleap
p1102
sS'experimental_blocks.thisN'
p1103
I1
sg42
g43
sg969
Vstroll
p1104
sg971
Vrun
p1105
sg973
Vprance
p1106
sS'experimental_blocks.thisIndex'
p1107
g978
sS'word_presentation.thisRepN'
p1108
I0
sS'experimental_blocks.thisRepN'
p1109
I0
sg44
g49
sg155
g232
sg981
g1004
sS'training_block.thisIndex'
p1110
g145
sg165
g240
sg20
F9.661210368809407
sS'experimental_blocks.thisTrialN'
p1111
I1
sS'training_block.thisN'
p1112
I0
sS'word_presentation.thisN'
p1113
I6
sS'training_block.thisTrialN'
p1114
I0
sg19
S'space'
p1115
sg28
g29
sS'word_presentation.thisTrialN'
p1116
I6
sg41
g12
sS'word_presentation.thisIndex'
p1117
g31
(g131
S'\x06\x00\x00\x00'
p1118
tp1119
Rp1120
sa(dp1121
S'training_block.thisRepN'
p1122
I0
sg160
g236
sg30
g40
sg966
Vchop
p1123
sS'experimental_blocks.thisN'
p1124
I1
sg42
g43
sg969
Vwhip
p1125
sg971
Vgrasp
p1126
sg973
Vdelve
p1127
sS'experimental_blocks.thisIndex'
p1128
g978
sS'word_presentation.thisRepN'
p1129
I0
sS'experimental_blocks.thisRepN'
p1130
I0
sg44
g49
sg155
g232
sg981
g982
sS'training_block.thisIndex'
p1131
g145
sg165
g240
sg20
F6.457732393798324
sS'experimental_blocks.thisTrialN'
p1132
I1
sS'training_block.thisN'
p1133
I0
sS'word_presentation.thisN'
p1134
I7
sS'training_block.thisTrialN'
p1135
I0
sg19
S'space'
p1136
sg28
g29
sS'word_presentation.thisTrialN'
p1137
I7
sg41
g12
sS'word_presentation.thisIndex'
p1138
g31
(g131
S'\x07\x00\x00\x00'
p1139
tp1140
Rp1141
sa(dp1142
S'training_block.thisRepN'
p1143
I0
sg160
g236
sg30
g40
sg966
Vclutch
p1144
sS'experimental_blocks.thisN'
p1145
I1
sg42
g43
sg969
Vscoop
p1146
sg971
Vbash
p1147
sg973
Vfile
p1148
sS'experimental_blocks.thisIndex'
p1149
g978
sS'word_presentation.thisRepN'
p1150
I0
sS'experimental_blocks.thisRepN'
p1151
I0
sg44
g49
sg155
g232
sg981
g982
sS'training_block.thisIndex'
p1152
g145
sg165
g240
sg20
F7.797783632528535
sS'experimental_blocks.thisTrialN'
p1153
I1
sS'training_block.thisN'
p1154
I0
sS'word_presentation.thisN'
p1155
I8
sS'training_block.thisTrialN'
p1156
I0
sg19
S'space'
p1157
sg28
g29
sS'word_presentation.thisTrialN'
p1158
I8
sg41
g12
sS'word_presentation.thisIndex'
p1159
g31
(g131
S'\x08\x00\x00\x00'
p1160
tp1161
Rp1162
sa(dp1163
S'training_block.thisRepN'
p1164
I0
sg160
g236
sg30
g40
sg966
Vshake
p1165
sS'experimental_blocks.thisN'
p1166
I1
sg42
g43
sg969
Vwash
p1167
sg971
Vscrape
p1168
sg973
Vcarve
p1169
sS'experimental_blocks.thisIndex'
p1170
g978
sS'word_presentation.thisRepN'
p1171
I0
sS'experimental_blocks.thisRepN'
p1172
I0
sg44
g49
sg155
g232
sg981
g982
sS'training_block.thisIndex'
p1173
g145
sg165
g240
sg20
F10.231270086744189
sS'experimental_blocks.thisTrialN'
p1174
I1
sS'training_block.thisN'
p1175
I0
sS'word_presentation.thisN'
p1176
I9
sS'training_block.thisTrialN'
p1177
I0
sg19
S'space'
p1178
sg28
g29
sS'word_presentation.thisTrialN'
p1179
I9
sg41
g12
sS'word_presentation.thisIndex'
p1180
g31
(g131
S'\t\x00\x00\x00'
p1181
tp1182
Rp1183
sa(dp1184
S'training_block.thisRepN'
p1185
I0
sg160
g236
sg30
g40
sg966
Vpace
p1186
sS'experimental_blocks.thisN'
p1187
I1
sg42
g43
sg969
Vinch
p1188
sg971
Vslither
p1189
sg973
Vcrawl
p1190
sS'experimental_blocks.thisIndex'
p1191
g978
sS'word_presentation.thisRepN'
p1192
I0
sS'experimental_blocks.thisRepN'
p1193
I0
sg44
g49
sg155
g232
sg981
g1004
sS'training_block.thisIndex'
p1194
g145
sg165
g240
sg20
F12.02682447099778
sS'experimental_blocks.thisTrialN'
p1195
I1
sS'training_block.thisN'
p1196
I0
sS'word_presentation.thisN'
p1197
I10
sS'training_block.thisTrialN'
p1198
I0
sg19
S'space'
p1199
sg28
g29
sS'word_presentation.thisTrialN'
p1200
I10
sg41
g12
sS'word_presentation.thisIndex'
p1201
g31
(g131
S'\n\x00\x00\x00'
p1202
tp1203
Rp1204
sa(dp1205
S'training_block.thisRepN'
p1206
I0
sg160
g236
sg30
g40
sg966
Vtrip
p1207
sS'experimental_blocks.thisN'
p1208
I1
sg42
g43
sg969
Vflee
p1209
sg971
Vhop
p1210
sg973
Vramble
p1211
sS'experimental_blocks.thisIndex'
p1212
g978
sS'word_presentation.thisRepN'
p1213
I0
sS'experimental_blocks.thisRepN'
p1214
I0
sg44
g49
sg155
g232
sg981
g1004
sS'training_block.thisIndex'
p1215
g145
sg165
g240
sg20
F5.887277954307137
sS'experimental_blocks.thisTrialN'
p1216
I1
sS'training_block.thisN'
p1217
I0
sS'word_presentation.thisN'
p1218
I11
sS'training_block.thisTrialN'
p1219
I0
sg19
S'space'
p1220
sg28
g29
sS'word_presentation.thisTrialN'
p1221
I11
sg41
g12
sS'word_presentation.thisIndex'
p1222
g31
(g131
S'\x0b\x00\x00\x00'
p1223
tp1224
Rp1225
sa(dp1226
S'training_block.thisRepN'
p1227
I0
sg160
g236
sg30
g40
sg966
Vstab
p1228
sS'experimental_blocks.thisN'
p1229
I1
sg42
g43
sg969
Vdig
p1230
sg971
Vscratch
p1231
sg973
Vclean
p1232
sS'experimental_blocks.thisIndex'
p1233
g978
sS'word_presentation.thisRepN'
p1234
I0
sS'experimental_blocks.thisRepN'
p1235
I0
sg44
g49
sg155
g232
sg981
g982
sS'training_block.thisIndex'
p1236
g145
sg165
g240
sg20
F5.569669342660291
sS'experimental_blocks.thisTrialN'
p1237
I1
sS'training_block.thisN'
p1238
I0
sS'word_presentation.thisN'
p1239
I12
sS'training_block.thisTrialN'
p1240
I0
sg19
S'space'
p1241
sg28
g29
sS'word_presentation.thisTrialN'
p1242
I12
sg41
g12
sS'word_presentation.thisIndex'
p1243
g31
(g131
S'\x0c\x00\x00\x00'
p1244
tp1245
Rp1246
sa(dp1247
S'training_block.thisRepN'
p1248
I0
sg160
g236
sg30
g40
sg966
Vflit
p1249
sS'experimental_blocks.thisN'
p1250
I1
sg42
g43
sg969
Vstumble
p1251
sg971
Vglide
p1252
sg973
Vdance
p1253
sS'experimental_blocks.thisIndex'
p1254
g978
sS'word_presentation.thisRepN'
p1255
I0
sS'experimental_blocks.thisRepN'
p1256
I0
sg44
g49
sg155
g232
sg981
g1004
sS'training_block.thisIndex'
p1257
g145
sg165
g240
sg20
F10.096956890400179
sS'experimental_blocks.thisTrialN'
p1258
I1
sS'training_block.thisN'
p1259
I0
sS'word_presentation.thisN'
p1260
I13
sS'training_block.thisTrialN'
p1261
I0
sg19
S'space'
p1262
sg28
g29
sS'word_presentation.thisTrialN'
p1263
I13
sg41
g12
sS'word_presentation.thisIndex'
p1264
g31
(g131
S'\r\x00\x00\x00'
p1265
tp1266
Rp1267
sa(dp1268
S'training_block.thisRepN'
p1269
I0
sg160
g236
sg30
g40
sg966
Vpunch
p1270
sS'experimental_blocks.thisN'
p1271
I1
sg42
g43
sg969
Vslap
p1272
sg971
Vhack
p1273
sg973
Vdunk
p1274
sS'experimental_blocks.thisIndex'
p1275
g978
sS'word_presentation.thisRepN'
p1276
I0
sS'experimental_blocks.thisRepN'
p1277
I0
sg44
g49
sg155
g232
sg981
g982
sS'training_block.thisIndex'
p1278
g145
sg165
g240
sg20
F5.367190222601039
sS'experimental_blocks.thisTrialN'
p1279
I1
sS'training_block.thisN'
p1280
I0
sS'word_presentation.thisN'
p1281
I14
sS'training_block.thisTrialN'
p1282
I0
sg19
S'space'
p1283
sg28
g29
sS'word_presentation.thisTrialN'
p1284
I14
sg41
g12
sS'word_presentation.thisIndex'
p1285
g31
(g131
S'\x0e\x00\x00\x00'
p1286
tp1287
Rp1288
sa(dp1289
S'training_block.thisRepN'
p1290
I0
sg160
g236
sg30
g40
sg966
Vkneel
p1291
sS'experimental_blocks.thisN'
p1292
I1
sg42
g43
sg969
Vslide
p1293
sg971
Vcreep
p1294
sg973
Vstagger
p1295
sS'experimental_blocks.thisIndex'
p1296
g978
sS'word_presentation.thisRepN'
p1297
I0
sS'experimental_blocks.thisRepN'
p1298
I0
sg44
g49
sg155
g232
sg981
g1004
sS'training_block.thisIndex'
p1299
g145
sg165
g240
sg20
F8.973288137254258
sS'experimental_blocks.thisTrialN'
p1300
I1
sS'training_block.thisN'
p1301
I0
sS'word_presentation.thisN'
p1302
I15
sS'training_block.thisTrialN'
p1303
I0
sg19
S'space'
p1304
sg28
g29
sS'word_presentation.thisTrialN'
p1305
I15
sg41
g12
sS'word_presentation.thisIndex'
p1306
g31
(g131
S'\x0f\x00\x00\x00'
p1307
tp1308
Rp1309
sa(dp1310
S'training_block.thisRepN'
p1311
I0
sg160
g236
sg30
g40
sg966
Vlimp
p1312
sS'experimental_blocks.thisN'
p1313
I1
sg42
g43
sg969
Vstep
p1314
sg971
Vwade
p1315
sg973
Vjump
p1316
sS'experimental_blocks.thisIndex'
p1317
g978
sS'word_presentation.thisRepN'
p1318
I0
sS'experimental_blocks.thisRepN'
p1319
I0
sg44
g49
sg155
g232
sg981
g1004
sS'training_block.thisIndex'
p1320
g145
sg165
g240
sg20
F7.396880869951929
sS'experimental_blocks.thisTrialN'
p1321
I1
sS'training_block.thisN'
p1322
I0
sS'word_presentation.thisN'
p1323
I16
sS'training_block.thisTrialN'
p1324
I0
sg19
S'space'
p1325
sg28
g29
sS'word_presentation.thisTrialN'
p1326
I16
sg41
g12
sS'word_presentation.thisIndex'
p1327
g31
(g131
S'\x10\x00\x00\x00'
p1328
tp1329
Rp1330
sa(dp1331
S'training_block.thisRepN'
p1332
I0
sg160
g236
sg30
g40
sg966
Vbounce
p1333
sS'experimental_blocks.thisN'
p1334
I1
sg42
g43
sg969
Vrush
p1335
sg971
Vroll
p1336
sg973
Vsneak
p1337
sS'experimental_blocks.thisIndex'
p1338
g978
sS'word_presentation.thisRepN'
p1339
I0
sS'experimental_blocks.thisRepN'
p1340
I0
sg44
g49
sg155
g232
sg981
g1004
sS'training_block.thisIndex'
p1341
g145
sg165
g240
sg20
F8.202008931217279
sS'experimental_blocks.thisTrialN'
p1342
I1
sS'training_block.thisN'
p1343
I0
sS'word_presentation.thisN'
p1344
I17
sS'training_block.thisTrialN'
p1345
I0
sg19
S'space'
p1346
sg28
g29
sS'word_presentation.thisTrialN'
p1347
I17
sg41
g12
sS'word_presentation.thisIndex'
p1348
g31
(g131
S'\x11\x00\x00\x00'
p1349
tp1350
Rp1351
sa(dp1352
S'training_block.thisRepN'
p1353
I0
sg160
g236
sg30
g40
sg966
Vnip
p1354
sS'experimental_blocks.thisN'
p1355
I1
sg42
g43
sg969
Vsqueeze
p1356
sg971
Vbraid
p1357
sg973
Vpoke
p1358
sS'experimental_blocks.thisIndex'
p1359
g978
sS'word_presentation.thisRepN'
p1360
I0
sS'experimental_blocks.thisRepN'
p1361
I0
sg44
g49
sg155
g232
sg981
g982
sS'training_block.thisIndex'
p1362
g145
sg165
g240
sg20
F12.159680477047914
sS'experimental_blocks.thisTrialN'
p1363
I1
sS'training_block.thisN'
p1364
I0
sS'word_presentation.thisN'
p1365
I18
sS'training_block.thisTrialN'
p1366
I0
sg19
S'space'
p1367
sg28
g29
sS'word_presentation.thisTrialN'
p1368
I18
sg41
g12
sS'word_presentation.thisIndex'
p1369
g31
(g131
S'\x12\x00\x00\x00'
p1370
tp1371
Rp1372
sa(dp1373
S'training_block.thisRepN'
p1374
I0
sg160
g236
sg30
g40
sg966
Vpull
p1375
sS'experimental_blocks.thisN'
p1376
I1
sg42
g43
sg969
Vwipe
p1377
sg971
Vpat
p1378
sg973
Vlift
p1379
sS'experimental_blocks.thisIndex'
p1380
g978
sS'word_presentation.thisRepN'
p1381
I0
sS'experimental_blocks.thisRepN'
p1382
I0
sg44
g49
sg155
g232
sg981
g982
sS'training_block.thisIndex'
p1383
g145
sg165
g240
sg20
F6.088617162762148
sS'experimental_blocks.thisTrialN'
p1384
I1
sS'training_block.thisN'
p1385
I0
sS'word_presentation.thisN'
p1386
I19
sS'training_block.thisTrialN'
p1387
I0
sg19
S'space'
p1388
sg28
g29
sS'word_presentation.thisTrialN'
p1389
I19
sg41
g12
sS'word_presentation.thisIndex'
p1390
g31
(g131
S'\x13\x00\x00\x00'
p1391
tp1392
Rp1393
sa(dp1394
S'training_block.thisRepN'
p1395
I0
sg160
g236
sg30
g40
sg966
Vtwine
p1396
sS'experimental_blocks.thisN'
p1397
I1
sg42
g43
sg969
Vtug
p1398
sg971
Vpeel
p1399
sg973
Vpush
p1400
sS'experimental_blocks.thisIndex'
p1401
g978
sS'word_presentation.thisRepN'
p1402
I0
sS'experimental_blocks.thisRepN'
p1403
I0
sg44
g49
sg155
g232
sg981
g982
sS'training_block.thisIndex'
p1404
g145
sg165
g240
sg20
F7.631383406206169
sS'experimental_blocks.thisTrialN'
p1405
I1
sS'training_block.thisN'
p1406
I0
sS'word_presentation.thisN'
p1407
I20
sS'training_block.thisTrialN'
p1408
I0
sg19
S'space'
p1409
sg28
g29
sS'word_presentation.thisTrialN'
p1410
I20
sg41
g12
sS'word_presentation.thisIndex'
p1411
g31
(g131
S'\x14\x00\x00\x00'
p1412
tp1413
Rp1414
sa(dp1415
S'training_block.thisRepN'
p1416
I0
sg160
g236
sg30
g40
sg966
Vwalk
p1417
sS'experimental_blocks.thisN'
p1418
I1
sg42
g43
sg969
Vstride
p1419
sg971
Vtrot
p1420
sg973
Vmarch
p1421
sS'experimental_blocks.thisIndex'
p1422
g978
sS'word_presentation.thisRepN'
p1423
I0
sS'experimental_blocks.thisRepN'
p1424
I0
sg44
g49
sg155
g232
sg981
g1004
sS'training_block.thisIndex'
p1425
g145
sg165
g240
sg20
F7.110944020660099
sS'experimental_blocks.thisTrialN'
p1426
I1
sS'training_block.thisN'
p1427
I0
sS'word_presentation.thisN'
p1428
I21
sS'training_block.thisTrialN'
p1429
I0
sg19
S'space'
p1430
sg28
g29
sS'word_presentation.thisTrialN'
p1431
I21
sg41
g12
sS'word_presentation.thisIndex'
p1432
g31
(g131
S'\x15\x00\x00\x00'
p1433
tp1434
Rp1435
sa(dp1436
S'training_block.thisRepN'
p1437
I0
sg160
g236
sg30
g40
sg966
Vsway
p1438
sS'experimental_blocks.thisN'
p1439
I1
sg42
g43
sg969
Vskate
p1440
sg971
Vstrut
p1441
sg973
Vtrek
p1442
sS'experimental_blocks.thisIndex'
p1443
g978
sS'word_presentation.thisRepN'
p1444
I0
sS'experimental_blocks.thisRepN'
p1445
I0
sg44
g49
sg155
g232
sg981
g1004
sS'training_block.thisIndex'
p1446
g145
sg165
g240
sg20
F13.870537651063387
sS'experimental_blocks.thisTrialN'
p1447
I1
sS'training_block.thisN'
p1448
I0
sS'word_presentation.thisN'
p1449
I22
sS'training_block.thisTrialN'
p1450
I0
sg19
S'space'
p1451
sg28
g29
sS'word_presentation.thisTrialN'
p1452
I22
sg41
g12
sS'word_presentation.thisIndex'
p1453
g31
(g131
S'\x16\x00\x00\x00'
p1454
tp1455
Rp1456
sa(dp1457
S'training_block.thisRepN'
p1458
I0
sg160
g236
sg30
g40
sg966
Vseize
p1459
sS'experimental_blocks.thisN'
p1460
I1
sg42
g43
sg969
Vrub
p1461
sg971
Vcatch
p1462
sg973
Vthrow
p1463
sS'experimental_blocks.thisIndex'
p1464
g978
sS'word_presentation.thisRepN'
p1465
I0
sS'experimental_blocks.thisRepN'
p1466
I0
sg44
g49
sg155
g232
sg981
g982
sS'training_block.thisIndex'
p1467
g145
sg165
g240
sg20
F7.027991645652946
sS'experimental_blocks.thisTrialN'
p1468
I1
sS'training_block.thisN'
p1469
I0
sS'word_presentation.thisN'
p1470
I23
sS'training_block.thisTrialN'
p1471
I0
sg19
S'space'
p1472
sg28
g29
sS'word_presentation.thisTrialN'
p1473
I23
sg41
g12
sS'word_presentation.thisIndex'
p1474
g31
(g131
S'\x17\x00\x00\x00'
p1475
tp1476
Rp1477
sa(dp1478
S'training_block.thisRepN'
p1479
I0
sg160
g236
sg30
g40
sg966
Vpinch
p1480
sS'experimental_blocks.thisN'
p1481
I1
sg42
g43
sg969
Vgrip
p1482
sg971
Vgrab
p1483
sg973
Vswitch
p1484
sS'experimental_blocks.thisIndex'
p1485
g978
sS'word_presentation.thisRepN'
p1486
I0
sS'experimental_blocks.thisRepN'
p1487
I0
sg44
g49
sg155
g232
sg981
g982
sS'training_block.thisIndex'
p1488
g145
sg165
g240
sg20
F4.9145935553310665
sS'experimental_blocks.thisTrialN'
p1489
I1
sS'training_block.thisN'
p1490
I0
sS'word_presentation.thisN'
p1491
I24
sS'training_block.thisTrialN'
p1492
I0
sg19
S'space'
p1493
sg28
g29
sS'word_presentation.thisTrialN'
p1494
I24
sg41
g12
sS'word_presentation.thisIndex'
p1495
g31
(g131
S'\x18\x00\x00\x00'
p1496
tp1497
Rp1498
sa(dp1499
S'training_block.thisRepN'
p1500
I0
sg160
g236
sg30
g40
sg966
Vslip
p1501
sS'experimental_blocks.thisN'
p1502
I1
sg42
g43
sg969
Vhike
p1503
sg971
Vmount
p1504
sg973
Vclimb
p1505
sS'experimental_blocks.thisIndex'
p1506
g978
sS'word_presentation.thisRepN'
p1507
I0
sS'experimental_blocks.thisRepN'
p1508
I0
sg44
g49
sg155
g232
sg981
g1004
sS'training_block.thisIndex'
p1509
g145
sg165
g240
sg20
F9.744730526476815
sS'experimental_blocks.thisTrialN'
p1510
I1
sS'training_block.thisN'
p1511
I0
sS'word_presentation.thisN'
p1512
I25
sS'training_block.thisTrialN'
p1513
I0
sg19
S'space'
p1514
sg28
g29
sS'word_presentation.thisTrialN'
p1515
I25
sg41
g12
sS'word_presentation.thisIndex'
p1516
g31
(g131
S'\x19\x00\x00\x00'
p1517
tp1518
Rp1519
sa(dp1520
S'training_block.thisRepN'
p1521
I0
sg160
g236
sg30
g40
sg966
Vskip
p1522
sS'experimental_blocks.thisN'
p1523
I1
sg42
g43
sg969
Vwander
p1524
sg971
Vtraipse
p1525
sg973
Vscuff
p1526
sS'experimental_blocks.thisIndex'
p1527
g978
sS'word_presentation.thisRepN'
p1528
I0
sS'experimental_blocks.thisRepN'
p1529
I0
sg44
g49
sg155
g232
sg981
g1004
sS'training_block.thisIndex'
p1530
g145
sg165
g240
sg20
F12.260368454200943
sS'experimental_blocks.thisTrialN'
p1531
I1
sS'training_block.thisN'
p1532
I0
sS'word_presentation.thisN'
p1533
I26
sS'training_block.thisTrialN'
p1534
I0
sg19
S'space'
p1535
sg28
g29
sS'word_presentation.thisTrialN'
p1536
I26
sg41
g12
sS'word_presentation.thisIndex'
p1537
g31
(g131
S'\x1a\x00\x00\x00'
p1538
tp1539
Rp1540
sa(dp1541
S'training_block.thisRepN'
p1542
I0
sg160
g236
sg30
g40
sg966
Vtrudge
p1543
sS'experimental_blocks.thisN'
p1544
I1
sg42
g43
sg969
Vtread
p1545
sg971
Vstray
p1546
sg973
Vjog
p1547
sS'experimental_blocks.thisIndex'
p1548
g978
sS'word_presentation.thisRepN'
p1549
I0
sS'experimental_blocks.thisRepN'
p1550
I0
sg44
g49
sg155
g232
sg981
g1004
sS'training_block.thisIndex'
p1551
g145
sg165
g240
sg20
F12.377888401666041
sS'experimental_blocks.thisTrialN'
p1552
I1
sS'training_block.thisN'
p1553
I0
sS'word_presentation.thisN'
p1554
I27
sS'training_block.thisTrialN'
p1555
I0
sg19
S'space'
p1556
sg28
g29
sS'word_presentation.thisTrialN'
p1557
I27
sg41
g12
sS'word_presentation.thisIndex'
p1558
g31
(g131
S'\x1b\x00\x00\x00'
p1559
tp1560
Rp1561
sa(dp1562
S'training_block.thisRepN'
p1563
I0
sg160
g236
sS'experimental_blocks.thisRepN'
p1564
I0
sS'experimental_blocks.thisTrialN'
p1565
I1
sS'training_block.thisN'
p1566
I0
sg42
g43
sg41
g12
sg30
g40
sS'training_block.thisTrialN'
p1567
I0
sg44
g49
sS'experimental_blocks.thisN'
p1568
I1
sg165
g240
sg28
g29
sS'experimental_blocks.thisIndex'
p1569
g978
sg155
g232
sS'training_block.thisIndex'
p1570
g145
sa(dp1571
S'training_block.thisRepN'
p1572
I0
sg160
g206
sg30
g40
sS'word4'
p1573
Vclaw
p1574
sS'experimental_blocks.thisN'
p1575
I2
sg42
g43
sS'word1'
p1576
Vwash
p1577
sS'word3'
p1578
Vscoop
p1579
sS'word2'
p1580
Vknock
p1581
sS'experimental_blocks.thisIndex'
p1582
g31
(g131
S'\x00\x00\x00\x00'
p1583
tp1584
Rp1585
sS'word_presentation.thisRepN'
p1586
I0
sS'experimental_blocks.thisRepN'
p1587
I0
sg44
g49
sg155
g202
sS'type'
p1588
Varm
p1589
sS'training_block.thisIndex'
p1590
g145
sg165
g210
sg20
F4.461813553924458
sS'experimental_blocks.thisTrialN'
p1591
I2
sS'training_block.thisN'
p1592
I0
sS'word_presentation.thisN'
p1593
I0
sS'training_block.thisTrialN'
p1594
I0
sg19
S'space'
p1595
sg28
g29
sS'word_presentation.thisTrialN'
p1596
I0
sg41
g12
sS'word_presentation.thisIndex'
p1597
g31
(g131
S'\x00\x00\x00\x00'
p1598
tp1599
Rp1600
sa(dp1601
S'training_block.thisRepN'
p1602
I0
sg160
g206
sg30
g40
sg1573
Vwrap
p1603
sS'experimental_blocks.thisN'
p1604
I2
sg42
g43
sg1576
Vpoke
p1605
sg1578
Vpeel
p1606
sg1580
Vlift
p1607
sS'experimental_blocks.thisIndex'
p1608
g1585
sS'word_presentation.thisRepN'
p1609
I0
sS'experimental_blocks.thisRepN'
p1610
I0
sg44
g49
sg155
g202
sg1588
g1589
sS'training_block.thisIndex'
p1611
g145
sg165
g210
sg20
F3.371754610418975
sS'experimental_blocks.thisTrialN'
p1612
I2
sS'training_block.thisN'
p1613
I0
sS'word_presentation.thisN'
p1614
I1
sS'training_block.thisTrialN'
p1615
I0
sg19
S'space'
p1616
sg28
g29
sS'word_presentation.thisTrialN'
p1617
I1
sg41
g12
sS'word_presentation.thisIndex'
p1618
g31
(g131
S'\x01\x00\x00\x00'
p1619
tp1620
Rp1621
sa(dp1622
S'training_block.thisRepN'
p1623
I0
sg160
g206
sg30
g40
sg1573
Vslip
p1624
sS'experimental_blocks.thisN'
p1625
I2
sg42
g43
sg1576
Vsway
p1626
sg1578
Vstride
p1627
sg1580
Vhike
p1628
sS'experimental_blocks.thisIndex'
p1629
g1585
sS'word_presentation.thisRepN'
p1630
I0
sS'experimental_blocks.thisRepN'
p1631
I0
sg44
g49
sg155
g202
sg1588
Vleg
p1632
sS'training_block.thisIndex'
p1633
g145
sg165
g210
sg20
F6.440322762908636
sS'experimental_blocks.thisTrialN'
p1634
I2
sS'training_block.thisN'
p1635
I0
sS'word_presentation.thisN'
p1636
I2
sS'training_block.thisTrialN'
p1637
I0
sg19
S'space'
p1638
sg28
g29
sS'word_presentation.thisTrialN'
p1639
I2
sg41
g12
sS'word_presentation.thisIndex'
p1640
g31
(g131
S'\x02\x00\x00\x00'
p1641
tp1642
Rp1643
sa(dp1644
S'training_block.thisRepN'
p1645
I0
sg160
g206
sg30
g40
sg1573
Vtrek
p1646
sS'experimental_blocks.thisN'
p1647
I2
sg42
g43
sg1576
Vdance
p1648
sg1578
Vsneak
p1649
sg1580
Vjog
p1650
sS'experimental_blocks.thisIndex'
p1651
g1585
sS'word_presentation.thisRepN'
p1652
I0
sS'experimental_blocks.thisRepN'
p1653
I0
sg44
g49
sg155
g202
sg1588
g1632
sS'training_block.thisIndex'
p1654
g145
sg165
g210
sg20
F4.746928560534798
sS'experimental_blocks.thisTrialN'
p1655
I2
sS'training_block.thisN'
p1656
I0
sS'word_presentation.thisN'
p1657
I3
sS'training_block.thisTrialN'
p1658
I0
sg19
S'space'
p1659
sg28
g29
sS'word_presentation.thisTrialN'
p1660
I3
sg41
g12
sS'word_presentation.thisIndex'
p1661
g31
(g131
S'\x03\x00\x00\x00'
p1662
tp1663
Rp1664
sa(dp1665
S'training_block.thisRepN'
p1666
I0
sg160
g206
sg30
g40
sg1573
Vgrasp
p1667
sS'experimental_blocks.thisN'
p1668
I2
sg42
g43
sg1576
Vtoss
p1669
sg1578
Vbind
p1670
sg1580
Vseize
p1671
sS'experimental_blocks.thisIndex'
p1672
g1585
sS'word_presentation.thisRepN'
p1673
I0
sS'experimental_blocks.thisRepN'
p1674
I0
sg44
g49
sg155
g202
sg1588
g1589
sS'training_block.thisIndex'
p1675
g145
sg165
g210
sg20
F7.983755173065219
sS'experimental_blocks.thisTrialN'
p1676
I2
sS'training_block.thisN'
p1677
I0
sS'word_presentation.thisN'
p1678
I4
sS'training_block.thisTrialN'
p1679
I0
sg19
S'space'
p1680
sg28
g29
sS'word_presentation.thisTrialN'
p1681
I4
sg41
g12
sS'word_presentation.thisIndex'
p1682
g31
(g131
S'\x04\x00\x00\x00'
p1683
tp1684
Rp1685
sa(dp1686
S'training_block.thisRepN'
p1687
I0
sg160
g206
sg30
g40
sg1573
Vwade
p1688
sS'experimental_blocks.thisN'
p1689
I2
sg42
g43
sg1576
Vskate
p1690
sg1578
Vtread
p1691
sg1580
Vrush
p1692
sS'experimental_blocks.thisIndex'
p1693
g1585
sS'word_presentation.thisRepN'
p1694
I0
sS'experimental_blocks.thisRepN'
p1695
I0
sg44
g49
sg155
g202
sg1588
g1632
sS'training_block.thisIndex'
p1696
g145
sg165
g210
sg20
F9.96274760974211
sS'experimental_blocks.thisTrialN'
p1697
I2
sS'training_block.thisN'
p1698
I0
sS'word_presentation.thisN'
p1699
I5
sS'training_block.thisTrialN'
p1700
I0
sg19
S'space'
p1701
sg28
g29
sS'word_presentation.thisTrialN'
p1702
I5
sg41
g12
sS'word_presentation.thisIndex'
p1703
g31
(g131
S'\x05\x00\x00\x00'
p1704
tp1705
Rp1706
sa(dp1707
S'training_block.thisRepN'
p1708
I0
sg160
g206
sg30
g40
sg1573
Vkneel
p1709
sS'experimental_blocks.thisN'
p1710
I2
sg42
g43
sg1576
Vslither
p1711
sg1578
Vstumble
p1712
sg1580
Vinch
p1713
sS'experimental_blocks.thisIndex'
p1714
g1585
sS'word_presentation.thisRepN'
p1715
I0
sS'experimental_blocks.thisRepN'
p1716
I0
sg44
g49
sg155
g202
sg1588
g1632
sS'training_block.thisIndex'
p1717
g145
sg165
g210
sg20
F8.18504933821896
sS'experimental_blocks.thisTrialN'
p1718
I2
sS'training_block.thisN'
p1719
I0
sS'word_presentation.thisN'
p1720
I6
sS'training_block.thisTrialN'
p1721
I0
sg19
S'space'
p1722
sg28
g29
sS'word_presentation.thisTrialN'
p1723
I6
sg41
g12
sS'word_presentation.thisIndex'
p1724
g31
(g131
S'\x06\x00\x00\x00'
p1725
tp1726
Rp1727
sa(dp1728
S'training_block.thisRepN'
p1729
I0
sg160
g206
sg30
g40
sg1573
Vcrawl
p1730
sS'experimental_blocks.thisN'
p1731
I2
sg42
g43
sg1576
Vscuff
p1732
sg1578
Vtraipse
p1733
sg1580
Vpace
p1734
sS'experimental_blocks.thisIndex'
p1735
g1585
sS'word_presentation.thisRepN'
p1736
I0
sS'experimental_blocks.thisRepN'
p1737
I0
sg44
g49
sg155
g202
sg1588
g1632
sS'training_block.thisIndex'
p1738
g145
sg165
g210
sg20
F7.665124789699348
sS'experimental_blocks.thisTrialN'
p1739
I2
sS'training_block.thisN'
p1740
I0
sS'word_presentation.thisN'
p1741
I7
sS'training_block.thisTrialN'
p1742
I0
sg19
S'space'
p1743
sg28
g29
sS'word_presentation.thisTrialN'
p1744
I7
sg41
g12
sS'word_presentation.thisIndex'
p1745
g31
(g131
S'\x07\x00\x00\x00'
p1746
tp1747
Rp1748
sa(dp1749
S'training_block.thisRepN'
p1750
I0
sg160
g206
sg30
g40
sg1573
Vdunk
p1751
sS'experimental_blocks.thisN'
p1752
I2
sg42
g43
sg1576
Vscrub
p1753
sg1578
Vnip
p1754
sg1580
Vslap
p1755
sS'experimental_blocks.thisIndex'
p1756
g1585
sS'word_presentation.thisRepN'
p1757
I0
sS'experimental_blocks.thisRepN'
p1758
I0
sg44
g49
sg155
g202
sg1588
g1589
sS'training_block.thisIndex'
p1759
g145
sg165
g210
sg20
F7.498300208068031
sS'experimental_blocks.thisTrialN'
p1760
I2
sS'training_block.thisN'
p1761
I0
sS'word_presentation.thisN'
p1762
I8
sS'training_block.thisTrialN'
p1763
I0
sg19
S'space'
p1764
sg28
g29
sS'word_presentation.thisTrialN'
p1765
I8
sg41
g12
sS'word_presentation.thisIndex'
p1766
g31
(g131
S'\x08\x00\x00\x00'
p1767
tp1768
Rp1769
sa(dp1770
S'training_block.thisRepN'
p1771
I0
sg160
g206
sg30
g40
sg1573
Vglide
p1772
sS'experimental_blocks.thisN'
p1773
I2
sg42
g43
sg1576
Vjump
p1774
sg1578
Vramble
p1775
sg1580
Vstamp
p1776
sS'experimental_blocks.thisIndex'
p1777
g1585
sS'word_presentation.thisRepN'
p1778
I0
sS'experimental_blocks.thisRepN'
p1779
I0
sg44
g49
sg155
g202
sg1588
g1632
sS'training_block.thisIndex'
p1780
g145
sg165
g210
sg20
F10.517505249124952
sS'experimental_blocks.thisTrialN'
p1781
I2
sS'training_block.thisN'
p1782
I0
sS'word_presentation.thisN'
p1783
I9
sS'training_block.thisTrialN'
p1784
I0
sg19
S'space'
p1785
sg28
g29
sS'word_presentation.thisTrialN'
p1786
I9
sg41
g12
sS'word_presentation.thisIndex'
p1787
g31
(g131
S'\t\x00\x00\x00'
p1788
tp1789
Rp1790
sa(dp1791
S'training_block.thisRepN'
p1792
I0
sg160
g206
sg30
g40
sg1573
Vbounce
p1793
sS'experimental_blocks.thisN'
p1794
I2
sg42
g43
sg1576
Vrun
p1795
sg1578
Vmarch
p1796
sg1580
Vslide
p1797
sS'experimental_blocks.thisIndex'
p1798
g1585
sS'word_presentation.thisRepN'
p1799
I0
sS'experimental_blocks.thisRepN'
p1800
I0
sg44
g49
sg155
g202
sg1588
g1632
sS'training_block.thisIndex'
p1801
g145
sg165
g210
sg20
F6.961696599388688
sS'experimental_blocks.thisTrialN'
p1802
I2
sS'training_block.thisN'
p1803
I0
sS'word_presentation.thisN'
p1804
I10
sS'training_block.thisTrialN'
p1805
I0
sg19
S'space'
p1806
sg28
g29
sS'word_presentation.thisTrialN'
p1807
I10
sg41
g12
sS'word_presentation.thisIndex'
p1808
g31
(g131
S'\n\x00\x00\x00'
p1809
tp1810
Rp1811
sa(dp1812
S'training_block.thisRepN'
p1813
I0
sg160
g206
sg30
g40
sg1573
Vsprint
p1814
sS'experimental_blocks.thisN'
p1815
I2
sg42
g43
sg1576
Vleap
p1816
sg1578
Vroam
p1817
sg1580
Vtiptoe
p1818
sS'experimental_blocks.thisIndex'
p1819
g1585
sS'word_presentation.thisRepN'
p1820
I0
sS'experimental_blocks.thisRepN'
p1821
I0
sg44
g49
sg155
g202
sg1588
g1632
sS'training_block.thisIndex'
p1822
g145
sg165
g210
sg20
F8.436905003678476
sS'experimental_blocks.thisTrialN'
p1823
I2
sS'training_block.thisN'
p1824
I0
sS'word_presentation.thisN'
p1825
I11
sS'training_block.thisTrialN'
p1826
I0
sg19
S'space'
p1827
sg28
g29
sS'word_presentation.thisTrialN'
p1828
I11
sg41
g12
sS'word_presentation.thisIndex'
p1829
g31
(g131
S'\x0b\x00\x00\x00'
p1830
tp1831
Rp1832
sa(dp1833
S'training_block.thisRepN'
p1834
I0
sg160
g206
sg30
g40
sg1573
Vhack
p1835
sS'experimental_blocks.thisN'
p1836
I2
sg42
g43
sg1576
Vbrush
p1837
sg1578
Vcarve
p1838
sg1580
Vshake
p1839
sS'experimental_blocks.thisIndex'
p1840
g1585
sS'word_presentation.thisRepN'
p1841
I0
sS'experimental_blocks.thisRepN'
p1842
I0
sg44
g49
sg155
g202
sg1588
g1589
sS'training_block.thisIndex'
p1843
g145
sg165
g210
sg20
F7.212301325458611
sS'experimental_blocks.thisTrialN'
p1844
I2
sS'training_block.thisN'
p1845
I0
sS'word_presentation.thisN'
p1846
I12
sS'training_block.thisTrialN'
p1847
I0
sg19
S'space'
p1848
sg28
g29
sS'word_presentation.thisTrialN'
p1849
I12
sg41
g12
sS'word_presentation.thisIndex'
p1850
g31
(g131
S'\x0c\x00\x00\x00'
p1851
tp1852
Rp1853
sa(dp1854
S'training_block.thisRepN'
p1855
I0
sg160
g206
sg30
g40
sg1573
Vgrip
p1856
sS'experimental_blocks.thisN'
p1857
I2
sg42
g43
sg1576
Vpush
p1858
sg1578
Vchop
p1859
sg1580
Vdig
p1860
sS'experimental_blocks.thisIndex'
p1861
g1585
sS'word_presentation.thisRepN'
p1862
I0
sS'experimental_blocks.thisRepN'
p1863
I0
sg44
g49
sg155
g202
sg1588
g1589
sS'training_block.thisIndex'
p1864
g145
sg165
g210
sg20
F5.75421609246996
sS'experimental_blocks.thisTrialN'
p1865
I2
sS'training_block.thisN'
p1866
I0
sS'word_presentation.thisN'
p1867
I13
sS'training_block.thisTrialN'
p1868
I0
sg19
S'space'
p1869
sg28
g29
sS'word_presentation.thisTrialN'
p1870
I13
sg41
g12
sS'word_presentation.thisIndex'
p1871
g31
(g131
S'\r\x00\x00\x00'
p1872
tp1873
Rp1874
sa(dp1875
S'training_block.thisRepN'
p1876
I0
sg160
g206
sg30
g40
sg1573
Vscrape
p1877
sS'experimental_blocks.thisN'
p1878
I2
sg42
g43
sg1576
Vpunch
p1879
sg1578
Vwhip
p1880
sg1580
Vsqueeze
p1881
sS'experimental_blocks.thisIndex'
p1882
g1585
sS'word_presentation.thisRepN'
p1883
I0
sS'experimental_blocks.thisRepN'
p1884
I0
sg44
g49
sg155
g202
sg1588
g1589
sS'training_block.thisIndex'
p1885
g145
sg165
g210
sg20
F8.704844288469758
sS'experimental_blocks.thisTrialN'
p1886
I2
sS'training_block.thisN'
p1887
I0
sS'word_presentation.thisN'
p1888
I14
sS'training_block.thisTrialN'
p1889
I0
sg19
S'space'
p1890
sg28
g29
sS'word_presentation.thisTrialN'
p1891
I14
sg41
g12
sS'word_presentation.thisIndex'
p1892
g31
(g131
S'\x0e\x00\x00\x00'
p1893
tp1894
Rp1895
sa(dp1896
S'training_block.thisRepN'
p1897
I0
sg160
g206
sg30
g40
sg1573
Vwobble
p1898
sS'experimental_blocks.thisN'
p1899
I2
sg42
g43
sg1576
Vmount
p1900
sg1578
Vplod
p1901
sg1580
Vhop
p1902
sS'experimental_blocks.thisIndex'
p1903
g1585
sS'word_presentation.thisRepN'
p1904
I0
sS'experimental_blocks.thisRepN'
p1905
I0
sg44
g49
sg155
g202
sg1588
g1632
sS'training_block.thisIndex'
p1906
g145
sg165
g210
sg20
F8.436452990203179
sS'experimental_blocks.thisTrialN'
p1907
I2
sS'training_block.thisN'
p1908
I0
sS'word_presentation.thisN'
p1909
I15
sS'training_block.thisTrialN'
p1910
I0
sg19
S'space'
p1911
sg28
g29
sS'word_presentation.thisTrialN'
p1912
I15
sg41
g12
sS'word_presentation.thisIndex'
p1913
g31
(g131
S'\x0f\x00\x00\x00'
p1914
tp1915
Rp1916
sa(dp1917
S'training_block.thisRepN'
p1918
I0
sg160
g206
sg30
g40
sg1573
Vbraid
p1919
sS'experimental_blocks.thisN'
p1920
I2
sg42
g43
sg1576
Vclean
p1921
sg1578
Vstir
p1922
sg1580
Vclap
p1923
sS'experimental_blocks.thisIndex'
p1924
g1585
sS'word_presentation.thisRepN'
p1925
I0
sS'experimental_blocks.thisRepN'
p1926
I0
sg44
g49
sg155
g202
sg1588
g1589
sS'training_block.thisIndex'
p1927
g145
sg165
g210
sg20
F5.351178909620103
sS'experimental_blocks.thisTrialN'
p1928
I2
sS'training_block.thisN'
p1929
I0
sS'word_presentation.thisN'
p1930
I16
sS'training_block.thisTrialN'
p1931
I0
sg19
S'space'
p1932
sg28
g29
sS'word_presentation.thisTrialN'
p1933
I16
sg41
g12
sS'word_presentation.thisIndex'
p1934
g31
(g131
S'\x10\x00\x00\x00'
p1935
tp1936
Rp1937
sa(dp1938
S'training_block.thisRepN'
p1939
I0
sg160
g206
sg30
g40
sg1573
Vstep
p1940
sS'experimental_blocks.thisN'
p1941
I2
sg42
g43
sg1576
Vstroll
p1942
sg1578
Vkick
p1943
sg1580
Vstrut
p1944
sS'experimental_blocks.thisIndex'
p1945
g1585
sS'word_presentation.thisRepN'
p1946
I0
sS'experimental_blocks.thisRepN'
p1947
I0
sg44
g49
sg155
g202
sg1588
g1632
sS'training_block.thisIndex'
p1948
g145
sg165
g210
sg20
F5.199733059175742
sS'experimental_blocks.thisTrialN'
p1949
I2
sS'training_block.thisN'
p1950
I0
sS'word_presentation.thisN'
p1951
I17
sS'training_block.thisTrialN'
p1952
I0
sg19
S'space'
p1953
sg28
g29
sS'word_presentation.thisTrialN'
p1954
I17
sg41
g12
sS'word_presentation.thisIndex'
p1955
g31
(g131
S'\x11\x00\x00\x00'
p1956
tp1957
Rp1958
sa(dp1959
S'training_block.thisRepN'
p1960
I0
sg160
g206
sg30
g40
sg1573
Vswitch
p1961
sS'experimental_blocks.thisN'
p1962
I2
sg42
g43
sg1576
Vpat
p1963
sg1578
Vrub
p1964
sg1580
Vgrate
p1965
sS'experimental_blocks.thisIndex'
p1966
g1585
sS'word_presentation.thisRepN'
p1967
I0
sS'experimental_blocks.thisRepN'
p1968
I0
sg44
g49
sg155
g202
sg1588
g1589
sS'training_block.thisIndex'
p1969
g145
sg165
g210
sg20
F7.715461073500592
sS'experimental_blocks.thisTrialN'
p1970
I2
sS'training_block.thisN'
p1971
I0
sS'word_presentation.thisN'
p1972
I18
sS'training_block.thisTrialN'
p1973
I0
sg19
S'space'
p1974
sg28
g29
sS'word_presentation.thisTrialN'
p1975
I18
sg41
g12
sS'word_presentation.thisIndex'
p1976
g31
(g131
S'\x12\x00\x00\x00'
p1977
tp1978
Rp1979
sa(dp1980
S'training_block.thisRepN'
p1981
I0
sg160
g206
sg30
g40
sg1573
Vwander
p1982
sS'experimental_blocks.thisN'
p1983
I2
sg42
g43
sg1576
Vflit
p1984
sg1578
Vflee
p1985
sg1580
Vroll
p1986
sS'experimental_blocks.thisIndex'
p1987
g1585
sS'word_presentation.thisRepN'
p1988
I0
sS'experimental_blocks.thisRepN'
p1989
I0
sg44
g49
sg155
g202
sg1588
g1632
sS'training_block.thisIndex'
p1990
g145
sg165
g210
sg20
F6.826472263995129
sS'experimental_blocks.thisTrialN'
p1991
I2
sS'training_block.thisN'
p1992
I0
sS'word_presentation.thisN'
p1993
I19
sS'training_block.thisTrialN'
p1994
I0
sg19
S'space'
p1995
sg28
g29
sS'word_presentation.thisTrialN'
p1996
I19
sg41
g12
sS'word_presentation.thisIndex'
p1997
g31
(g131
S'\x13\x00\x00\x00'
p1998
tp1999
Rp2000
sa(dp2001
S'training_block.thisRepN'
p2002
I0
sg160
g206
sg30
g40
sg1573
Vclick
p2003
sS'experimental_blocks.thisN'
p2004
I2
sg42
g43
sg1576
Vtwine
p2005
sg1578
Vskim
p2006
sg1580
Vpinch
p2007
sS'experimental_blocks.thisIndex'
p2008
g1585
sS'word_presentation.thisRepN'
p2009
I0
sS'experimental_blocks.thisRepN'
p2010
I0
sg44
g49
sg155
g202
sg1588
g1589
sS'training_block.thisIndex'
p2011
g145
sg165
g210
sg20
F9.878940992485695
sS'experimental_blocks.thisTrialN'
p2012
I2
sS'training_block.thisN'
p2013
I0
sS'word_presentation.thisN'
p2014
I20
sS'training_block.thisTrialN'
p2015
I0
sg19
S'space'
p2016
sg28
g29
sS'word_presentation.thisTrialN'
p2017
I20
sg41
g12
sS'word_presentation.thisIndex'
p2018
g31
(g131
S'\x14\x00\x00\x00'
p2019
tp2020
Rp2021
sa(dp2022
S'training_block.thisRepN'
p2023
I0
sg160
g206
sg30
g40
sg1573
Vwipe
p2024
sS'experimental_blocks.thisN'
p2025
I2
sg42
g43
sg1576
Vfold
p2026
sg1578
Vfile
p2027
sg1580
Vbash
p2028
sS'experimental_blocks.thisIndex'
p2029
g1585
sS'word_presentation.thisRepN'
p2030
I0
sS'experimental_blocks.thisRepN'
p2031
I0
sg44
g49
sg155
g202
sg1588
g1589
sS'training_block.thisIndex'
p2032
g145
sg165
g210
sg20
F6.473411018539082
sS'experimental_blocks.thisTrialN'
p2033
I2
sS'training_block.thisN'
p2034
I0
sS'word_presentation.thisN'
p2035
I21
sS'training_block.thisTrialN'
p2036
I0
sg19
S'space'
p2037
sg28
g29
sS'word_presentation.thisTrialN'
p2038
I21
sg41
g12
sS'word_presentation.thisIndex'
p2039
g31
(g131
S'\x15\x00\x00\x00'
p2040
tp2041
Rp2042
sa(dp2043
S'training_block.thisRepN'
p2044
I0
sg160
g206
sg30
g40
sg1573
Vskip
p2045
sS'experimental_blocks.thisN'
p2046
I2
sg42
g43
sg1576
Vwalk
p2047
sg1578
Vclimb
p2048
sg1580
Vlimp
p2049
sS'experimental_blocks.thisIndex'
p2050
g1585
sS'word_presentation.thisRepN'
p2051
I0
sS'experimental_blocks.thisRepN'
p2052
I0
sg44
g49
sg155
g202
sg1588
g1632
sS'training_block.thisIndex'
p2053
g145
sg165
g210
sg20
F9.073860740338205
sS'experimental_blocks.thisTrialN'
p2054
I2
sS'training_block.thisN'
p2055
I0
sS'word_presentation.thisN'
p2056
I22
sS'training_block.thisTrialN'
p2057
I0
sg19
S'space'
p2058
sg28
g29
sS'word_presentation.thisTrialN'
p2059
I22
sg41
g12
sS'word_presentation.thisIndex'
p2060
g31
(g131
S'\x16\x00\x00\x00'
p2061
tp2062
Rp2063
sa(dp2064
S'training_block.thisRepN'
p2065
I0
sg160
g206
sg30
g40
sg1573
Vscratch
p2066
sS'experimental_blocks.thisN'
p2067
I2
sg42
g43
sg1576
Vthrow
p2068
sg1578
Vpolish
p2069
sg1580
Vstab
p2070
sS'experimental_blocks.thisIndex'
p2071
g1585
sS'word_presentation.thisRepN'
p2072
I0
sS'experimental_blocks.thisRepN'
p2073
I0
sg44
g49
sg155
g202
sg1588
g1589
sS'training_block.thisIndex'
p2074
g145
sg165
g210
sg20
F13.56660284215286
sS'experimental_blocks.thisTrialN'
p2075
I2
sS'training_block.thisN'
p2076
I0
sS'word_presentation.thisN'
p2077
I23
sS'training_block.thisTrialN'
p2078
I0
sg19
S'space'
p2079
sg28
g29
sS'word_presentation.thisTrialN'
p2080
I23
sg41
g12
sS'word_presentation.thisIndex'
p2081
g31
(g131
S'\x17\x00\x00\x00'
p2082
tp2083
Rp2084
sa(dp2085
S'training_block.thisRepN'
p2086
I0
sg160
g206
sg30
g40
sg1573
Vcreep
p2087
sS'experimental_blocks.thisN'
p2088
I2
sg42
g43
sg1576
Vstagger
p2089
sg1578
Vprance
p2090
sg1580
Vtrudge
p2091
sS'experimental_blocks.thisIndex'
p2092
g1585
sS'word_presentation.thisRepN'
p2093
I0
sS'experimental_blocks.thisRepN'
p2094
I0
sg44
g49
sg155
g202
sg1588
g1632
sS'training_block.thisIndex'
p2095
g145
sg165
g210
sg20
F8.889422647613173
sS'experimental_blocks.thisTrialN'
p2096
I2
sS'training_block.thisN'
p2097
I0
sS'word_presentation.thisN'
p2098
I24
sS'training_block.thisTrialN'
p2099
I0
sg19
S'space'
p2100
sg28
g29
sS'word_presentation.thisTrialN'
p2101
I24
sg41
g12
sS'word_presentation.thisIndex'
p2102
g31
(g131
S'\x18\x00\x00\x00'
p2103
tp2104
Rp2105
sa(dp2106
S'training_block.thisRepN'
p2107
I0
sg160
g206
sg30
g40
sg1573
Vcut
p2108
sS'experimental_blocks.thisN'
p2109
I2
sg42
g43
sg1576
Vcatch
p2110
sg1578
Vdelve
p2111
sg1580
Vpull
p2112
sS'experimental_blocks.thisIndex'
p2113
g1585
sS'word_presentation.thisRepN'
p2114
I0
sS'experimental_blocks.thisRepN'
p2115
I0
sg44
g49
sg155
g202
sg1588
g1589
sS'training_block.thisIndex'
p2116
g145
sg165
g210
sg20
F5.416101320559392
sS'experimental_blocks.thisTrialN'
p2117
I2
sS'training_block.thisN'
p2118
I0
sS'word_presentation.thisN'
p2119
I25
sS'training_block.thisTrialN'
p2120
I0
sg19
S'space'
p2121
sg28
g29
sS'word_presentation.thisTrialN'
p2122
I25
sg41
g12
sS'word_presentation.thisIndex'
p2123
g31
(g131
S'\x19\x00\x00\x00'
p2124
tp2125
Rp2126
sa(dp2127
S'training_block.thisRepN'
p2128
I0
sg160
g206
sg30
g40
sg1573
Vstomp
p2129
sS'experimental_blocks.thisN'
p2130
I2
sg42
g43
sg1576
Vtrot
p2131
sg1578
Vtrip
p2132
sg1580
Vstray
p2133
sS'experimental_blocks.thisIndex'
p2134
g1585
sS'word_presentation.thisRepN'
p2135
I0
sS'experimental_blocks.thisRepN'
p2136
I0
sg44
g49
sg155
g202
sg1588
g1632
sS'training_block.thisIndex'
p2137
g145
sg165
g210
sg20
F8.50451539335063
sS'experimental_blocks.thisTrialN'
p2138
I2
sS'training_block.thisN'
p2139
I0
sS'word_presentation.thisN'
p2140
I26
sS'training_block.thisTrialN'
p2141
I0
sg19
S'space'
p2142
sg28
g29
sS'word_presentation.thisTrialN'
p2143
I26
sg41
g12
sS'word_presentation.thisIndex'
p2144
g31
(g131
S'\x1a\x00\x00\x00'
p2145
tp2146
Rp2147
sa(dp2148
S'training_block.thisRepN'
p2149
I0
sg160
g206
sg30
g40
sg1573
Vclutch
p2150
sS'experimental_blocks.thisN'
p2151
I2
sg42
g43
sg1576
Vsnatch
p2152
sg1578
Vgrab
p2153
sg1580
Vtug
p2154
sS'experimental_blocks.thisIndex'
p2155
g1585
sS'word_presentation.thisRepN'
p2156
I0
sS'experimental_blocks.thisRepN'
p2157
I0
sg44
g49
sg155
g202
sg1588
g1589
sS'training_block.thisIndex'
p2158
g145
sg165
g210
sg20
F8.000510095625941
sS'experimental_blocks.thisTrialN'
p2159
I2
sS'training_block.thisN'
p2160
I0
sS'word_presentation.thisN'
p2161
I27
sS'training_block.thisTrialN'
p2162
I0
sg19
S'space'
p2163
sg28
g29
sS'word_presentation.thisTrialN'
p2164
I27
sg41
g12
sS'word_presentation.thisIndex'
p2165
g31
(g131
S'\x1b\x00\x00\x00'
p2166
tp2167
Rp2168
sa(dp2169
S'training_block.thisRepN'
p2170
I0
sg160
g206
sS'experimental_blocks.thisRepN'
p2171
I0
sS'experimental_blocks.thisTrialN'
p2172
I2
sS'training_block.thisN'
p2173
I0
sg42
g43
sg41
g12
sg30
g40
sS'training_block.thisTrialN'
p2174
I0
sg44
g49
sS'experimental_blocks.thisN'
p2175
I2
sg165
g210
sg28
g29
sS'experimental_blocks.thisIndex'
p2176
g1585
sg155
g202
sS'training_block.thisIndex'
p2177
g145
sa(dp2178
S'training_block.thisRepN'
p2179
I0
sg160
g163
sg30
g40
sS'word4'
p2180
Vstrut
p2181
sS'experimental_blocks.thisN'
p2182
I3
sg42
g43
sS'word1'
p2183
Vstroll
p2184
sS'word3'
p2185
Vslither
p2186
sS'word2'
p2187
Vrun
p2188
sS'experimental_blocks.thisIndex'
p2189
g245
sS'word_presentation.thisRepN'
p2190
I0
sS'experimental_blocks.thisRepN'
p2191
I0
sg44
g49
sg155
g158
sS'type'
p2192
Vleg
p2193
sS'training_block.thisIndex'
p2194
g145
sg165
g168
sg20
F6.189438689350936
sS'experimental_blocks.thisTrialN'
p2195
I3
sS'training_block.thisN'
p2196
I0
sS'word_presentation.thisN'
p2197
I0
sS'training_block.thisTrialN'
p2198
I0
sg19
S'space'
p2199
sg28
g29
sS'word_presentation.thisTrialN'
p2200
I0
sg41
g12
sS'word_presentation.thisIndex'
p2201
g31
(g131
S'\x00\x00\x00\x00'
p2202
tp2203
Rp2204
sa(dp2205
S'training_block.thisRepN'
p2206
I0
sg160
g163
sg30
g40
sg2180
Vbind
p2207
sS'experimental_blocks.thisN'
p2208
I3
sg42
g43
sg2183
Vtwine
p2209
sg2185
Vknock
p2210
sg2187
Vthrow
p2211
sS'experimental_blocks.thisIndex'
p2212
g245
sS'word_presentation.thisRepN'
p2213
I0
sS'experimental_blocks.thisRepN'
p2214
I0
sg44
g49
sg155
g158
sg2192
Varm
p2215
sS'training_block.thisIndex'
p2216
g145
sg165
g168
sg20
F6.474919574000523
sS'experimental_blocks.thisTrialN'
p2217
I3
sS'training_block.thisN'
p2218
I0
sS'word_presentation.thisN'
p2219
I1
sS'training_block.thisTrialN'
p2220
I0
sg19
S'space'
p2221
sg28
g29
sS'word_presentation.thisTrialN'
p2222
I1
sg41
g12
sS'word_presentation.thisIndex'
p2223
g31
(g131
S'\x01\x00\x00\x00'
p2224
tp2225
Rp2226
sa(dp2227
S'training_block.thisRepN'
p2228
I0
sg160
g163
sg30
g40
sg2180
Vslip
p2229
sS'experimental_blocks.thisN'
p2230
I3
sg42
g43
sg2183
Vramble
p2231
sg2185
Vsway
p2232
sg2187
Vsprint
p2233
sS'experimental_blocks.thisIndex'
p2234
g245
sS'word_presentation.thisRepN'
p2235
I0
sS'experimental_blocks.thisRepN'
p2236
I0
sg44
g49
sg155
g158
sg2192
g2193
sS'training_block.thisIndex'
p2237
g145
sg165
g168
sg20
F7.363224831660773
sS'experimental_blocks.thisTrialN'
p2238
I3
sS'training_block.thisN'
p2239
I0
sS'word_presentation.thisN'
p2240
I2
sS'training_block.thisTrialN'
p2241
I0
sg19
S'space'
p2242
sg28
g29
sS'word_presentation.thisTrialN'
p2243
I2
sg41
g12
sS'word_presentation.thisIndex'
p2244
g31
(g131
S'\x02\x00\x00\x00'
p2245
tp2246
Rp2247
sa(dp2248
S'training_block.thisRepN'
p2249
I0
sg160
g163
sg30
g40
sg2180
Vstep
p2250
sS'experimental_blocks.thisN'
p2251
I3
sg42
g43
sg2183
Vinch
p2252
sg2185
Vstomp
p2253
sg2187
Vskate
p2254
sS'experimental_blocks.thisIndex'
p2255
g245
sS'word_presentation.thisRepN'
p2256
I0
sS'experimental_blocks.thisRepN'
p2257
I0
sg44
g49
sg155
g158
sg2192
g2193
sS'training_block.thisIndex'
p2258
g145
sg165
g168
sg20
F5.602465607068552
sS'experimental_blocks.thisTrialN'
p2259
I3
sS'training_block.thisN'
p2260
I0
sS'word_presentation.thisN'
p2261
I3
sS'training_block.thisTrialN'
p2262
I0
sg19
S'space'
p2263
sg28
g29
sS'word_presentation.thisTrialN'
p2264
I3
sg41
g12
sS'word_presentation.thisIndex'
p2265
g31
(g131
S'\x03\x00\x00\x00'
p2266
tp2267
Rp2268
sa(dp2269
S'training_block.thisRepN'
p2270
I0
sg160
g163
sg30
g40
sg2180
Vlift
p2271
sS'experimental_blocks.thisN'
p2272
I3
sg42
g43
sg2183
Vtug
p2273
sg2185
Vgrab
p2274
sg2187
Vclean
p2275
sS'experimental_blocks.thisIndex'
p2276
g245
sS'word_presentation.thisRepN'
p2277
I0
sS'experimental_blocks.thisRepN'
p2278
I0
sg44
g49
sg155
g158
sg2192
g2215
sS'training_block.thisIndex'
p2279
g145
sg165
g168
sg20
F5.082495225015009
sS'experimental_blocks.thisTrialN'
p2280
I3
sS'training_block.thisN'
p2281
I0
sS'word_presentation.thisN'
p2282
I4
sS'training_block.thisTrialN'
p2283
I0
sg19
S'space'
p2284
sg28
g29
sS'word_presentation.thisTrialN'
p2285
I4
sg41
g12
sS'word_presentation.thisIndex'
p2286
g31
(g131
S'\x04\x00\x00\x00'
p2287
tp2288
Rp2289
sa(dp2290
S'training_block.thisRepN'
p2291
I0
sg160
g163
sg30
g40
sg2180
Vlimp
p2292
sS'experimental_blocks.thisN'
p2293
I3
sg42
g43
sg2183
Vkneel
p2294
sg2185
Vroam
p2295
sg2187
Vtiptoe
p2296
sS'experimental_blocks.thisIndex'
p2297
g245
sS'word_presentation.thisRepN'
p2298
I0
sS'experimental_blocks.thisRepN'
p2299
I0
sg44
g49
sg155
g158
sg2192
g2193
sS'training_block.thisIndex'
p2300
g145
sg165
g168
sg20
F5.315356051488379
sS'experimental_blocks.thisTrialN'
p2301
I3
sS'training_block.thisN'
p2302
I0
sS'word_presentation.thisN'
p2303
I5
sS'training_block.thisTrialN'
p2304
I0
sg19
S'space'
p2305
sg28
g29
sS'word_presentation.thisTrialN'
p2306
I5
sg41
g12
sS'word_presentation.thisIndex'
p2307
g31
(g131
S'\x05\x00\x00\x00'
p2308
tp2309
Rp2310
sa(dp2311
S'training_block.thisRepN'
p2312
I0
sg160
g163
sg30
g40
sg2180
Vdance
p2313
sS'experimental_blocks.thisN'
p2314
I3
sg42
g43
sg2183
Vprance
p2315
sg2185
Vpace
p2316
sg2187
Vhike
p2317
sS'experimental_blocks.thisIndex'
p2318
g245
sS'word_presentation.thisRepN'
p2319
I0
sS'experimental_blocks.thisRepN'
p2320
I0
sg44
g49
sg155
g158
sg2192
g2193
sS'training_block.thisIndex'
p2321
g145
sg165
g168
sg20
F8.067686252074054
sS'experimental_blocks.thisTrialN'
p2322
I3
sS'training_block.thisN'
p2323
I0
sS'word_presentation.thisN'
p2324
I6
sS'training_block.thisTrialN'
p2325
I0
sg19
S'space'
p2326
sg28
g29
sS'word_presentation.thisTrialN'
p2327
I6
sg41
g12
sS'word_presentation.thisIndex'
p2328
g31
(g131
S'\x06\x00\x00\x00'
p2329
tp2330
Rp2331
sa(dp2332
S'training_block.thisRepN'
p2333
I0
sg160
g163
sg30
g40
sg2180
Vhack
p2334
sS'experimental_blocks.thisN'
p2335
I3
sg42
g43
sg2183
Vskim
p2336
sg2185
Vscrape
p2337
sg2187
Vbrush
p2338
sS'experimental_blocks.thisIndex'
p2339
g245
sS'word_presentation.thisRepN'
p2340
I0
sS'experimental_blocks.thisRepN'
p2341
I0
sg44
g49
sg155
g158
sg2192
g2215
sS'training_block.thisIndex'
p2342
g145
sg165
g168
sg20
F4.828881290356549
sS'experimental_blocks.thisTrialN'
p2343
I3
sS'training_block.thisN'
p2344
I0
sS'word_presentation.thisN'
p2345
I7
sS'training_block.thisTrialN'
p2346
I0
sg19
S'space'
p2347
sg28
g29
sS'word_presentation.thisTrialN'
p2348
I7
sg41
g12
sS'word_presentation.thisIndex'
p2349
g31
(g131
S'\x07\x00\x00\x00'
p2350
tp2351
Rp2352
sa(dp2353
S'training_block.thisRepN'
p2354
I0
sg160
g163
sg30
g40
sg2180
Vshake
p2355
sS'experimental_blocks.thisN'
p2356
I3
sg42
g43
sg2183
Vbraid
p2357
sg2185
Vgrasp
p2358
sg2187
Vslap
p2359
sS'experimental_blocks.thisIndex'
p2360
g245
sS'word_presentation.thisRepN'
p2361
I0
sS'experimental_blocks.thisRepN'
p2362
I0
sg44
g49
sg155
g158
sg2192
g2215
sS'training_block.thisIndex'
p2363
g145
sg165
g168
sg20
F8.754216487586746
sS'experimental_blocks.thisTrialN'
p2364
I3
sS'training_block.thisN'
p2365
I0
sS'word_presentation.thisN'
p2366
I8
sS'training_block.thisTrialN'
p2367
I0
sg19
S'space'
p2368
sg28
g29
sS'word_presentation.thisTrialN'
p2369
I8
sg41
g12
sS'word_presentation.thisIndex'
p2370
g31
(g131
S'\x08\x00\x00\x00'
p2371
tp2372
Rp2373
sa(dp2374
S'training_block.thisRepN'
p2375
I0
sg160
g163
sg30
g40
sg2180
Vscratch
p2376
sS'experimental_blocks.thisN'
p2377
I3
sg42
g43
sg2183
Vclutch
p2378
sg2185
Vscrub
p2379
sg2187
Vdunk
p2380
sS'experimental_blocks.thisIndex'
p2381
g245
sS'word_presentation.thisRepN'
p2382
I0
sS'experimental_blocks.thisRepN'
p2383
I0
sg44
g49
sg155
g158
sg2192
g2215
sS'training_block.thisIndex'
p2384
g145
sg165
g168
sg20
F10.801350745861782
sS'experimental_blocks.thisTrialN'
p2385
I3
sS'training_block.thisN'
p2386
I0
sS'word_presentation.thisN'
p2387
I9
sS'training_block.thisTrialN'
p2388
I0
sg19
S'space'
p2389
sg28
g29
sS'word_presentation.thisTrialN'
p2390
I9
sg41
g12
sS'word_presentation.thisIndex'
p2391
g31
(g131
S'\t\x00\x00\x00'
p2392
tp2393
Rp2394
sa(dp2395
S'training_block.thisRepN'
p2396
I0
sg160
g163
sg30
g40
sg2180
Vkick
p2397
sS'experimental_blocks.thisN'
p2398
I3
sg42
g43
sg2183
Vwander
p2399
sg2185
Vglide
p2400
sg2187
Vstray
p2401
sS'experimental_blocks.thisIndex'
p2402
g245
sS'word_presentation.thisRepN'
p2403
I0
sS'experimental_blocks.thisRepN'
p2404
I0
sg44
g49
sg155
g158
sg2192
g2193
sS'training_block.thisIndex'
p2405
g145
sg165
g168
sg20
F4.159965356169778
sS'experimental_blocks.thisTrialN'
p2406
I3
sS'training_block.thisN'
p2407
I0
sS'word_presentation.thisN'
p2408
I10
sS'training_block.thisTrialN'
p2409
I0
sg19
S'space'
p2410
sg28
g29
sS'word_presentation.thisTrialN'
p2411
I10
sg41
g12
sS'word_presentation.thisIndex'
p2412
g31
(g131
S'\n\x00\x00\x00'
p2413
tp2414
Rp2415
sa(dp2416
S'training_block.thisRepN'
p2417
I0
sg160
g163
sg30
g40
sg2180
Vtoss
p2418
sS'experimental_blocks.thisN'
p2419
I3
sg42
g43
sg2183
Vscoop
p2420
sg2185
Vpolish
p2421
sg2187
Vwipe
p2422
sS'experimental_blocks.thisIndex'
p2423
g245
sS'word_presentation.thisRepN'
p2424
I0
sS'experimental_blocks.thisRepN'
p2425
I0
sg44
g49
sg155
g158
sg2192
g2215
sS'training_block.thisIndex'
p2426
g145
sg165
g168
sg20
F10.936388586185785
sS'experimental_blocks.thisTrialN'
p2427
I3
sS'training_block.thisN'
p2428
I0
sS'word_presentation.thisN'
p2429
I11
sS'training_block.thisTrialN'
p2430
I0
sg19
S'space'
p2431
sg28
g29
sS'word_presentation.thisTrialN'
p2432
I11
sg41
g12
sS'word_presentation.thisIndex'
p2433
g31
(g131
S'\x0b\x00\x00\x00'
p2434
tp2435
Rp2436
sa(dp2437
S'training_block.thisRepN'
p2438
I0
sg160
g163
sg30
g40
sg2180
Vsneak
p2439
sS'experimental_blocks.thisN'
p2440
I3
sg42
g43
sg2183
Vjog
p2441
sg2185
Vclimb
p2442
sg2187
Vroll
p2443
sS'experimental_blocks.thisIndex'
p2444
g245
sS'word_presentation.thisRepN'
p2445
I0
sS'experimental_blocks.thisRepN'
p2446
I0
sg44
g49
sg155
g158
sg2192
g2193
sS'training_block.thisIndex'
p2447
g145
sg165
g168
sg20
F7.3628925385373805
sS'experimental_blocks.thisTrialN'
p2448
I3
sS'training_block.thisN'
p2449
I0
sS'word_presentation.thisN'
p2450
I12
sS'training_block.thisTrialN'
p2451
I0
sg19
S'space'
p2452
sg28
g29
sS'word_presentation.thisTrialN'
p2453
I12
sg41
g12
sS'word_presentation.thisIndex'
p2454
g31
(g131
S'\x0c\x00\x00\x00'
p2455
tp2456
Rp2457
sa(dp2458
S'training_block.thisRepN'
p2459
I0
sg160
g163
sg30
g40
sg2180
Vjump
p2460
sS'experimental_blocks.thisN'
p2461
I3
sg42
g43
sg2183
Vscuff
p2462
sg2185
Vflee
p2463
sg2187
Vtread
p2464
sS'experimental_blocks.thisIndex'
p2465
g245
sS'word_presentation.thisRepN'
p2466
I0
sS'experimental_blocks.thisRepN'
p2467
I0
sg44
g49
sg155
g158
sg2192
g2193
sS'training_block.thisIndex'
p2468
g145
sg165
g168
sg20
F7.195573270831119
sS'experimental_blocks.thisTrialN'
p2469
I3
sS'training_block.thisN'
p2470
I0
sS'word_presentation.thisN'
p2471
I13
sS'training_block.thisTrialN'
p2472
I0
sg19
S'space'
p2473
sg28
g29
sS'word_presentation.thisTrialN'
p2474
I13
sg41
g12
sS'word_presentation.thisIndex'
p2475
g31
(g131
S'\r\x00\x00\x00'
p2476
tp2477
Rp2478
sa(dp2479
S'training_block.thisRepN'
p2480
I0
sg160
g163
sg30
g40
sg2180
Vstamp
p2481
sS'experimental_blocks.thisN'
p2482
I3
sg42
g43
sg2183
Vtrot
p2483
sg2185
Vmount
p2484
sg2187
Vstumble
p2485
sS'experimental_blocks.thisIndex'
p2486
g245
sS'word_presentation.thisRepN'
p2487
I0
sS'experimental_blocks.thisRepN'
p2488
I0
sg44
g49
sg155
g158
sg2192
g2193
sS'training_block.thisIndex'
p2489
g145
sg165
g168
sg20
F12.99839661653732
sS'experimental_blocks.thisTrialN'
p2490
I3
sS'training_block.thisN'
p2491
I0
sS'word_presentation.thisN'
p2492
I14
sS'training_block.thisTrialN'
p2493
I0
sg19
S'space'
p2494
sg28
g29
sS'word_presentation.thisTrialN'
p2495
I14
sg41
g12
sS'word_presentation.thisIndex'
p2496
g31
(g131
S'\x0e\x00\x00\x00'
p2497
tp2498
Rp2499
sa(dp2500
S'training_block.thisRepN'
p2501
I0
sg160
g163
sg30
g40
sg2180
Vgrip
p2502
sS'experimental_blocks.thisN'
p2503
I3
sg42
g43
sg2183
Vpush
p2504
sg2185
Vpat
p2505
sg2187
Vgrate
p2506
sS'experimental_blocks.thisIndex'
p2507
g245
sS'word_presentation.thisRepN'
p2508
I0
sS'experimental_blocks.thisRepN'
p2509
I0
sg44
g49
sg155
g158
sg2192
g2215
sS'training_block.thisIndex'
p2510
g145
sg165
g168
sg20
F5.099099608123652
sS'experimental_blocks.thisTrialN'
p2511
I3
sS'training_block.thisN'
p2512
I0
sS'word_presentation.thisN'
p2513
I15
sS'training_block.thisTrialN'
p2514
I0
sg19
S'space'
p2515
sg28
g29
sS'word_presentation.thisTrialN'
p2516
I15
sg41
g12
sS'word_presentation.thisIndex'
p2517
g31
(g131
S'\x0f\x00\x00\x00'
p2518
tp2519
Rp2520
sa(dp2521
S'training_block.thisRepN'
p2522
I0
sg160
g163
sg30
g40
sg2180
Vtrip
p2523
sS'experimental_blocks.thisN'
p2524
I3
sg42
g43
sg2183
Vtrek
p2525
sg2185
Vskip
p2526
sg2187
Vhop
p2527
sS'experimental_blocks.thisIndex'
p2528
g245
sS'word_presentation.thisRepN'
p2529
I0
sS'experimental_blocks.thisRepN'
p2530
I0
sg44
g49
sg155
g158
sg2192
g2193
sS'training_block.thisIndex'
p2531
g145
sg165
g168
sg20
F7.061696283295532
sS'experimental_blocks.thisTrialN'
p2532
I3
sS'training_block.thisN'
p2533
I0
sS'word_presentation.thisN'
p2534
I16
sS'training_block.thisTrialN'
p2535
I0
sg19
S'space'
p2536
sg28
g29
sS'word_presentation.thisTrialN'
p2537
I16
sg41
g12
sS'word_presentation.thisIndex'
p2538
g31
(g131
S'\x10\x00\x00\x00'
p2539
tp2540
Rp2541
sa(dp2542
S'training_block.thisRepN'
p2543
I0
sg160
g163
sg30
g40
sg2180
Vclap
p2544
sS'experimental_blocks.thisN'
p2545
I3
sg42
g43
sg2183
Vpull
p2546
sg2185
Vswitch
p2547
sg2187
Vcarve
p2548
sS'experimental_blocks.thisIndex'
p2549
g245
sS'word_presentation.thisRepN'
p2550
I0
sS'experimental_blocks.thisRepN'
p2551
I0
sg44
g49
sg155
g158
sg2192
g2215
sS'training_block.thisIndex'
p2552
g145
sg165
g168
sg20
F11.92440153652933
sS'experimental_blocks.thisTrialN'
p2553
I3
sS'training_block.thisN'
p2554
I0
sS'word_presentation.thisN'
p2555
I17
sS'training_block.thisTrialN'
p2556
I0
sg19
S'space'
p2557
sg28
g29
sS'word_presentation.thisTrialN'
p2558
I17
sg41
g12
sS'word_presentation.thisIndex'
p2559
g31
(g131
S'\x11\x00\x00\x00'
p2560
tp2561
Rp2562
sa(dp2563
S'training_block.thisRepN'
p2564
I0
sg160
g163
sg30
g40
sg2180
Vbash
p2565
sS'experimental_blocks.thisN'
p2566
I3
sg42
g43
sg2183
Vclick
p2567
sg2185
Vfold
p2568
sg2187
Vsnatch
p2569
sS'experimental_blocks.thisIndex'
p2570
g245
sS'word_presentation.thisRepN'
p2571
I0
sS'experimental_blocks.thisRepN'
p2572
I0
sg44
g49
sg155
g158
sg2192
g2215
sS'training_block.thisIndex'
p2573
g145
sg165
g168
sg20
F11.807652066579067
sS'experimental_blocks.thisTrialN'
p2574
I3
sS'training_block.thisN'
p2575
I0
sS'word_presentation.thisN'
p2576
I18
sS'training_block.thisTrialN'
p2577
I0
sg19
S'space'
p2578
sg28
g29
sS'word_presentation.thisTrialN'
p2579
I18
sg41
g12
sS'word_presentation.thisIndex'
p2580
g31
(g131
S'\x12\x00\x00\x00'
p2581
tp2582
Rp2583
sa(dp2584
S'training_block.thisRepN'
p2585
I0
sg160
g163
sg30
g40
sg2180
Vtraipse
p2586
sS'experimental_blocks.thisN'
p2587
I3
sg42
g43
sg2183
Vbounce
p2588
sg2185
Vwobble
p2589
sg2187
Vslide
p2590
sS'experimental_blocks.thisIndex'
p2591
g245
sS'word_presentation.thisRepN'
p2592
I0
sS'experimental_blocks.thisRepN'
p2593
I0
sg44
g49
sg155
g158
sg2192
g2193
sS'training_block.thisIndex'
p2594
g145
sg165
g168
sg20
F6.876276325635445
sS'experimental_blocks.thisTrialN'
p2595
I3
sS'training_block.thisN'
p2596
I0
sS'word_presentation.thisN'
p2597
I19
sS'training_block.thisTrialN'
p2598
I0
sg19
S'space'
p2599
sg28
g29
sS'word_presentation.thisTrialN'
p2600
I19
sg41
g12
sS'word_presentation.thisIndex'
p2601
g31
(g131
S'\x13\x00\x00\x00'
p2602
tp2603
Rp2604
sa(dp2605
S'training_block.thisRepN'
p2606
I0
sg160
g163
sg30
g40
sg2180
Vleap
p2607
sS'experimental_blocks.thisN'
p2608
I3
sg42
g43
sg2183
Vwalk
p2609
sg2185
Vstride
p2610
sg2187
Vstagger
p2611
sS'experimental_blocks.thisIndex'
p2612
g245
sS'word_presentation.thisRepN'
p2613
I0
sS'experimental_blocks.thisRepN'
p2614
I0
sg44
g49
sg155
g158
sg2192
g2193
sS'training_block.thisIndex'
p2615
g145
sg165
g168
sg20
F5.736561489242376
sS'experimental_blocks.thisTrialN'
p2616
I3
sS'training_block.thisN'
p2617
I0
sS'word_presentation.thisN'
p2618
I20
sS'training_block.thisTrialN'
p2619
I0
sg19
S'space'
p2620
sg28
g29
sS'word_presentation.thisTrialN'
p2621
I20
sg41
g12
sS'word_presentation.thisIndex'
p2622
g31
(g131
S'\x14\x00\x00\x00'
p2623
tp2624
Rp2625
sa(dp2626
S'training_block.thisRepN'
p2627
I0
sg160
g163
sg30
g40
sg2180
Vstab
p2628
sS'experimental_blocks.thisN'
p2629
I3
sg42
g43
sg2183
Vclaw
p2630
sg2185
Vstir
p2631
sg2187
Vwash
p2632
sS'experimental_blocks.thisIndex'
p2633
g245
sS'word_presentation.thisRepN'
p2634
I0
sS'experimental_blocks.thisRepN'
p2635
I0
sg44
g49
sg155
g158
sg2192
g2215
sS'training_block.thisIndex'
p2636
g145
sg165
g168
sg20
F4.630993821165248
sS'experimental_blocks.thisTrialN'
p2637
I3
sS'training_block.thisN'
p2638
I0
sS'word_presentation.thisN'
p2639
I21
sS'training_block.thisTrialN'
p2640
I0
sg19
S'space'
p2641
sg28
g29
sS'word_presentation.thisTrialN'
p2642
I21
sg41
g12
sS'word_presentation.thisIndex'
p2643
g31
(g131
S'\x15\x00\x00\x00'
p2644
tp2645
Rp2646
sa(dp2647
S'training_block.thisRepN'
p2648
I0
sg160
g163
sg30
g40
sg2180
Vpeel
p2649
sS'experimental_blocks.thisN'
p2650
I3
sg42
g43
sg2183
Vpunch
p2651
sg2185
Vdelve
p2652
sg2187
Vwrap
p2653
sS'experimental_blocks.thisIndex'
p2654
g245
sS'word_presentation.thisRepN'
p2655
I0
sS'experimental_blocks.thisRepN'
p2656
I0
sg44
g49
sg155
g158
sg2192
g2215
sS'training_block.thisIndex'
p2657
g145
sg165
g168
sg20
F10.968919727306456
sS'experimental_blocks.thisTrialN'
p2658
I3
sS'training_block.thisN'
p2659
I0
sS'word_presentation.thisN'
p2660
I22
sS'training_block.thisTrialN'
p2661
I0
sg19
S'space'
p2662
sg28
g29
sS'word_presentation.thisTrialN'
p2663
I22
sg41
g12
sS'word_presentation.thisIndex'
p2664
g31
(g131
S'\x16\x00\x00\x00'
p2665
tp2666
Rp2667
sa(dp2668
S'training_block.thisRepN'
p2669
I0
sg160
g163
sg30
g40
sg2180
Vsqueeze
p2670
sS'experimental_blocks.thisN'
p2671
I3
sg42
g43
sg2183
Vpinch
p2672
sg2185
Vcatch
p2673
sg2187
Vrub
p2674
sS'experimental_blocks.thisIndex'
p2675
g245
sS'word_presentation.thisRepN'
p2676
I0
sS'experimental_blocks.thisRepN'
p2677
I0
sg44
g49
sg155
g158
sg2192
g2215
sS'training_block.thisIndex'
p2678
g145
sg165
g168
sg20
F5.0663977765998425
sS'experimental_blocks.thisTrialN'
p2679
I3
sS'training_block.thisN'
p2680
I0
sS'word_presentation.thisN'
p2681
I23
sS'training_block.thisTrialN'
p2682
I0
sg19
S'space'
p2683
sg28
g29
sS'word_presentation.thisTrialN'
p2684
I23
sg41
g12
sS'word_presentation.thisIndex'
p2685
g31
(g131
S'\x17\x00\x00\x00'
p2686
tp2687
Rp2688
sa(dp2689
S'training_block.thisRepN'
p2690
I0
sg160
g163
sg30
g40
sg2180
Vrush
p2691
sS'experimental_blocks.thisN'
p2692
I3
sg42
g43
sg2183
Vcreep
p2693
sg2185
Vflit
p2694
sg2187
Vtrudge
p2695
sS'experimental_blocks.thisIndex'
p2696
g245
sS'word_presentation.thisRepN'
p2697
I0
sS'experimental_blocks.thisRepN'
p2698
I0
sg44
g49
sg155
g158
sg2192
g2193
sS'training_block.thisIndex'
p2699
g145
sg165
g168
sg20
F13.618611259718818
sS'experimental_blocks.thisTrialN'
p2700
I3
sS'training_block.thisN'
p2701
I0
sS'word_presentation.thisN'
p2702
I24
sS'training_block.thisTrialN'
p2703
I0
sg19
S'space'
p2704
sg28
g29
sS'word_presentation.thisTrialN'
p2705
I24
sg41
g12
sS'word_presentation.thisIndex'
p2706
g31
(g131
S'\x18\x00\x00\x00'
p2707
tp2708
Rp2709
sa(dp2710
S'training_block.thisRepN'
p2711
I0
sg160
g163
sg30
g40
sg2180
Vcrawl
p2712
sS'experimental_blocks.thisN'
p2713
I3
sg42
g43
sg2183
Vplod
p2714
sg2185
Vwade
p2715
sg2187
Vmarch
p2716
sS'experimental_blocks.thisIndex'
p2717
g245
sS'word_presentation.thisRepN'
p2718
I0
sS'experimental_blocks.thisRepN'
p2719
I0
sg44
g49
sg155
g158
sg2192
g2193
sS'training_block.thisIndex'
p2720
g145
sg165
g168
sg20
F11.673607549573717
sS'experimental_blocks.thisTrialN'
p2721
I3
sS'training_block.thisN'
p2722
I0
sS'word_presentation.thisN'
p2723
I25
sS'training_block.thisTrialN'
p2724
I0
sg19
S'space'
p2725
sg28
g29
sS'word_presentation.thisTrialN'
p2726
I25
sg41
g12
sS'word_presentation.thisIndex'
p2727
g31
(g131
S'\x19\x00\x00\x00'
p2728
tp2729
Rp2730
sa(dp2731
S'training_block.thisRepN'
p2732
I0
sg160
g163
sg30
g40
sg2180
Vchop
p2733
sS'experimental_blocks.thisN'
p2734
I3
sg42
g43
sg2183
Vdig
p2735
sg2185
Vpoke
p2736
sg2187
Vnip
p2737
sS'experimental_blocks.thisIndex'
p2738
g245
sS'word_presentation.thisRepN'
p2739
I0
sS'experimental_blocks.thisRepN'
p2740
I0
sg44
g49
sg155
g158
sg2192
g2215
sS'training_block.thisIndex'
p2741
g145
sg165
g168
sg20
F7.178676106266721
sS'experimental_blocks.thisTrialN'
p2742
I3
sS'training_block.thisN'
p2743
I0
sS'word_presentation.thisN'
p2744
I26
sS'training_block.thisTrialN'
p2745
I0
sg19
S'space'
p2746
sg28
g29
sS'word_presentation.thisTrialN'
p2747
I26
sg41
g12
sS'word_presentation.thisIndex'
p2748
g31
(g131
S'\x1a\x00\x00\x00'
p2749
tp2750
Rp2751
sa(dp2752
S'training_block.thisRepN'
p2753
I0
sg160
g163
sg30
g40
sg2180
Vcut
p2754
sS'experimental_blocks.thisN'
p2755
I3
sg42
g43
sg2183
Vfile
p2756
sg2185
Vseize
p2757
sg2187
Vwhip
p2758
sS'experimental_blocks.thisIndex'
p2759
g245
sS'word_presentation.thisRepN'
p2760
I0
sS'experimental_blocks.thisRepN'
p2761
I0
sg44
g49
sg155
g158
sg2192
g2215
sS'training_block.thisIndex'
p2762
g145
sg165
g168
sg20
F7.0620507029516375
sS'experimental_blocks.thisTrialN'
p2763
I3
sS'training_block.thisN'
p2764
I0
sS'word_presentation.thisN'
p2765
I27
sS'training_block.thisTrialN'
p2766
I0
sg19
S'space'
p2767
sg28
g29
sS'word_presentation.thisTrialN'
p2768
I27
sg41
g12
sS'word_presentation.thisIndex'
p2769
g31
(g131
S'\x1b\x00\x00\x00'
p2770
tp2771
Rp2772
sasS'loops'
p2773
(lp2774
g54
ag0
(g52
g2
Ntp2775
Rp2776
(dp2777
g56
Nsg57
(lp2778
sg58
I368807920
sg11
S'word_presentation_training'
p2779
sg6
I-1
sg60
I1
sg25
I01
sg26
g27
sg61
g0
(g62
g63
(dp2780
g65
g66
(g67
g68
g69
g70
tp2781
Rp2782
(I1
(I4
I1
tp2783
g76
I00
S'\x00\x00\x80?\x00\x00\x80?\x00\x00\x80?\x00\x00\x80?'
p2784
S'\x00\x00\x00\x00'
p2785
Ntp2786
bsg20
g66
(g67
g68
g69
g70
tp2787
Rp2788
(I1
(I4
I1
tp2789
g76
I00
S'\xdeQn@\xf6:\xd7@\x8fA\x12A\x84\xfc\x1cA'
p2790
S'\x00\x00\x00\x00'
p2791
Ntp2792
bsg105
g66
(g67
g68
g69
g70
tp2793
Rp2794
(I1
(I4
I1
tp2795
g76
I00
S'\x00\x00\x00@\x00\x00\x00\x00\x00\x00@@\x00\x00\x80?'
p2796
S'\x00\x00\x00\x00'
p2797
Ntp2798
bsg19
g88
(g68
(I0
tp2799
g70
tp2800
Rp2801
(I1
(I4
I1
tp2802
g95
I00
(lp2803
g318
ag272
ag338
ag298
atp2804
bstp2805
Rp2806
(dp2807
g115
(dp2808
g65
I01
sg20
I01
sg105
I01
sg19
I00
ssg117
g2776
sg118
(lp2809
g65
ag105
ag19
ag20
asg120
(lp2810
I4
aI1
asbsg122
g123
sg124
g88
(g68
(I0
tp2811
g70
tp2812
Rp2813
(I1
(I4
I1
tp2814
g131
I00
S'\x01\x00\x00\x00\x03\x00\x00\x00\x00\x00\x00\x00\x02\x00\x00\x00'
p2815
tp2816
bsg136
I01
sg137
I1
sg138
I-1
sg139
(lp2817
g152
((lp2818
(lp2819
g253
ag321
aa(lp2820
g254
ag289
aa(lp2821
g255
ag322
aa(lp2822
g256
ag328
aa(lp2823
g257
ag327
aa(lp2824
g258
ag315
aatp2825
Rp2826
ag152
((lp2827
(lp2828
g253
ag280
aa(lp2829
g254
ag289
aa(lp2830
g255
ag281
aa(lp2831
g256
ag287
aa(lp2832
g257
ag286
aa(lp2833
g258
ag269
aatp2834
Rp2835
ag152
((lp2836
(lp2837
g253
ag341
aa(lp2838
g254
ag289
aa(lp2839
g255
ag342
aa(lp2840
g256
ag348
aa(lp2841
g257
ag347
aa(lp2842
g258
ag335
aatp2843
Rp2844
ag152
((lp2845
(lp2846
g253
ag301
aa(lp2847
g254
ag289
aa(lp2848
g255
ag302
aa(lp2849
g256
ag308
aa(lp2850
g257
ag307
aa(lp2851
g258
ag295
aatp2852
Rp2853
asg141
Nsg142
g346
sg146
I4
sg147
I0
sg148
I4
sbag150
ag0
(g52
g2
Ntp2854
Rp2855
(dp2856
g56
Nsg57
(lp2857
sg58
I368807920
sg11
S'word_presentation'
p2858
sg6
I-1
sg60
I1
sg25
I01
sg26
g27
sg61
g0
(g62
g63
(dp2859
g65
g66
(g67
g68
g69
g70
tp2860
Rp2861
(I1
(I28
I1
tp2862
g76
I00
S'\x00\x00\x80?\x00\x00\x80?\x00\x00\x80?\x00\x00\x80?\x00\x00\x80?\x00\x00\x80?\x00\x00\x80?\x00\x00\x80?\x00\x00\x80?\x00\x00\x80?\x00\x00\x80?\x00\x00\x80?\x00\x00\x80?\x00\x00\x80?\x00\x00\x80?\x00\x00\x80?\x00\x00\x80?\x00\x00\x80?\x00\x00\x80?\x00\x00\x80?\x00\x00\x80?\x00\x00\x80?\x00\x00\x80?\x00\x00\x80?\x00\x00\x80?\x00\x00\x80?\x00\x00\x80?\x00\x00\x80?'
p2863
S'\x00\x00\x00\x00\x00\x00\x00\x00\x00\x00\x00\x00\x00\x00\x00\x00\x00\x00\x00\x00\x00\x00\x00\x00\x00\x00\x00\x00'
p2864
Ntp2865
bsg20
g66
(g67
g68
g69
g70
tp2866
Rp2867
(I1
(I28
I1
tp2868
g76
I00
S'\xe6\xd1\xdf@\xa4\x15\xfa@\x0b\x80\x0eA\xbc5\x8aA\x98iKA\xdd\x8f\x00AIIBA\x94B(A\xd2\r\x0cAK\x05MA\xbc5=Ai\x80\x19A\xae\xc1WA\xcd|\x0eA\xa7\xc6:AS\xd9\x08A\xa1:\x03A\x85\xcc3A\xe1\x80\xf8@L\xf2\tA\x86\xaa\tA\x1e\x99\x13A0\xb7\xcf@\xd4\x80/An^\xb4@\xd2\xfb\x11A\xb9\x98\x08A\x92\x1c\xce@'
p2869
S'\x00\x00\x00\x00\x00\x00\x00\x00\x00\x00\x00\x00\x00\x00\x00\x00\x00\x00\x00\x00\x00\x00\x00\x00\x00\x00\x00\x00'
p2870
Ntp2871
bsg105
g66
(g67
g68
g69
g70
tp2872
Rp2873
(I1
(I28
I1
tp2874
g76
I00
S'\x00\x00\x00\x00\x00\x00\x80?\x00\x00\x00@\x00\x00@@\x00\x00\x80@\x00\x00\xa0@\x00\x00\xc0@\x00\x00\xe0@\x00\x00\x00A\x00\x00\x10A\x00\x00 A\x00\x000A\x00\x00@A\x00\x00PA\x00\x00`A\x00\x00pA\x00\x00\x80A\x00\x00\x88A\x00\x00\x90A\x00\x00\x98A\x00\x00\xa0A\x00\x00\xa8A\x00\x00\xb0A\x00\x00\xb8A\x00\x00\xc0A\x00\x00\xc8A\x00\x00\xd0A\x00\x00\xd8A'
p2875
S'\x00\x00\x00\x00\x00\x00\x00\x00\x00\x00\x00\x00\x00\x00\x00\x00\x00\x00\x00\x00\x00\x00\x00\x00\x00\x00\x00\x00'
p2876
Ntp2877
bsg19
g88
(g68
(I0
tp2878
g70
tp2879
Rp2880
(I1
(I28
I1
tp2881
g95
I00
(lp2882
g381
ag402
ag424
ag445
ag466
ag487
ag508
ag529
ag550
ag571
ag592
ag613
ag634
ag655
ag676
ag697
ag718
ag739
ag760
ag781
ag802
ag823
ag844
ag865
ag886
ag907
ag928
ag949
atp2883
bstp2884
Rp2885
(dp2886
g115
(dp2887
g65
I01
sg20
I01
sg105
I01
sg19
I00
ssg117
g2855
sg118
(lp2888
g65
ag105
ag19
ag20
asg120
(lp2889
I28
aI1
asbsg122
S'sequential'
p2890
sg124
g88
(g68
(I0
tp2891
g70
tp2892
Rp2893
(I1
(I28
I1
tp2894
g131
I00
S'\x00\x00\x00\x00\x01\x00\x00\x00\x02\x00\x00\x00\x03\x00\x00\x00\x04\x00\x00\x00\x05\x00\x00\x00\x06\x00\x00\x00\x07\x00\x00\x00\x08\x00\x00\x00\t\x00\x00\x00\n\x00\x00\x00\x0b\x00\x00\x00\x0c\x00\x00\x00\r\x00\x00\x00\x0e\x00\x00\x00\x0f\x00\x00\x00\x10\x00\x00\x00\x11\x00\x00\x00\x12\x00\x00\x00\x13\x00\x00\x00\x14\x00\x00\x00\x15\x00\x00\x00\x16\x00\x00\x00\x17\x00\x00\x00\x18\x00\x00\x00\x19\x00\x00\x00\x1a\x00\x00\x00\x1b\x00\x00\x00'
p2895
tp2896
bsg136
I01
sg137
I1
sg138
I-1
sg139
(lp2897
g152
((lp2898
(lp2899
g374
ag375
aa(lp2900
g362
ag363
aa(lp2901
g366
ag367
aa(lp2902
g364
ag365
aa(lp2903
g359
ag360
aatp2904
Rp2905
ag152
((lp2906
(lp2907
g374
ag375
aa(lp2908
g362
ag391
aa(lp2909
g366
ag393
aa(lp2910
g364
ag392
aa(lp2911
g359
ag389
aatp2912
Rp2913
ag152
((lp2914
(lp2915
g374
ag418
aa(lp2916
g362
ag412
aa(lp2917
g366
ag414
aa(lp2918
g364
ag413
aa(lp2919
g359
ag410
aatp2920
Rp2921
ag152
((lp2922
(lp2923
g374
ag375
aa(lp2924
g362
ag434
aa(lp2925
g366
ag436
aa(lp2926
g364
ag435
aa(lp2927
g359
ag432
aatp2928
Rp2929
ag152
((lp2930
(lp2931
g374
ag418
aa(lp2932
g362
ag455
aa(lp2933
g366
ag457
aa(lp2934
g364
ag456
aa(lp2935
g359
ag453
aatp2936
Rp2937
ag152
((lp2938
(lp2939
g374
ag418
aa(lp2940
g362
ag476
aa(lp2941
g366
ag478
aa(lp2942
g364
ag477
aa(lp2943
g359
ag474
aatp2944
Rp2945
ag152
((lp2946
(lp2947
g374
ag418
aa(lp2948
g362
ag497
aa(lp2949
g366
ag499
aa(lp2950
g364
ag498
aa(lp2951
g359
ag495
aatp2952
Rp2953
ag152
((lp2954
(lp2955
g374
ag375
aa(lp2956
g362
ag518
aa(lp2957
g366
ag520
aa(lp2958
g364
ag519
aa(lp2959
g359
ag516
aatp2960
Rp2961
ag152
((lp2962
(lp2963
g374
ag375
aa(lp2964
g362
ag539
aa(lp2965
g366
ag541
aa(lp2966
g364
ag540
aa(lp2967
g359
ag537
aatp2968
Rp2969
ag152
((lp2970
(lp2971
g374
ag418
aa(lp2972
g362
ag560
aa(lp2973
g366
ag562
aa(lp2974
g364
ag561
aa(lp2975
g359
ag558
aatp2976
Rp2977
ag152
((lp2978
(lp2979
g374
ag418
aa(lp2980
g362
ag581
aa(lp2981
g366
ag583
aa(lp2982
g364
ag582
aa(lp2983
g359
ag579
aatp2984
Rp2985
ag152
((lp2986
(lp2987
g374
ag375
aa(lp2988
g362
ag602
aa(lp2989
g366
ag604
aa(lp2990
g364
ag603
aa(lp2991
g359
ag600
aatp2992
Rp2993
ag152
((lp2994
(lp2995
g374
ag375
aa(lp2996
g362
ag623
aa(lp2997
g366
ag625
aa(lp2998
g364
ag624
aa(lp2999
g359
ag621
aatp3000
Rp3001
ag152
((lp3002
(lp3003
g374
ag418
aa(lp3004
g362
ag644
aa(lp3005
g366
ag646
aa(lp3006
g364
ag645
aa(lp3007
g359
ag642
aatp3008
Rp3009
ag152
((lp3010
(lp3011
g374
ag418
aa(lp3012
g362
ag665
aa(lp3013
g366
ag667
aa(lp3014
g364
ag666
aa(lp3015
g359
ag663
aatp3016
Rp3017
ag152
((lp3018
(lp3019
g374
ag375
aa(lp3020
g362
ag686
aa(lp3021
g366
ag688
aa(lp3022
g364
ag687
aa(lp3023
g359
ag684
aatp3024
Rp3025
ag152
((lp3026
(lp3027
g374
ag418
aa(lp3028
g362
ag707
aa(lp3029
g366
ag709
aa(lp3030
g364
ag708
aa(lp3031
g359
ag705
aatp3032
Rp3033
ag152
((lp3034
(lp3035
g374
ag375
aa(lp3036
g362
ag728
aa(lp3037
g366
ag730
aa(lp3038
g364
ag729
aa(lp3039
g359
ag726
aatp3040
Rp3041
ag152
((lp3042
(lp3043
g374
ag375
aa(lp3044
g362
ag749
aa(lp3045
g366
ag751
aa(lp3046
g364
ag750
aa(lp3047
g359
ag747
aatp3048
Rp3049
ag152
((lp3050
(lp3051
g374
ag375
aa(lp3052
g362
ag770
aa(lp3053
g366
ag772
aa(lp3054
g364
ag771
aa(lp3055
g359
ag768
aatp3056
Rp3057
ag152
((lp3058
(lp3059
g374
ag418
aa(lp3060
g362
ag791
aa(lp3061
g366
ag793
aa(lp3062
g364
ag792
aa(lp3063
g359
ag789
aatp3064
Rp3065
ag152
((lp3066
(lp3067
g374
ag375
aa(lp3068
g362
ag812
aa(lp3069
g366
ag814
aa(lp3070
g364
ag813
aa(lp3071
g359
ag810
aatp3072
Rp3073
ag152
((lp3074
(lp3075
g374
ag418
aa(lp3076
g362
ag833
aa(lp3077
g366
ag835
aa(lp3078
g364
ag834
aa(lp3079
g359
ag831
aatp3080
Rp3081
ag152
((lp3082
(lp3083
g374
ag418
aa(lp3084
g362
ag854
aa(lp3085
g366
ag856
aa(lp3086
g364
ag855
aa(lp3087
g359
ag852
aatp3088
Rp3089
ag152
((lp3090
(lp3091
g374
ag375
aa(lp3092
g362
ag875
aa(lp3093
g366
ag877
aa(lp3094
g364
ag876
aa(lp3095
g359
ag873
aatp3096
Rp3097
ag152
((lp3098
(lp3099
g374
ag418
aa(lp3100
g362
ag896
aa(lp3101
g366
ag898
aa(lp3102
g364
ag897
aa(lp3103
g359
ag894
aatp3104
Rp3105
ag152
((lp3106
(lp3107
g374
ag375
aa(lp3108
g362
ag917
aa(lp3109
g366
ag919
aa(lp3110
g364
ag918
aa(lp3111
g359
ag915
aatp3112
Rp3113
ag152
((lp3114
(lp3115
g374
ag418
aa(lp3116
g362
ag938
aa(lp3117
g366
ag940
aa(lp3118
g364
ag939
aa(lp3119
g359
ag936
aatp3120
Rp3121
asg141
Nsg142
g954
sg146
I28
sg147
I0
sg148
I28
sbag0
(g52
g2
Ntp3122
Rp3123
(dp3124
g56
Nsg57
(lp3125
sg58
I368807920
sg11
g2858
sg6
I-1
sg60
I1
sg25
I01
sg26
g27
sg61
g0
(g62
g63
(dp3126
g65
g66
(g67
g68
g69
g70
tp3127
Rp3128
(I1
(I28
I1
tp3129
g76
I00
S'\x00\x00\x80?\x00\x00\x80?\x00\x00\x80?\x00\x00\x80?\x00\x00\x80?\x00\x00\x80?\x00\x00\x80?\x00\x00\x80?\x00\x00\x80?\x00\x00\x80?\x00\x00\x80?\x00\x00\x80?\x00\x00\x80?\x00\x00\x80?\x00\x00\x80?\x00\x00\x80?\x00\x00\x80?\x00\x00\x80?\x00\x00\x80?\x00\x00\x80?\x00\x00\x80?\x00\x00\x80?\x00\x00\x80?\x00\x00\x80?\x00\x00\x80?\x00\x00\x80?\x00\x00\x80?\x00\x00\x80?'
p3130
S'\x00\x00\x00\x00\x00\x00\x00\x00\x00\x00\x00\x00\x00\x00\x00\x00\x00\x00\x00\x00\x00\x00\x00\x00\x00\x00\x00\x00'
p3131
Ntp3132
bsg20
g66
(g67
g68
g69
g70
tp3133
Rp3134
(I1
(I28
I1
tp3135
g76
I00
S'yZ\xa4@\r\xa7\x9b@o5\xde@\xfc\xdb\xa5@sY\x05A\xeaf\tAQ\x94\x1aA\xbe\xa5\xce@r\x87\xf9@H\xb3#A\xdfm@A\x95d\xbc@\xbb:\xb2@#\x8d!A\x06\xc0\xab@\x97\x92\x0fA@\xb3\xec@n;\x03A\r\x8eBA\xf4\xd5\xc2@K4\xf4@\xda\x8c\xe3@\xb9\xed]AO\xe5\xe0@ZD\x9d@k\xea\x1bAx*DA\xd5\x0bFA'
p3136
S'\x00\x00\x00\x00\x00\x00\x00\x00\x00\x00\x00\x00\x00\x00\x00\x00\x00\x00\x00\x00\x00\x00\x00\x00\x00\x00\x00\x00'
p3137
Ntp3138
bsg105
g66
(g67
g68
g69
g70
tp3139
Rp3140
(I1
(I28
I1
tp3141
g76
I00
S'\x00\x00\x00\x00\x00\x00\x80?\x00\x00\x00@\x00\x00@@\x00\x00\x80@\x00\x00\xa0@\x00\x00\xc0@\x00\x00\xe0@\x00\x00\x00A\x00\x00\x10A\x00\x00 A\x00\x000A\x00\x00@A\x00\x00PA\x00\x00`A\x00\x00pA\x00\x00\x80A\x00\x00\x88A\x00\x00\x90A\x00\x00\x98A\x00\x00\xa0A\x00\x00\xa8A\x00\x00\xb0A\x00\x00\xb8A\x00\x00\xc0A\x00\x00\xc8A\x00\x00\xd0A\x00\x00\xd8A'
p3142
S'\x00\x00\x00\x00\x00\x00\x00\x00\x00\x00\x00\x00\x00\x00\x00\x00\x00\x00\x00\x00\x00\x00\x00\x00\x00\x00\x00\x00'
p3143
Ntp3144
bsg19
g88
(g68
(I0
tp3145
g70
tp3146
Rp3147
(I1
(I28
I1
tp3148
g95
I00
(lp3149
g988
ag1010
ag1031
ag1052
ag1073
ag1094
ag1115
ag1136
ag1157
ag1178
ag1199
ag1220
ag1241
ag1262
ag1283
ag1304
ag1325
ag1346
ag1367
ag1388
ag1409
ag1430
ag1451
ag1472
ag1493
ag1514
ag1535
ag1556
atp3150
bstp3151
Rp3152
(dp3153
g115
(dp3154
g65
I01
sg20
I01
sg105
I01
sg19
I00
ssg117
g3123
sg118
(lp3155
g65
ag105
ag19
ag20
asg120
(lp3156
I28
aI1
asbsg122
g2890
sg124
g88
(g68
(I0
tp3157
g70
tp3158
Rp3159
(I1
(I28
I1
tp3160
g131
I00
S'\x00\x00\x00\x00\x01\x00\x00\x00\x02\x00\x00\x00\x03\x00\x00\x00\x04\x00\x00\x00\x05\x00\x00\x00\x06\x00\x00\x00\x07\x00\x00\x00\x08\x00\x00\x00\t\x00\x00\x00\n\x00\x00\x00\x0b\x00\x00\x00\x0c\x00\x00\x00\r\x00\x00\x00\x0e\x00\x00\x00\x0f\x00\x00\x00\x10\x00\x00\x00\x11\x00\x00\x00\x12\x00\x00\x00\x13\x00\x00\x00\x14\x00\x00\x00\x15\x00\x00\x00\x16\x00\x00\x00\x17\x00\x00\x00\x18\x00\x00\x00\x19\x00\x00\x00\x1a\x00\x00\x00\x1b\x00\x00\x00'
p3161
tp3162
bsg136
I01
sg137
I1
sg138
I-1
sg139
(lp3163
g152
((lp3164
(lp3165
g981
ag982
aa(lp3166
g969
ag970
aa(lp3167
g973
ag974
aa(lp3168
g971
ag972
aa(lp3169
g966
ag967
aatp3170
Rp3171
ag152
((lp3172
(lp3173
g981
ag1004
aa(lp3174
g969
ag998
aa(lp3175
g973
ag1000
aa(lp3176
g971
ag999
aa(lp3177
g966
ag996
aatp3178
Rp3179
ag152
((lp3180
(lp3181
g981
ag982
aa(lp3182
g969
ag1020
aa(lp3183
g973
ag1022
aa(lp3184
g971
ag1021
aa(lp3185
g966
ag1018
aatp3186
Rp3187
ag152
((lp3188
(lp3189
g981
ag982
aa(lp3190
g969
ag1041
aa(lp3191
g973
ag1043
aa(lp3192
g971
ag1042
aa(lp3193
g966
ag1039
aatp3194
Rp3195
ag152
((lp3196
(lp3197
g981
ag1004
aa(lp3198
g969
ag1062
aa(lp3199
g973
ag1064
aa(lp3200
g971
ag1063
aa(lp3201
g966
ag1060
aatp3202
Rp3203
ag152
((lp3204
(lp3205
g981
ag982
aa(lp3206
g969
ag1083
aa(lp3207
g973
ag1085
aa(lp3208
g971
ag1084
aa(lp3209
g966
ag1081
aatp3210
Rp3211
ag152
((lp3212
(lp3213
g981
ag1004
aa(lp3214
g969
ag1104
aa(lp3215
g973
ag1106
aa(lp3216
g971
ag1105
aa(lp3217
g966
ag1102
aatp3218
Rp3219
ag152
((lp3220
(lp3221
g981
ag982
aa(lp3222
g969
ag1125
aa(lp3223
g973
ag1127
aa(lp3224
g971
ag1126
aa(lp3225
g966
ag1123
aatp3226
Rp3227
ag152
((lp3228
(lp3229
g981
ag982
aa(lp3230
g969
ag1146
aa(lp3231
g973
ag1148
aa(lp3232
g971
ag1147
aa(lp3233
g966
ag1144
aatp3234
Rp3235
ag152
((lp3236
(lp3237
g981
ag982
aa(lp3238
g969
ag1167
aa(lp3239
g973
ag1169
aa(lp3240
g971
ag1168
aa(lp3241
g966
ag1165
aatp3242
Rp3243
ag152
((lp3244
(lp3245
g981
ag1004
aa(lp3246
g969
ag1188
aa(lp3247
g973
ag1190
aa(lp3248
g971
ag1189
aa(lp3249
g966
ag1186
aatp3250
Rp3251
ag152
((lp3252
(lp3253
g981
ag1004
aa(lp3254
g969
ag1209
aa(lp3255
g973
ag1211
aa(lp3256
g971
ag1210
aa(lp3257
g966
ag1207
aatp3258
Rp3259
ag152
((lp3260
(lp3261
g981
ag982
aa(lp3262
g969
ag1230
aa(lp3263
g973
ag1232
aa(lp3264
g971
ag1231
aa(lp3265
g966
ag1228
aatp3266
Rp3267
ag152
((lp3268
(lp3269
g981
ag1004
aa(lp3270
g969
ag1251
aa(lp3271
g973
ag1253
aa(lp3272
g971
ag1252
aa(lp3273
g966
ag1249
aatp3274
Rp3275
ag152
((lp3276
(lp3277
g981
ag982
aa(lp3278
g969
ag1272
aa(lp3279
g973
ag1274
aa(lp3280
g971
ag1273
aa(lp3281
g966
ag1270
aatp3282
Rp3283
ag152
((lp3284
(lp3285
g981
ag1004
aa(lp3286
g969
ag1293
aa(lp3287
g973
ag1295
aa(lp3288
g971
ag1294
aa(lp3289
g966
ag1291
aatp3290
Rp3291
ag152
((lp3292
(lp3293
g981
ag1004
aa(lp3294
g969
ag1314
aa(lp3295
g973
ag1316
aa(lp3296
g971
ag1315
aa(lp3297
g966
ag1312
aatp3298
Rp3299
ag152
((lp3300
(lp3301
g981
ag1004
aa(lp3302
g969
ag1335
aa(lp3303
g973
ag1337
aa(lp3304
g971
ag1336
aa(lp3305
g966
ag1333
aatp3306
Rp3307
ag152
((lp3308
(lp3309
g981
ag982
aa(lp3310
g969
ag1356
aa(lp3311
g973
ag1358
aa(lp3312
g971
ag1357
aa(lp3313
g966
ag1354
aatp3314
Rp3315
ag152
((lp3316
(lp3317
g981
ag982
aa(lp3318
g969
ag1377
aa(lp3319
g973
ag1379
aa(lp3320
g971
ag1378
aa(lp3321
g966
ag1375
aatp3322
Rp3323
ag152
((lp3324
(lp3325
g981
ag982
aa(lp3326
g969
ag1398
aa(lp3327
g973
ag1400
aa(lp3328
g971
ag1399
aa(lp3329
g966
ag1396
aatp3330
Rp3331
ag152
((lp3332
(lp3333
g981
ag1004
aa(lp3334
g969
ag1419
aa(lp3335
g973
ag1421
aa(lp3336
g971
ag1420
aa(lp3337
g966
ag1417
aatp3338
Rp3339
ag152
((lp3340
(lp3341
g981
ag1004
aa(lp3342
g969
ag1440
aa(lp3343
g973
ag1442
aa(lp3344
g971
ag1441
aa(lp3345
g966
ag1438
aatp3346
Rp3347
ag152
((lp3348
(lp3349
g981
ag982
aa(lp3350
g969
ag1461
aa(lp3351
g973
ag1463
aa(lp3352
g971
ag1462
aa(lp3353
g966
ag1459
aatp3354
Rp3355
ag152
((lp3356
(lp3357
g981
ag982
aa(lp3358
g969
ag1482
aa(lp3359
g973
ag1484
aa(lp3360
g971
ag1483
aa(lp3361
g966
ag1480
aatp3362
Rp3363
ag152
((lp3364
(lp3365
g981
ag1004
aa(lp3366
g969
ag1503
aa(lp3367
g973
ag1505
aa(lp3368
g971
ag1504
aa(lp3369
g966
ag1501
aatp3370
Rp3371
ag152
((lp3372
(lp3373
g981
ag1004
aa(lp3374
g969
ag1524
aa(lp3375
g973
ag1526
aa(lp3376
g971
ag1525
aa(lp3377
g966
ag1522
aatp3378
Rp3379
ag152
((lp3380
(lp3381
g981
ag1004
aa(lp3382
g969
ag1545
aa(lp3383
g973
ag1547
aa(lp3384
g971
ag1546
aa(lp3385
g966
ag1543
aatp3386
Rp3387
asg141
Nsg142
g1561
sg146
I28
sg147
I0
sg148
I28
sbag0
(g52
g2
Ntp3388
Rp3389
(dp3390
g56
Nsg57
(lp3391
sg58
I368807920
sg11
g2858
sg6
I-1
sg60
I1
sg25
I01
sg26
g27
sg61
g0
(g62
g63
(dp3392
g65
g66
(g67
g68
g69
g70
tp3393
Rp3394
(I1
(I28
I1
tp3395
g76
I00
S'\x00\x00\x80?\x00\x00\x80?\x00\x00\x80?\x00\x00\x80?\x00\x00\x80?\x00\x00\x80?\x00\x00\x80?\x00\x00\x80?\x00\x00\x80?\x00\x00\x80?\x00\x00\x80?\x00\x00\x80?\x00\x00\x80?\x00\x00\x80?\x00\x00\x80?\x00\x00\x80?\x00\x00\x80?\x00\x00\x80?\x00\x00\x80?\x00\x00\x80?\x00\x00\x80?\x00\x00\x80?\x00\x00\x80?\x00\x00\x80?\x00\x00\x80?\x00\x00\x80?\x00\x00\x80?\x00\x00\x80?'
p3396
S'\x00\x00\x00\x00\x00\x00\x00\x00\x00\x00\x00\x00\x00\x00\x00\x00\x00\x00\x00\x00\x00\x00\x00\x00\x00\x00\x00\x00'
p3397
Ntp3398
bsg20
g66
(g67
g68
g69
g70
tp3399
Rp3400
(I1
(I28
I1
tp3401
g76
I00
S'-\xc7\x8e@\xd4\xcaW@ \x17\xce@\xd7\xe6\x97@\xecz\xff@jg\x1fA\xf6\xf5\x02A\xb4H\xf5@\x13\xf2\xef@\xb4G(A8\xc6\xde@\x90\xfd\x06A,\xcb\xe6@\x8a"\xb8@\x0bG\x0bA\xb6\xfb\x06A\xdc<\xab@7d\xa6@\x0f\xe5\xf6@vr\xda@$\x10\x1eA/&\xcf@\x89.\x11A\xce\x10YA\x13;\x0eA\xb4P\xad@\x7f\x12\x08A\x17\x02\x00A'
p3402
S'\x00\x00\x00\x00\x00\x00\x00\x00\x00\x00\x00\x00\x00\x00\x00\x00\x00\x00\x00\x00\x00\x00\x00\x00\x00\x00\x00\x00'
p3403
Ntp3404
bsg105
g66
(g67
g68
g69
g70
tp3405
Rp3406
(I1
(I28
I1
tp3407
g76
I00
S'\x00\x00\x00\x00\x00\x00\x80?\x00\x00\x00@\x00\x00@@\x00\x00\x80@\x00\x00\xa0@\x00\x00\xc0@\x00\x00\xe0@\x00\x00\x00A\x00\x00\x10A\x00\x00 A\x00\x000A\x00\x00@A\x00\x00PA\x00\x00`A\x00\x00pA\x00\x00\x80A\x00\x00\x88A\x00\x00\x90A\x00\x00\x98A\x00\x00\xa0A\x00\x00\xa8A\x00\x00\xb0A\x00\x00\xb8A\x00\x00\xc0A\x00\x00\xc8A\x00\x00\xd0A\x00\x00\xd8A'
p3408
S'\x00\x00\x00\x00\x00\x00\x00\x00\x00\x00\x00\x00\x00\x00\x00\x00\x00\x00\x00\x00\x00\x00\x00\x00\x00\x00\x00\x00'
p3409
Ntp3410
bsg19
g88
(g68
(I0
tp3411
g70
tp3412
Rp3413
(I1
(I28
I1
tp3414
g95
I00
(lp3415
g1595
ag1616
ag1638
ag1659
ag1680
ag1701
ag1722
ag1743
ag1764
ag1785
ag1806
ag1827
ag1848
ag1869
ag1890
ag1911
ag1932
ag1953
ag1974
ag1995
ag2016
ag2037
ag2058
ag2079
ag2100
ag2121
ag2142
ag2163
atp3416
bstp3417
Rp3418
(dp3419
g115
(dp3420
g65
I01
sg20
I01
sg105
I01
sg19
I00
ssg117
g3389
sg118
(lp3421
g65
ag105
ag19
ag20
asg120
(lp3422
I28
aI1
asbsg122
g2890
sg124
g88
(g68
(I0
tp3423
g70
tp3424
Rp3425
(I1
(I28
I1
tp3426
g131
I00
S'\x00\x00\x00\x00\x01\x00\x00\x00\x02\x00\x00\x00\x03\x00\x00\x00\x04\x00\x00\x00\x05\x00\x00\x00\x06\x00\x00\x00\x07\x00\x00\x00\x08\x00\x00\x00\t\x00\x00\x00\n\x00\x00\x00\x0b\x00\x00\x00\x0c\x00\x00\x00\r\x00\x00\x00\x0e\x00\x00\x00\x0f\x00\x00\x00\x10\x00\x00\x00\x11\x00\x00\x00\x12\x00\x00\x00\x13\x00\x00\x00\x14\x00\x00\x00\x15\x00\x00\x00\x16\x00\x00\x00\x17\x00\x00\x00\x18\x00\x00\x00\x19\x00\x00\x00\x1a\x00\x00\x00\x1b\x00\x00\x00'
p3427
tp3428
bsg136
I01
sg137
I1
sg138
I-1
sg139
(lp3429
g152
((lp3430
(lp3431
g1588
ag1589
aa(lp3432
g1576
ag1577
aa(lp3433
g1580
ag1581
aa(lp3434
g1578
ag1579
aa(lp3435
g1573
ag1574
aatp3436
Rp3437
ag152
((lp3438
(lp3439
g1588
ag1589
aa(lp3440
g1576
ag1605
aa(lp3441
g1580
ag1607
aa(lp3442
g1578
ag1606
aa(lp3443
g1573
ag1603
aatp3444
Rp3445
ag152
((lp3446
(lp3447
g1588
ag1632
aa(lp3448
g1576
ag1626
aa(lp3449
g1580
ag1628
aa(lp3450
g1578
ag1627
aa(lp3451
g1573
ag1624
aatp3452
Rp3453
ag152
((lp3454
(lp3455
g1588
ag1632
aa(lp3456
g1576
ag1648
aa(lp3457
g1580
ag1650
aa(lp3458
g1578
ag1649
aa(lp3459
g1573
ag1646
aatp3460
Rp3461
ag152
((lp3462
(lp3463
g1588
ag1589
aa(lp3464
g1576
ag1669
aa(lp3465
g1580
ag1671
aa(lp3466
g1578
ag1670
aa(lp3467
g1573
ag1667
aatp3468
Rp3469
ag152
((lp3470
(lp3471
g1588
ag1632
aa(lp3472
g1576
ag1690
aa(lp3473
g1580
ag1692
aa(lp3474
g1578
ag1691
aa(lp3475
g1573
ag1688
aatp3476
Rp3477
ag152
((lp3478
(lp3479
g1588
ag1632
aa(lp3480
g1576
ag1711
aa(lp3481
g1580
ag1713
aa(lp3482
g1578
ag1712
aa(lp3483
g1573
ag1709
aatp3484
Rp3485
ag152
((lp3486
(lp3487
g1588
ag1632
aa(lp3488
g1576
ag1732
aa(lp3489
g1580
ag1734
aa(lp3490
g1578
ag1733
aa(lp3491
g1573
ag1730
aatp3492
Rp3493
ag152
((lp3494
(lp3495
g1588
ag1589
aa(lp3496
g1576
ag1753
aa(lp3497
g1580
ag1755
aa(lp3498
g1578
ag1754
aa(lp3499
g1573
ag1751
aatp3500
Rp3501
ag152
((lp3502
(lp3503
g1588
ag1632
aa(lp3504
g1576
ag1774
aa(lp3505
g1580
ag1776
aa(lp3506
g1578
ag1775
aa(lp3507
g1573
ag1772
aatp3508
Rp3509
ag152
((lp3510
(lp3511
g1588
ag1632
aa(lp3512
g1576
ag1795
aa(lp3513
g1580
ag1797
aa(lp3514
g1578
ag1796
aa(lp3515
g1573
ag1793
aatp3516
Rp3517
ag152
((lp3518
(lp3519
g1588
ag1632
aa(lp3520
g1576
ag1816
aa(lp3521
g1580
ag1818
aa(lp3522
g1578
ag1817
aa(lp3523
g1573
ag1814
aatp3524
Rp3525
ag152
((lp3526
(lp3527
g1588
ag1589
aa(lp3528
g1576
ag1837
aa(lp3529
g1580
ag1839
aa(lp3530
g1578
ag1838
aa(lp3531
g1573
ag1835
aatp3532
Rp3533
ag152
((lp3534
(lp3535
g1588
ag1589
aa(lp3536
g1576
ag1858
aa(lp3537
g1580
ag1860
aa(lp3538
g1578
ag1859
aa(lp3539
g1573
ag1856
aatp3540
Rp3541
ag152
((lp3542
(lp3543
g1588
ag1589
aa(lp3544
g1576
ag1879
aa(lp3545
g1580
ag1881
aa(lp3546
g1578
ag1880
aa(lp3547
g1573
ag1877
aatp3548
Rp3549
ag152
((lp3550
(lp3551
g1588
ag1632
aa(lp3552
g1576
ag1900
aa(lp3553
g1580
ag1902
aa(lp3554
g1578
ag1901
aa(lp3555
g1573
ag1898
aatp3556
Rp3557
ag152
((lp3558
(lp3559
g1588
ag1589
aa(lp3560
g1576
ag1921
aa(lp3561
g1580
ag1923
aa(lp3562
g1578
ag1922
aa(lp3563
g1573
ag1919
aatp3564
Rp3565
ag152
((lp3566
(lp3567
g1588
ag1632
aa(lp3568
g1576
ag1942
aa(lp3569
g1580
ag1944
aa(lp3570
g1578
ag1943
aa(lp3571
g1573
ag1940
aatp3572
Rp3573
ag152
((lp3574
(lp3575
g1588
ag1589
aa(lp3576
g1576
ag1963
aa(lp3577
g1580
ag1965
aa(lp3578
g1578
ag1964
aa(lp3579
g1573
ag1961
aatp3580
Rp3581
ag152
((lp3582
(lp3583
g1588
ag1632
aa(lp3584
g1576
ag1984
aa(lp3585
g1580
ag1986
aa(lp3586
g1578
ag1985
aa(lp3587
g1573
ag1982
aatp3588
Rp3589
ag152
((lp3590
(lp3591
g1588
ag1589
aa(lp3592
g1576
ag2005
aa(lp3593
g1580
ag2007
aa(lp3594
g1578
ag2006
aa(lp3595
g1573
ag2003
aatp3596
Rp3597
ag152
((lp3598
(lp3599
g1588
ag1589
aa(lp3600
g1576
ag2026
aa(lp3601
g1580
ag2028
aa(lp3602
g1578
ag2027
aa(lp3603
g1573
ag2024
aatp3604
Rp3605
ag152
((lp3606
(lp3607
g1588
ag1632
aa(lp3608
g1576
ag2047
aa(lp3609
g1580
ag2049
aa(lp3610
g1578
ag2048
aa(lp3611
g1573
ag2045
aatp3612
Rp3613
ag152
((lp3614
(lp3615
g1588
ag1589
aa(lp3616
g1576
ag2068
aa(lp3617
g1580
ag2070
aa(lp3618
g1578
ag2069
aa(lp3619
g1573
ag2066
aatp3620
Rp3621
ag152
((lp3622
(lp3623
g1588
ag1632
aa(lp3624
g1576
ag2089
aa(lp3625
g1580
ag2091
aa(lp3626
g1578
ag2090
aa(lp3627
g1573
ag2087
aatp3628
Rp3629
ag152
((lp3630
(lp3631
g1588
ag1589
aa(lp3632
g1576
ag2110
aa(lp3633
g1580
ag2112
aa(lp3634
g1578
ag2111
aa(lp3635
g1573
ag2108
aatp3636
Rp3637
ag152
((lp3638
(lp3639
g1588
ag1632
aa(lp3640
g1576
ag2131
aa(lp3641
g1580
ag2133
aa(lp3642
g1578
ag2132
aa(lp3643
g1573
ag2129
aatp3644
Rp3645
ag152
((lp3646
(lp3647
g1588
ag1589
aa(lp3648
g1576
ag2152
aa(lp3649
g1580
ag2154
aa(lp3650
g1578
ag2153
aa(lp3651
g1573
ag2150
aatp3652
Rp3653
asg141
Nsg142
g2168
sg146
I28
sg147
I0
sg148
I28
sbag0
(g52
g2
Ntp3654
Rp3655
(dp3656
g56
Nsg57
(lp3657
sg58
I368807920
sg11
g2858
sg6
I-1
sg60
I1
sg25
I01
sg26
g27
sg61
g0
(g62
g63
(dp3658
g65
g66
(g67
g68
g69
g70
tp3659
Rp3660
(I1
(I28
I1
tp3661
g76
I00
S'\x00\x00\x80?\x00\x00\x80?\x00\x00\x80?\x00\x00\x80?\x00\x00\x80?\x00\x00\x80?\x00\x00\x80?\x00\x00\x80?\x00\x00\x80?\x00\x00\x80?\x00\x00\x80?\x00\x00\x80?\x00\x00\x80?\x00\x00\x80?\x00\x00\x80?\x00\x00\x80?\x00\x00\x80?\x00\x00\x80?\x00\x00\x80?\x00\x00\x80?\x00\x00\x80?\x00\x00\x80?\x00\x00\x80?\x00\x00\x80?\x00\x00\x80?\x00\x00\x80?\x00\x00\x80?\x00\x00\x80?'
p3662
S'\x00\x00\x00\x00\x00\x00\x00\x00\x00\x00\x00\x00\x00\x00\x00\x00\x00\x00\x00\x00\x00\x00\x00\x00\x00\x00\x00\x00'
p3663
Ntp3664
bsg20
g66
(g67
g68
g69
g70
tp3665
Rp3666
(I1
(I28
I1
tp3667
g76
I00
S'\xe2\x0f\xc6@\x8b2\xcf@\x8a\x9f\xeb@fG\xb3@\xcd\xa3\xa2@f\x17\xaa@>\x15\x01A2\x86\x9a@E\x11\x0cAU\xd2,Ap\x1e\x85@s\xfb.A\xd1\x9c\xeb@#B\xe6@o\xf9OA\xd3+\xa3@j\xf9\xe1@Y\xca>A%\xec<Au\n\xdc@\xe9\x91\xb7@\x1a1\x94@\xb2\x80/A\xee\x1f\xa2@\xd5\xe5YA\x19\xc7:A\xb7\xb7\xe5@R\xfc\xe1@'
p3668
S'\x00\x00\x00\x00\x00\x00\x00\x00\x00\x00\x00\x00\x00\x00\x00\x00\x00\x00\x00\x00\x00\x00\x00\x00\x00\x00\x00\x00'
p3669
Ntp3670
bsg105
g66
(g67
g68
g69
g70
tp3671
Rp3672
(I1
(I28
I1
tp3673
g76
I00
S'\x00\x00\x00\x00\x00\x00\x80?\x00\x00\x00@\x00\x00@@\x00\x00\x80@\x00\x00\xa0@\x00\x00\xc0@\x00\x00\xe0@\x00\x00\x00A\x00\x00\x10A\x00\x00 A\x00\x000A\x00\x00@A\x00\x00PA\x00\x00`A\x00\x00pA\x00\x00\x80A\x00\x00\x88A\x00\x00\x90A\x00\x00\x98A\x00\x00\xa0A\x00\x00\xa8A\x00\x00\xb0A\x00\x00\xb8A\x00\x00\xc0A\x00\x00\xc8A\x00\x00\xd0A\x00\x00\xd8A'
p3674
S'\x00\x00\x00\x00\x00\x00\x00\x00\x00\x00\x00\x00\x00\x00\x00\x00\x00\x00\x00\x00\x00\x00\x00\x00\x00\x00\x00\x00'
p3675
Ntp3676
bsg19
g88
(g68
(I0
tp3677
g70
tp3678
Rp3679
(I1
(I28
I1
tp3680
g95
I00
(lp3681
g2199
ag2221
ag2242
ag2263
ag2284
ag2305
ag2326
ag2347
ag2368
ag2389
ag2410
ag2431
ag2452
ag2473
ag2494
ag2515
ag2536
ag2557
ag2578
ag2599
ag2620
ag2641
ag2662
ag2683
ag2704
ag2725
ag2746
ag2767
atp3682
bstp3683
Rp3684
(dp3685
g115
(dp3686
g65
I01
sg20
I01
sg105
I01
sg19
I00
ssg117
g3655
sg118
(lp3687
g65
ag105
ag19
ag20
asg120
(lp3688
I28
aI1
asbsg122
g2890
sg124
g88
(g68
(I0
tp3689
g70
tp3690
Rp3691
(I1
(I28
I1
tp3692
g131
I00
S'\x00\x00\x00\x00\x01\x00\x00\x00\x02\x00\x00\x00\x03\x00\x00\x00\x04\x00\x00\x00\x05\x00\x00\x00\x06\x00\x00\x00\x07\x00\x00\x00\x08\x00\x00\x00\t\x00\x00\x00\n\x00\x00\x00\x0b\x00\x00\x00\x0c\x00\x00\x00\r\x00\x00\x00\x0e\x00\x00\x00\x0f\x00\x00\x00\x10\x00\x00\x00\x11\x00\x00\x00\x12\x00\x00\x00\x13\x00\x00\x00\x14\x00\x00\x00\x15\x00\x00\x00\x16\x00\x00\x00\x17\x00\x00\x00\x18\x00\x00\x00\x19\x00\x00\x00\x1a\x00\x00\x00\x1b\x00\x00\x00'
p3693
tp3694
bsg136
I01
sg137
I1
sg138
I-1
sg139
(lp3695
g152
((lp3696
(lp3697
g2192
ag2193
aa(lp3698
g2183
ag2184
aa(lp3699
g2187
ag2188
aa(lp3700
g2185
ag2186
aa(lp3701
g2180
ag2181
aatp3702
Rp3703
ag152
((lp3704
(lp3705
g2192
ag2215
aa(lp3706
g2183
ag2209
aa(lp3707
g2187
ag2211
aa(lp3708
g2185
ag2210
aa(lp3709
g2180
ag2207
aatp3710
Rp3711
ag152
((lp3712
(lp3713
g2192
ag2193
aa(lp3714
g2183
ag2231
aa(lp3715
g2187
ag2233
aa(lp3716
g2185
ag2232
aa(lp3717
g2180
ag2229
aatp3718
Rp3719
ag152
((lp3720
(lp3721
g2192
ag2193
aa(lp3722
g2183
ag2252
aa(lp3723
g2187
ag2254
aa(lp3724
g2185
ag2253
aa(lp3725
g2180
ag2250
aatp3726
Rp3727
ag152
((lp3728
(lp3729
g2192
ag2215
aa(lp3730
g2183
ag2273
aa(lp3731
g2187
ag2275
aa(lp3732
g2185
ag2274
aa(lp3733
g2180
ag2271
aatp3734
Rp3735
ag152
((lp3736
(lp3737
g2192
ag2193
aa(lp3738
g2183
ag2294
aa(lp3739
g2187
ag2296
aa(lp3740
g2185
ag2295
aa(lp3741
g2180
ag2292
aatp3742
Rp3743
ag152
((lp3744
(lp3745
g2192
ag2193
aa(lp3746
g2183
ag2315
aa(lp3747
g2187
ag2317
aa(lp3748
g2185
ag2316
aa(lp3749
g2180
ag2313
aatp3750
Rp3751
ag152
((lp3752
(lp3753
g2192
ag2215
aa(lp3754
g2183
ag2336
aa(lp3755
g2187
ag2338
aa(lp3756
g2185
ag2337
aa(lp3757
g2180
ag2334
aatp3758
Rp3759
ag152
((lp3760
(lp3761
g2192
ag2215
aa(lp3762
g2183
ag2357
aa(lp3763
g2187
ag2359
aa(lp3764
g2185
ag2358
aa(lp3765
g2180
ag2355
aatp3766
Rp3767
ag152
((lp3768
(lp3769
g2192
ag2215
aa(lp3770
g2183
ag2378
aa(lp3771
g2187
ag2380
aa(lp3772
g2185
ag2379
aa(lp3773
g2180
ag2376
aatp3774
Rp3775
ag152
((lp3776
(lp3777
g2192
ag2193
aa(lp3778
g2183
ag2399
aa(lp3779
g2187
ag2401
aa(lp3780
g2185
ag2400
aa(lp3781
g2180
ag2397
aatp3782
Rp3783
ag152
((lp3784
(lp3785
g2192
ag2215
aa(lp3786
g2183
ag2420
aa(lp3787
g2187
ag2422
aa(lp3788
g2185
ag2421
aa(lp3789
g2180
ag2418
aatp3790
Rp3791
ag152
((lp3792
(lp3793
g2192
ag2193
aa(lp3794
g2183
ag2441
aa(lp3795
g2187
ag2443
aa(lp3796
g2185
ag2442
aa(lp3797
g2180
ag2439
aatp3798
Rp3799
ag152
((lp3800
(lp3801
g2192
ag2193
aa(lp3802
g2183
ag2462
aa(lp3803
g2187
ag2464
aa(lp3804
g2185
ag2463
aa(lp3805
g2180
ag2460
aatp3806
Rp3807
ag152
((lp3808
(lp3809
g2192
ag2193
aa(lp3810
g2183
ag2483
aa(lp3811
g2187
ag2485
aa(lp3812
g2185
ag2484
aa(lp3813
g2180
ag2481
aatp3814
Rp3815
ag152
((lp3816
(lp3817
g2192
ag2215
aa(lp3818
g2183
ag2504
aa(lp3819
g2187
ag2506
aa(lp3820
g2185
ag2505
aa(lp3821
g2180
ag2502
aatp3822
Rp3823
ag152
((lp3824
(lp3825
g2192
ag2193
aa(lp3826
g2183
ag2525
aa(lp3827
g2187
ag2527
aa(lp3828
g2185
ag2526
aa(lp3829
g2180
ag2523
aatp3830
Rp3831
ag152
((lp3832
(lp3833
g2192
ag2215
aa(lp3834
g2183
ag2546
aa(lp3835
g2187
ag2548
aa(lp3836
g2185
ag2547
aa(lp3837
g2180
ag2544
aatp3838
Rp3839
ag152
((lp3840
(lp3841
g2192
ag2215
aa(lp3842
g2183
ag2567
aa(lp3843
g2187
ag2569
aa(lp3844
g2185
ag2568
aa(lp3845
g2180
ag2565
aatp3846
Rp3847
ag152
((lp3848
(lp3849
g2192
ag2193
aa(lp3850
g2183
ag2588
aa(lp3851
g2187
ag2590
aa(lp3852
g2185
ag2589
aa(lp3853
g2180
ag2586
aatp3854
Rp3855
ag152
((lp3856
(lp3857
g2192
ag2193
aa(lp3858
g2183
ag2609
aa(lp3859
g2187
ag2611
aa(lp3860
g2185
ag2610
aa(lp3861
g2180
ag2607
aatp3862
Rp3863
ag152
((lp3864
(lp3865
g2192
ag2215
aa(lp3866
g2183
ag2630
aa(lp3867
g2187
ag2632
aa(lp3868
g2185
ag2631
aa(lp3869
g2180
ag2628
aatp3870
Rp3871
ag152
((lp3872
(lp3873
g2192
ag2215
aa(lp3874
g2183
ag2651
aa(lp3875
g2187
ag2653
aa(lp3876
g2185
ag2652
aa(lp3877
g2180
ag2649
aatp3878
Rp3879
ag152
((lp3880
(lp3881
g2192
ag2215
aa(lp3882
g2183
ag2672
aa(lp3883
g2187
ag2674
aa(lp3884
g2185
ag2673
aa(lp3885
g2180
ag2670
aatp3886
Rp3887
ag152
((lp3888
(lp3889
g2192
ag2193
aa(lp3890
g2183
ag2693
aa(lp3891
g2187
ag2695
aa(lp3892
g2185
ag2694
aa(lp3893
g2180
ag2691
aatp3894
Rp3895
ag152
((lp3896
(lp3897
g2192
ag2193
aa(lp3898
g2183
ag2714
aa(lp3899
g2187
ag2716
aa(lp3900
g2185
ag2715
aa(lp3901
g2180
ag2712
aatp3902
Rp3903
ag152
((lp3904
(lp3905
g2192
ag2215
aa(lp3906
g2183
ag2735
aa(lp3907
g2187
ag2737
aa(lp3908
g2185
ag2736
aa(lp3909
g2180
ag2733
aatp3910
Rp3911
ag152
((lp3912
(lp3913
g2192
ag2215
aa(lp3914
g2183
ag2756
aa(lp3915
g2187
ag2758
aa(lp3916
g2185
ag2757
aa(lp3917
g2180
ag2754
aatp3918
Rp3919
asg141
Nsg142
g2772
sg146
I28
sg147
I0
sg148
I28
sbasS'savePickle'
p3920
I00
sb.