ccopy_reg
_reconstructor
p0
(cpsychopy.data.experiment
ExperimentHandler
p1
c__builtin__
object
p2
Ntp3
Rp4
(dp5
S'originPath'
p6
VC:\u005cUsers\u005cadmin\u005cDocuments\u005cgit-repos\u005cpia_rita\u005cPia_Rita_2018_replication_sheb-pulv2013\u005cexp-scripts_psychopy\u005cpilot\u005csheb_replic_pilot_control.psyexp
p7
sS'dataFileName'
p8
VC:\u005cUsers\u005cadmin\u005cDocuments\u005cgit-repos\u005cpia_rita\u005cPia_Rita_2018_replication_sheb-pulv2013\u005cexp-scripts_psychopy\u005cpilot\u005cdata/911_sheb_replic_pilot_control_2018_Jun_19_1202
p9
sS'runtimeInfo'
p10
NsS'name'
p11
S'sheb_replic_pilot_control'
p12
sS'dataNames'
p13
(lp14
S'key_resp_13.keys'
p15
aS'key_resp_13.rt'
p16
aS'key_resp_6.keys'
p17
aS'key_resp_6.rt'
p18
aS'key_resp_2.keys'
p19
aS'key_resp_2.rt'
p20
aS'key_resp_8.keys'
p21
aS'key_resp_8.rt'
p22
aS'key_resp_7.keys'
p23
aS'key_resp_7.rt'
p24
asS'autoLog'
p25
I01
sS'extraInfo'
p26
(dp27
S'date'
p28
V2018_Jun_19_1202
p29
sS'frameRate'
p30
cnumpy.core.multiarray
scalar
p31
(cnumpy
dtype
p32
(S'f8'
p33
I0
I1
tp34
Rp35
(I3
S'<'
p36
NNNI-1
I-1
I0
tp37
bS'\x92\x9a\x03\xb1\xf1\xceM@'
p38
tp39
Rp40
sS'expName'
p41
g12
sVsession
p42
V001
p43
sVparticipant
p44
g0
(cfuture.types.newstr
newstr
p45
c__builtin__
unicode
p46
V911
p47
tp48
Rp49
ssS'loopsUnfinished'
p50
(lp51
g0
(cpsychopy.data.trial
TrialHandler
p52
g2
Ntp53
Rp54
(dp55
S'origin'
p56
NsS'thisTrial'
p57
NsS'_exp'
p58
I364990448
sg11
S'training_block'
p59
sg6
I-1
sS'thisRepN'
p60
I0
sg25
I01
sg26
g27
sS'data'
p61
g0
(cpsychopy.data.base
DataHandler
p62
c__builtin__
dict
p63
(dp64
S'ran'
p65
cnumpy.ma.core
_mareconstruct
p66
(cnumpy.ma.core
MaskedArray
p67
cnumpy
ndarray
p68
(I0
tp69
S'b'
p70
tp71
Rp72
(I1
(I1
I5
tp73
g32
(S'f4'
p74
I0
I1
tp75
Rp76
(I3
S'<'
p77
NNNI-1
I-1
I0
tp78
bI00
S'\x00\x00\x80?\x00\x00\x00\x00\x00\x00\x00\x00\x00\x00\x00\x00\x00\x00\x00\x00'
p79
S'\x00\x00\x00\x00\x00'
p80
Ntp81
bsg22
g66
(g67
g68
g69
g70
tp82
Rp83
(I1
(I1
I5
tp84
g76
I00
S'o}\x03A\x00\x00\x00\x00\x00\x00\x00\x00\x00\x00\x00\x00\x00\x00\x00\x00'
p85
S'\x00\x01\x01\x01\x01'
p86
Ntp87
bsg21
cnumpy.core.multiarray
_reconstruct
p88
(g68
(I0
tp89
g70
tp90
Rp91
(I1
(I1
I5
tp92
g32
(S'O4'
p93
I0
I1
tp94
Rp95
(I3
S'|'
p96
NNNI-1
I-1
I63
tp97
bI00
(lp98
S's'
p99
aS'--'
p100
aS'--'
p101
aS'--'
p102
aS'--'
p103
atp104
bsS'order'
p105
g66
(g67
g68
g69
g70
tp106
Rp107
(I1
(I1
I5
tp108
g76
I00
S'\x00\x00\x00\x00\x00\x00\x00\x00\x00\x00\x00\x00\x00\x00\x00\x00\x00\x00\x00\x00'
p109
S'\x00\x01\x01\x01\x01'
p110
Ntp111
bstp112
Rp113
(dp114
S'isNumeric'
p115
(dp116
g65
I01
sg22
I01
sg21
I00
sg105
I01
ssS'trials'
p117
g54
sS'dataTypes'
p118
(lp119
g65
ag105
ag21
ag22
asS'dataShape'
p120
(lp121
I1
aI5
asbsS'method'
p122
S'random'
p123
sS'sequenceIndices'
p124
g88
(g68
(I0
tp125
g70
tp126
Rp127
(I1
(I1
I5
tp128
g32
(S'i4'
p129
I0
I1
tp130
Rp131
(I3
S'<'
p132
NNNI-1
I-1
I0
tp133
bI00
S'\x00\x00\x00\x00\x00\x00\x00\x00\x00\x00\x00\x00\x00\x00\x00\x00\x00\x00\x00\x00'
p134
tp135
bsS'finished'
p136
I00
sS'nReps'
p137
I5
sS'nRemaining'
p138
I4
sS'trialList'
p139
(lp140
NasS'seed'
p141
NsS'thisIndex'
p142
g31
(g131
S'\x00\x00\x00\x00'
p143
tp144
Rp145
sS'thisN'
p146
I0
sS'thisTrialN'
p147
I0
sS'nTotal'
p148
I5
sbasS'saveWideText'
p149
I00
sS'thisEntry'
p150
(dp151
sS'version'
p152
S''
p153
sS'_paramNamesSoFar'
p154
(lp155
S'item'
p156
aS'type'
p157
aS'word1'
p158
aS'word2'
p159
aS'word3'
p160
aS'word4'
p161
aS'word_duration'
p162
aS'follow_blank'
p163
aS'SOA'
p164
asS'entries'
p165
(lp166
(dp167
g42
g43
sg41
g12
sg44
g49
sg15
S'space'
p168
sg28
g29
sg30
g40
sg16
F132.86139662680944
sa(dp169
g42
g43
sg41
g12
sg44
g49
sg28
g29
sg17
S'space'
p170
sg30
g40
sg18
F2.5160358102148166
sa(dp171
S'training_block.thisRepN'
p172
I0
sg20
F8.736666195160069
sS'training_block.thisN'
p173
I0
sS'word_presentation_training.thisTrialN'
p174
I0
sg42
g43
sg161
Vsigh
p175
sS'word_presentation_training.thisRepN'
p176
I0
sg44
g49
sg30
g40
sS'training_block.thisTrialN'
p177
I0
sg19
S'space'
p178
sg156
g31
(g32
(S'i8'
p179
I0
I1
tp180
Rp181
(I3
S'<'
p182
NNNI-1
I-1
I0
tp183
bS'\x01\x00\x00\x00\x00\x00\x00\x00'
p184
tp185
Rp186
sg41
g12
sg158
Vwait
p187
sS'word_presentation_training.thisIndex'
p188
g31
(g131
S'\x00\x00\x00\x00'
p189
tp190
Rp191
sg160
Vblush
p192
sg159
Vbless
p193
sg28
g29
sS'word_presentation_training.thisN'
p194
I0
sg157
Vtraining
p195
sS'training_block.thisIndex'
p196
g145
sa(dp197
S'training_block.thisRepN'
p198
I0
sg20
F23.865869742676296
sS'training_block.thisN'
p199
I0
sS'word_presentation_training.thisTrialN'
p200
I1
sg42
g43
sg161
Vprint
p201
sS'word_presentation_training.thisRepN'
p202
I0
sg44
g49
sg30
g40
sS'training_block.thisTrialN'
p203
I0
sg19
S'space'
p204
sg156
g31
(g181
S'\x04\x00\x00\x00\x00\x00\x00\x00'
p205
tp206
Rp207
sg41
g12
sg158
Vsave
p208
sS'word_presentation_training.thisIndex'
p209
g31
(g131
S'\x03\x00\x00\x00'
p210
tp211
Rp212
sg160
Vstay
p213
sg159
Vlook
p214
sg28
g29
sS'word_presentation_training.thisN'
p215
I1
sg157
g195
sS'training_block.thisIndex'
p216
g145
sa(dp217
S'training_block.thisRepN'
p218
I0
sg20
F0.0003615317564253928
sS'training_block.thisN'
p219
I0
sS'word_presentation_training.thisTrialN'
p220
I2
sg42
g43
sg161
Vsoothe
p221
sS'word_presentation_training.thisRepN'
p222
I0
sg44
g49
sg30
g40
sS'training_block.thisTrialN'
p223
I0
sg19
S'space'
p224
sg156
g31
(g181
S'\x03\x00\x00\x00\x00\x00\x00\x00'
p225
tp226
Rp227
sg41
g12
sg158
Vlick
p228
sS'word_presentation_training.thisIndex'
p229
g31
(g131
S'\x02\x00\x00\x00'
p230
tp231
Rp232
sg160
Vchew
p233
sg159
Vruin
p234
sg28
g29
sS'word_presentation_training.thisN'
p235
I2
sg157
g195
sS'training_block.thisIndex'
p236
g145
sa(dp237
S'training_block.thisRepN'
p238
I0
sg20
F9.979248472282052
sS'training_block.thisN'
p239
I0
sS'word_presentation_training.thisTrialN'
p240
I3
sg42
g43
sg161
Vyell
p241
sS'word_presentation_training.thisRepN'
p242
I0
sg44
g49
sg30
g40
sS'training_block.thisTrialN'
p243
I0
sg19
S'space'
p244
sg156
g31
(g181
S'\x02\x00\x00\x00\x00\x00\x00\x00'
p245
tp246
Rp247
sg41
g12
sg158
Vlike
p248
sS'word_presentation_training.thisIndex'
p249
g31
(g131
S'\x01\x00\x00\x00'
p250
tp251
Rp252
sg160
Vstare
p253
sg159
Vthank
p254
sg28
g29
sS'word_presentation_training.thisN'
p255
I3
sg157
g195
sS'training_block.thisIndex'
p256
g145
sa(dp257
S'training_block.thisRepN'
p258
I0
sS'training_block.thisN'
p259
I0
sg42
g43
sg24
F2.1140772958842717
sg30
g40
sS'training_block.thisTrialN'
p260
I0
sg22
F8.21812376476737
sg41
g12
sg21
g99
sg23
S'space'
p261
sg28
g29
sg44
g49
sS'training_block.thisIndex'
p262
g145
sa(dp263
S'training_block.thisRepN'
p264
I0
sg163
g31
(g35
S'\x9a\x99\x99\x99\x99\x99\xd9?'
p265
tp266
Rp267
sg30
g40
sS'word4'
p268
Vclap
p269
sS'experimental_blocks.thisN'
p270
I0
sg42
g43
sS'word1'
p271
Vclaw
p272
sS'word3'
p273
Vstir
p274
sS'word2'
p275
Vscratch
p276
sS'experimental_blocks.thisIndex'
p277
g31
(g131
S'\x03\x00\x00\x00'
p278
tp279
Rp280
sS'word_presentation.thisRepN'
p281
I0
sS'experimental_blocks.thisRepN'
p282
I0
sg44
g49
sg162
g31
(g35
S'\x9a\x99\x99\x99\x99\x99\xd9?'
p283
tp284
Rp285
sS'type'
p286
Varm
p287
sS'training_block.thisIndex'
p288
g145
sg164
g31
(g35
S'\x9a\x99\x99\x99\x99\x99\xe9?'
p289
tp290
Rp291
sg20
F6.054097399421153
sS'experimental_blocks.thisTrialN'
p292
I0
sS'training_block.thisN'
p293
I0
sS'word_presentation.thisN'
p294
I0
sS'training_block.thisTrialN'
p295
I0
sg19
S'space'
p296
sg28
g29
sS'word_presentation.thisTrialN'
p297
I0
sg41
g12
sS'word_presentation.thisIndex'
p298
g31
(g131
S'\x00\x00\x00\x00'
p299
tp300
Rp301
sa(dp302
S'training_block.thisRepN'
p303
I0
sg163
g267
sg30
g40
sg268
Vthrow
p304
sS'experimental_blocks.thisN'
p305
I0
sg42
g43
sg271
Vchop
p306
sg273
Vfold
p307
sg275
Vscrape
p308
sS'experimental_blocks.thisIndex'
p309
g280
sS'word_presentation.thisRepN'
p310
I0
sS'experimental_blocks.thisRepN'
p311
I0
sg44
g49
sg162
g285
sg286
g287
sS'training_block.thisIndex'
p312
g145
sg164
g291
sg20
F10.31470252850886
sS'experimental_blocks.thisTrialN'
p313
I0
sS'training_block.thisN'
p314
I0
sS'word_presentation.thisN'
p315
I1
sS'training_block.thisTrialN'
p316
I0
sg19
S'space'
p317
sg28
g29
sS'word_presentation.thisTrialN'
p318
I1
sg41
g12
sS'word_presentation.thisIndex'
p319
g31
(g131
S'\x01\x00\x00\x00'
p320
tp321
Rp322
sa(dp323
S'training_block.thisRepN'
p324
I0
sg163
g267
sg30
g40
sg268
Vhop
p325
sS'experimental_blocks.thisN'
p326
I0
sg42
g43
sg271
Vtrudge
p327
sg273
Vskate
p328
sg275
Vtrip
p329
sS'experimental_blocks.thisIndex'
p330
g280
sS'word_presentation.thisRepN'
p331
I0
sS'experimental_blocks.thisRepN'
p332
I0
sg44
g49
sg162
g285
sg286
Vleg
p333
sS'training_block.thisIndex'
p334
g145
sg164
g291
sg20
F7.547957286307792
sS'experimental_blocks.thisTrialN'
p335
I0
sS'training_block.thisN'
p336
I0
sS'word_presentation.thisN'
p337
I2
sS'training_block.thisTrialN'
p338
I0
sg19
S'space'
p339
sg28
g29
sS'word_presentation.thisTrialN'
p340
I2
sg41
g12
sS'word_presentation.thisIndex'
p341
g31
(g131
S'\x02\x00\x00\x00'
p342
tp343
Rp344
sa(dp345
S'training_block.thisRepN'
p346
I0
sg163
g267
sg30
g40
sg268
Vsneak
p347
sS'experimental_blocks.thisN'
p348
I0
sg42
g43
sg271
Vwander
p349
sg273
Vcrawl
p350
sg275
Vslip
p351
sS'experimental_blocks.thisIndex'
p352
g280
sS'word_presentation.thisRepN'
p353
I0
sS'experimental_blocks.thisRepN'
p354
I0
sg44
g49
sg162
g285
sg286
g333
sS'training_block.thisIndex'
p355
g145
sg164
g291
sg20
F5.24970386005225
sS'experimental_blocks.thisTrialN'
p356
I0
sS'training_block.thisN'
p357
I0
sS'word_presentation.thisN'
p358
I3
sS'training_block.thisTrialN'
p359
I0
sg19
S'space'
p360
sg28
g29
sS'word_presentation.thisTrialN'
p361
I3
sg41
g12
sS'word_presentation.thisIndex'
p362
g31
(g131
S'\x03\x00\x00\x00'
p363
tp364
Rp365
sa(dp366
S'training_block.thisRepN'
p367
I0
sg163
g267
sg30
g40
sg268
Vjump
p368
sS'experimental_blocks.thisN'
p369
I0
sg42
g43
sg271
Vstumble
p370
sg273
Vmarch
p371
sg275
Vskip
p372
sS'experimental_blocks.thisIndex'
p373
g280
sS'word_presentation.thisRepN'
p374
I0
sS'experimental_blocks.thisRepN'
p375
I0
sg44
g49
sg162
g285
sg286
g333
sS'training_block.thisIndex'
p376
g145
sg164
g291
sg20
F12.913465102110422
sS'experimental_blocks.thisTrialN'
p377
I0
sS'training_block.thisN'
p378
I0
sS'word_presentation.thisN'
p379
I4
sS'training_block.thisTrialN'
p380
I0
sg19
S'space'
p381
sg28
g29
sS'word_presentation.thisTrialN'
p382
I4
sg41
g12
sS'word_presentation.thisIndex'
p383
g31
(g131
S'\x04\x00\x00\x00'
p384
tp385
Rp386
sa(dp387
S'training_block.thisRepN'
p388
I0
sg163
g267
sg30
g40
sg268
Vsqueeze
p389
sS'experimental_blocks.thisN'
p390
I0
sg42
g43
sg271
Vcut
p391
sg273
Vbrush
p392
sg275
Vstab
p393
sS'experimental_blocks.thisIndex'
p394
g280
sS'word_presentation.thisRepN'
p395
I0
sS'experimental_blocks.thisRepN'
p396
I0
sg44
g49
sg162
g285
sg286
g287
sS'training_block.thisIndex'
p397
g145
sg164
g291
sg20
F8.788492859057442
sS'experimental_blocks.thisTrialN'
p398
I0
sS'training_block.thisN'
p399
I0
sS'word_presentation.thisN'
p400
I5
sS'training_block.thisTrialN'
p401
I0
sg19
S'space'
p402
sg28
g29
sS'word_presentation.thisTrialN'
p403
I5
sg41
g12
sS'word_presentation.thisIndex'
p404
g31
(g131
S'\x05\x00\x00\x00'
p405
tp406
Rp407
sa(dp408
S'training_block.thisRepN'
p409
I0
sg163
g267
sg30
g40
sg268
Vtrot
p410
sS'experimental_blocks.thisN'
p411
I0
sg42
g43
sg271
Vrun
p412
sg273
Vslither
p413
sg275
Vtiptoe
p414
sS'experimental_blocks.thisIndex'
p415
g280
sS'word_presentation.thisRepN'
p416
I0
sS'experimental_blocks.thisRepN'
p417
I0
sg44
g49
sg162
g285
sg286
g333
sS'training_block.thisIndex'
p418
g145
sg164
g291
sg20
F7.128064031028771
sS'experimental_blocks.thisTrialN'
p419
I0
sS'training_block.thisN'
p420
I0
sS'word_presentation.thisN'
p421
I6
sS'training_block.thisTrialN'
p422
I0
sg19
S'space'
p423
sg28
g29
sS'word_presentation.thisTrialN'
p424
I6
sg41
g12
sS'word_presentation.thisIndex'
p425
g31
(g131
S'\x06\x00\x00\x00'
p426
tp427
Rp428
sa(dp429
S'training_block.thisRepN'
p430
I0
sg163
g267
sg30
g40
sg268
Vfile
p431
sS'experimental_blocks.thisN'
p432
I0
sg42
g43
sg271
Vnip
p433
sg273
Vknock
p434
sg275
Vskim
p435
sS'experimental_blocks.thisIndex'
p436
g280
sS'word_presentation.thisRepN'
p437
I0
sS'experimental_blocks.thisRepN'
p438
I0
sg44
g49
sg162
g285
sg286
g287
sS'training_block.thisIndex'
p439
g145
sg164
g291
sg20
F9.928863194012592
sS'experimental_blocks.thisTrialN'
p440
I0
sS'training_block.thisN'
p441
I0
sS'word_presentation.thisN'
p442
I7
sS'training_block.thisTrialN'
p443
I0
sg19
S'space'
p444
sg28
g29
sS'word_presentation.thisTrialN'
p445
I7
sg41
g12
sS'word_presentation.thisIndex'
p446
g31
(g131
S'\x07\x00\x00\x00'
p447
tp448
Rp449
sa(dp450
S'training_block.thisRepN'
p451
I0
sg163
g267
sg30
g40
sg268
Vtug
p452
sS'experimental_blocks.thisN'
p453
I0
sg42
g43
sg271
Vdelve
p454
sg273
Vscoop
p455
sg275
Vpunch
p456
sS'experimental_blocks.thisIndex'
p457
g280
sS'word_presentation.thisRepN'
p458
I0
sS'experimental_blocks.thisRepN'
p459
I0
sg44
g49
sg162
g285
sg286
g287
sS'training_block.thisIndex'
p460
g145
sg164
g291
sg20
F7.480361120835369
sS'experimental_blocks.thisTrialN'
p461
I0
sS'training_block.thisN'
p462
I0
sS'word_presentation.thisN'
p463
I8
sS'training_block.thisTrialN'
p464
I0
sg19
S'space'
p465
sg28
g29
sS'word_presentation.thisTrialN'
p466
I8
sg41
g12
sS'word_presentation.thisIndex'
p467
g31
(g131
S'\x08\x00\x00\x00'
p468
tp469
Rp470
sa(dp471
S'training_block.thisRepN'
p472
I0
sg163
g267
sg30
g40
sg268
Vglide
p473
sS'experimental_blocks.thisN'
p474
I0
sg42
g43
sg271
Vleap
p475
sg273
Vstrut
p476
sg275
Vscuff
p477
sS'experimental_blocks.thisIndex'
p478
g280
sS'word_presentation.thisRepN'
p479
I0
sS'experimental_blocks.thisRepN'
p480
I0
sg44
g49
sg162
g285
sg286
g333
sS'training_block.thisIndex'
p481
g145
sg164
g291
sg20
F9.459251617408881
sS'experimental_blocks.thisTrialN'
p482
I0
sS'training_block.thisN'
p483
I0
sS'word_presentation.thisN'
p484
I9
sS'training_block.thisTrialN'
p485
I0
sg19
S'space'
p486
sg28
g29
sS'word_presentation.thisTrialN'
p487
I9
sg41
g12
sS'word_presentation.thisIndex'
p488
g31
(g131
S'\t\x00\x00\x00'
p489
tp490
Rp491
sa(dp492
S'training_block.thisRepN'
p493
I0
sg163
g267
sg30
g40
sg268
Vflit
p494
sS'experimental_blocks.thisN'
p495
I0
sg42
g43
sg271
Vstomp
p496
sg273
Vwade
p497
sg275
Vtread
p498
sS'experimental_blocks.thisIndex'
p499
g280
sS'word_presentation.thisRepN'
p500
I0
sS'experimental_blocks.thisRepN'
p501
I0
sg44
g49
sg162
g285
sg286
g333
sS'training_block.thisIndex'
p502
g145
sg164
g291
sg20
F9.023352580783467
sS'experimental_blocks.thisTrialN'
p503
I0
sS'training_block.thisN'
p504
I0
sS'word_presentation.thisN'
p505
I10
sS'training_block.thisTrialN'
p506
I0
sg19
S'space'
p507
sg28
g29
sS'word_presentation.thisTrialN'
p508
I10
sg41
g12
sS'word_presentation.thisIndex'
p509
g31
(g131
S'\n\x00\x00\x00'
p510
tp511
Rp512
sa(dp513
S'training_block.thisRepN'
p514
I0
sg163
g267
sg30
g40
sg268
Vtoss
p515
sS'experimental_blocks.thisN'
p516
I0
sg42
g43
sg271
Vwipe
p517
sg273
Vpolish
p518
sg275
Vpat
p519
sS'experimental_blocks.thisIndex'
p520
g280
sS'word_presentation.thisRepN'
p521
I0
sS'experimental_blocks.thisRepN'
p522
I0
sg44
g49
sg162
g285
sg286
g287
sS'training_block.thisIndex'
p523
g145
sg164
g291
sg20
F6.490843566196418
sS'experimental_blocks.thisTrialN'
p524
I0
sS'training_block.thisN'
p525
I0
sS'word_presentation.thisN'
p526
I11
sS'training_block.thisTrialN'
p527
I0
sg19
S'space'
p528
sg28
g29
sS'word_presentation.thisTrialN'
p529
I11
sg41
g12
sS'word_presentation.thisIndex'
p530
g31
(g131
S'\x0b\x00\x00\x00'
p531
tp532
Rp533
sa(dp534
S'training_block.thisRepN'
p535
I0
sg163
g267
sg30
g40
sg268
Vtwine
p536
sS'experimental_blocks.thisN'
p537
I0
sg42
g43
sg271
Vrub
p538
sg273
Vclutch
p539
sg275
Vclick
p540
sS'experimental_blocks.thisIndex'
p541
g280
sS'word_presentation.thisRepN'
p542
I0
sS'experimental_blocks.thisRepN'
p543
I0
sg44
g49
sg162
g285
sg286
g287
sS'training_block.thisIndex'
p544
g145
sg164
g291
sg20
F7.581400751829278
sS'experimental_blocks.thisTrialN'
p545
I0
sS'training_block.thisN'
p546
I0
sS'word_presentation.thisN'
p547
I12
sS'training_block.thisTrialN'
p548
I0
sg19
S'space'
p549
sg28
g29
sS'word_presentation.thisTrialN'
p550
I12
sg41
g12
sS'word_presentation.thisIndex'
p551
g31
(g131
S'\x0c\x00\x00\x00'
p552
tp553
Rp554
sa(dp555
S'training_block.thisRepN'
p556
I0
sg163
g267
sg30
g40
sg268
Vstagger
p557
sS'experimental_blocks.thisN'
p558
I0
sg42
g43
sg271
Vstray
p559
sg273
Vroll
p560
sg275
Vinch
p561
sS'experimental_blocks.thisIndex'
p562
g280
sS'word_presentation.thisRepN'
p563
I0
sS'experimental_blocks.thisRepN'
p564
I0
sg44
g49
sg162
g285
sg286
g333
sS'training_block.thisIndex'
p565
g145
sg164
g291
sg20
F10.314718728293883
sS'experimental_blocks.thisTrialN'
p566
I0
sS'training_block.thisN'
p567
I0
sS'word_presentation.thisN'
p568
I13
sS'training_block.thisTrialN'
p569
I0
sg19
S'space'
p570
sg28
g29
sS'word_presentation.thisTrialN'
p571
I13
sg41
g12
sS'word_presentation.thisIndex'
p572
g31
(g131
S'\r\x00\x00\x00'
p573
tp574
Rp575
sa(dp576
S'training_block.thisRepN'
p577
I0
sg163
g267
sg30
g40
sg268
Vshake
p578
sS'experimental_blocks.thisN'
p579
I0
sg42
g43
sg271
Vdig
p580
sg273
Vgrab
p581
sg275
Vgrate
p582
sS'experimental_blocks.thisIndex'
p583
g280
sS'word_presentation.thisRepN'
p584
I0
sS'experimental_blocks.thisRepN'
p585
I0
sg44
g49
sg162
g285
sg286
g287
sS'training_block.thisIndex'
p586
g145
sg164
g291
sg20
F9.962746029275877
sS'experimental_blocks.thisTrialN'
p587
I0
sS'training_block.thisN'
p588
I0
sS'word_presentation.thisN'
p589
I14
sS'training_block.thisTrialN'
p590
I0
sg19
S'space'
p591
sg28
g29
sS'word_presentation.thisTrialN'
p592
I14
sg41
g12
sS'word_presentation.thisIndex'
p593
g31
(g131
S'\x0e\x00\x00\x00'
p594
tp595
Rp596
sa(dp597
S'training_block.thisRepN'
p598
I0
sg163
g267
sg30
g40
sg268
Vstamp
p599
sS'experimental_blocks.thisN'
p600
I0
sg42
g43
sg271
Vsprint
p601
sg273
Vhike
p602
sg275
Vstroll
p603
sS'experimental_blocks.thisIndex'
p604
g280
sS'word_presentation.thisRepN'
p605
I0
sS'experimental_blocks.thisRepN'
p606
I0
sg44
g49
sg162
g285
sg286
g333
sS'training_block.thisIndex'
p607
g145
sg164
g291
sg20
F7.09470670094197
sS'experimental_blocks.thisTrialN'
p608
I0
sS'training_block.thisN'
p609
I0
sS'word_presentation.thisN'
p610
I15
sS'training_block.thisTrialN'
p611
I0
sg19
S'space'
p612
sg28
g29
sS'word_presentation.thisTrialN'
p613
I15
sg41
g12
sS'word_presentation.thisIndex'
p614
g31
(g131
S'\x0f\x00\x00\x00'
p615
tp616
Rp617
sa(dp618
S'training_block.thisRepN'
p619
I0
sg163
g267
sg30
g40
sg268
Vhack
p620
sS'experimental_blocks.thisN'
p621
I0
sg42
g43
sg271
Vpoke
p622
sg273
Vclean
p623
sg275
Vswitch
p624
sS'experimental_blocks.thisIndex'
p625
g280
sS'word_presentation.thisRepN'
p626
I0
sS'experimental_blocks.thisRepN'
p627
I0
sg44
g49
sg162
g285
sg286
g287
sS'training_block.thisIndex'
p628
g145
sg164
g291
sg20
F7.29567687042254
sS'experimental_blocks.thisTrialN'
p629
I0
sS'training_block.thisN'
p630
I0
sS'word_presentation.thisN'
p631
I16
sS'training_block.thisTrialN'
p632
I0
sg19
S'space'
p633
sg28
g29
sS'word_presentation.thisTrialN'
p634
I16
sg41
g12
sS'word_presentation.thisIndex'
p635
g31
(g131
S'\x10\x00\x00\x00'
p636
tp637
Rp638
sa(dp639
S'training_block.thisRepN'
p640
I0
sg163
g267
sg30
g40
sg268
Vscrub
p641
sS'experimental_blocks.thisN'
p642
I0
sg42
g43
sg271
Vgrasp
p643
sg273
Vcatch
p644
sg275
Vlift
p645
sS'experimental_blocks.thisIndex'
p646
g280
sS'word_presentation.thisRepN'
p647
I0
sS'experimental_blocks.thisRepN'
p648
I0
sg44
g49
sg162
g285
sg286
g287
sS'training_block.thisIndex'
p649
g145
sg164
g291
sg20
F12.19304096806809
sS'experimental_blocks.thisTrialN'
p650
I0
sS'training_block.thisN'
p651
I0
sS'word_presentation.thisN'
p652
I17
sS'training_block.thisTrialN'
p653
I0
sg19
S'space'
p654
sg28
g29
sS'word_presentation.thisTrialN'
p655
I17
sg41
g12
sS'word_presentation.thisIndex'
p656
g31
(g131
S'\x11\x00\x00\x00'
p657
tp658
Rp659
sa(dp660
S'training_block.thisRepN'
p661
I0
sg163
g267
sg30
g40
sg268
Vpull
p662
sS'experimental_blocks.thisN'
p663
I0
sg42
g43
sg271
Vbraid
p664
sg273
Vwash
p665
sg275
Vwrap
p666
sS'experimental_blocks.thisIndex'
p667
g280
sS'word_presentation.thisRepN'
p668
I0
sS'experimental_blocks.thisRepN'
p669
I0
sg44
g49
sg162
g285
sg286
g287
sS'training_block.thisIndex'
p670
g145
sg164
g291
sg20
F9.022806924656834
sS'experimental_blocks.thisTrialN'
p671
I0
sS'training_block.thisN'
p672
I0
sS'word_presentation.thisN'
p673
I18
sS'training_block.thisTrialN'
p674
I0
sg19
S'space'
p675
sg28
g29
sS'word_presentation.thisTrialN'
p676
I18
sg41
g12
sS'word_presentation.thisIndex'
p677
g31
(g131
S'\x12\x00\x00\x00'
p678
tp679
Rp680
sa(dp681
S'training_block.thisRepN'
p682
I0
sg163
g267
sg30
g40
sg268
Vmount
p683
sS'experimental_blocks.thisN'
p684
I0
sg42
g43
sg271
Vtraipse
p685
sg273
Vplod
p686
sg275
Vtrek
p687
sS'experimental_blocks.thisIndex'
p688
g280
sS'word_presentation.thisRepN'
p689
I0
sS'experimental_blocks.thisRepN'
p690
I0
sg44
g49
sg162
g285
sg286
g333
sS'training_block.thisIndex'
p691
g145
sg164
g291
sg20
F6.692169340685723
sS'experimental_blocks.thisTrialN'
p692
I0
sS'training_block.thisN'
p693
I0
sS'word_presentation.thisN'
p694
I19
sS'training_block.thisTrialN'
p695
I0
sg19
S'space'
p696
sg28
g29
sS'word_presentation.thisTrialN'
p697
I19
sg41
g12
sS'word_presentation.thisIndex'
p698
g31
(g131
S'\x13\x00\x00\x00'
p699
tp700
Rp701
sa(dp702
S'training_block.thisRepN'
p703
I0
sg163
g267
sg30
g40
sg268
Vgrip
p704
sS'experimental_blocks.thisN'
p705
I0
sg42
g43
sg271
Vseize
p706
sg273
Vpeel
p707
sg275
Vpush
p708
sS'experimental_blocks.thisIndex'
p709
g280
sS'word_presentation.thisRepN'
p710
I0
sS'experimental_blocks.thisRepN'
p711
I0
sg44
g49
sg162
g285
sg286
g287
sS'training_block.thisIndex'
p712
g145
sg164
g291
sg20
F6.692135360650354
sS'experimental_blocks.thisTrialN'
p713
I0
sS'training_block.thisN'
p714
I0
sS'word_presentation.thisN'
p715
I20
sS'training_block.thisTrialN'
p716
I0
sg19
S'space'
p717
sg28
g29
sS'word_presentation.thisTrialN'
p718
I20
sg41
g12
sS'word_presentation.thisIndex'
p719
g31
(g131
S'\x14\x00\x00\x00'
p720
tp721
Rp722
sa(dp723
S'training_block.thisRepN'
p724
I0
sg163
g267
sg30
g40
sg268
Vrush
p725
sS'experimental_blocks.thisN'
p726
I0
sg42
g43
sg271
Vpace
p727
sg273
Vcreep
p728
sg275
Vjog
p729
sS'experimental_blocks.thisIndex'
p730
g280
sS'word_presentation.thisRepN'
p731
I0
sS'experimental_blocks.thisRepN'
p732
I0
sg44
g49
sg162
g285
sg286
g333
sS'training_block.thisIndex'
p733
g145
sg164
g291
sg20
F8.302148881544781
sS'experimental_blocks.thisTrialN'
p734
I0
sS'training_block.thisN'
p735
I0
sS'word_presentation.thisN'
p736
I21
sS'training_block.thisTrialN'
p737
I0
sg19
S'space'
p738
sg28
g29
sS'word_presentation.thisTrialN'
p739
I21
sg41
g12
sS'word_presentation.thisIndex'
p740
g31
(g131
S'\x15\x00\x00\x00'
p741
tp742
Rp743
sa(dp744
S'training_block.thisRepN'
p745
I0
sg163
g267
sg30
g40
sg268
Vdance
p746
sS'experimental_blocks.thisN'
p747
I0
sg42
g43
sg271
Vstride
p748
sg273
Vwalk
p749
sg275
Vclimb
p750
sS'experimental_blocks.thisIndex'
p751
g280
sS'word_presentation.thisRepN'
p752
I0
sS'experimental_blocks.thisRepN'
p753
I0
sg44
g49
sg162
g285
sg286
g333
sS'training_block.thisIndex'
p754
g145
sg164
g291
sg20
F6.390212880962281
sS'experimental_blocks.thisTrialN'
p755
I0
sS'training_block.thisN'
p756
I0
sS'word_presentation.thisN'
p757
I22
sS'training_block.thisTrialN'
p758
I0
sg19
S'space'
p759
sg28
g29
sS'word_presentation.thisTrialN'
p760
I22
sg41
g12
sS'word_presentation.thisIndex'
p761
g31
(g131
S'\x16\x00\x00\x00'
p762
tp763
Rp764
sa(dp765
S'training_block.thisRepN'
p766
I0
sg163
g267
sg30
g40
sg268
Vkick
p767
sS'experimental_blocks.thisN'
p768
I0
sg42
g43
sg271
Vramble
p769
sg273
Vkneel
p770
sg275
Vwobble
p771
sS'experimental_blocks.thisIndex'
p772
g280
sS'word_presentation.thisRepN'
p773
I0
sS'experimental_blocks.thisRepN'
p774
I0
sg44
g49
sg162
g285
sg286
g333
sS'training_block.thisIndex'
p775
g145
sg164
g291
sg20
F5.719256959386257
sS'experimental_blocks.thisTrialN'
p776
I0
sS'training_block.thisN'
p777
I0
sS'word_presentation.thisN'
p778
I23
sS'training_block.thisTrialN'
p779
I0
sg19
S'space'
p780
sg28
g29
sS'word_presentation.thisTrialN'
p781
I23
sg41
g12
sS'word_presentation.thisIndex'
p782
g31
(g131
S'\x17\x00\x00\x00'
p783
tp784
Rp785
sa(dp786
S'training_block.thisRepN'
p787
I0
sg163
g267
sg30
g40
sg268
Vcarve
p788
sS'experimental_blocks.thisN'
p789
I0
sg42
g43
sg271
Vsnatch
p790
sg273
Vbind
p791
sg275
Vpinch
p792
sS'experimental_blocks.thisIndex'
p793
g280
sS'word_presentation.thisRepN'
p794
I0
sS'experimental_blocks.thisRepN'
p795
I0
sg44
g49
sg162
g285
sg286
g287
sS'training_block.thisIndex'
p796
g145
sg164
g291
sg20
F8.034107656651031
sS'experimental_blocks.thisTrialN'
p797
I0
sS'training_block.thisN'
p798
I0
sS'word_presentation.thisN'
p799
I24
sS'training_block.thisTrialN'
p800
I0
sg19
S'space'
p801
sg28
g29
sS'word_presentation.thisTrialN'
p802
I24
sg41
g12
sS'word_presentation.thisIndex'
p803
g31
(g131
S'\x18\x00\x00\x00'
p804
tp805
Rp806
sa(dp807
S'training_block.thisRepN'
p808
I0
sg163
g267
sg30
g40
sg268
Vbounce
p809
sS'experimental_blocks.thisN'
p810
I0
sg42
g43
sg271
Vroam
p811
sg273
Vsway
p812
sg275
Vprance
p813
sS'experimental_blocks.thisIndex'
p814
g280
sS'word_presentation.thisRepN'
p815
I0
sS'experimental_blocks.thisRepN'
p816
I0
sg44
g49
sg162
g285
sg286
g333
sS'training_block.thisIndex'
p817
g145
sg164
g291
sg20
F10.73407304443026
sS'experimental_blocks.thisTrialN'
p818
I0
sS'training_block.thisN'
p819
I0
sS'word_presentation.thisN'
p820
I25
sS'training_block.thisTrialN'
p821
I0
sg19
S'space'
p822
sg28
g29
sS'word_presentation.thisTrialN'
p823
I25
sg41
g12
sS'word_presentation.thisIndex'
p824
g31
(g131
S'\x19\x00\x00\x00'
p825
tp826
Rp827
sa(dp828
S'training_block.thisRepN'
p829
I0
sg163
g267
sg30
g40
sg268
Vflee
p830
sS'experimental_blocks.thisN'
p831
I0
sg42
g43
sg271
Vstep
p832
sg273
Vslide
p833
sg275
Vlimp
p834
sS'experimental_blocks.thisIndex'
p835
g280
sS'word_presentation.thisRepN'
p836
I0
sS'experimental_blocks.thisRepN'
p837
I0
sg44
g49
sg162
g285
sg286
g333
sS'training_block.thisIndex'
p838
g145
sg164
g291
sg20
F6.44077635685062
sS'experimental_blocks.thisTrialN'
p839
I0
sS'training_block.thisN'
p840
I0
sS'word_presentation.thisN'
p841
I26
sS'training_block.thisTrialN'
p842
I0
sg19
S'space'
p843
sg28
g29
sS'word_presentation.thisTrialN'
p844
I26
sg41
g12
sS'word_presentation.thisIndex'
p845
g31
(g131
S'\x1a\x00\x00\x00'
p846
tp847
Rp848
sa(dp849
S'training_block.thisRepN'
p850
I0
sg163
g267
sg30
g40
sg268
Vdunk
p851
sS'experimental_blocks.thisN'
p852
I0
sg42
g43
sg271
Vbash
p853
sg273
Vwhip
p854
sg275
Vslap
p855
sS'experimental_blocks.thisIndex'
p856
g280
sS'word_presentation.thisRepN'
p857
I0
sS'experimental_blocks.thisRepN'
p858
I0
sg44
g49
sg162
g285
sg286
g287
sS'training_block.thisIndex'
p859
g145
sg164
g291
sg20
F5.534756833345455
sS'experimental_blocks.thisTrialN'
p860
I0
sS'training_block.thisN'
p861
I0
sS'word_presentation.thisN'
p862
I27
sS'training_block.thisTrialN'
p863
I0
sg19
S'space'
p864
sg28
g29
sS'word_presentation.thisTrialN'
p865
I27
sg41
g12
sS'word_presentation.thisIndex'
p866
g31
(g131
S'\x1b\x00\x00\x00'
p867
tp868
Rp869
sa(dp870
S'training_block.thisRepN'
p871
I0
sg163
g267
sS'experimental_blocks.thisRepN'
p872
I0
sS'experimental_blocks.thisTrialN'
p873
I0
sS'training_block.thisN'
p874
I0
sg42
g43
sg41
g12
sg30
g40
sS'training_block.thisTrialN'
p875
I0
sg44
g49
sS'experimental_blocks.thisN'
p876
I0
sg164
g291
sg28
g29
sS'experimental_blocks.thisIndex'
p877
g280
sg162
g285
sS'training_block.thisIndex'
p878
g145
sa(dp879
S'training_block.thisRepN'
p880
I0
sg163
g31
(g35
S'\x9a\x99\x99\x99\x99\x99\xd9?'
p881
tp882
Rp883
sg30
g40
sS'word4'
p884
Vtread
p885
sS'experimental_blocks.thisN'
p886
I1
sg42
g43
sS'word1'
p887
Vrush
p888
sS'word3'
p889
Vslide
p890
sS'word2'
p891
Vtiptoe
p892
sS'experimental_blocks.thisIndex'
p893
g31
(g131
S'\x02\x00\x00\x00'
p894
tp895
Rp896
sS'word_presentation.thisRepN'
p897
I0
sS'experimental_blocks.thisRepN'
p898
I0
sg44
g49
sg162
g31
(g35
S'333333\xd3?'
p899
tp900
Rp901
sS'type'
p902
Vleg
p903
sS'training_block.thisIndex'
p904
g145
sg164
g31
(g35
S'ffffff\xe6?'
p905
tp906
Rp907
sg20
F6.692093478282914
sS'experimental_blocks.thisTrialN'
p908
I1
sS'training_block.thisN'
p909
I0
sS'word_presentation.thisN'
p910
I0
sS'training_block.thisTrialN'
p911
I0
sg19
S'space'
p912
sg28
g29
sS'word_presentation.thisTrialN'
p913
I0
sg41
g12
sS'word_presentation.thisIndex'
p914
g31
(g131
S'\x00\x00\x00\x00'
p915
tp916
Rp917
sa(dp918
S'training_block.thisRepN'
p919
I0
sg163
g883
sg30
g40
sg884
Vpolish
p920
sS'experimental_blocks.thisN'
p921
I1
sg42
g43
sg887
Vcatch
p922
sg889
Vbraid
p923
sg891
Vpunch
p924
sS'experimental_blocks.thisIndex'
p925
g896
sS'word_presentation.thisRepN'
p926
I0
sS'experimental_blocks.thisRepN'
p927
I0
sg44
g49
sg162
g901
sg902
Varm
p928
sS'training_block.thisIndex'
p929
g145
sg164
g907
sg20
F5.8368452620361495
sS'experimental_blocks.thisTrialN'
p930
I1
sS'training_block.thisN'
p931
I0
sS'word_presentation.thisN'
p932
I1
sS'training_block.thisTrialN'
p933
I0
sg19
S'space'
p934
sg28
g29
sS'word_presentation.thisTrialN'
p935
I1
sg41
g12
sS'word_presentation.thisIndex'
p936
g31
(g131
S'\x01\x00\x00\x00'
p937
tp938
Rp939
sa(dp940
S'training_block.thisRepN'
p941
I0
sg163
g883
sg30
g40
sg884
Vskate
p942
sS'experimental_blocks.thisN'
p943
I1
sg42
g43
sg887
Vcrawl
p944
sg889
Vstrut
p945
sg891
Vwobble
p946
sS'experimental_blocks.thisIndex'
p947
g896
sS'word_presentation.thisRepN'
p948
I0
sS'experimental_blocks.thisRepN'
p949
I0
sg44
g49
sg162
g901
sg902
g903
sS'training_block.thisIndex'
p950
g145
sg164
g907
sg20
F8.40255395515669
sS'experimental_blocks.thisTrialN'
p951
I1
sS'training_block.thisN'
p952
I0
sS'word_presentation.thisN'
p953
I2
sS'training_block.thisTrialN'
p954
I0
sg19
S'space'
p955
sg28
g29
sS'word_presentation.thisTrialN'
p956
I2
sg41
g12
sS'word_presentation.thisIndex'
p957
g31
(g131
S'\x02\x00\x00\x00'
p958
tp959
Rp960
sa(dp961
S'training_block.thisRepN'
p962
I0
sg163
g883
sg30
g40
sg884
Vstab
p963
sS'experimental_blocks.thisN'
p964
I1
sg42
g43
sg887
Vchop
p965
sg889
Vbrush
p966
sg891
Vgrasp
p967
sS'experimental_blocks.thisIndex'
p968
g896
sS'word_presentation.thisRepN'
p969
I0
sS'experimental_blocks.thisRepN'
p970
I0
sg44
g49
sg162
g901
sg902
g928
sS'training_block.thisIndex'
p971
g145
sg164
g907
sg20
F9.124030284901892
sS'experimental_blocks.thisTrialN'
p972
I1
sS'training_block.thisN'
p973
I0
sS'word_presentation.thisN'
p974
I3
sS'training_block.thisTrialN'
p975
I0
sg19
S'space'
p976
sg28
g29
sS'word_presentation.thisTrialN'
p977
I3
sg41
g12
sS'word_presentation.thisIndex'
p978
g31
(g131
S'\x03\x00\x00\x00'
p979
tp980
Rp981
sa(dp982
S'training_block.thisRepN'
p983
I0
sg163
g883
sg30
g40
sg884
Vstomp
p984
sS'experimental_blocks.thisN'
p985
I1
sg42
g43
sg887
Vbounce
p986
sg889
Vlimp
p987
sg891
Vstumble
p988
sS'experimental_blocks.thisIndex'
p989
g896
sS'word_presentation.thisRepN'
p990
I0
sS'experimental_blocks.thisRepN'
p991
I0
sg44
g49
sg162
g901
sg902
g903
sS'training_block.thisIndex'
p992
g145
sg164
g907
sg20
F8.352905569485301
sS'experimental_blocks.thisTrialN'
p993
I1
sS'training_block.thisN'
p994
I0
sS'word_presentation.thisN'
p995
I4
sS'training_block.thisTrialN'
p996
I0
sg19
S'space'
p997
sg28
g29
sS'word_presentation.thisTrialN'
p998
I4
sg41
g12
sS'word_presentation.thisIndex'
p999
g31
(g131
S'\x04\x00\x00\x00'
p1000
tp1001
Rp1002
sa(dp1003
S'training_block.thisRepN'
p1004
I0
sg163
g883
sg30
g40
sg884
Vclutch
p1005
sS'experimental_blocks.thisN'
p1006
I1
sg42
g43
sg887
Vdunk
p1007
sg889
Vnip
p1008
sg891
Vslap
p1009
sS'experimental_blocks.thisIndex'
p1010
g896
sS'word_presentation.thisRepN'
p1011
I0
sS'experimental_blocks.thisRepN'
p1012
I0
sg44
g49
sg162
g901
sg902
g928
sS'training_block.thisIndex'
p1013
g145
sg164
g907
sg20
F5.98879370089162
sS'experimental_blocks.thisTrialN'
p1014
I1
sS'training_block.thisN'
p1015
I0
sS'word_presentation.thisN'
p1016
I5
sS'training_block.thisTrialN'
p1017
I0
sg19
S'space'
p1018
sg28
g29
sS'word_presentation.thisTrialN'
p1019
I5
sg41
g12
sS'word_presentation.thisIndex'
p1020
g31
(g131
S'\x05\x00\x00\x00'
p1021
tp1022
Rp1023
sa(dp1024
S'training_block.thisRepN'
p1025
I0
sg163
g883
sg30
g40
sg884
Vlift
p1026
sS'experimental_blocks.thisN'
p1027
I1
sg42
g43
sg887
Vwrap
p1028
sg889
Vpoke
p1029
sg891
Vclaw
p1030
sS'experimental_blocks.thisIndex'
p1031
g896
sS'word_presentation.thisRepN'
p1032
I0
sS'experimental_blocks.thisRepN'
p1033
I0
sg44
g49
sg162
g901
sg902
g928
sS'training_block.thisIndex'
p1034
g145
sg164
g907
sg20
F5.551674939091754
sS'experimental_blocks.thisTrialN'
p1035
I1
sS'training_block.thisN'
p1036
I0
sS'word_presentation.thisN'
p1037
I6
sS'training_block.thisTrialN'
p1038
I0
sg19
S'space'
p1039
sg28
g29
sS'word_presentation.thisTrialN'
p1040
I6
sg41
g12
sS'word_presentation.thisIndex'
p1041
g31
(g131
S'\x06\x00\x00\x00'
p1042
tp1043
Rp1044
sa(dp1045
S'training_block.thisRepN'
p1046
I0
sg163
g883
sg30
g40
sg884
Vhike
p1047
sS'experimental_blocks.thisN'
p1048
I1
sg42
g43
sg887
Vstep
p1049
sg889
Vpace
p1050
sg891
Vwalk
p1051
sS'experimental_blocks.thisIndex'
p1052
g896
sS'word_presentation.thisRepN'
p1053
I0
sS'experimental_blocks.thisRepN'
p1054
I0
sg44
g49
sg162
g901
sg902
g903
sS'training_block.thisIndex'
p1055
g145
sg164
g907
sg20
F5.300877000969194
sS'experimental_blocks.thisTrialN'
p1056
I1
sS'training_block.thisN'
p1057
I0
sS'word_presentation.thisN'
p1058
I7
sS'training_block.thisTrialN'
p1059
I0
sg19
S'space'
p1060
sg28
g29
sS'word_presentation.thisTrialN'
p1061
I7
sg41
g12
sS'word_presentation.thisIndex'
p1062
g31
(g131
S'\x07\x00\x00\x00'
p1063
tp1064
Rp1065
sa(dp1066
S'training_block.thisRepN'
p1067
I0
sg163
g883
sg30
g40
sg884
Vwipe
p1068
sS'experimental_blocks.thisN'
p1069
I1
sg42
g43
sg887
Vscrub
p1070
sg889
Vcut
p1071
sg891
Vdig
p1072
sS'experimental_blocks.thisIndex'
p1073
g896
sS'word_presentation.thisRepN'
p1074
I0
sS'experimental_blocks.thisRepN'
p1075
I0
sg44
g49
sg162
g901
sg902
g928
sS'training_block.thisIndex'
p1076
g145
sg164
g907
sg20
F5.820047271759904
sS'experimental_blocks.thisTrialN'
p1077
I1
sS'training_block.thisN'
p1078
I0
sS'word_presentation.thisN'
p1079
I8
sS'training_block.thisTrialN'
p1080
I0
sg19
S'space'
p1081
sg28
g29
sS'word_presentation.thisTrialN'
p1082
I8
sg41
g12
sS'word_presentation.thisIndex'
p1083
g31
(g131
S'\x08\x00\x00\x00'
p1084
tp1085
Rp1086
sa(dp1087
S'training_block.thisRepN'
p1088
I0
sg163
g883
sg30
g40
sg884
Vpull
p1089
sS'experimental_blocks.thisN'
p1090
I1
sg42
g43
sg887
Vtug
p1091
sg889
Vwhip
p1092
sg891
Vpinch
p1093
sS'experimental_blocks.thisIndex'
p1094
g896
sS'word_presentation.thisRepN'
p1095
I0
sS'experimental_blocks.thisRepN'
p1096
I0
sg44
g49
sg162
g901
sg902
g928
sS'training_block.thisIndex'
p1097
g145
sg164
g907
sg20
F6.944114302512389
sS'experimental_blocks.thisTrialN'
p1098
I1
sS'training_block.thisN'
p1099
I0
sS'word_presentation.thisN'
p1100
I9
sS'training_block.thisTrialN'
p1101
I0
sg19
S'space'
p1102
sg28
g29
sS'word_presentation.thisTrialN'
p1103
I9
sg41
g12
sS'word_presentation.thisIndex'
p1104
g31
(g131
S'\t\x00\x00\x00'
p1105
tp1106
Rp1107
sa(dp1108
S'training_block.thisRepN'
p1109
I0
sg163
g883
sg30
g40
sg884
Vjump
p1110
sS'experimental_blocks.thisN'
p1111
I1
sg42
g43
sg887
Vtrek
p1112
sg889
Vinch
p1113
sg891
Vsneak
p1114
sS'experimental_blocks.thisIndex'
p1115
g896
sS'word_presentation.thisRepN'
p1116
I0
sS'experimental_blocks.thisRepN'
p1117
I0
sg44
g49
sg162
g901
sg902
g903
sS'training_block.thisIndex'
p1118
g145
sg164
g907
sg20
F5.350342447620278
sS'experimental_blocks.thisTrialN'
p1119
I1
sS'training_block.thisN'
p1120
I0
sS'word_presentation.thisN'
p1121
I10
sS'training_block.thisTrialN'
p1122
I0
sg19
S'space'
p1123
sg28
g29
sS'word_presentation.thisTrialN'
p1124
I10
sg41
g12
sS'word_presentation.thisIndex'
p1125
g31
(g131
S'\n\x00\x00\x00'
p1126
tp1127
Rp1128
sa(dp1129
S'training_block.thisRepN'
p1130
I0
sg163
g883
sg30
g40
sg884
Vbash
p1131
sS'experimental_blocks.thisN'
p1132
I1
sg42
g43
sg887
Vthrow
p1133
sg889
Vseize
p1134
sg891
Vbind
p1135
sS'experimental_blocks.thisIndex'
p1136
g896
sS'word_presentation.thisRepN'
p1137
I0
sS'experimental_blocks.thisRepN'
p1138
I0
sg44
g49
sg162
g901
sg902
g928
sS'training_block.thisIndex'
p1139
g145
sg164
g907
sg20
F9.895520088126432
sS'experimental_blocks.thisTrialN'
p1140
I1
sS'training_block.thisN'
p1141
I0
sS'word_presentation.thisN'
p1142
I11
sS'training_block.thisTrialN'
p1143
I0
sg19
S'space'
p1144
sg28
g29
sS'word_presentation.thisTrialN'
p1145
I11
sg41
g12
sS'word_presentation.thisIndex'
p1146
g31
(g131
S'\x0b\x00\x00\x00'
p1147
tp1148
Rp1149
sa(dp1150
S'training_block.thisRepN'
p1151
I0
sg163
g883
sg30
g40
sg884
Vrub
p1152
sS'experimental_blocks.thisN'
p1153
I1
sg42
g43
sg887
Vclean
p1154
sg889
Vgrip
p1155
sg891
Vclick
p1156
sS'experimental_blocks.thisIndex'
p1157
g896
sS'word_presentation.thisRepN'
p1158
I0
sS'experimental_blocks.thisRepN'
p1159
I0
sg44
g49
sg162
g901
sg902
g928
sS'training_block.thisIndex'
p1160
g145
sg164
g907
sg20
F9.023232860432472
sS'experimental_blocks.thisTrialN'
p1161
I1
sS'training_block.thisN'
p1162
I0
sS'word_presentation.thisN'
p1163
I12
sS'training_block.thisTrialN'
p1164
I0
sg19
S'space'
p1165
sg28
g29
sS'word_presentation.thisTrialN'
p1166
I12
sg41
g12
sS'word_presentation.thisIndex'
p1167
g31
(g131
S'\x0c\x00\x00\x00'
p1168
tp1169
Rp1170
sa(dp1171
S'training_block.thisRepN'
p1172
I0
sg163
g883
sg30
g40
sg884
Vskip
p1173
sS'experimental_blocks.thisN'
p1174
I1
sg42
g43
sg887
Vcreep
p1175
sg889
Vstroll
p1176
sg891
Vmount
p1177
sS'experimental_blocks.thisIndex'
p1178
g896
sS'word_presentation.thisRepN'
p1179
I0
sS'experimental_blocks.thisRepN'
p1180
I0
sg44
g49
sg162
g901
sg902
g903
sS'training_block.thisIndex'
p1181
g145
sg164
g907
sg20
F5.434200430043347
sS'experimental_blocks.thisTrialN'
p1182
I1
sS'training_block.thisN'
p1183
I0
sS'word_presentation.thisN'
p1184
I13
sS'training_block.thisTrialN'
p1185
I0
sg19
S'space'
p1186
sg28
g29
sS'word_presentation.thisTrialN'
p1187
I13
sg41
g12
sS'word_presentation.thisIndex'
p1188
g31
(g131
S'\r\x00\x00\x00'
p1189
tp1190
Rp1191
sa(dp1192
S'training_block.thisRepN'
p1193
I0
sg163
g883
sg30
g40
sg884
Vstray
p1194
sS'experimental_blocks.thisN'
p1195
I1
sg42
g43
sg887
Vmarch
p1196
sg889
Vroam
p1197
sg891
Vkick
p1198
sS'experimental_blocks.thisIndex'
p1199
g896
sS'word_presentation.thisRepN'
p1200
I0
sS'experimental_blocks.thisRepN'
p1201
I0
sg44
g49
sg162
g901
sg902
g903
sS'training_block.thisIndex'
p1202
g145
sg164
g907
sg20
F4.579525132976414
sS'experimental_blocks.thisTrialN'
p1203
I1
sS'training_block.thisN'
p1204
I0
sS'word_presentation.thisN'
p1205
I14
sS'training_block.thisTrialN'
p1206
I0
sg19
S'space'
p1207
sg28
g29
sS'word_presentation.thisTrialN'
p1208
I14
sg41
g12
sS'word_presentation.thisIndex'
p1209
g31
(g131
S'\x0e\x00\x00\x00'
p1210
tp1211
Rp1212
sa(dp1213
S'training_block.thisRepN'
p1214
I0
sg163
g883
sg30
g40
sg884
Vgrate
p1215
sS'experimental_blocks.thisN'
p1216
I1
sg42
g43
sg887
Vscoop
p1217
sg889
Vshake
p1218
sg891
Vstir
p1219
sS'experimental_blocks.thisIndex'
p1220
g896
sS'word_presentation.thisRepN'
p1221
I0
sS'experimental_blocks.thisRepN'
p1222
I0
sg44
g49
sg162
g901
sg902
g928
sS'training_block.thisIndex'
p1223
g145
sg164
g907
sg20
F8.973606206176555
sS'experimental_blocks.thisTrialN'
p1224
I1
sS'training_block.thisN'
p1225
I0
sS'word_presentation.thisN'
p1226
I15
sS'training_block.thisTrialN'
p1227
I0
sg19
S'space'
p1228
sg28
g29
sS'word_presentation.thisTrialN'
p1229
I15
sg41
g12
sS'word_presentation.thisIndex'
p1230
g31
(g131
S'\x0f\x00\x00\x00'
p1231
tp1232
Rp1233
sa(dp1234
S'training_block.thisRepN'
p1235
I0
sg163
g883
sg30
g40
sg884
Vramble
p1236
sS'experimental_blocks.thisN'
p1237
I1
sg42
g43
sg887
Vwander
p1238
sg889
Vstamp
p1239
sg891
Vglide
p1240
sS'experimental_blocks.thisIndex'
p1241
g896
sS'word_presentation.thisRepN'
p1242
I0
sS'experimental_blocks.thisRepN'
p1243
I0
sg44
g49
sg162
g901
sg902
g903
sS'training_block.thisIndex'
p1244
g145
sg164
g907
sg20
F8.855309064212634
sS'experimental_blocks.thisTrialN'
p1245
I1
sS'training_block.thisN'
p1246
I0
sS'word_presentation.thisN'
p1247
I16
sS'training_block.thisTrialN'
p1248
I0
sg19
S'space'
p1249
sg28
g29
sS'word_presentation.thisTrialN'
p1250
I16
sg41
g12
sS'word_presentation.thisIndex'
p1251
g31
(g131
S'\x10\x00\x00\x00'
p1252
tp1253
Rp1254
sa(dp1255
S'training_block.thisRepN'
p1256
I0
sg163
g883
sg30
g40
sg884
Vplod
p1257
sS'experimental_blocks.thisN'
p1258
I1
sg42
g43
sg887
Vflee
p1259
sg889
Vhop
p1260
sg891
Vjog
p1261
sS'experimental_blocks.thisIndex'
p1262
g896
sS'word_presentation.thisRepN'
p1263
I0
sS'experimental_blocks.thisRepN'
p1264
I0
sg44
g49
sg162
g901
sg902
g903
sS'training_block.thisIndex'
p1265
g145
sg164
g907
sg20
F6.154949745110571
sS'experimental_blocks.thisTrialN'
p1266
I1
sS'training_block.thisN'
p1267
I0
sS'word_presentation.thisN'
p1268
I17
sS'training_block.thisTrialN'
p1269
I0
sg19
S'space'
p1270
sg28
g29
sS'word_presentation.thisTrialN'
p1271
I17
sg41
g12
sS'word_presentation.thisIndex'
p1272
g31
(g131
S'\x11\x00\x00\x00'
p1273
tp1274
Rp1275
sa(dp1276
S'training_block.thisRepN'
p1277
I0
sg163
g883
sg30
g40
sg884
Vpat
p1278
sS'experimental_blocks.thisN'
p1279
I1
sg42
g43
sg887
Vdelve
p1280
sg889
Vknock
p1281
sg891
Vscrape
p1282
sS'experimental_blocks.thisIndex'
p1283
g896
sS'word_presentation.thisRepN'
p1284
I0
sS'experimental_blocks.thisRepN'
p1285
I0
sg44
g49
sg162
g901
sg902
g928
sS'training_block.thisIndex'
p1286
g145
sg164
g907
sg20
F7.49707455614589
sS'experimental_blocks.thisTrialN'
p1287
I1
sS'training_block.thisN'
p1288
I0
sS'word_presentation.thisN'
p1289
I18
sS'training_block.thisTrialN'
p1290
I0
sg19
S'space'
p1291
sg28
g29
sS'word_presentation.thisTrialN'
p1292
I18
sg41
g12
sS'word_presentation.thisIndex'
p1293
g31
(g131
S'\x12\x00\x00\x00'
p1294
tp1295
Rp1296
sa(dp1297
S'training_block.thisRepN'
p1298
I0
sg163
g883
sg30
g40
sg884
Vsnatch
p1299
sS'experimental_blocks.thisN'
p1300
I1
sg42
g43
sg887
Vcarve
p1301
sg889
Vscratch
p1302
sg891
Vfile
p1303
sS'experimental_blocks.thisIndex'
p1304
g896
sS'word_presentation.thisRepN'
p1305
I0
sS'experimental_blocks.thisRepN'
p1306
I0
sg44
g49
sg162
g901
sg902
g928
sS'training_block.thisIndex'
p1307
g145
sg164
g907
sg20
F6.943449716267423
sS'experimental_blocks.thisTrialN'
p1308
I1
sS'training_block.thisN'
p1309
I0
sS'word_presentation.thisN'
p1310
I19
sS'training_block.thisTrialN'
p1311
I0
sg19
S'space'
p1312
sg28
g29
sS'word_presentation.thisTrialN'
p1313
I19
sg41
g12
sS'word_presentation.thisIndex'
p1314
g31
(g131
S'\x13\x00\x00\x00'
p1315
tp1316
Rp1317
sa(dp1318
S'training_block.thisRepN'
p1319
I0
sg163
g883
sg30
g40
sg884
Vstagger
p1320
sS'experimental_blocks.thisN'
p1321
I1
sg42
g43
sg887
Vtrudge
p1322
sg889
Vtraipse
p1323
sg891
Vsway
p1324
sS'experimental_blocks.thisIndex'
p1325
g896
sS'word_presentation.thisRepN'
p1326
I0
sS'experimental_blocks.thisRepN'
p1327
I0
sg44
g49
sg162
g901
sg902
g903
sS'training_block.thisIndex'
p1328
g145
sg164
g907
sg20
F5.065182397709577
sS'experimental_blocks.thisTrialN'
p1329
I1
sS'training_block.thisN'
p1330
I0
sS'word_presentation.thisN'
p1331
I20
sS'training_block.thisTrialN'
p1332
I0
sg19
S'space'
p1333
sg28
g29
sS'word_presentation.thisTrialN'
p1334
I20
sg41
g12
sS'word_presentation.thisIndex'
p1335
g31
(g131
S'\x14\x00\x00\x00'
p1336
tp1337
Rp1338
sa(dp1339
S'training_block.thisRepN'
p1340
I0
sg163
g883
sg30
g40
sg884
Vkneel
p1341
sS'experimental_blocks.thisN'
p1342
I1
sg42
g43
sg887
Vroll
p1343
sg889
Vflit
p1344
sg891
Vslither
p1345
sS'experimental_blocks.thisIndex'
p1346
g896
sS'word_presentation.thisRepN'
p1347
I0
sS'experimental_blocks.thisRepN'
p1348
I0
sg44
g49
sg162
g901
sg902
g903
sS'training_block.thisIndex'
p1349
g145
sg164
g907
sg20
F8.889242869527152
sS'experimental_blocks.thisTrialN'
p1350
I1
sS'training_block.thisN'
p1351
I0
sS'word_presentation.thisN'
p1352
I21
sS'training_block.thisTrialN'
p1353
I0
sg19
S'space'
p1354
sg28
g29
sS'word_presentation.thisTrialN'
p1355
I21
sg41
g12
sS'word_presentation.thisIndex'
p1356
g31
(g131
S'\x15\x00\x00\x00'
p1357
tp1358
Rp1359
sa(dp1360
S'training_block.thisRepN'
p1361
I0
sg163
g883
sg30
g40
sg884
Vscuff
p1362
sS'experimental_blocks.thisN'
p1363
I1
sg42
g43
sg887
Vslip
p1364
sg889
Vtrot
p1365
sg891
Vrun
p1366
sS'experimental_blocks.thisIndex'
p1367
g896
sS'word_presentation.thisRepN'
p1368
I0
sS'experimental_blocks.thisRepN'
p1369
I0
sg44
g49
sg162
g901
sg902
g903
sS'training_block.thisIndex'
p1370
g145
sg164
g907
sg20
F6.959716274619495
sS'experimental_blocks.thisTrialN'
p1371
I1
sS'training_block.thisN'
p1372
I0
sS'word_presentation.thisN'
p1373
I22
sS'training_block.thisTrialN'
p1374
I0
sg19
S'space'
p1375
sg28
g29
sS'word_presentation.thisTrialN'
p1376
I22
sg41
g12
sS'word_presentation.thisIndex'
p1377
g31
(g131
S'\x16\x00\x00\x00'
p1378
tp1379
Rp1380
sa(dp1381
S'training_block.thisRepN'
p1382
I0
sg163
g883
sg30
g40
sg884
Vtoss
p1383
sS'experimental_blocks.thisN'
p1384
I1
sg42
g43
sg887
Vgrab
p1385
sg889
Vskim
p1386
sg891
Vsqueeze
p1387
sS'experimental_blocks.thisIndex'
p1388
g896
sS'word_presentation.thisRepN'
p1389
I0
sS'experimental_blocks.thisRepN'
p1390
I0
sg44
g49
sg162
g901
sg902
g928
sS'training_block.thisIndex'
p1391
g145
sg164
g907
sg20
F3.873854655541436
sS'experimental_blocks.thisTrialN'
p1392
I1
sS'training_block.thisN'
p1393
I0
sS'word_presentation.thisN'
p1394
I23
sS'training_block.thisTrialN'
p1395
I0
sg19
S'space'
p1396
sg28
g29
sS'word_presentation.thisTrialN'
p1397
I23
sg41
g12
sS'word_presentation.thisIndex'
p1398
g31
(g131
S'\x17\x00\x00\x00'
p1399
tp1400
Rp1401
sa(dp1402
S'training_block.thisRepN'
p1403
I0
sg163
g883
sg30
g40
sg884
Vtwine
p1404
sS'experimental_blocks.thisN'
p1405
I1
sg42
g43
sg887
Vwash
p1406
sg889
Vswitch
p1407
sg891
Vhack
p1408
sS'experimental_blocks.thisIndex'
p1409
g896
sS'word_presentation.thisRepN'
p1410
I0
sS'experimental_blocks.thisRepN'
p1411
I0
sg44
g49
sg162
g901
sg902
g928
sS'training_block.thisIndex'
p1412
g145
sg164
g907
sg20
F4.662164180461332
sS'experimental_blocks.thisTrialN'
p1413
I1
sS'training_block.thisN'
p1414
I0
sS'word_presentation.thisN'
p1415
I24
sS'training_block.thisTrialN'
p1416
I0
sg19
S'space'
p1417
sg28
g29
sS'word_presentation.thisTrialN'
p1418
I24
sg41
g12
sS'word_presentation.thisIndex'
p1419
g31
(g131
S'\x18\x00\x00\x00'
p1420
tp1421
Rp1422
sa(dp1423
S'training_block.thisRepN'
p1424
I0
sg163
g883
sg30
g40
sg884
Vleap
p1425
sS'experimental_blocks.thisN'
p1426
I1
sg42
g43
sg887
Vprance
p1427
sg889
Vclimb
p1428
sg891
Vwade
p1429
sS'experimental_blocks.thisIndex'
p1430
g896
sS'word_presentation.thisRepN'
p1431
I0
sS'experimental_blocks.thisRepN'
p1432
I0
sg44
g49
sg162
g901
sg902
g903
sS'training_block.thisIndex'
p1433
g145
sg164
g907
sg20
F3.6224901201076136
sS'experimental_blocks.thisTrialN'
p1434
I1
sS'training_block.thisN'
p1435
I0
sS'word_presentation.thisN'
p1436
I25
sS'training_block.thisTrialN'
p1437
I0
sg19
S'space'
p1438
sg28
g29
sS'word_presentation.thisTrialN'
p1439
I25
sg41
g12
sS'word_presentation.thisIndex'
p1440
g31
(g131
S'\x19\x00\x00\x00'
p1441
tp1442
Rp1443
sa(dp1444
S'training_block.thisRepN'
p1445
I0
sg163
g883
sg30
g40
sg884
Vclap
p1446
sS'experimental_blocks.thisN'
p1447
I1
sg42
g43
sg887
Vpeel
p1448
sg889
Vfold
p1449
sg891
Vpush
p1450
sS'experimental_blocks.thisIndex'
p1451
g896
sS'word_presentation.thisRepN'
p1452
I0
sS'experimental_blocks.thisRepN'
p1453
I0
sg44
g49
sg162
g901
sg902
g928
sS'training_block.thisIndex'
p1454
g145
sg164
g907
sg20
F4.712809050384749
sS'experimental_blocks.thisTrialN'
p1455
I1
sS'training_block.thisN'
p1456
I0
sS'word_presentation.thisN'
p1457
I26
sS'training_block.thisTrialN'
p1458
I0
sg19
S'space'
p1459
sg28
g29
sS'word_presentation.thisTrialN'
p1460
I26
sg41
g12
sS'word_presentation.thisIndex'
p1461
g31
(g131
S'\x1a\x00\x00\x00'
p1462
tp1463
Rp1464
sa(dp1465
S'training_block.thisRepN'
p1466
I0
sg163
g883
sg30
g40
sg884
Vdance
p1467
sS'experimental_blocks.thisN'
p1468
I1
sg42
g43
sg887
Vtrip
p1469
sg889
Vstride
p1470
sg891
Vsprint
p1471
sS'experimental_blocks.thisIndex'
p1472
g896
sS'word_presentation.thisRepN'
p1473
I0
sS'experimental_blocks.thisRepN'
p1474
I0
sg44
g49
sg162
g901
sg902
g903
sS'training_block.thisIndex'
p1475
g145
sg164
g907
sg20
F6.37356187408659
sS'experimental_blocks.thisTrialN'
p1476
I1
sS'training_block.thisN'
p1477
I0
sS'word_presentation.thisN'
p1478
I27
sS'training_block.thisTrialN'
p1479
I0
sg19
S'space'
p1480
sg28
g29
sS'word_presentation.thisTrialN'
p1481
I27
sg41
g12
sS'word_presentation.thisIndex'
p1482
g31
(g131
S'\x1b\x00\x00\x00'
p1483
tp1484
Rp1485
sa(dp1486
S'training_block.thisRepN'
p1487
I0
sg163
g883
sS'experimental_blocks.thisRepN'
p1488
I0
sS'experimental_blocks.thisTrialN'
p1489
I1
sS'training_block.thisN'
p1490
I0
sg42
g43
sg41
g12
sg30
g40
sS'training_block.thisTrialN'
p1491
I0
sg44
g49
sS'experimental_blocks.thisN'
p1492
I1
sg164
g907
sg28
g29
sS'experimental_blocks.thisIndex'
p1493
g896
sg162
g901
sS'training_block.thisIndex'
p1494
g145
sa(dp1495
S'training_block.thisRepN'
p1496
I0
sg163
g31
(g35
S'\x9a\x99\x99\x99\x99\x99\xd9?'
p1497
tp1498
Rp1499
sg30
g40
sS'word4'
p1500
Vkick
p1501
sS'experimental_blocks.thisN'
p1502
I2
sg42
g43
sS'word1'
p1503
Vjump
p1504
sS'word3'
p1505
Vstomp
p1506
sS'word2'
p1507
Vskip
p1508
sS'experimental_blocks.thisIndex'
p1509
g31
(g131
S'\x00\x00\x00\x00'
p1510
tp1511
Rp1512
sS'word_presentation.thisRepN'
p1513
I0
sS'experimental_blocks.thisRepN'
p1514
I0
sg44
g49
sg162
g31
(g35
S'\x9a\x99\x99\x99\x99\x99\xb9?'
p1515
tp1516
Rp1517
sS'type'
p1518
Vleg
p1519
sS'training_block.thisIndex'
p1520
g145
sg164
g31
(g35
S'\x00\x00\x00\x00\x00\x00\xe0?'
p1521
tp1522
Rp1523
sg20
F5.870310458974927
sS'experimental_blocks.thisTrialN'
p1524
I2
sS'training_block.thisN'
p1525
I0
sS'word_presentation.thisN'
p1526
I0
sS'training_block.thisTrialN'
p1527
I0
sg19
S'space'
p1528
sg28
g29
sS'word_presentation.thisTrialN'
p1529
I0
sg41
g12
sS'word_presentation.thisIndex'
p1530
g31
(g131
S'\x00\x00\x00\x00'
p1531
tp1532
Rp1533
sa(dp1534
S'training_block.thisRepN'
p1535
I0
sg163
g1499
sg30
g40
sg1500
Vfold
p1536
sS'experimental_blocks.thisN'
p1537
I2
sg42
g43
sg1503
Vthrow
p1538
sg1505
Vclaw
p1539
sg1507
Vhack
p1540
sS'experimental_blocks.thisIndex'
p1541
g1512
sS'word_presentation.thisRepN'
p1542
I0
sS'experimental_blocks.thisRepN'
p1543
I0
sg44
g49
sg162
g1517
sg1518
Varm
p1544
sS'training_block.thisIndex'
p1545
g145
sg164
g1523
sg20
F9.928920090815154
sS'experimental_blocks.thisTrialN'
p1546
I2
sS'training_block.thisN'
p1547
I0
sS'word_presentation.thisN'
p1548
I1
sS'training_block.thisTrialN'
p1549
I0
sg19
S'space'
p1550
sg28
g29
sS'word_presentation.thisTrialN'
p1551
I1
sg41
g12
sS'word_presentation.thisIndex'
p1552
g31
(g131
S'\x01\x00\x00\x00'
p1553
tp1554
Rp1555
sa(dp1556
S'training_block.thisRepN'
p1557
I0
sg163
g1499
sg30
g40
sg1500
Vjog
p1558
sS'experimental_blocks.thisN'
p1559
I2
sg42
g43
sg1503
Vhop
p1560
sg1505
Vflit
p1561
sg1507
Vstep
p1562
sS'experimental_blocks.thisIndex'
p1563
g1512
sS'word_presentation.thisRepN'
p1564
I0
sS'experimental_blocks.thisRepN'
p1565
I0
sg44
g49
sg162
g1517
sg1518
g1519
sS'training_block.thisIndex'
p1566
g145
sg164
g1523
sg20
F6.171844143857015
sS'experimental_blocks.thisTrialN'
p1567
I2
sS'training_block.thisN'
p1568
I0
sS'word_presentation.thisN'
p1569
I2
sS'training_block.thisTrialN'
p1570
I0
sg19
S'space'
p1571
sg28
g29
sS'word_presentation.thisTrialN'
p1572
I2
sg41
g12
sS'word_presentation.thisIndex'
p1573
g31
(g131
S'\x02\x00\x00\x00'
p1574
tp1575
Rp1576
sa(dp1577
S'training_block.thisRepN'
p1578
I0
sg163
g1499
sg30
g40
sg1500
Vgrip
p1579
sS'experimental_blocks.thisN'
p1580
I2
sg42
g43
sg1503
Vknock
p1581
sg1505
Vbind
p1582
sg1507
Vtoss
p1583
sS'experimental_blocks.thisIndex'
p1584
g1512
sS'word_presentation.thisRepN'
p1585
I0
sS'experimental_blocks.thisRepN'
p1586
I0
sg44
g49
sg162
g1517
sg1518
g1544
sS'training_block.thisIndex'
p1587
g145
sg164
g1523
sg20
F5.133106510020298
sS'experimental_blocks.thisTrialN'
p1588
I2
sS'training_block.thisN'
p1589
I0
sS'word_presentation.thisN'
p1590
I3
sS'training_block.thisTrialN'
p1591
I0
sg19
S'space'
p1592
sg28
g29
sS'word_presentation.thisTrialN'
p1593
I3
sg41
g12
sS'word_presentation.thisIndex'
p1594
g31
(g131
S'\x03\x00\x00\x00'
p1595
tp1596
Rp1597
sa(dp1598
S'training_block.thisRepN'
p1599
I0
sg163
g1499
sg30
g40
sg1500
Vskate
p1600
sS'experimental_blocks.thisN'
p1601
I2
sg42
g43
sg1503
Vscuff
p1602
sg1505
Vslip
p1603
sg1507
Vstrut
p1604
sS'experimental_blocks.thisIndex'
p1605
g1512
sS'word_presentation.thisRepN'
p1606
I0
sS'experimental_blocks.thisRepN'
p1607
I0
sg44
g49
sg162
g1517
sg1518
g1519
sS'training_block.thisIndex'
p1608
g145
sg164
g1523
sg20
F7.212047265436922
sS'experimental_blocks.thisTrialN'
p1609
I2
sS'training_block.thisN'
p1610
I0
sS'word_presentation.thisN'
p1611
I4
sS'training_block.thisTrialN'
p1612
I0
sg19
S'space'
p1613
sg28
g29
sS'word_presentation.thisTrialN'
p1614
I4
sg41
g12
sS'word_presentation.thisIndex'
p1615
g31
(g131
S'\x04\x00\x00\x00'
p1616
tp1617
Rp1618
sa(dp1619
S'training_block.thisRepN'
p1620
I0
sg163
g1499
sg30
g40
sg1500
Vclutch
p1621
sS'experimental_blocks.thisN'
p1622
I2
sg42
g43
sg1503
Vpull
p1623
sg1505
Vskim
p1624
sg1507
Vdelve
p1625
sS'experimental_blocks.thisIndex'
p1626
g1512
sS'word_presentation.thisRepN'
p1627
I0
sS'experimental_blocks.thisRepN'
p1628
I0
sg44
g49
sg162
g1517
sg1518
g1544
sS'training_block.thisIndex'
p1629
g145
sg164
g1523
sg20
F9.04004784072822
sS'experimental_blocks.thisTrialN'
p1630
I2
sS'training_block.thisN'
p1631
I0
sS'word_presentation.thisN'
p1632
I5
sS'training_block.thisTrialN'
p1633
I0
sg19
S'space'
p1634
sg28
g29
sS'word_presentation.thisTrialN'
p1635
I5
sg41
g12
sS'word_presentation.thisIndex'
p1636
g31
(g131
S'\x05\x00\x00\x00'
p1637
tp1638
Rp1639
sa(dp1640
S'training_block.thisRepN'
p1641
I0
sg163
g1499
sg30
g40
sg1500
Vpace
p1642
sS'experimental_blocks.thisN'
p1643
I2
sg42
g43
sg1503
Vflee
p1644
sg1505
Vwalk
p1645
sg1507
Vtiptoe
p1646
sS'experimental_blocks.thisIndex'
p1647
g1512
sS'word_presentation.thisRepN'
p1648
I0
sS'experimental_blocks.thisRepN'
p1649
I0
sg44
g49
sg162
g1517
sg1518
g1519
sS'training_block.thisIndex'
p1650
g145
sg164
g1523
sg20
F5.300195029591123
sS'experimental_blocks.thisTrialN'
p1651
I2
sS'training_block.thisN'
p1652
I0
sS'word_presentation.thisN'
p1653
I6
sS'training_block.thisTrialN'
p1654
I0
sg19
S'space'
p1655
sg28
g29
sS'word_presentation.thisTrialN'
p1656
I6
sg41
g12
sS'word_presentation.thisIndex'
p1657
g31
(g131
S'\x06\x00\x00\x00'
p1658
tp1659
Rp1660
sa(dp1661
S'training_block.thisRepN'
p1662
I0
sg163
g1499
sg30
g40
sg1500
Vcut
p1663
sS'experimental_blocks.thisN'
p1664
I2
sg42
g43
sg1503
Vpush
p1665
sg1505
Vwash
p1666
sg1507
Vgrab
p1667
sS'experimental_blocks.thisIndex'
p1668
g1512
sS'word_presentation.thisRepN'
p1669
I0
sS'experimental_blocks.thisRepN'
p1670
I0
sg44
g49
sg162
g1517
sg1518
g1544
sS'training_block.thisIndex'
p1671
g145
sg164
g1523
sg20
F8.503107197524514
sS'experimental_blocks.thisTrialN'
p1672
I2
sS'training_block.thisN'
p1673
I0
sS'word_presentation.thisN'
p1674
I7
sS'training_block.thisTrialN'
p1675
I0
sg19
S'space'
p1676
sg28
g29
sS'word_presentation.thisTrialN'
p1677
I7
sg41
g12
sS'word_presentation.thisIndex'
p1678
g31
(g131
S'\x07\x00\x00\x00'
p1679
tp1680
Rp1681
sa(dp1682
S'training_block.thisRepN'
p1683
I0
sg163
g1499
sg30
g40
sg1500
Vbrush
p1684
sS'experimental_blocks.thisN'
p1685
I2
sg42
g43
sg1503
Vstir
p1686
sg1505
Vpinch
p1687
sg1507
Vtug
p1688
sS'experimental_blocks.thisIndex'
p1689
g1512
sS'word_presentation.thisRepN'
p1690
I0
sS'experimental_blocks.thisRepN'
p1691
I0
sg44
g49
sg162
g1517
sg1518
g1544
sS'training_block.thisIndex'
p1692
g145
sg164
g1523
sg20
F7.094425772986142
sS'experimental_blocks.thisTrialN'
p1693
I2
sS'training_block.thisN'
p1694
I0
sS'word_presentation.thisN'
p1695
I8
sS'training_block.thisTrialN'
p1696
I0
sg19
S'space'
p1697
sg28
g29
sS'word_presentation.thisTrialN'
p1698
I8
sg41
g12
sS'word_presentation.thisIndex'
p1699
g31
(g131
S'\x08\x00\x00\x00'
p1700
tp1701
Rp1702
sa(dp1703
S'training_block.thisRepN'
p1704
I0
sg163
g1499
sg30
g40
sg1500
Vwhip
p1705
sS'experimental_blocks.thisN'
p1706
I2
sg42
g43
sg1503
Vpoke
p1707
sg1505
Vcarve
p1708
sg1507
Vdunk
p1709
sS'experimental_blocks.thisIndex'
p1710
g1512
sS'word_presentation.thisRepN'
p1711
I0
sS'experimental_blocks.thisRepN'
p1712
I0
sg44
g49
sg162
g1517
sg1518
g1544
sS'training_block.thisIndex'
p1713
g145
sg164
g1523
sg20
F6.608141853206689
sS'experimental_blocks.thisTrialN'
p1714
I2
sS'training_block.thisN'
p1715
I0
sS'word_presentation.thisN'
p1716
I9
sS'training_block.thisTrialN'
p1717
I0
sg19
S'space'
p1718
sg28
g29
sS'word_presentation.thisTrialN'
p1719
I9
sg41
g12
sS'word_presentation.thisIndex'
p1720
g31
(g131
S'\t\x00\x00\x00'
p1721
tp1722
Rp1723
sa(dp1724
S'training_block.thisRepN'
p1725
I0
sg163
g1499
sg30
g40
sg1500
Vbounce
p1726
sS'experimental_blocks.thisN'
p1727
I2
sg42
g43
sg1503
Vmarch
p1728
sg1505
Vcreep
p1729
sg1507
Vwobble
p1730
sS'experimental_blocks.thisIndex'
p1731
g1512
sS'word_presentation.thisRepN'
p1732
I0
sS'experimental_blocks.thisRepN'
p1733
I0
sg44
g49
sg162
g1517
sg1518
g1519
sS'training_block.thisIndex'
p1734
g145
sg164
g1523
sg20
F7.12791112087325
sS'experimental_blocks.thisTrialN'
p1735
I2
sS'training_block.thisN'
p1736
I0
sS'word_presentation.thisN'
p1737
I10
sS'training_block.thisTrialN'
p1738
I0
sg19
S'space'
p1739
sg28
g29
sS'word_presentation.thisTrialN'
p1740
I10
sg41
g12
sS'word_presentation.thisIndex'
p1741
g31
(g131
S'\n\x00\x00\x00'
p1742
tp1743
Rp1744
sa(dp1745
S'training_block.thisRepN'
p1746
I0
sg163
g1499
sg30
g40
sg1500
Vwander
p1747
sS'experimental_blocks.thisN'
p1748
I2
sg42
g43
sg1503
Vtrudge
p1749
sg1505
Vslide
p1750
sg1507
Vramble
p1751
sS'experimental_blocks.thisIndex'
p1752
g1512
sS'word_presentation.thisRepN'
p1753
I0
sS'experimental_blocks.thisRepN'
p1754
I0
sg44
g49
sg162
g1517
sg1518
g1519
sS'training_block.thisIndex'
p1755
g145
sg164
g1523
sg20
F9.224654648271098
sS'experimental_blocks.thisTrialN'
p1756
I2
sS'training_block.thisN'
p1757
I0
sS'word_presentation.thisN'
p1758
I11
sS'training_block.thisTrialN'
p1759
I0
sg19
S'space'
p1760
sg28
g29
sS'word_presentation.thisTrialN'
p1761
I11
sg41
g12
sS'word_presentation.thisIndex'
p1762
g31
(g131
S'\x0b\x00\x00\x00'
p1763
tp1764
Rp1765
sa(dp1766
S'training_block.thisRepN'
p1767
I0
sg163
g1499
sg30
g40
sg1500
Vscratch
p1768
sS'experimental_blocks.thisN'
p1769
I2
sg42
g43
sg1503
Vsnatch
p1770
sg1505
Vwipe
p1771
sg1507
Vchop
p1772
sS'experimental_blocks.thisIndex'
p1773
g1512
sS'word_presentation.thisRepN'
p1774
I0
sS'experimental_blocks.thisRepN'
p1775
I0
sg44
g49
sg162
g1517
sg1518
g1544
sS'training_block.thisIndex'
p1776
g145
sg164
g1523
sg20
F8.469822568906238
sS'experimental_blocks.thisTrialN'
p1777
I2
sS'training_block.thisN'
p1778
I0
sS'word_presentation.thisN'
p1779
I12
sS'training_block.thisTrialN'
p1780
I0
sg19
S'space'
p1781
sg28
g29
sS'word_presentation.thisTrialN'
p1782
I12
sg41
g12
sS'word_presentation.thisIndex'
p1783
g31
(g131
S'\x0c\x00\x00\x00'
p1784
tp1785
Rp1786
sa(dp1787
S'training_block.thisRepN'
p1788
I0
sg163
g1499
sg30
g40
sg1500
Vclick
p1789
sS'experimental_blocks.thisN'
p1790
I2
sg42
g43
sg1503
Vslap
p1791
sg1505
Vpat
p1792
sg1507
Vcatch
p1793
sS'experimental_blocks.thisIndex'
p1794
g1512
sS'word_presentation.thisRepN'
p1795
I0
sS'experimental_blocks.thisRepN'
p1796
I0
sg44
g49
sg162
g1517
sg1518
g1544
sS'training_block.thisIndex'
p1797
g145
sg164
g1523
sg20
F9.84542205967955
sS'experimental_blocks.thisTrialN'
p1798
I2
sS'training_block.thisN'
p1799
I0
sS'word_presentation.thisN'
p1800
I13
sS'training_block.thisTrialN'
p1801
I0
sg19
S'space'
p1802
sg28
g29
sS'word_presentation.thisTrialN'
p1803
I13
sg41
g12
sS'word_presentation.thisIndex'
p1804
g31
(g131
S'\r\x00\x00\x00'
p1805
tp1806
Rp1807
sa(dp1808
S'training_block.thisRepN'
p1809
I0
sg163
g1499
sg30
g40
sg1500
Vinch
p1810
sS'experimental_blocks.thisN'
p1811
I2
sg42
g43
sg1503
Vstride
p1812
sg1505
Vtrot
p1813
sg1507
Vtrek
p1814
sS'experimental_blocks.thisIndex'
p1815
g1512
sS'word_presentation.thisRepN'
p1816
I0
sS'experimental_blocks.thisRepN'
p1817
I0
sg44
g49
sg162
g1517
sg1518
g1519
sS'training_block.thisIndex'
p1818
g145
sg164
g1523
sg20
F5.467722918900108
sS'experimental_blocks.thisTrialN'
p1819
I2
sS'training_block.thisN'
p1820
I0
sS'word_presentation.thisN'
p1821
I14
sS'training_block.thisTrialN'
p1822
I0
sg19
S'space'
p1823
sg28
g29
sS'word_presentation.thisTrialN'
p1824
I14
sg41
g12
sS'word_presentation.thisIndex'
p1825
g31
(g131
S'\x0e\x00\x00\x00'
p1826
tp1827
Rp1828
sa(dp1829
S'training_block.thisRepN'
p1830
I0
sg163
g1499
sg30
g40
sg1500
Vhike
p1831
sS'experimental_blocks.thisN'
p1832
I2
sg42
g43
sg1503
Vprance
p1833
sg1505
Vstroll
p1834
sg1507
Vsway
p1835
sS'experimental_blocks.thisIndex'
p1836
g1512
sS'word_presentation.thisRepN'
p1837
I0
sS'experimental_blocks.thisRepN'
p1838
I0
sg44
g49
sg162
g1517
sg1518
g1519
sS'training_block.thisIndex'
p1839
g145
sg164
g1523
sg20
F5.920931226781249
sS'experimental_blocks.thisTrialN'
p1840
I2
sS'training_block.thisN'
p1841
I0
sS'word_presentation.thisN'
p1842
I15
sS'training_block.thisTrialN'
p1843
I0
sg19
S'space'
p1844
sg28
g29
sS'word_presentation.thisTrialN'
p1845
I15
sg41
g12
sS'word_presentation.thisIndex'
p1846
g31
(g131
S'\x0f\x00\x00\x00'
p1847
tp1848
Rp1849
sa(dp1850
S'training_block.thisRepN'
p1851
I0
sg163
g1499
sg30
g40
sg1500
Vpolish
p1852
sS'experimental_blocks.thisN'
p1853
I2
sg42
g43
sg1503
Vnip
p1854
sg1505
Vfile
p1855
sg1507
Vpunch
p1856
sS'experimental_blocks.thisIndex'
p1857
g1512
sS'word_presentation.thisRepN'
p1858
I0
sS'experimental_blocks.thisRepN'
p1859
I0
sg44
g49
sg162
g1517
sg1518
g1544
sS'training_block.thisIndex'
p1860
g145
sg164
g1523
sg20
F7.866104441980497
sS'experimental_blocks.thisTrialN'
p1861
I2
sS'training_block.thisN'
p1862
I0
sS'word_presentation.thisN'
p1863
I16
sS'training_block.thisTrialN'
p1864
I0
sg19
S'space'
p1865
sg28
g29
sS'word_presentation.thisTrialN'
p1866
I16
sg41
g12
sS'word_presentation.thisIndex'
p1867
g31
(g131
S'\x10\x00\x00\x00'
p1868
tp1869
Rp1870
sa(dp1871
S'training_block.thisRepN'
p1872
I0
sg163
g1499
sg30
g40
sg1500
Vsneak
p1873
sS'experimental_blocks.thisN'
p1874
I2
sg42
g43
sg1503
Vtread
p1875
sg1505
Vtrip
p1876
sg1507
Vroam
p1877
sS'experimental_blocks.thisIndex'
p1878
g1512
sS'word_presentation.thisRepN'
p1879
I0
sS'experimental_blocks.thisRepN'
p1880
I0
sg44
g49
sg162
g1517
sg1518
g1519
sS'training_block.thisIndex'
p1881
g145
sg164
g1523
sg20
F13.954210323767256
sS'experimental_blocks.thisTrialN'
p1882
I2
sS'training_block.thisN'
p1883
I0
sS'word_presentation.thisN'
p1884
I17
sS'training_block.thisTrialN'
p1885
I0
sg19
S'space'
p1886
sg28
g29
sS'word_presentation.thisTrialN'
p1887
I17
sg41
g12
sS'word_presentation.thisIndex'
p1888
g31
(g131
S'\x11\x00\x00\x00'
p1889
tp1890
Rp1891
sa(dp1892
S'training_block.thisRepN'
p1893
I0
sg163
g1499
sg30
g40
sg1500
Vglide
p1894
sS'experimental_blocks.thisN'
p1895
I2
sg42
g43
sg1503
Vstagger
p1896
sg1505
Vrush
p1897
sg1507
Vwade
p1898
sS'experimental_blocks.thisIndex'
p1899
g1512
sS'word_presentation.thisRepN'
p1900
I0
sS'experimental_blocks.thisRepN'
p1901
I0
sg44
g49
sg162
g1517
sg1518
g1519
sS'training_block.thisIndex'
p1902
g145
sg164
g1523
sg20
F4.3105624959989655
sS'experimental_blocks.thisTrialN'
p1903
I2
sS'training_block.thisN'
p1904
I0
sS'word_presentation.thisN'
p1905
I18
sS'training_block.thisTrialN'
p1906
I0
sg19
S'space'
p1907
sg28
g29
sS'word_presentation.thisTrialN'
p1908
I18
sg41
g12
sS'word_presentation.thisIndex'
p1909
g31
(g131
S'\x12\x00\x00\x00'
p1910
tp1911
Rp1912
sa(dp1913
S'training_block.thisRepN'
p1914
I0
sg163
g1499
sg30
g40
sg1500
Vbash
p1915
sS'experimental_blocks.thisN'
p1916
I2
sg42
g43
sg1503
Vrub
p1917
sg1505
Vgrasp
p1918
sg1507
Vpeel
p1919
sS'experimental_blocks.thisIndex'
p1920
g1512
sS'word_presentation.thisRepN'
p1921
I0
sS'experimental_blocks.thisRepN'
p1922
I0
sg44
g49
sg162
g1517
sg1518
g1544
sS'training_block.thisIndex'
p1923
g145
sg164
g1523
sg20
F7.866215074649517
sS'experimental_blocks.thisTrialN'
p1924
I2
sS'training_block.thisN'
p1925
I0
sS'word_presentation.thisN'
p1926
I19
sS'training_block.thisTrialN'
p1927
I0
sg19
S'space'
p1928
sg28
g29
sS'word_presentation.thisTrialN'
p1929
I19
sg41
g12
sS'word_presentation.thisIndex'
p1930
g31
(g131
S'\x13\x00\x00\x00'
p1931
tp1932
Rp1933
sa(dp1934
S'training_block.thisRepN'
p1935
I0
sg163
g1499
sg30
g40
sg1500
Vclimb
p1936
sS'experimental_blocks.thisN'
p1937
I2
sg42
g43
sg1503
Vkneel
p1938
sg1505
Vroll
p1939
sg1507
Vcrawl
p1940
sS'experimental_blocks.thisIndex'
p1941
g1512
sS'word_presentation.thisRepN'
p1942
I0
sS'experimental_blocks.thisRepN'
p1943
I0
sg44
g49
sg162
g1517
sg1518
g1519
sS'training_block.thisIndex'
p1944
g145
sg164
g1523
sg20
F5.19973859080892
sS'experimental_blocks.thisTrialN'
p1945
I2
sS'training_block.thisN'
p1946
I0
sS'word_presentation.thisN'
p1947
I20
sS'training_block.thisTrialN'
p1948
I0
sg19
S'space'
p1949
sg28
g29
sS'word_presentation.thisTrialN'
p1950
I20
sg41
g12
sS'word_presentation.thisIndex'
p1951
g31
(g131
S'\x14\x00\x00\x00'
p1952
tp1953
Rp1954
sa(dp1955
S'training_block.thisRepN'
p1956
I0
sg163
g1499
sg30
g40
sg1500
Vleap
p1957
sS'experimental_blocks.thisN'
p1958
I2
sg42
g43
sg1503
Vrun
p1959
sg1505
Vplod
p1960
sg1507
Vsprint
p1961
sS'experimental_blocks.thisIndex'
p1962
g1512
sS'word_presentation.thisRepN'
p1963
I0
sS'experimental_blocks.thisRepN'
p1964
I0
sg44
g49
sg162
g1517
sg1518
g1519
sS'training_block.thisIndex'
p1965
g145
sg164
g1523
sg20
F4.427944152628697
sS'experimental_blocks.thisTrialN'
p1966
I2
sS'training_block.thisN'
p1967
I0
sS'word_presentation.thisN'
p1968
I21
sS'training_block.thisTrialN'
p1969
I0
sg19
S'space'
p1970
sg28
g29
sS'word_presentation.thisTrialN'
p1971
I21
sg41
g12
sS'word_presentation.thisIndex'
p1972
g31
(g131
S'\x15\x00\x00\x00'
p1973
tp1974
Rp1975
sa(dp1976
S'training_block.thisRepN'
p1977
I0
sg163
g1499
sg30
g40
sg1500
Vstab
p1978
sS'experimental_blocks.thisN'
p1979
I2
sg42
g43
sg1503
Vscrub
p1980
sg1505
Vtwine
p1981
sg1507
Vseize
p1982
sS'experimental_blocks.thisIndex'
p1983
g1512
sS'word_presentation.thisRepN'
p1984
I0
sS'experimental_blocks.thisRepN'
p1985
I0
sg44
g49
sg162
g1517
sg1518
g1544
sS'training_block.thisIndex'
p1986
g145
sg164
g1523
sg20
F6.323770456177954
sS'experimental_blocks.thisTrialN'
p1987
I2
sS'training_block.thisN'
p1988
I0
sS'word_presentation.thisN'
p1989
I22
sS'training_block.thisTrialN'
p1990
I0
sg19
S'space'
p1991
sg28
g29
sS'word_presentation.thisTrialN'
p1992
I22
sg41
g12
sS'word_presentation.thisIndex'
p1993
g31
(g131
S'\x16\x00\x00\x00'
p1994
tp1995
Rp1996
sa(dp1997
S'training_block.thisRepN'
p1998
I0
sg163
g1499
sg30
g40
sg1500
Vsqueeze
p1999
sS'experimental_blocks.thisN'
p2000
I2
sg42
g43
sg1503
Vbraid
p2001
sg1505
Vswitch
p2002
sg1507
Vclean
p2003
sS'experimental_blocks.thisIndex'
p2004
g1512
sS'word_presentation.thisRepN'
p2005
I0
sS'experimental_blocks.thisRepN'
p2006
I0
sg44
g49
sg162
g1517
sg1518
g1544
sS'training_block.thisIndex'
p2007
g145
sg164
g1523
sg20
F9.862625044550441
sS'experimental_blocks.thisTrialN'
p2008
I2
sS'training_block.thisN'
p2009
I0
sS'word_presentation.thisN'
p2010
I23
sS'training_block.thisTrialN'
p2011
I0
sg19
S'space'
p2012
sg28
g29
sS'word_presentation.thisTrialN'
p2013
I23
sg41
g12
sS'word_presentation.thisIndex'
p2014
g31
(g131
S'\x17\x00\x00\x00'
p2015
tp2016
Rp2017
sa(dp2018
S'training_block.thisRepN'
p2019
I0
sg163
g1499
sg30
g40
sg1500
Vlimp
p2020
sS'experimental_blocks.thisN'
p2021
I2
sg42
g43
sg1503
Vslither
p2022
sg1505
Vtraipse
p2023
sg1507
Vmount
p2024
sS'experimental_blocks.thisIndex'
p2025
g1512
sS'word_presentation.thisRepN'
p2026
I0
sS'experimental_blocks.thisRepN'
p2027
I0
sg44
g49
sg162
g1517
sg1518
g1519
sS'training_block.thisIndex'
p2028
g145
sg164
g1523
sg20
F4.696250105693252
sS'experimental_blocks.thisTrialN'
p2029
I2
sS'training_block.thisN'
p2030
I0
sS'word_presentation.thisN'
p2031
I24
sS'training_block.thisTrialN'
p2032
I0
sg19
S'space'
p2033
sg28
g29
sS'word_presentation.thisTrialN'
p2034
I24
sg41
g12
sS'word_presentation.thisIndex'
p2035
g31
(g131
S'\x18\x00\x00\x00'
p2036
tp2037
Rp2038
sa(dp2039
S'training_block.thisRepN'
p2040
I0
sg163
g1499
sg30
g40
sg1500
Vlift
p2041
sS'experimental_blocks.thisN'
p2042
I2
sg42
g43
sg1503
Vscoop
p2043
sg1505
Vclap
p2044
sg1507
Vdig
p2045
sS'experimental_blocks.thisIndex'
p2046
g1512
sS'word_presentation.thisRepN'
p2047
I0
sS'experimental_blocks.thisRepN'
p2048
I0
sg44
g49
sg162
g1517
sg1518
g1544
sS'training_block.thisIndex'
p2049
g145
sg164
g1523
sg20
F3.892216122500031
sS'experimental_blocks.thisTrialN'
p2050
I2
sS'training_block.thisN'
p2051
I0
sS'word_presentation.thisN'
p2052
I25
sS'training_block.thisTrialN'
p2053
I0
sg19
S'space'
p2054
sg28
g29
sS'word_presentation.thisTrialN'
p2055
I25
sg41
g12
sS'word_presentation.thisIndex'
p2056
g31
(g131
S'\x19\x00\x00\x00'
p2057
tp2058
Rp2059
sa(dp2060
S'training_block.thisRepN'
p2061
I0
sg163
g1499
sg30
g40
sg1500
Vdance
p2062
sS'experimental_blocks.thisN'
p2063
I2
sg42
g43
sg1503
Vstray
p2064
sg1505
Vstumble
p2065
sg1507
Vstamp
p2066
sS'experimental_blocks.thisIndex'
p2067
g1512
sS'word_presentation.thisRepN'
p2068
I0
sS'experimental_blocks.thisRepN'
p2069
I0
sg44
g49
sg162
g1517
sg1518
g1519
sS'training_block.thisIndex'
p2070
g145
sg164
g1523
sg20
F6.624755719116365
sS'experimental_blocks.thisTrialN'
p2071
I2
sS'training_block.thisN'
p2072
I0
sS'word_presentation.thisN'
p2073
I26
sS'training_block.thisTrialN'
p2074
I0
sg19
S'space'
p2075
sg28
g29
sS'word_presentation.thisTrialN'
p2076
I26
sg41
g12
sS'word_presentation.thisIndex'
p2077
g31
(g131
S'\x1a\x00\x00\x00'
p2078
tp2079
Rp2080
sa(dp2081
S'training_block.thisRepN'
p2082
I0
sg163
g1499
sg30
g40
sg1500
Vscrape
p2083
sS'experimental_blocks.thisN'
p2084
I2
sg42
g43
sg1503
Vshake
p2085
sg1505
Vwrap
p2086
sg1507
Vgrate
p2087
sS'experimental_blocks.thisIndex'
p2088
g1512
sS'word_presentation.thisRepN'
p2089
I0
sS'experimental_blocks.thisRepN'
p2090
I0
sg44
g49
sg162
g1517
sg1518
g1544
sS'training_block.thisIndex'
p2091
g145
sg164
g1523
sg20
F9.493183052023596
sS'experimental_blocks.thisTrialN'
p2092
I2
sS'training_block.thisN'
p2093
I0
sS'word_presentation.thisN'
p2094
I27
sS'training_block.thisTrialN'
p2095
I0
sg19
S'space'
p2096
sg28
g29
sS'word_presentation.thisTrialN'
p2097
I27
sg41
g12
sS'word_presentation.thisIndex'
p2098
g31
(g131
S'\x1b\x00\x00\x00'
p2099
tp2100
Rp2101
sa(dp2102
S'training_block.thisRepN'
p2103
I0
sg163
g1499
sS'experimental_blocks.thisRepN'
p2104
I0
sS'experimental_blocks.thisTrialN'
p2105
I2
sS'training_block.thisN'
p2106
I0
sg42
g43
sg41
g12
sg30
g40
sS'training_block.thisTrialN'
p2107
I0
sg44
g49
sS'experimental_blocks.thisN'
p2108
I2
sg164
g1523
sg28
g29
sS'experimental_blocks.thisIndex'
p2109
g1512
sg162
g1517
sS'training_block.thisIndex'
p2110
g145
sa(dp2111
S'training_block.thisRepN'
p2112
I0
sg163
g31
(g35
S'\x9a\x99\x99\x99\x99\x99\xd9?'
p2113
tp2114
Rp2115
sg30
g40
sS'word4'
p2116
Vcarve
p2117
sS'experimental_blocks.thisN'
p2118
I3
sg42
g43
sS'word1'
p2119
Vslap
p2120
sS'word3'
p2121
Vclap
p2122
sS'word2'
p2123
Vscoop
p2124
sS'experimental_blocks.thisIndex'
p2125
g31
(g131
S'\x01\x00\x00\x00'
p2126
tp2127
Rp2128
sS'word_presentation.thisRepN'
p2129
I0
sS'experimental_blocks.thisRepN'
p2130
I0
sg44
g49
sg162
g31
(g35
S'\x9a\x99\x99\x99\x99\x99\xc9?'
p2131
tp2132
Rp2133
sS'type'
p2134
Varm
p2135
sS'training_block.thisIndex'
p2136
g145
sg164
g31
(g35
S'333333\xe3?'
p2137
tp2138
Rp2139
sg20
F28.10940188028144
sS'experimental_blocks.thisTrialN'
p2140
I3
sS'training_block.thisN'
p2141
I0
sS'word_presentation.thisN'
p2142
I0
sS'training_block.thisTrialN'
p2143
I0
sg19
S'space'
p2144
sg28
g29
sS'word_presentation.thisTrialN'
p2145
I0
sg41
g12
sS'word_presentation.thisIndex'
p2146
g31
(g131
S'\x00\x00\x00\x00'
p2147
tp2148
Rp2149
sa(dp2150
S'training_block.thisRepN'
p2151
I0
sg163
g2115
sg30
g40
sg2116
Vjump
p2152
sS'experimental_blocks.thisN'
p2153
I3
sg42
g43
sg2119
Vslide
p2154
sg2121
Vdance
p2155
sg2123
Vramble
p2156
sS'experimental_blocks.thisIndex'
p2157
g2128
sS'word_presentation.thisRepN'
p2158
I0
sS'experimental_blocks.thisRepN'
p2159
I0
sg44
g49
sg162
g2133
sg2134
Vleg
p2160
sS'training_block.thisIndex'
p2161
g145
sg164
g2139
sg20
F4.780337255788254
sS'experimental_blocks.thisTrialN'
p2162
I3
sS'training_block.thisN'
p2163
I0
sS'word_presentation.thisN'
p2164
I1
sS'training_block.thisTrialN'
p2165
I0
sg19
S'space'
p2166
sg28
g29
sS'word_presentation.thisTrialN'
p2167
I1
sg41
g12
sS'word_presentation.thisIndex'
p2168
g31
(g131
S'\x01\x00\x00\x00'
p2169
tp2170
Rp2171
sa(dp2172
S'training_block.thisRepN'
p2173
I0
sg163
g2115
sg30
g40
sg2116
Vrush
p2174
sS'experimental_blocks.thisN'
p2175
I3
sg42
g43
sg2119
Vbounce
p2176
sg2121
Vcrawl
p2177
sg2123
Vflit
p2178
sS'experimental_blocks.thisIndex'
p2179
g2128
sS'word_presentation.thisRepN'
p2180
I0
sS'experimental_blocks.thisRepN'
p2181
I0
sg44
g49
sg162
g2133
sg2134
g2160
sS'training_block.thisIndex'
p2182
g145
sg164
g2139
sg20
F9.559996491365382
sS'experimental_blocks.thisTrialN'
p2183
I3
sS'training_block.thisN'
p2184
I0
sS'word_presentation.thisN'
p2185
I2
sS'training_block.thisTrialN'
p2186
I0
sg19
S'space'
p2187
sg28
g29
sS'word_presentation.thisTrialN'
p2188
I2
sg41
g12
sS'word_presentation.thisIndex'
p2189
g31
(g131
S'\x02\x00\x00\x00'
p2190
tp2191
Rp2192
sa(dp2193
S'training_block.thisRepN'
p2194
I0
sg163
g2115
sg30
g40
sg2116
Vbraid
p2195
sS'experimental_blocks.thisN'
p2196
I3
sg42
g43
sg2119
Vthrow
p2197
sg2121
Vstir
p2198
sg2123
Vgrate
p2199
sS'experimental_blocks.thisIndex'
p2200
g2128
sS'word_presentation.thisRepN'
p2201
I0
sS'experimental_blocks.thisRepN'
p2202
I0
sg44
g49
sg162
g2133
sg2134
g2135
sS'training_block.thisIndex'
p2203
g145
sg164
g2139
sg20
F9.526392213356303
sS'experimental_blocks.thisTrialN'
p2204
I3
sS'training_block.thisN'
p2205
I0
sS'word_presentation.thisN'
p2206
I3
sS'training_block.thisTrialN'
p2207
I0
sg19
S'space'
p2208
sg28
g29
sS'word_presentation.thisTrialN'
p2209
I3
sg41
g12
sS'word_presentation.thisIndex'
p2210
g31
(g131
S'\x03\x00\x00\x00'
p2211
tp2212
Rp2213
sa(dp2214
S'training_block.thisRepN'
p2215
I0
sg163
g2115
sg30
g40
sg2116
Vtrudge
p2216
sS'experimental_blocks.thisN'
p2217
I3
sg42
g43
sg2119
Vstamp
p2218
sg2121
Vkick
p2219
sg2123
Vclimb
p2220
sS'experimental_blocks.thisIndex'
p2221
g2128
sS'word_presentation.thisRepN'
p2222
I0
sS'experimental_blocks.thisRepN'
p2223
I0
sg44
g49
sg162
g2133
sg2134
g2160
sS'training_block.thisIndex'
p2224
g145
sg164
g2139
sg20
F10.951524715732376
sS'experimental_blocks.thisTrialN'
p2225
I3
sS'training_block.thisN'
p2226
I0
sS'word_presentation.thisN'
p2227
I4
sS'training_block.thisTrialN'
p2228
I0
sg19
S'space'
p2229
sg28
g29
sS'word_presentation.thisTrialN'
p2230
I4
sg41
g12
sS'word_presentation.thisIndex'
p2231
g31
(g131
S'\x04\x00\x00\x00'
p2232
tp2233
Rp2234
sa(dp2235
S'training_block.thisRepN'
p2236
I0
sg163
g2115
sg30
g40
sg2116
Vwipe
p2237
sS'experimental_blocks.thisN'
p2238
I3
sg42
g43
sg2119
Vpinch
p2239
sg2121
Vstab
p2240
sg2123
Vdunk
p2241
sS'experimental_blocks.thisIndex'
p2242
g2128
sS'word_presentation.thisRepN'
p2243
I0
sS'experimental_blocks.thisRepN'
p2244
I0
sg44
g49
sg162
g2133
sg2134
g2135
sS'training_block.thisIndex'
p2245
g145
sg164
g2139
sg20
F8.570604583826935
sS'experimental_blocks.thisTrialN'
p2246
I3
sS'training_block.thisN'
p2247
I0
sS'word_presentation.thisN'
p2248
I5
sS'training_block.thisTrialN'
p2249
I0
sg19
S'space'
p2250
sg28
g29
sS'word_presentation.thisTrialN'
p2251
I5
sg41
g12
sS'word_presentation.thisIndex'
p2252
g31
(g131
S'\x05\x00\x00\x00'
p2253
tp2254
Rp2255
sa(dp2256
S'training_block.thisRepN'
p2257
I0
sg163
g2115
sg30
g40
sg2116
Vpolish
p2258
sS'experimental_blocks.thisN'
p2259
I3
sg42
g43
sg2119
Vclean
p2260
sg2121
Vdelve
p2261
sg2123
Vseize
p2262
sS'experimental_blocks.thisIndex'
p2263
g2128
sS'word_presentation.thisRepN'
p2264
I0
sS'experimental_blocks.thisRepN'
p2265
I0
sg44
g49
sg162
g2133
sg2134
g2135
sS'training_block.thisIndex'
p2266
g145
sg164
g2139
sg20
F9.05738635061607
sS'experimental_blocks.thisTrialN'
p2267
I3
sS'training_block.thisN'
p2268
I0
sS'word_presentation.thisN'
p2269
I6
sS'training_block.thisTrialN'
p2270
I0
sg19
S'space'
p2271
sg28
g29
sS'word_presentation.thisTrialN'
p2272
I6
sg41
g12
sS'word_presentation.thisIndex'
p2273
g31
(g131
S'\x06\x00\x00\x00'
p2274
tp2275
Rp2276
sa(dp2277
S'training_block.thisRepN'
p2278
I0
sg163
g2115
sg30
g40
sg2116
Vbrush
p2279
sS'experimental_blocks.thisN'
p2280
I3
sg42
g43
sg2119
Vchop
p2281
sg2121
Vgrasp
p2282
sg2123
Vdig
p2283
sS'experimental_blocks.thisIndex'
p2284
g2128
sS'word_presentation.thisRepN'
p2285
I0
sS'experimental_blocks.thisRepN'
p2286
I0
sg44
g49
sg162
g2133
sg2134
g2135
sS'training_block.thisIndex'
p2287
g145
sg164
g2139
sg20
F5.165808736661347
sS'experimental_blocks.thisTrialN'
p2288
I3
sS'training_block.thisN'
p2289
I0
sS'word_presentation.thisN'
p2290
I7
sS'training_block.thisTrialN'
p2291
I0
sg19
S'space'
p2292
sg28
g29
sS'word_presentation.thisTrialN'
p2293
I7
sg41
g12
sS'word_presentation.thisIndex'
p2294
g31
(g131
S'\x07\x00\x00\x00'
p2295
tp2296
Rp2297
sa(dp2298
S'training_block.thisRepN'
p2299
I0
sg163
g2115
sg30
g40
sg2116
Vlimp
p2300
sS'experimental_blocks.thisN'
p2301
I3
sg42
g43
sg2119
Vstagger
p2302
sg2121
Vskate
p2303
sg2123
Vscuff
p2304
sS'experimental_blocks.thisIndex'
p2305
g2128
sS'word_presentation.thisRepN'
p2306
I0
sS'experimental_blocks.thisRepN'
p2307
I0
sg44
g49
sg162
g2133
sg2134
g2160
sS'training_block.thisIndex'
p2308
g145
sg164
g2139
sg20
F5.4844786316953105
sS'experimental_blocks.thisTrialN'
p2309
I3
sS'training_block.thisN'
p2310
I0
sS'word_presentation.thisN'
p2311
I8
sS'training_block.thisTrialN'
p2312
I0
sg19
S'space'
p2313
sg28
g29
sS'word_presentation.thisTrialN'
p2314
I8
sg41
g12
sS'word_presentation.thisIndex'
p2315
g31
(g131
S'\x08\x00\x00\x00'
p2316
tp2317
Rp2318
sa(dp2319
S'training_block.thisRepN'
p2320
I0
sg163
g2115
sg30
g40
sg2116
Vstumble
p2321
sS'experimental_blocks.thisN'
p2322
I3
sg42
g43
sg2119
Vwade
p2323
sg2121
Vstomp
p2324
sg2123
Vsneak
p2325
sS'experimental_blocks.thisIndex'
p2326
g2128
sS'word_presentation.thisRepN'
p2327
I0
sS'experimental_blocks.thisRepN'
p2328
I0
sg44
g49
sg162
g2133
sg2134
g2160
sS'training_block.thisIndex'
p2329
g145
sg164
g2139
sg20
F6.272055610301322
sS'experimental_blocks.thisTrialN'
p2330
I3
sS'training_block.thisN'
p2331
I0
sS'word_presentation.thisN'
p2332
I9
sS'training_block.thisTrialN'
p2333
I0
sg19
S'space'
p2334
sg28
g29
sS'word_presentation.thisTrialN'
p2335
I9
sg41
g12
sS'word_presentation.thisIndex'
p2336
g31
(g131
S'\t\x00\x00\x00'
p2337
tp2338
Rp2339
sa(dp2340
S'training_block.thisRepN'
p2341
I0
sg163
g2115
sg30
g40
sg2116
Vstrut
p2342
sS'experimental_blocks.thisN'
p2343
I3
sg42
g43
sg2119
Vsprint
p2344
sg2121
Vtraipse
p2345
sg2123
Vsway
p2346
sS'experimental_blocks.thisIndex'
p2347
g2128
sS'word_presentation.thisRepN'
p2348
I0
sS'experimental_blocks.thisRepN'
p2349
I0
sg44
g49
sg162
g2133
sg2134
g2160
sS'training_block.thisIndex'
p2350
g145
sg164
g2139
sg20
F12.075863981874136
sS'experimental_blocks.thisTrialN'
p2351
I3
sS'training_block.thisN'
p2352
I0
sS'word_presentation.thisN'
p2353
I10
sS'training_block.thisTrialN'
p2354
I0
sg19
S'space'
p2355
sg28
g29
sS'word_presentation.thisTrialN'
p2356
I10
sg41
g12
sS'word_presentation.thisIndex'
p2357
g31
(g131
S'\n\x00\x00\x00'
p2358
tp2359
Rp2360
sa(dp2361
S'training_block.thisRepN'
p2362
I0
sg163
g2115
sg30
g40
sg2116
Vhack
p2363
sS'experimental_blocks.thisN'
p2364
I3
sg42
g43
sg2119
Vpoke
p2365
sg2121
Vgrip
p2366
sg2123
Vcut
p2367
sS'experimental_blocks.thisIndex'
p2368
g2128
sS'word_presentation.thisRepN'
p2369
I0
sS'experimental_blocks.thisRepN'
p2370
I0
sg44
g49
sg162
g2133
sg2134
g2135
sS'training_block.thisIndex'
p2371
g145
sg164
g2139
sg20
F6.507658941609407
sS'experimental_blocks.thisTrialN'
p2372
I3
sS'training_block.thisN'
p2373
I0
sS'word_presentation.thisN'
p2374
I11
sS'training_block.thisTrialN'
p2375
I0
sg19
S'space'
p2376
sg28
g29
sS'word_presentation.thisTrialN'
p2377
I11
sg41
g12
sS'word_presentation.thisIndex'
p2378
g31
(g131
S'\x0b\x00\x00\x00'
p2379
tp2380
Rp2381
sa(dp2382
S'training_block.thisRepN'
p2383
I0
sg163
g2115
sg30
g40
sg2116
Vsqueeze
p2384
sS'experimental_blocks.thisN'
p2385
I3
sg42
g43
sg2119
Vpat
p2386
sg2121
Vcatch
p2387
sg2123
Vnip
p2388
sS'experimental_blocks.thisIndex'
p2389
g2128
sS'word_presentation.thisRepN'
p2390
I0
sS'experimental_blocks.thisRepN'
p2391
I0
sg44
g49
sg162
g2133
sg2134
g2135
sS'training_block.thisIndex'
p2392
g145
sg164
g2139
sg20
F10.852066341671161
sS'experimental_blocks.thisTrialN'
p2393
I3
sS'training_block.thisN'
p2394
I0
sS'word_presentation.thisN'
p2395
I12
sS'training_block.thisTrialN'
p2396
I0
sg19
S'space'
p2397
sg28
g29
sS'word_presentation.thisTrialN'
p2398
I12
sg41
g12
sS'word_presentation.thisIndex'
p2399
g31
(g131
S'\x0c\x00\x00\x00'
p2400
tp2401
Rp2402
sa(dp2403
S'training_block.thisRepN'
p2404
I0
sg163
g2115
sg30
g40
sg2116
Vstride
p2405
sS'experimental_blocks.thisN'
p2406
I3
sg42
g43
sg2119
Vtrip
p2407
sg2121
Vhop
p2408
sg2123
Vprance
p2409
sS'experimental_blocks.thisIndex'
p2410
g2128
sS'word_presentation.thisRepN'
p2411
I0
sS'experimental_blocks.thisRepN'
p2412
I0
sg44
g49
sg162
g2133
sg2134
g2160
sS'training_block.thisIndex'
p2413
g145
sg164
g2139
sg20
F7.379365742910522
sS'experimental_blocks.thisTrialN'
p2414
I3
sS'training_block.thisN'
p2415
I0
sS'word_presentation.thisN'
p2416
I13
sS'training_block.thisTrialN'
p2417
I0
sg19
S'space'
p2418
sg28
g29
sS'word_presentation.thisTrialN'
p2419
I13
sg41
g12
sS'word_presentation.thisIndex'
p2420
g31
(g131
S'\r\x00\x00\x00'
p2421
tp2422
Rp2423
sa(dp2424
S'training_block.thisRepN'
p2425
I0
sg163
g2115
sg30
g40
sg2116
Vclaw
p2426
sS'experimental_blocks.thisN'
p2427
I3
sg42
g43
sg2119
Vrub
p2428
sg2121
Vknock
p2429
sg2123
Vpeel
p2430
sS'experimental_blocks.thisIndex'
p2431
g2128
sS'word_presentation.thisRepN'
p2432
I0
sS'experimental_blocks.thisRepN'
p2433
I0
sg44
g49
sg162
g2133
sg2134
g2135
sS'training_block.thisIndex'
p2434
g145
sg164
g2139
sg20
F12.629458002653337
sS'experimental_blocks.thisTrialN'
p2435
I3
sS'training_block.thisN'
p2436
I0
sS'word_presentation.thisN'
p2437
I14
sS'training_block.thisTrialN'
p2438
I0
sg19
S'space'
p2439
sg28
g29
sS'word_presentation.thisTrialN'
p2440
I14
sg41
g12
sS'word_presentation.thisIndex'
p2441
g31
(g131
S'\x0e\x00\x00\x00'
p2442
tp2443
Rp2444
sa(dp2445
S'training_block.thisRepN'
p2446
I0
sg163
g2115
sg30
g40
sg2116
Vwalk
p2447
sS'experimental_blocks.thisN'
p2448
I3
sg42
g43
sg2119
Vtread
p2449
sg2121
Vjog
p2450
sg2123
Vmarch
p2451
sS'experimental_blocks.thisIndex'
p2452
g2128
sS'word_presentation.thisRepN'
p2453
I0
sS'experimental_blocks.thisRepN'
p2454
I0
sg44
g49
sg162
g2133
sg2134
g2160
sS'training_block.thisIndex'
p2455
g145
sg164
g2139
sg20
F8.972297184634954
sS'experimental_blocks.thisTrialN'
p2456
I3
sS'training_block.thisN'
p2457
I0
sS'word_presentation.thisN'
p2458
I15
sS'training_block.thisTrialN'
p2459
I0
sg19
S'space'
p2460
sg28
g29
sS'word_presentation.thisTrialN'
p2461
I15
sg41
g12
sS'word_presentation.thisIndex'
p2462
g31
(g131
S'\x0f\x00\x00\x00'
p2463
tp2464
Rp2465
sa(dp2466
S'training_block.thisRepN'
p2467
I0
sg163
g2115
sg30
g40
sg2116
Vwrap
p2468
sS'experimental_blocks.thisN'
p2469
I3
sg42
g43
sg2119
Vtwine
p2470
sg2121
Vsnatch
p2471
sg2123
Vlift
p2472
sS'experimental_blocks.thisIndex'
p2473
g2128
sS'word_presentation.thisRepN'
p2474
I0
sS'experimental_blocks.thisRepN'
p2475
I0
sg44
g49
sg162
g2133
sg2134
g2135
sS'training_block.thisIndex'
p2476
g145
sg164
g2139
sg20
F6.457237707722015
sS'experimental_blocks.thisTrialN'
p2477
I3
sS'training_block.thisN'
p2478
I0
sS'word_presentation.thisN'
p2479
I16
sS'training_block.thisTrialN'
p2480
I0
sg19
S'space'
p2481
sg28
g29
sS'word_presentation.thisTrialN'
p2482
I16
sg41
g12
sS'word_presentation.thisIndex'
p2483
g31
(g131
S'\x10\x00\x00\x00'
p2484
tp2485
Rp2486
sa(dp2487
S'training_block.thisRepN'
p2488
I0
sg163
g2115
sg30
g40
sg2116
Vscrape
p2489
sS'experimental_blocks.thisN'
p2490
I3
sg42
g43
sg2119
Vshake
p2491
sg2121
Vtoss
p2492
sg2123
Vpunch
p2493
sS'experimental_blocks.thisIndex'
p2494
g2128
sS'word_presentation.thisRepN'
p2495
I0
sS'experimental_blocks.thisRepN'
p2496
I0
sg44
g49
sg162
g2133
sg2134
g2135
sS'training_block.thisIndex'
p2497
g145
sg164
g2139
sg20
F6.591448173730896
sS'experimental_blocks.thisTrialN'
p2498
I3
sS'training_block.thisN'
p2499
I0
sS'word_presentation.thisN'
p2500
I17
sS'training_block.thisTrialN'
p2501
I0
sg19
S'space'
p2502
sg28
g29
sS'word_presentation.thisTrialN'
p2503
I17
sg41
g12
sS'word_presentation.thisIndex'
p2504
g31
(g131
S'\x11\x00\x00\x00'
p2505
tp2506
Rp2507
sa(dp2508
S'training_block.thisRepN'
p2509
I0
sg163
g2115
sg30
g40
sg2116
Vbash
p2510
sS'experimental_blocks.thisN'
p2511
I3
sg42
g43
sg2119
Vpush
p2512
sg2121
Vscrub
p2513
sg2123
Vgrab
p2514
sS'experimental_blocks.thisIndex'
p2515
g2128
sS'word_presentation.thisRepN'
p2516
I0
sS'experimental_blocks.thisRepN'
p2517
I0
sg44
g49
sg162
g2133
sg2134
g2135
sS'training_block.thisIndex'
p2518
g145
sg164
g2139
sg20
F10.180503520885395
sS'experimental_blocks.thisTrialN'
p2519
I3
sS'training_block.thisN'
p2520
I0
sS'word_presentation.thisN'
p2521
I18
sS'training_block.thisTrialN'
p2522
I0
sg19
S'space'
p2523
sg28
g29
sS'word_presentation.thisTrialN'
p2524
I18
sg41
g12
sS'word_presentation.thisIndex'
p2525
g31
(g131
S'\x12\x00\x00\x00'
p2526
tp2527
Rp2528
sa(dp2529
S'training_block.thisRepN'
p2530
I0
sg163
g2115
sg30
g40
sg2116
Vstroll
p2531
sS'experimental_blocks.thisN'
p2532
I3
sg42
g43
sg2119
Vwander
p2533
sg2121
Vtrot
p2534
sg2123
Vtrek
p2535
sS'experimental_blocks.thisIndex'
p2536
g2128
sS'word_presentation.thisRepN'
p2537
I0
sS'experimental_blocks.thisRepN'
p2538
I0
sg44
g49
sg162
g2133
sg2134
g2160
sS'training_block.thisIndex'
p2539
g145
sg164
g2139
sg20
F4.275614821301133
sS'experimental_blocks.thisTrialN'
p2540
I3
sS'training_block.thisN'
p2541
I0
sS'word_presentation.thisN'
p2542
I19
sS'training_block.thisTrialN'
p2543
I0
sg19
S'space'
p2544
sg28
g29
sS'word_presentation.thisTrialN'
p2545
I19
sg41
g12
sS'word_presentation.thisIndex'
p2546
g31
(g131
S'\x13\x00\x00\x00'
p2547
tp2548
Rp2549
sa(dp2550
S'training_block.thisRepN'
p2551
I0
sg163
g2115
sg30
g40
sg2116
Vtiptoe
p2552
sS'experimental_blocks.thisN'
p2553
I3
sg42
g43
sg2119
Vkneel
p2554
sg2121
Vslip
p2555
sg2123
Vleap
p2556
sS'experimental_blocks.thisIndex'
p2557
g2128
sS'word_presentation.thisRepN'
p2558
I0
sS'experimental_blocks.thisRepN'
p2559
I0
sg44
g49
sg162
g2133
sg2134
g2160
sS'training_block.thisIndex'
p2560
g145
sg164
g2139
sg20
F7.446816505445895
sS'experimental_blocks.thisTrialN'
p2561
I3
sS'training_block.thisN'
p2562
I0
sS'word_presentation.thisN'
p2563
I20
sS'training_block.thisTrialN'
p2564
I0
sg19
S'space'
p2565
sg28
g29
sS'word_presentation.thisTrialN'
p2566
I20
sg41
g12
sS'word_presentation.thisIndex'
p2567
g31
(g131
S'\x14\x00\x00\x00'
p2568
tp2569
Rp2570
sa(dp2571
S'training_block.thisRepN'
p2572
I0
sg163
g2115
sg30
g40
sg2116
Vbind
p2573
sS'experimental_blocks.thisN'
p2574
I3
sg42
g43
sg2119
Vscratch
p2575
sg2121
Vwhip
p2576
sg2123
Vswitch
p2577
sS'experimental_blocks.thisIndex'
p2578
g2128
sS'word_presentation.thisRepN'
p2579
I0
sS'experimental_blocks.thisRepN'
p2580
I0
sg44
g49
sg162
g2133
sg2134
g2135
sS'training_block.thisIndex'
p2581
g145
sg164
g2139
sg20
F7.81586614711523
sS'experimental_blocks.thisTrialN'
p2582
I3
sS'training_block.thisN'
p2583
I0
sS'word_presentation.thisN'
p2584
I21
sS'training_block.thisTrialN'
p2585
I0
sg19
S'space'
p2586
sg28
g29
sS'word_presentation.thisTrialN'
p2587
I21
sg41
g12
sS'word_presentation.thisIndex'
p2588
g31
(g131
S'\x15\x00\x00\x00'
p2589
tp2590
Rp2591
sa(dp2592
S'training_block.thisRepN'
p2593
I0
sg163
g2115
sg30
g40
sg2116
Vinch
p2594
sS'experimental_blocks.thisN'
p2595
I3
sg42
g43
sg2119
Vpace
p2596
sg2121
Vroll
p2597
sg2123
Vglide
p2598
sS'experimental_blocks.thisIndex'
p2599
g2128
sS'word_presentation.thisRepN'
p2600
I0
sS'experimental_blocks.thisRepN'
p2601
I0
sg44
g49
sg162
g2133
sg2134
g2160
sS'training_block.thisIndex'
p2602
g145
sg164
g2139
sg20
F4.611533534738555
sS'experimental_blocks.thisTrialN'
p2603
I3
sS'training_block.thisN'
p2604
I0
sS'word_presentation.thisN'
p2605
I22
sS'training_block.thisTrialN'
p2606
I0
sg19
S'space'
p2607
sg28
g29
sS'word_presentation.thisTrialN'
p2608
I22
sg41
g12
sS'word_presentation.thisIndex'
p2609
g31
(g131
S'\x16\x00\x00\x00'
p2610
tp2611
Rp2612
sa(dp2613
S'training_block.thisRepN'
p2614
I0
sg163
g2115
sg30
g40
sg2116
Vfold
p2615
sS'experimental_blocks.thisN'
p2616
I3
sg42
g43
sg2119
Vclick
p2617
sg2121
Vpull
p2618
sg2123
Vfile
p2619
sS'experimental_blocks.thisIndex'
p2620
g2128
sS'word_presentation.thisRepN'
p2621
I0
sS'experimental_blocks.thisRepN'
p2622
I0
sg44
g49
sg162
g2133
sg2134
g2135
sS'training_block.thisIndex'
p2623
g145
sg164
g2139
sg20
F7.765564238463412
sS'experimental_blocks.thisTrialN'
p2624
I3
sS'training_block.thisN'
p2625
I0
sS'word_presentation.thisN'
p2626
I23
sS'training_block.thisTrialN'
p2627
I0
sg19
S'space'
p2628
sg28
g29
sS'word_presentation.thisTrialN'
p2629
I23
sg41
g12
sS'word_presentation.thisIndex'
p2630
g31
(g131
S'\x17\x00\x00\x00'
p2631
tp2632
Rp2633
sa(dp2634
S'training_block.thisRepN'
p2635
I0
sg163
g2115
sg30
g40
sg2116
Vskim
p2636
sS'experimental_blocks.thisN'
p2637
I3
sg42
g43
sg2119
Vtug
p2638
sg2121
Vwash
p2639
sg2123
Vclutch
p2640
sS'experimental_blocks.thisIndex'
p2641
g2128
sS'word_presentation.thisRepN'
p2642
I0
sS'experimental_blocks.thisRepN'
p2643
I0
sg44
g49
sg162
g2133
sg2134
g2135
sS'training_block.thisIndex'
p2644
g145
sg164
g2139
sg20
F6.876657613227508
sS'experimental_blocks.thisTrialN'
p2645
I3
sS'training_block.thisN'
p2646
I0
sS'word_presentation.thisN'
p2647
I24
sS'training_block.thisTrialN'
p2648
I0
sg19
S'space'
p2649
sg28
g29
sS'word_presentation.thisTrialN'
p2650
I24
sg41
g12
sS'word_presentation.thisIndex'
p2651
g31
(g131
S'\x18\x00\x00\x00'
p2652
tp2653
Rp2654
sa(dp2655
S'training_block.thisRepN'
p2656
I0
sg163
g2115
sg30
g40
sg2116
Vwobble
p2657
sS'experimental_blocks.thisN'
p2658
I3
sg42
g43
sg2119
Vskip
p2659
sg2121
Vslither
p2660
sg2123
Vmount
p2661
sS'experimental_blocks.thisIndex'
p2662
g2128
sS'word_presentation.thisRepN'
p2663
I0
sS'experimental_blocks.thisRepN'
p2664
I0
sg44
g49
sg162
g2133
sg2134
g2160
sS'training_block.thisIndex'
p2665
g145
sg164
g2139
sg20
F5.333667733744733
sS'experimental_blocks.thisTrialN'
p2666
I3
sS'training_block.thisN'
p2667
I0
sS'word_presentation.thisN'
p2668
I25
sS'training_block.thisTrialN'
p2669
I0
sg19
S'space'
p2670
sg28
g29
sS'word_presentation.thisTrialN'
p2671
I25
sg41
g12
sS'word_presentation.thisIndex'
p2672
g31
(g131
S'\x19\x00\x00\x00'
p2673
tp2674
Rp2675
sa(dp2676
S'training_block.thisRepN'
p2677
I0
sg163
g2115
sg30
g40
sg2116
Vflee
p2678
sS'experimental_blocks.thisN'
p2679
I3
sg42
g43
sg2119
Vrun
p2680
sg2121
Vroam
p2681
sg2123
Vstray
p2682
sS'experimental_blocks.thisIndex'
p2683
g2128
sS'word_presentation.thisRepN'
p2684
I0
sS'experimental_blocks.thisRepN'
p2685
I0
sg44
g49
sg162
g2133
sg2134
g2160
sS'training_block.thisIndex'
p2686
g145
sg164
g2139
sg20
F4.796825869711029
sS'experimental_blocks.thisTrialN'
p2687
I3
sS'training_block.thisN'
p2688
I0
sS'word_presentation.thisN'
p2689
I26
sS'training_block.thisTrialN'
p2690
I0
sg19
S'space'
p2691
sg28
g29
sS'word_presentation.thisTrialN'
p2692
I26
sg41
g12
sS'word_presentation.thisIndex'
p2693
g31
(g131
S'\x1a\x00\x00\x00'
p2694
tp2695
Rp2696
sa(dp2697
S'training_block.thisRepN'
p2698
I0
sg163
g2115
sg30
g40
sg2116
Vhike
p2699
sS'experimental_blocks.thisN'
p2700
I3
sg42
g43
sg2119
Vcreep
p2701
sg2121
Vplod
p2702
sg2123
Vstep
p2703
sS'experimental_blocks.thisIndex'
p2704
g2128
sS'word_presentation.thisRepN'
p2705
I0
sS'experimental_blocks.thisRepN'
p2706
I0
sg44
g49
sg162
g2133
sg2134
g2160
sS'training_block.thisIndex'
p2707
g145
sg164
g2139
sg20
F6.776262812645655
sS'experimental_blocks.thisTrialN'
p2708
I3
sS'training_block.thisN'
p2709
I0
sS'word_presentation.thisN'
p2710
I27
sS'training_block.thisTrialN'
p2711
I0
sg19
S'space'
p2712
sg28
g29
sS'word_presentation.thisTrialN'
p2713
I27
sg41
g12
sS'word_presentation.thisIndex'
p2714
g31
(g131
S'\x1b\x00\x00\x00'
p2715
tp2716
Rp2717
sa(dp2718
S'training_block.thisRepN'
p2719
I0
sg163
g2115
sS'experimental_blocks.thisRepN'
p2720
I0
sS'experimental_blocks.thisTrialN'
p2721
I3
sS'training_block.thisN'
p2722
I0
sg42
g43
sg41
g12
sg30
g40
sS'training_block.thisTrialN'
p2723
I0
sg44
g49
sS'experimental_blocks.thisN'
p2724
I3
sg164
g2139
sg28
g29
sS'experimental_blocks.thisIndex'
p2725
g2128
sg162
g2133
sS'training_block.thisIndex'
p2726
g145
sasS'loops'
p2727
(lp2728
g54
ag0
(g52
g2
Ntp2729
Rp2730
(dp2731
g56
Nsg57
(lp2732
sg58
I364990448
sg11
S'word_presentation_training'
p2733
sg6
I-1
sg60
I1
sg25
I01
sg26
g27
sg61
g0
(g62
g63
(dp2734
g65
g66
(g67
g68
g69
g70
tp2735
Rp2736
(I1
(I4
I1
tp2737
g76
I00
S'\x00\x00\x80?\x00\x00\x80?\x00\x00\x80?\x00\x00\x80?'
p2738
S'\x00\x00\x00\x00'
p2739
Ntp2740
bsg20
g66
(g67
g68
g69
g70
tp2741
Rp2742
(I1
(I4
I1
tp2743
g76
I00
S'b\xc9\x0bA\x00\xab\x1fA\xf9\x8b\xbd9M\xed\xbeA'
p2744
S'\x00\x00\x00\x00'
p2745
Ntp2746
bsg105
g66
(g67
g68
g69
g70
tp2747
Rp2748
(I1
(I4
I1
tp2749
g76
I00
S'\x00\x00\x00\x00\x00\x00@@\x00\x00\x00@\x00\x00\x80?'
p2750
S'\x00\x00\x00\x00'
p2751
Ntp2752
bsg19
g88
(g68
(I0
tp2753
g70
tp2754
Rp2755
(I1
(I4
I1
tp2756
g95
I00
(lp2757
g178
ag244
ag224
ag204
atp2758
bstp2759
Rp2760
(dp2761
g115
(dp2762
g65
I01
sg20
I01
sg105
I01
sg19
I00
ssg117
g2730
sg118
(lp2763
g65
ag105
ag19
ag20
asg120
(lp2764
I4
aI1
asbsg122
g123
sg124
g88
(g68
(I0
tp2765
g70
tp2766
Rp2767
(I1
(I4
I1
tp2768
g131
I00
S'\x00\x00\x00\x00\x03\x00\x00\x00\x02\x00\x00\x00\x01\x00\x00\x00'
p2769
tp2770
bsg136
I01
sg137
I1
sg138
I-1
sg139
(lp2771
ccollections
OrderedDict
p2772
((lp2773
(lp2774
g156
ag186
aa(lp2775
g157
ag195
aa(lp2776
g158
ag187
aa(lp2777
g159
ag193
aa(lp2778
g160
ag192
aa(lp2779
g161
ag175
aatp2780
Rp2781
ag2772
((lp2782
(lp2783
g156
ag247
aa(lp2784
g157
ag195
aa(lp2785
g158
ag248
aa(lp2786
g159
ag254
aa(lp2787
g160
ag253
aa(lp2788
g161
ag241
aatp2789
Rp2790
ag2772
((lp2791
(lp2792
g156
ag227
aa(lp2793
g157
ag195
aa(lp2794
g158
ag228
aa(lp2795
g159
ag234
aa(lp2796
g160
ag233
aa(lp2797
g161
ag221
aatp2798
Rp2799
ag2772
((lp2800
(lp2801
g156
ag207
aa(lp2802
g157
ag195
aa(lp2803
g158
ag208
aa(lp2804
g159
ag214
aa(lp2805
g160
ag213
aa(lp2806
g161
ag201
aatp2807
Rp2808
asg141
Nsg142
g252
sg146
I4
sg147
I0
sg148
I4
sbag0
(g52
g2
Ntp2809
Rp2810
(dp2811
g56
Nsg57
(lp2812
sg58
I364990448
sg11
S'experimental_blocks'
p2813
sg6
I-1
sg60
I1
sg25
I01
sg26
g27
sg61
g0
(g62
g63
(dp2814
g65
g66
(g67
g68
g69
g70
tp2815
Rp2816
(I1
(I4
I1
tp2817
g76
I00
S'\x00\x00\x80?\x00\x00\x80?\x00\x00\x80?\x00\x00\x80?'
p2818
S'\x00\x00\x00\x00'
p2819
Ntp2820
bsg105
g66
(g67
g68
g69
g70
tp2821
Rp2822
(I1
(I4
I1
tp2823
g76
I00
S'\x00\x00\x00@\x00\x00@@\x00\x00\x80?\x00\x00\x00\x00'
p2824
S'\x00\x00\x00\x00'
p2825
Ntp2826
bstp2827
Rp2828
(dp2829
g115
(dp2830
g65
I01
sg105
I01
ssg117
g2810
sg118
(lp2831
g65
ag105
asg120
(lp2832
I4
aI1
asbsg122
g123
sg124
g88
(g68
(I0
tp2833
g70
tp2834
Rp2835
(I1
(I4
I1
tp2836
g131
I00
S'\x03\x00\x00\x00\x02\x00\x00\x00\x00\x00\x00\x00\x01\x00\x00\x00'
p2837
tp2838
bsg136
I01
sg137
I1
sg138
I-1
sg139
(lp2839
g2772
((lp2840
(lp2841
g162
ag1517
aa(lp2842
g163
ag1499
aa(lp2843
g164
ag1523
aatp2844
Rp2845
ag2772
((lp2846
(lp2847
g162
ag2133
aa(lp2848
g163
ag2115
aa(lp2849
g164
ag2139
aatp2850
Rp2851
ag2772
((lp2852
(lp2853
g162
ag901
aa(lp2854
g163
ag883
aa(lp2855
g164
ag907
aatp2856
Rp2857
ag2772
((lp2858
(lp2859
g162
ag285
aa(lp2860
g163
ag267
aa(lp2861
g164
ag291
aatp2862
Rp2863
asg141
Nsg142
g2128
sg146
I4
sg147
I0
sg148
I4
sbag0
(g52
g2
Ntp2864
Rp2865
(dp2866
g56
Nsg57
(lp2867
sg58
I364990448
sg11
S'word_presentation'
p2868
sg6
I-1
sg60
I1
sg25
I01
sg26
g27
sg61
g0
(g62
g63
(dp2869
g65
g66
(g67
g68
g69
g70
tp2870
Rp2871
(I1
(I28
I1
tp2872
g76
I00
S'\x00\x00\x80?\x00\x00\x80?\x00\x00\x80?\x00\x00\x80?\x00\x00\x80?\x00\x00\x80?\x00\x00\x80?\x00\x00\x80?\x00\x00\x80?\x00\x00\x80?\x00\x00\x80?\x00\x00\x80?\x00\x00\x80?\x00\x00\x80?\x00\x00\x80?\x00\x00\x80?\x00\x00\x80?\x00\x00\x80?\x00\x00\x80?\x00\x00\x80?\x00\x00\x80?\x00\x00\x80?\x00\x00\x80?\x00\x00\x80?\x00\x00\x80?\x00\x00\x80?\x00\x00\x80?\x00\x00\x80?'
p2873
S'\x00\x00\x00\x00\x00\x00\x00\x00\x00\x00\x00\x00\x00\x00\x00\x00\x00\x00\x00\x00\x00\x00\x00\x00\x00\x00\x00\x00'
p2874
Ntp2875
bsg20
g66
(g67
g68
g69
g70
tp2876
Rp2877
(I1
(I28
I1
tp2878
g76
I00
S"*\xbb\xc1@\x06\t%A\xde\x88\xf1@\x93\xfd\xa7@\x8e\x9dNA\xab\x9d\x0cA\x1a\x19\xe4@\xa0\xdc\x1eA\x1e_\xef@\x18Y\x17A\xa7_\x10A\xfe\xb4\xcf@\xd6\x9a\xf2@\x17\t%Ahg\x1fA\xd6\x07\xe3@/v\xe9@\xb2\x16CAk]\x10A@&\xd6@\xf9%\xd6@\x9a\xd5\x04A\xa0|\xcc@'\x04\xb7@\xb4\x8b\x00A\xc3\xbe+A\xd7\x1a\xce@\xba\x1c\xb1@"
p2879
S'\x00\x00\x00\x00\x00\x00\x00\x00\x00\x00\x00\x00\x00\x00\x00\x00\x00\x00\x00\x00\x00\x00\x00\x00\x00\x00\x00\x00'
p2880
Ntp2881
bsg105
g66
(g67
g68
g69
g70
tp2882
Rp2883
(I1
(I28
I1
tp2884
g76
I00
S'\x00\x00\x00\x00\x00\x00\x80?\x00\x00\x00@\x00\x00@@\x00\x00\x80@\x00\x00\xa0@\x00\x00\xc0@\x00\x00\xe0@\x00\x00\x00A\x00\x00\x10A\x00\x00 A\x00\x000A\x00\x00@A\x00\x00PA\x00\x00`A\x00\x00pA\x00\x00\x80A\x00\x00\x88A\x00\x00\x90A\x00\x00\x98A\x00\x00\xa0A\x00\x00\xa8A\x00\x00\xb0A\x00\x00\xb8A\x00\x00\xc0A\x00\x00\xc8A\x00\x00\xd0A\x00\x00\xd8A'
p2885
S'\x00\x00\x00\x00\x00\x00\x00\x00\x00\x00\x00\x00\x00\x00\x00\x00\x00\x00\x00\x00\x00\x00\x00\x00\x00\x00\x00\x00'
p2886
Ntp2887
bsg19
g88
(g68
(I0
tp2888
g70
tp2889
Rp2890
(I1
(I28
I1
tp2891
g95
I00
(lp2892
g296
ag317
ag339
ag360
ag381
ag402
ag423
ag444
ag465
ag486
ag507
ag528
ag549
ag570
ag591
ag612
ag633
ag654
ag675
ag696
ag717
ag738
ag759
ag780
ag801
ag822
ag843
ag864
atp2893
bstp2894
Rp2895
(dp2896
g115
(dp2897
g65
I01
sg20
I01
sg105
I01
sg19
I00
ssg117
g2865
sg118
(lp2898
g65
ag105
ag19
ag20
asg120
(lp2899
I28
aI1
asbsg122
S'sequential'
p2900
sg124
g88
(g68
(I0
tp2901
g70
tp2902
Rp2903
(I1
(I28
I1
tp2904
g131
I00
S'\x00\x00\x00\x00\x01\x00\x00\x00\x02\x00\x00\x00\x03\x00\x00\x00\x04\x00\x00\x00\x05\x00\x00\x00\x06\x00\x00\x00\x07\x00\x00\x00\x08\x00\x00\x00\t\x00\x00\x00\n\x00\x00\x00\x0b\x00\x00\x00\x0c\x00\x00\x00\r\x00\x00\x00\x0e\x00\x00\x00\x0f\x00\x00\x00\x10\x00\x00\x00\x11\x00\x00\x00\x12\x00\x00\x00\x13\x00\x00\x00\x14\x00\x00\x00\x15\x00\x00\x00\x16\x00\x00\x00\x17\x00\x00\x00\x18\x00\x00\x00\x19\x00\x00\x00\x1a\x00\x00\x00\x1b\x00\x00\x00'
p2905
tp2906
bsg136
I01
sg137
I1
sg138
I-1
sg139
(lp2907
g2772
((lp2908
(lp2909
g286
ag287
aa(lp2910
g271
ag272
aa(lp2911
g275
ag276
aa(lp2912
g273
ag274
aa(lp2913
g268
ag269
aatp2914
Rp2915
ag2772
((lp2916
(lp2917
g286
ag287
aa(lp2918
g271
ag306
aa(lp2919
g275
ag308
aa(lp2920
g273
ag307
aa(lp2921
g268
ag304
aatp2922
Rp2923
ag2772
((lp2924
(lp2925
g286
ag333
aa(lp2926
g271
ag327
aa(lp2927
g275
ag329
aa(lp2928
g273
ag328
aa(lp2929
g268
ag325
aatp2930
Rp2931
ag2772
((lp2932
(lp2933
g286
ag333
aa(lp2934
g271
ag349
aa(lp2935
g275
ag351
aa(lp2936
g273
ag350
aa(lp2937
g268
ag347
aatp2938
Rp2939
ag2772
((lp2940
(lp2941
g286
ag333
aa(lp2942
g271
ag370
aa(lp2943
g275
ag372
aa(lp2944
g273
ag371
aa(lp2945
g268
ag368
aatp2946
Rp2947
ag2772
((lp2948
(lp2949
g286
ag287
aa(lp2950
g271
ag391
aa(lp2951
g275
ag393
aa(lp2952
g273
ag392
aa(lp2953
g268
ag389
aatp2954
Rp2955
ag2772
((lp2956
(lp2957
g286
ag333
aa(lp2958
g271
ag412
aa(lp2959
g275
ag414
aa(lp2960
g273
ag413
aa(lp2961
g268
ag410
aatp2962
Rp2963
ag2772
((lp2964
(lp2965
g286
ag287
aa(lp2966
g271
ag433
aa(lp2967
g275
ag435
aa(lp2968
g273
ag434
aa(lp2969
g268
ag431
aatp2970
Rp2971
ag2772
((lp2972
(lp2973
g286
ag287
aa(lp2974
g271
ag454
aa(lp2975
g275
ag456
aa(lp2976
g273
ag455
aa(lp2977
g268
ag452
aatp2978
Rp2979
ag2772
((lp2980
(lp2981
g286
ag333
aa(lp2982
g271
ag475
aa(lp2983
g275
ag477
aa(lp2984
g273
ag476
aa(lp2985
g268
ag473
aatp2986
Rp2987
ag2772
((lp2988
(lp2989
g286
ag333
aa(lp2990
g271
ag496
aa(lp2991
g275
ag498
aa(lp2992
g273
ag497
aa(lp2993
g268
ag494
aatp2994
Rp2995
ag2772
((lp2996
(lp2997
g286
ag287
aa(lp2998
g271
ag517
aa(lp2999
g275
ag519
aa(lp3000
g273
ag518
aa(lp3001
g268
ag515
aatp3002
Rp3003
ag2772
((lp3004
(lp3005
g286
ag287
aa(lp3006
g271
ag538
aa(lp3007
g275
ag540
aa(lp3008
g273
ag539
aa(lp3009
g268
ag536
aatp3010
Rp3011
ag2772
((lp3012
(lp3013
g286
ag333
aa(lp3014
g271
ag559
aa(lp3015
g275
ag561
aa(lp3016
g273
ag560
aa(lp3017
g268
ag557
aatp3018
Rp3019
ag2772
((lp3020
(lp3021
g286
ag287
aa(lp3022
g271
ag580
aa(lp3023
g275
ag582
aa(lp3024
g273
ag581
aa(lp3025
g268
ag578
aatp3026
Rp3027
ag2772
((lp3028
(lp3029
g286
ag333
aa(lp3030
g271
ag601
aa(lp3031
g275
ag603
aa(lp3032
g273
ag602
aa(lp3033
g268
ag599
aatp3034
Rp3035
ag2772
((lp3036
(lp3037
g286
ag287
aa(lp3038
g271
ag622
aa(lp3039
g275
ag624
aa(lp3040
g273
ag623
aa(lp3041
g268
ag620
aatp3042
Rp3043
ag2772
((lp3044
(lp3045
g286
ag287
aa(lp3046
g271
ag643
aa(lp3047
g275
ag645
aa(lp3048
g273
ag644
aa(lp3049
g268
ag641
aatp3050
Rp3051
ag2772
((lp3052
(lp3053
g286
ag287
aa(lp3054
g271
ag664
aa(lp3055
g275
ag666
aa(lp3056
g273
ag665
aa(lp3057
g268
ag662
aatp3058
Rp3059
ag2772
((lp3060
(lp3061
g286
ag333
aa(lp3062
g271
ag685
aa(lp3063
g275
ag687
aa(lp3064
g273
ag686
aa(lp3065
g268
ag683
aatp3066
Rp3067
ag2772
((lp3068
(lp3069
g286
ag287
aa(lp3070
g271
ag706
aa(lp3071
g275
ag708
aa(lp3072
g273
ag707
aa(lp3073
g268
ag704
aatp3074
Rp3075
ag2772
((lp3076
(lp3077
g286
ag333
aa(lp3078
g271
ag727
aa(lp3079
g275
ag729
aa(lp3080
g273
ag728
aa(lp3081
g268
ag725
aatp3082
Rp3083
ag2772
((lp3084
(lp3085
g286
ag333
aa(lp3086
g271
ag748
aa(lp3087
g275
ag750
aa(lp3088
g273
ag749
aa(lp3089
g268
ag746
aatp3090
Rp3091
ag2772
((lp3092
(lp3093
g286
ag333
aa(lp3094
g271
ag769
aa(lp3095
g275
ag771
aa(lp3096
g273
ag770
aa(lp3097
g268
ag767
aatp3098
Rp3099
ag2772
((lp3100
(lp3101
g286
ag287
aa(lp3102
g271
ag790
aa(lp3103
g275
ag792
aa(lp3104
g273
ag791
aa(lp3105
g268
ag788
aatp3106
Rp3107
ag2772
((lp3108
(lp3109
g286
ag333
aa(lp3110
g271
ag811
aa(lp3111
g275
ag813
aa(lp3112
g273
ag812
aa(lp3113
g268
ag809
aatp3114
Rp3115
ag2772
((lp3116
(lp3117
g286
ag333
aa(lp3118
g271
ag832
aa(lp3119
g275
ag834
aa(lp3120
g273
ag833
aa(lp3121
g268
ag830
aatp3122
Rp3123
ag2772
((lp3124
(lp3125
g286
ag287
aa(lp3126
g271
ag853
aa(lp3127
g275
ag855
aa(lp3128
g273
ag854
aa(lp3129
g268
ag851
aatp3130
Rp3131
asg141
Nsg142
g869
sg146
I28
sg147
I0
sg148
I28
sbag0
(g52
g2
Ntp3132
Rp3133
(dp3134
g56
Nsg57
(lp3135
sg58
I364990448
sg11
g2868
sg6
I-1
sg60
I1
sg25
I01
sg26
g27
sg61
g0
(g62
g63
(dp3136
g65
g66
(g67
g68
g69
g70
tp3137
Rp3138
(I1
(I28
I1
tp3139
g76
I00
S'\x00\x00\x80?\x00\x00\x80?\x00\x00\x80?\x00\x00\x80?\x00\x00\x80?\x00\x00\x80?\x00\x00\x80?\x00\x00\x80?\x00\x00\x80?\x00\x00\x80?\x00\x00\x80?\x00\x00\x80?\x00\x00\x80?\x00\x00\x80?\x00\x00\x80?\x00\x00\x80?\x00\x00\x80?\x00\x00\x80?\x00\x00\x80?\x00\x00\x80?\x00\x00\x80?\x00\x00\x80?\x00\x00\x80?\x00\x00\x80?\x00\x00\x80?\x00\x00\x80?\x00\x00\x80?\x00\x00\x80?'
p3140
S'\x00\x00\x00\x00\x00\x00\x00\x00\x00\x00\x00\x00\x00\x00\x00\x00\x00\x00\x00\x00\x00\x00\x00\x00\x00\x00\x00\x00'
p3141
Ntp3142
bsg20
g66
(g67
g68
g69
g70
tp3143
Rp3144
(I1
(I28
I1
tp3145
g76
I00
S'\xa1%\xd6@p\xc7\xba@\xdcp\x06A\x07\xfc\x11A\x80\xa5\x05A3\xa4\xbf@R\xa7\xb1@\xc9\xa0\xa9@\xd4=\xba@/6\xde@\x016\xab@\rT\x1eA)_\x10A\xf8\xe4\xad@x\x8b\x92@\xe4\x93\x0fAY\xaf\rAY\xf5\xc4@\t\xe8\xef@\xbd0\xde@\xf9\x15\xa2@W:\x0eA\xff\xb5\xde@<\xedw@s0\x95@\xe1\xd6g@U\xcf\x96@8\xf4\xcb@'
p3146
S'\x00\x00\x00\x00\x00\x00\x00\x00\x00\x00\x00\x00\x00\x00\x00\x00\x00\x00\x00\x00\x00\x00\x00\x00\x00\x00\x00\x00'
p3147
Ntp3148
bsg105
g66
(g67
g68
g69
g70
tp3149
Rp3150
(I1
(I28
I1
tp3151
g76
I00
S'\x00\x00\x00\x00\x00\x00\x80?\x00\x00\x00@\x00\x00@@\x00\x00\x80@\x00\x00\xa0@\x00\x00\xc0@\x00\x00\xe0@\x00\x00\x00A\x00\x00\x10A\x00\x00 A\x00\x000A\x00\x00@A\x00\x00PA\x00\x00`A\x00\x00pA\x00\x00\x80A\x00\x00\x88A\x00\x00\x90A\x00\x00\x98A\x00\x00\xa0A\x00\x00\xa8A\x00\x00\xb0A\x00\x00\xb8A\x00\x00\xc0A\x00\x00\xc8A\x00\x00\xd0A\x00\x00\xd8A'
p3152
S'\x00\x00\x00\x00\x00\x00\x00\x00\x00\x00\x00\x00\x00\x00\x00\x00\x00\x00\x00\x00\x00\x00\x00\x00\x00\x00\x00\x00'
p3153
Ntp3154
bsg19
g88
(g68
(I0
tp3155
g70
tp3156
Rp3157
(I1
(I28
I1
tp3158
g95
I00
(lp3159
g912
ag934
ag955
ag976
ag997
ag1018
ag1039
ag1060
ag1081
ag1102
ag1123
ag1144
ag1165
ag1186
ag1207
ag1228
ag1249
ag1270
ag1291
ag1312
ag1333
ag1354
ag1375
ag1396
ag1417
ag1438
ag1459
ag1480
atp3160
bstp3161
Rp3162
(dp3163
g115
(dp3164
g65
I01
sg20
I01
sg105
I01
sg19
I00
ssg117
g3133
sg118
(lp3165
g65
ag105
ag19
ag20
asg120
(lp3166
I28
aI1
asbsg122
g2900
sg124
g88
(g68
(I0
tp3167
g70
tp3168
Rp3169
(I1
(I28
I1
tp3170
g131
I00
S'\x00\x00\x00\x00\x01\x00\x00\x00\x02\x00\x00\x00\x03\x00\x00\x00\x04\x00\x00\x00\x05\x00\x00\x00\x06\x00\x00\x00\x07\x00\x00\x00\x08\x00\x00\x00\t\x00\x00\x00\n\x00\x00\x00\x0b\x00\x00\x00\x0c\x00\x00\x00\r\x00\x00\x00\x0e\x00\x00\x00\x0f\x00\x00\x00\x10\x00\x00\x00\x11\x00\x00\x00\x12\x00\x00\x00\x13\x00\x00\x00\x14\x00\x00\x00\x15\x00\x00\x00\x16\x00\x00\x00\x17\x00\x00\x00\x18\x00\x00\x00\x19\x00\x00\x00\x1a\x00\x00\x00\x1b\x00\x00\x00'
p3171
tp3172
bsg136
I01
sg137
I1
sg138
I-1
sg139
(lp3173
g2772
((lp3174
(lp3175
g902
ag903
aa(lp3176
g887
ag888
aa(lp3177
g891
ag892
aa(lp3178
g889
ag890
aa(lp3179
g884
ag885
aatp3180
Rp3181
ag2772
((lp3182
(lp3183
g902
ag928
aa(lp3184
g887
ag922
aa(lp3185
g891
ag924
aa(lp3186
g889
ag923
aa(lp3187
g884
ag920
aatp3188
Rp3189
ag2772
((lp3190
(lp3191
g902
ag903
aa(lp3192
g887
ag944
aa(lp3193
g891
ag946
aa(lp3194
g889
ag945
aa(lp3195
g884
ag942
aatp3196
Rp3197
ag2772
((lp3198
(lp3199
g902
ag928
aa(lp3200
g887
ag965
aa(lp3201
g891
ag967
aa(lp3202
g889
ag966
aa(lp3203
g884
ag963
aatp3204
Rp3205
ag2772
((lp3206
(lp3207
g902
ag903
aa(lp3208
g887
ag986
aa(lp3209
g891
ag988
aa(lp3210
g889
ag987
aa(lp3211
g884
ag984
aatp3212
Rp3213
ag2772
((lp3214
(lp3215
g902
ag928
aa(lp3216
g887
ag1007
aa(lp3217
g891
ag1009
aa(lp3218
g889
ag1008
aa(lp3219
g884
ag1005
aatp3220
Rp3221
ag2772
((lp3222
(lp3223
g902
ag928
aa(lp3224
g887
ag1028
aa(lp3225
g891
ag1030
aa(lp3226
g889
ag1029
aa(lp3227
g884
ag1026
aatp3228
Rp3229
ag2772
((lp3230
(lp3231
g902
ag903
aa(lp3232
g887
ag1049
aa(lp3233
g891
ag1051
aa(lp3234
g889
ag1050
aa(lp3235
g884
ag1047
aatp3236
Rp3237
ag2772
((lp3238
(lp3239
g902
ag928
aa(lp3240
g887
ag1070
aa(lp3241
g891
ag1072
aa(lp3242
g889
ag1071
aa(lp3243
g884
ag1068
aatp3244
Rp3245
ag2772
((lp3246
(lp3247
g902
ag928
aa(lp3248
g887
ag1091
aa(lp3249
g891
ag1093
aa(lp3250
g889
ag1092
aa(lp3251
g884
ag1089
aatp3252
Rp3253
ag2772
((lp3254
(lp3255
g902
ag903
aa(lp3256
g887
ag1112
aa(lp3257
g891
ag1114
aa(lp3258
g889
ag1113
aa(lp3259
g884
ag1110
aatp3260
Rp3261
ag2772
((lp3262
(lp3263
g902
ag928
aa(lp3264
g887
ag1133
aa(lp3265
g891
ag1135
aa(lp3266
g889
ag1134
aa(lp3267
g884
ag1131
aatp3268
Rp3269
ag2772
((lp3270
(lp3271
g902
ag928
aa(lp3272
g887
ag1154
aa(lp3273
g891
ag1156
aa(lp3274
g889
ag1155
aa(lp3275
g884
ag1152
aatp3276
Rp3277
ag2772
((lp3278
(lp3279
g902
ag903
aa(lp3280
g887
ag1175
aa(lp3281
g891
ag1177
aa(lp3282
g889
ag1176
aa(lp3283
g884
ag1173
aatp3284
Rp3285
ag2772
((lp3286
(lp3287
g902
ag903
aa(lp3288
g887
ag1196
aa(lp3289
g891
ag1198
aa(lp3290
g889
ag1197
aa(lp3291
g884
ag1194
aatp3292
Rp3293
ag2772
((lp3294
(lp3295
g902
ag928
aa(lp3296
g887
ag1217
aa(lp3297
g891
ag1219
aa(lp3298
g889
ag1218
aa(lp3299
g884
ag1215
aatp3300
Rp3301
ag2772
((lp3302
(lp3303
g902
ag903
aa(lp3304
g887
ag1238
aa(lp3305
g891
ag1240
aa(lp3306
g889
ag1239
aa(lp3307
g884
ag1236
aatp3308
Rp3309
ag2772
((lp3310
(lp3311
g902
ag903
aa(lp3312
g887
ag1259
aa(lp3313
g891
ag1261
aa(lp3314
g889
ag1260
aa(lp3315
g884
ag1257
aatp3316
Rp3317
ag2772
((lp3318
(lp3319
g902
ag928
aa(lp3320
g887
ag1280
aa(lp3321
g891
ag1282
aa(lp3322
g889
ag1281
aa(lp3323
g884
ag1278
aatp3324
Rp3325
ag2772
((lp3326
(lp3327
g902
ag928
aa(lp3328
g887
ag1301
aa(lp3329
g891
ag1303
aa(lp3330
g889
ag1302
aa(lp3331
g884
ag1299
aatp3332
Rp3333
ag2772
((lp3334
(lp3335
g902
ag903
aa(lp3336
g887
ag1322
aa(lp3337
g891
ag1324
aa(lp3338
g889
ag1323
aa(lp3339
g884
ag1320
aatp3340
Rp3341
ag2772
((lp3342
(lp3343
g902
ag903
aa(lp3344
g887
ag1343
aa(lp3345
g891
ag1345
aa(lp3346
g889
ag1344
aa(lp3347
g884
ag1341
aatp3348
Rp3349
ag2772
((lp3350
(lp3351
g902
ag903
aa(lp3352
g887
ag1364
aa(lp3353
g891
ag1366
aa(lp3354
g889
ag1365
aa(lp3355
g884
ag1362
aatp3356
Rp3357
ag2772
((lp3358
(lp3359
g902
ag928
aa(lp3360
g887
ag1385
aa(lp3361
g891
ag1387
aa(lp3362
g889
ag1386
aa(lp3363
g884
ag1383
aatp3364
Rp3365
ag2772
((lp3366
(lp3367
g902
ag928
aa(lp3368
g887
ag1406
aa(lp3369
g891
ag1408
aa(lp3370
g889
ag1407
aa(lp3371
g884
ag1404
aatp3372
Rp3373
ag2772
((lp3374
(lp3375
g902
ag903
aa(lp3376
g887
ag1427
aa(lp3377
g891
ag1429
aa(lp3378
g889
ag1428
aa(lp3379
g884
ag1425
aatp3380
Rp3381
ag2772
((lp3382
(lp3383
g902
ag928
aa(lp3384
g887
ag1448
aa(lp3385
g891
ag1450
aa(lp3386
g889
ag1449
aa(lp3387
g884
ag1446
aatp3388
Rp3389
ag2772
((lp3390
(lp3391
g902
ag903
aa(lp3392
g887
ag1469
aa(lp3393
g891
ag1471
aa(lp3394
g889
ag1470
aa(lp3395
g884
ag1467
aatp3396
Rp3397
asg141
Nsg142
g1485
sg146
I28
sg147
I0
sg148
I28
sbag0
(g52
g2
Ntp3398
Rp3399
(dp3400
g56
Nsg57
(lp3401
sg58
I364990448
sg11
g2868
sg6
I-1
sg60
I1
sg25
I01
sg26
g27
sg61
g0
(g62
g63
(dp3402
g65
g66
(g67
g68
g69
g70
tp3403
Rp3404
(I1
(I28
I1
tp3405
g76
I00
S'\x00\x00\x80?\x00\x00\x80?\x00\x00\x80?\x00\x00\x80?\x00\x00\x80?\x00\x00\x80?\x00\x00\x80?\x00\x00\x80?\x00\x00\x80?\x00\x00\x80?\x00\x00\x80?\x00\x00\x80?\x00\x00\x80?\x00\x00\x80?\x00\x00\x80?\x00\x00\x80?\x00\x00\x80?\x00\x00\x80?\x00\x00\x80?\x00\x00\x80?\x00\x00\x80?\x00\x00\x80?\x00\x00\x80?\x00\x00\x80?\x00\x00\x80?\x00\x00\x80?\x00\x00\x80?\x00\x00\x80?'
p3406
S'\x00\x00\x00\x00\x00\x00\x00\x00\x00\x00\x00\x00\x00\x00\x00\x00\x00\x00\x00\x00\x00\x00\x00\x00\x00\x00\x00\x00'
p3407
Ntp3408
bsg20
g66
(g67
g68
g69
g70
tp3409
Rp3410
(I1
(I28
I1
tp3411
g76
I00
S'\x95\xd9\xbb@\xdb\xdc\x1eA\xbf\x7f\xc5@iB\xa4@\x17\xc9\xe6@\t\xa4\x10A3\x9b\xa9@\xba\x0c\x08A\x89\x05\xe3@\xe6u\xd3@\xd9\x17\xe4@/\x98\x13Ae\x84\x07A\xd9\x86\x1dA\x96\xf7\xae@Ex\xbd@!\xb7\xfb@rD_A!\xf0\x89@\t\xb8\xfb@Bd\xa6@\xb8\xb1\x8d@T\\\xca@P\xcd\x1dA\xaeG\x96@\x12\x1ay@\x00\xfe\xd3@\x14\xe4\x17A'
p3412
S'\x00\x00\x00\x00\x00\x00\x00\x00\x00\x00\x00\x00\x00\x00\x00\x00\x00\x00\x00\x00\x00\x00\x00\x00\x00\x00\x00\x00'
p3413
Ntp3414
bsg105
g66
(g67
g68
g69
g70
tp3415
Rp3416
(I1
(I28
I1
tp3417
g76
I00
S'\x00\x00\x00\x00\x00\x00\x80?\x00\x00\x00@\x00\x00@@\x00\x00\x80@\x00\x00\xa0@\x00\x00\xc0@\x00\x00\xe0@\x00\x00\x00A\x00\x00\x10A\x00\x00 A\x00\x000A\x00\x00@A\x00\x00PA\x00\x00`A\x00\x00pA\x00\x00\x80A\x00\x00\x88A\x00\x00\x90A\x00\x00\x98A\x00\x00\xa0A\x00\x00\xa8A\x00\x00\xb0A\x00\x00\xb8A\x00\x00\xc0A\x00\x00\xc8A\x00\x00\xd0A\x00\x00\xd8A'
p3418
S'\x00\x00\x00\x00\x00\x00\x00\x00\x00\x00\x00\x00\x00\x00\x00\x00\x00\x00\x00\x00\x00\x00\x00\x00\x00\x00\x00\x00'
p3419
Ntp3420
bsg19
g88
(g68
(I0
tp3421
g70
tp3422
Rp3423
(I1
(I28
I1
tp3424
g95
I00
(lp3425
g1528
ag1550
ag1571
ag1592
ag1613
ag1634
ag1655
ag1676
ag1697
ag1718
ag1739
ag1760
ag1781
ag1802
ag1823
ag1844
ag1865
ag1886
ag1907
ag1928
ag1949
ag1970
ag1991
ag2012
ag2033
ag2054
ag2075
ag2096
atp3426
bstp3427
Rp3428
(dp3429
g115
(dp3430
g65
I01
sg20
I01
sg105
I01
sg19
I00
ssg117
g3399
sg118
(lp3431
g65
ag105
ag19
ag20
asg120
(lp3432
I28
aI1
asbsg122
g2900
sg124
g88
(g68
(I0
tp3433
g70
tp3434
Rp3435
(I1
(I28
I1
tp3436
g131
I00
S'\x00\x00\x00\x00\x01\x00\x00\x00\x02\x00\x00\x00\x03\x00\x00\x00\x04\x00\x00\x00\x05\x00\x00\x00\x06\x00\x00\x00\x07\x00\x00\x00\x08\x00\x00\x00\t\x00\x00\x00\n\x00\x00\x00\x0b\x00\x00\x00\x0c\x00\x00\x00\r\x00\x00\x00\x0e\x00\x00\x00\x0f\x00\x00\x00\x10\x00\x00\x00\x11\x00\x00\x00\x12\x00\x00\x00\x13\x00\x00\x00\x14\x00\x00\x00\x15\x00\x00\x00\x16\x00\x00\x00\x17\x00\x00\x00\x18\x00\x00\x00\x19\x00\x00\x00\x1a\x00\x00\x00\x1b\x00\x00\x00'
p3437
tp3438
bsg136
I01
sg137
I1
sg138
I-1
sg139
(lp3439
g2772
((lp3440
(lp3441
g1518
ag1519
aa(lp3442
g1503
ag1504
aa(lp3443
g1507
ag1508
aa(lp3444
g1505
ag1506
aa(lp3445
g1500
ag1501
aatp3446
Rp3447
ag2772
((lp3448
(lp3449
g1518
ag1544
aa(lp3450
g1503
ag1538
aa(lp3451
g1507
ag1540
aa(lp3452
g1505
ag1539
aa(lp3453
g1500
ag1536
aatp3454
Rp3455
ag2772
((lp3456
(lp3457
g1518
ag1519
aa(lp3458
g1503
ag1560
aa(lp3459
g1507
ag1562
aa(lp3460
g1505
ag1561
aa(lp3461
g1500
ag1558
aatp3462
Rp3463
ag2772
((lp3464
(lp3465
g1518
ag1544
aa(lp3466
g1503
ag1581
aa(lp3467
g1507
ag1583
aa(lp3468
g1505
ag1582
aa(lp3469
g1500
ag1579
aatp3470
Rp3471
ag2772
((lp3472
(lp3473
g1518
ag1519
aa(lp3474
g1503
ag1602
aa(lp3475
g1507
ag1604
aa(lp3476
g1505
ag1603
aa(lp3477
g1500
ag1600
aatp3478
Rp3479
ag2772
((lp3480
(lp3481
g1518
ag1544
aa(lp3482
g1503
ag1623
aa(lp3483
g1507
ag1625
aa(lp3484
g1505
ag1624
aa(lp3485
g1500
ag1621
aatp3486
Rp3487
ag2772
((lp3488
(lp3489
g1518
ag1519
aa(lp3490
g1503
ag1644
aa(lp3491
g1507
ag1646
aa(lp3492
g1505
ag1645
aa(lp3493
g1500
ag1642
aatp3494
Rp3495
ag2772
((lp3496
(lp3497
g1518
ag1544
aa(lp3498
g1503
ag1665
aa(lp3499
g1507
ag1667
aa(lp3500
g1505
ag1666
aa(lp3501
g1500
ag1663
aatp3502
Rp3503
ag2772
((lp3504
(lp3505
g1518
ag1544
aa(lp3506
g1503
ag1686
aa(lp3507
g1507
ag1688
aa(lp3508
g1505
ag1687
aa(lp3509
g1500
ag1684
aatp3510
Rp3511
ag2772
((lp3512
(lp3513
g1518
ag1544
aa(lp3514
g1503
ag1707
aa(lp3515
g1507
ag1709
aa(lp3516
g1505
ag1708
aa(lp3517
g1500
ag1705
aatp3518
Rp3519
ag2772
((lp3520
(lp3521
g1518
ag1519
aa(lp3522
g1503
ag1728
aa(lp3523
g1507
ag1730
aa(lp3524
g1505
ag1729
aa(lp3525
g1500
ag1726
aatp3526
Rp3527
ag2772
((lp3528
(lp3529
g1518
ag1519
aa(lp3530
g1503
ag1749
aa(lp3531
g1507
ag1751
aa(lp3532
g1505
ag1750
aa(lp3533
g1500
ag1747
aatp3534
Rp3535
ag2772
((lp3536
(lp3537
g1518
ag1544
aa(lp3538
g1503
ag1770
aa(lp3539
g1507
ag1772
aa(lp3540
g1505
ag1771
aa(lp3541
g1500
ag1768
aatp3542
Rp3543
ag2772
((lp3544
(lp3545
g1518
ag1544
aa(lp3546
g1503
ag1791
aa(lp3547
g1507
ag1793
aa(lp3548
g1505
ag1792
aa(lp3549
g1500
ag1789
aatp3550
Rp3551
ag2772
((lp3552
(lp3553
g1518
ag1519
aa(lp3554
g1503
ag1812
aa(lp3555
g1507
ag1814
aa(lp3556
g1505
ag1813
aa(lp3557
g1500
ag1810
aatp3558
Rp3559
ag2772
((lp3560
(lp3561
g1518
ag1519
aa(lp3562
g1503
ag1833
aa(lp3563
g1507
ag1835
aa(lp3564
g1505
ag1834
aa(lp3565
g1500
ag1831
aatp3566
Rp3567
ag2772
((lp3568
(lp3569
g1518
ag1544
aa(lp3570
g1503
ag1854
aa(lp3571
g1507
ag1856
aa(lp3572
g1505
ag1855
aa(lp3573
g1500
ag1852
aatp3574
Rp3575
ag2772
((lp3576
(lp3577
g1518
ag1519
aa(lp3578
g1503
ag1875
aa(lp3579
g1507
ag1877
aa(lp3580
g1505
ag1876
aa(lp3581
g1500
ag1873
aatp3582
Rp3583
ag2772
((lp3584
(lp3585
g1518
ag1519
aa(lp3586
g1503
ag1896
aa(lp3587
g1507
ag1898
aa(lp3588
g1505
ag1897
aa(lp3589
g1500
ag1894
aatp3590
Rp3591
ag2772
((lp3592
(lp3593
g1518
ag1544
aa(lp3594
g1503
ag1917
aa(lp3595
g1507
ag1919
aa(lp3596
g1505
ag1918
aa(lp3597
g1500
ag1915
aatp3598
Rp3599
ag2772
((lp3600
(lp3601
g1518
ag1519
aa(lp3602
g1503
ag1938
aa(lp3603
g1507
ag1940
aa(lp3604
g1505
ag1939
aa(lp3605
g1500
ag1936
aatp3606
Rp3607
ag2772
((lp3608
(lp3609
g1518
ag1519
aa(lp3610
g1503
ag1959
aa(lp3611
g1507
ag1961
aa(lp3612
g1505
ag1960
aa(lp3613
g1500
ag1957
aatp3614
Rp3615
ag2772
((lp3616
(lp3617
g1518
ag1544
aa(lp3618
g1503
ag1980
aa(lp3619
g1507
ag1982
aa(lp3620
g1505
ag1981
aa(lp3621
g1500
ag1978
aatp3622
Rp3623
ag2772
((lp3624
(lp3625
g1518
ag1544
aa(lp3626
g1503
ag2001
aa(lp3627
g1507
ag2003
aa(lp3628
g1505
ag2002
aa(lp3629
g1500
ag1999
aatp3630
Rp3631
ag2772
((lp3632
(lp3633
g1518
ag1519
aa(lp3634
g1503
ag2022
aa(lp3635
g1507
ag2024
aa(lp3636
g1505
ag2023
aa(lp3637
g1500
ag2020
aatp3638
Rp3639
ag2772
((lp3640
(lp3641
g1518
ag1544
aa(lp3642
g1503
ag2043
aa(lp3643
g1507
ag2045
aa(lp3644
g1505
ag2044
aa(lp3645
g1500
ag2041
aatp3646
Rp3647
ag2772
((lp3648
(lp3649
g1518
ag1519
aa(lp3650
g1503
ag2064
aa(lp3651
g1507
ag2066
aa(lp3652
g1505
ag2065
aa(lp3653
g1500
ag2062
aatp3654
Rp3655
ag2772
((lp3656
(lp3657
g1518
ag1544
aa(lp3658
g1503
ag2085
aa(lp3659
g1507
ag2087
aa(lp3660
g1505
ag2086
aa(lp3661
g1500
ag2083
aatp3662
Rp3663
asg141
Nsg142
g2101
sg146
I28
sg147
I0
sg148
I28
sbag0
(g52
g2
Ntp3664
Rp3665
(dp3666
g56
Nsg57
(lp3667
sg58
I364990448
sg11
g2868
sg6
I-1
sg60
I1
sg25
I01
sg26
g27
sg61
g0
(g62
g63
(dp3668
g65
g66
(g67
g68
g69
g70
tp3669
Rp3670
(I1
(I28
I1
tp3671
g76
I00
S'\x00\x00\x80?\x00\x00\x80?\x00\x00\x80?\x00\x00\x80?\x00\x00\x80?\x00\x00\x80?\x00\x00\x80?\x00\x00\x80?\x00\x00\x80?\x00\x00\x80?\x00\x00\x80?\x00\x00\x80?\x00\x00\x80?\x00\x00\x80?\x00\x00\x80?\x00\x00\x80?\x00\x00\x80?\x00\x00\x80?\x00\x00\x80?\x00\x00\x80?\x00\x00\x80?\x00\x00\x80?\x00\x00\x80?\x00\x00\x80?\x00\x00\x80?\x00\x00\x80?\x00\x00\x80?\x00\x00\x80?'
p3672
S'\x00\x00\x00\x00\x00\x00\x00\x00\x00\x00\x00\x00\x00\x00\x00\x00\x00\x00\x00\x00\x00\x00\x00\x00\x00\x00\x00\x00'
p3673
Ntp3674
bsg20
g66
(g67
g68
g69
g70
tp3675
Rp3676
(I1
(I28
I1
tp3677
g76
I00
S'\x0e\xe0\xe0A\x86\xf8\x98@\xbf\xf5\x18A\x1al\x18Ar9/A2!\tA\x0e\xeb\x10ANN\xa5@\xd9\x80\xaf@\xae\xb4\xc8@\xbd6AA\xbe>\xd0@\x10\xa2-A\xc4#\xec@C\x12JA\x87\x8e\x0fA\xb1\xa1\xce@%\xed\xd2@X\xe3"A\xd6\xd1\x88@RL\xee@\x93\x1b\xfa@\xaf\x91\x93@\x81\x7f\xf8@\x94\r\xdc@h\xad\xaa@\x99\x7f\x99@%\xd7\xd8@'
p3678
S'\x00\x00\x00\x00\x00\x00\x00\x00\x00\x00\x00\x00\x00\x00\x00\x00\x00\x00\x00\x00\x00\x00\x00\x00\x00\x00\x00\x00'
p3679
Ntp3680
bsg105
g66
(g67
g68
g69
g70
tp3681
Rp3682
(I1
(I28
I1
tp3683
g76
I00
S'\x00\x00\x00\x00\x00\x00\x80?\x00\x00\x00@\x00\x00@@\x00\x00\x80@\x00\x00\xa0@\x00\x00\xc0@\x00\x00\xe0@\x00\x00\x00A\x00\x00\x10A\x00\x00 A\x00\x000A\x00\x00@A\x00\x00PA\x00\x00`A\x00\x00pA\x00\x00\x80A\x00\x00\x88A\x00\x00\x90A\x00\x00\x98A\x00\x00\xa0A\x00\x00\xa8A\x00\x00\xb0A\x00\x00\xb8A\x00\x00\xc0A\x00\x00\xc8A\x00\x00\xd0A\x00\x00\xd8A'
p3684
S'\x00\x00\x00\x00\x00\x00\x00\x00\x00\x00\x00\x00\x00\x00\x00\x00\x00\x00\x00\x00\x00\x00\x00\x00\x00\x00\x00\x00'
p3685
Ntp3686
bsg19
g88
(g68
(I0
tp3687
g70
tp3688
Rp3689
(I1
(I28
I1
tp3690
g95
I00
(lp3691
g2144
ag2166
ag2187
ag2208
ag2229
ag2250
ag2271
ag2292
ag2313
ag2334
ag2355
ag2376
ag2397
ag2418
ag2439
ag2460
ag2481
ag2502
ag2523
ag2544
ag2565
ag2586
ag2607
ag2628
ag2649
ag2670
ag2691
ag2712
atp3692
bstp3693
Rp3694
(dp3695
g115
(dp3696
g65
I01
sg20
I01
sg105
I01
sg19
I00
ssg117
g3665
sg118
(lp3697
g65
ag105
ag19
ag20
asg120
(lp3698
I28
aI1
asbsg122
g2900
sg124
g88
(g68
(I0
tp3699
g70
tp3700
Rp3701
(I1
(I28
I1
tp3702
g131
I00
S'\x00\x00\x00\x00\x01\x00\x00\x00\x02\x00\x00\x00\x03\x00\x00\x00\x04\x00\x00\x00\x05\x00\x00\x00\x06\x00\x00\x00\x07\x00\x00\x00\x08\x00\x00\x00\t\x00\x00\x00\n\x00\x00\x00\x0b\x00\x00\x00\x0c\x00\x00\x00\r\x00\x00\x00\x0e\x00\x00\x00\x0f\x00\x00\x00\x10\x00\x00\x00\x11\x00\x00\x00\x12\x00\x00\x00\x13\x00\x00\x00\x14\x00\x00\x00\x15\x00\x00\x00\x16\x00\x00\x00\x17\x00\x00\x00\x18\x00\x00\x00\x19\x00\x00\x00\x1a\x00\x00\x00\x1b\x00\x00\x00'
p3703
tp3704
bsg136
I01
sg137
I1
sg138
I-1
sg139
(lp3705
g2772
((lp3706
(lp3707
g2134
ag2135
aa(lp3708
g2119
ag2120
aa(lp3709
g2123
ag2124
aa(lp3710
g2121
ag2122
aa(lp3711
g2116
ag2117
aatp3712
Rp3713
ag2772
((lp3714
(lp3715
g2134
ag2160
aa(lp3716
g2119
ag2154
aa(lp3717
g2123
ag2156
aa(lp3718
g2121
ag2155
aa(lp3719
g2116
ag2152
aatp3720
Rp3721
ag2772
((lp3722
(lp3723
g2134
ag2160
aa(lp3724
g2119
ag2176
aa(lp3725
g2123
ag2178
aa(lp3726
g2121
ag2177
aa(lp3727
g2116
ag2174
aatp3728
Rp3729
ag2772
((lp3730
(lp3731
g2134
ag2135
aa(lp3732
g2119
ag2197
aa(lp3733
g2123
ag2199
aa(lp3734
g2121
ag2198
aa(lp3735
g2116
ag2195
aatp3736
Rp3737
ag2772
((lp3738
(lp3739
g2134
ag2160
aa(lp3740
g2119
ag2218
aa(lp3741
g2123
ag2220
aa(lp3742
g2121
ag2219
aa(lp3743
g2116
ag2216
aatp3744
Rp3745
ag2772
((lp3746
(lp3747
g2134
ag2135
aa(lp3748
g2119
ag2239
aa(lp3749
g2123
ag2241
aa(lp3750
g2121
ag2240
aa(lp3751
g2116
ag2237
aatp3752
Rp3753
ag2772
((lp3754
(lp3755
g2134
ag2135
aa(lp3756
g2119
ag2260
aa(lp3757
g2123
ag2262
aa(lp3758
g2121
ag2261
aa(lp3759
g2116
ag2258
aatp3760
Rp3761
ag2772
((lp3762
(lp3763
g2134
ag2135
aa(lp3764
g2119
ag2281
aa(lp3765
g2123
ag2283
aa(lp3766
g2121
ag2282
aa(lp3767
g2116
ag2279
aatp3768
Rp3769
ag2772
((lp3770
(lp3771
g2134
ag2160
aa(lp3772
g2119
ag2302
aa(lp3773
g2123
ag2304
aa(lp3774
g2121
ag2303
aa(lp3775
g2116
ag2300
aatp3776
Rp3777
ag2772
((lp3778
(lp3779
g2134
ag2160
aa(lp3780
g2119
ag2323
aa(lp3781
g2123
ag2325
aa(lp3782
g2121
ag2324
aa(lp3783
g2116
ag2321
aatp3784
Rp3785
ag2772
((lp3786
(lp3787
g2134
ag2160
aa(lp3788
g2119
ag2344
aa(lp3789
g2123
ag2346
aa(lp3790
g2121
ag2345
aa(lp3791
g2116
ag2342
aatp3792
Rp3793
ag2772
((lp3794
(lp3795
g2134
ag2135
aa(lp3796
g2119
ag2365
aa(lp3797
g2123
ag2367
aa(lp3798
g2121
ag2366
aa(lp3799
g2116
ag2363
aatp3800
Rp3801
ag2772
((lp3802
(lp3803
g2134
ag2135
aa(lp3804
g2119
ag2386
aa(lp3805
g2123
ag2388
aa(lp3806
g2121
ag2387
aa(lp3807
g2116
ag2384
aatp3808
Rp3809
ag2772
((lp3810
(lp3811
g2134
ag2160
aa(lp3812
g2119
ag2407
aa(lp3813
g2123
ag2409
aa(lp3814
g2121
ag2408
aa(lp3815
g2116
ag2405
aatp3816
Rp3817
ag2772
((lp3818
(lp3819
g2134
ag2135
aa(lp3820
g2119
ag2428
aa(lp3821
g2123
ag2430
aa(lp3822
g2121
ag2429
aa(lp3823
g2116
ag2426
aatp3824
Rp3825
ag2772
((lp3826
(lp3827
g2134
ag2160
aa(lp3828
g2119
ag2449
aa(lp3829
g2123
ag2451
aa(lp3830
g2121
ag2450
aa(lp3831
g2116
ag2447
aatp3832
Rp3833
ag2772
((lp3834
(lp3835
g2134
ag2135
aa(lp3836
g2119
ag2470
aa(lp3837
g2123
ag2472
aa(lp3838
g2121
ag2471
aa(lp3839
g2116
ag2468
aatp3840
Rp3841
ag2772
((lp3842
(lp3843
g2134
ag2135
aa(lp3844
g2119
ag2491
aa(lp3845
g2123
ag2493
aa(lp3846
g2121
ag2492
aa(lp3847
g2116
ag2489
aatp3848
Rp3849
ag2772
((lp3850
(lp3851
g2134
ag2135
aa(lp3852
g2119
ag2512
aa(lp3853
g2123
ag2514
aa(lp3854
g2121
ag2513
aa(lp3855
g2116
ag2510
aatp3856
Rp3857
ag2772
((lp3858
(lp3859
g2134
ag2160
aa(lp3860
g2119
ag2533
aa(lp3861
g2123
ag2535
aa(lp3862
g2121
ag2534
aa(lp3863
g2116
ag2531
aatp3864
Rp3865
ag2772
((lp3866
(lp3867
g2134
ag2160
aa(lp3868
g2119
ag2554
aa(lp3869
g2123
ag2556
aa(lp3870
g2121
ag2555
aa(lp3871
g2116
ag2552
aatp3872
Rp3873
ag2772
((lp3874
(lp3875
g2134
ag2135
aa(lp3876
g2119
ag2575
aa(lp3877
g2123
ag2577
aa(lp3878
g2121
ag2576
aa(lp3879
g2116
ag2573
aatp3880
Rp3881
ag2772
((lp3882
(lp3883
g2134
ag2160
aa(lp3884
g2119
ag2596
aa(lp3885
g2123
ag2598
aa(lp3886
g2121
ag2597
aa(lp3887
g2116
ag2594
aatp3888
Rp3889
ag2772
((lp3890
(lp3891
g2134
ag2135
aa(lp3892
g2119
ag2617
aa(lp3893
g2123
ag2619
aa(lp3894
g2121
ag2618
aa(lp3895
g2116
ag2615
aatp3896
Rp3897
ag2772
((lp3898
(lp3899
g2134
ag2135
aa(lp3900
g2119
ag2638
aa(lp3901
g2123
ag2640
aa(lp3902
g2121
ag2639
aa(lp3903
g2116
ag2636
aatp3904
Rp3905
ag2772
((lp3906
(lp3907
g2134
ag2160
aa(lp3908
g2119
ag2659
aa(lp3909
g2123
ag2661
aa(lp3910
g2121
ag2660
aa(lp3911
g2116
ag2657
aatp3912
Rp3913
ag2772
((lp3914
(lp3915
g2134
ag2160
aa(lp3916
g2119
ag2680
aa(lp3917
g2123
ag2682
aa(lp3918
g2121
ag2681
aa(lp3919
g2116
ag2678
aatp3920
Rp3921
ag2772
((lp3922
(lp3923
g2134
ag2160
aa(lp3924
g2119
ag2701
aa(lp3925
g2123
ag2703
aa(lp3926
g2121
ag2702
aa(lp3927
g2116
ag2699
aatp3928
Rp3929
asg141
Nsg142
g2717
sg146
I28
sg147
I0
sg148
I28
sbasS'savePickle'
p3930
I00
sb.