ccopy_reg
_reconstructor
p0
(cpsychopy.data.experiment
ExperimentHandler
p1
c__builtin__
object
p2
Ntp3
Rp4
(dp5
S'originPath'
p6
VC:\u005cUsers\u005cadmin\u005cDocuments\u005cgit-repos\u005cpia_rita\u005cPia_Rita_2018_replication_sheb-pulv2013\u005cexp-scripts_psychopy\u005cpilot\u005csheb_replic_pilot_control.psyexp
p7
sS'dataFileName'
p8
VC:\u005cUsers\u005cadmin\u005cDocuments\u005cgit-repos\u005cpia_rita\u005cPia_Rita_2018_replication_sheb-pulv2013\u005cexp-scripts_psychopy\u005cpilot\u005cdata/912_sheb_replic_pilot_control_2018_Jun_20_0957
p9
sS'runtimeInfo'
p10
NsS'name'
p11
S'sheb_replic_pilot_control'
p12
sS'dataNames'
p13
(lp14
S'key_resp_13.keys'
p15
aS'key_resp_13.rt'
p16
aS'key_resp_6.keys'
p17
aS'key_resp_6.rt'
p18
aS'key_resp_2.keys'
p19
aS'key_resp_2.rt'
p20
aS'key_resp_8.keys'
p21
aS'key_resp_8.rt'
p22
aS'key_resp_7.keys'
p23
aS'key_resp_7.rt'
p24
aS'key_resp_3.keys'
p25
asS'autoLog'
p26
I01
sS'extraInfo'
p27
(dp28
S'date'
p29
V2018_Jun_20_0957
p30
sS'frameRate'
p31
cnumpy.core.multiarray
scalar
p32
(cnumpy
dtype
p33
(S'f8'
p34
I0
I1
tp35
Rp36
(I3
S'<'
p37
NNNI-1
I-1
I0
tp38
bS'\x03\xae\xfcTH\xcdM@'
p39
tp40
Rp41
sS'expName'
p42
g12
sVsession
p43
V001
p44
sVparticipant
p45
g0
(cfuture.types.newstr
newstr
p46
c__builtin__
unicode
p47
V912
p48
tp49
Rp50
ssS'loopsUnfinished'
p51
(lp52
g0
(cpsychopy.data.trial
TrialHandler
p53
g2
Ntp54
Rp55
(dp56
S'origin'
p57
NsS'thisTrial'
p58
NsS'_exp'
p59
I363499504
sg11
S'training_block'
p60
sg6
I-1
sS'thisRepN'
p61
I0
sg26
I01
sg27
g28
sS'data'
p62
g0
(cpsychopy.data.base
DataHandler
p63
c__builtin__
dict
p64
(dp65
S'ran'
p66
cnumpy.ma.core
_mareconstruct
p67
(cnumpy.ma.core
MaskedArray
p68
cnumpy
ndarray
p69
(I0
tp70
S'b'
p71
tp72
Rp73
(I1
(I1
I5
tp74
g33
(S'f4'
p75
I0
I1
tp76
Rp77
(I3
S'<'
p78
NNNI-1
I-1
I0
tp79
bI00
S'\x00\x00\x80?\x00\x00\x00\x00\x00\x00\x00\x00\x00\x00\x00\x00\x00\x00\x00\x00'
p80
S'\x00\x00\x00\x00\x00'
p81
Ntp82
bsg22
g67
(g68
g69
g70
g71
tp83
Rp84
(I1
(I1
I5
tp85
g77
I00
S'\x14\xa2\xe4@\x00\x00\x00\x00\x00\x00\x00\x00\x00\x00\x00\x00\x00\x00\x00\x00'
p86
S'\x00\x01\x01\x01\x01'
p87
Ntp88
bsg21
cnumpy.core.multiarray
_reconstruct
p89
(g69
(I0
tp90
g71
tp91
Rp92
(I1
(I1
I5
tp93
g33
(S'O4'
p94
I0
I1
tp95
Rp96
(I3
S'|'
p97
NNNI-1
I-1
I63
tp98
bI00
(lp99
S's'
p100
aS'--'
p101
aS'--'
p102
aS'--'
p103
aS'--'
p104
atp105
bsS'order'
p106
g67
(g68
g69
g70
g71
tp107
Rp108
(I1
(I1
I5
tp109
g77
I00
S'\x00\x00\x00\x00\x00\x00\x00\x00\x00\x00\x00\x00\x00\x00\x00\x00\x00\x00\x00\x00'
p110
S'\x00\x01\x01\x01\x01'
p111
Ntp112
bstp113
Rp114
(dp115
S'isNumeric'
p116
(dp117
g66
I01
sg22
I01
sg21
I00
sg106
I01
ssS'trials'
p118
g55
sS'dataTypes'
p119
(lp120
g66
ag106
ag21
ag22
asS'dataShape'
p121
(lp122
I1
aI5
asbsS'method'
p123
S'random'
p124
sS'sequenceIndices'
p125
g89
(g69
(I0
tp126
g71
tp127
Rp128
(I1
(I1
I5
tp129
g33
(S'i4'
p130
I0
I1
tp131
Rp132
(I3
S'<'
p133
NNNI-1
I-1
I0
tp134
bI00
S'\x00\x00\x00\x00\x00\x00\x00\x00\x00\x00\x00\x00\x00\x00\x00\x00\x00\x00\x00\x00'
p135
tp136
bsS'finished'
p137
I00
sS'nReps'
p138
I5
sS'nRemaining'
p139
I4
sS'trialList'
p140
(lp141
NasS'seed'
p142
NsS'thisIndex'
p143
g32
(g132
S'\x00\x00\x00\x00'
p144
tp145
Rp146
sS'thisN'
p147
I0
sS'thisTrialN'
p148
I0
sS'nTotal'
p149
I5
sbasS'saveWideText'
p150
I00
sS'thisEntry'
p151
(dp152
sS'version'
p153
S''
p154
sS'_paramNamesSoFar'
p155
(lp156
S'item'
p157
aS'type'
p158
aS'word1'
p159
aS'word2'
p160
aS'word3'
p161
aS'word4'
p162
aS'word_duration'
p163
aS'follow_blank'
p164
aS'SOA'
p165
asS'entries'
p166
(lp167
(dp168
g43
g44
sg42
g12
sg45
g50
sg15
S'space'
p169
sg29
g30
sg31
g41
sg16
F967.5057221890548
sa(dp170
g43
g44
sg42
g12
sg45
g50
sg29
g30
sg17
S'space'
p171
sg31
g41
sg18
F3.0195864219456325
sa(dp172
S'training_block.thisRepN'
p173
I0
sg20
F7.094801648559269
sS'training_block.thisN'
p174
I0
sS'word_presentation_training.thisTrialN'
p175
I0
sg43
g44
sg162
Vsoothe
p176
sS'word_presentation_training.thisRepN'
p177
I0
sg45
g50
sg31
g41
sS'training_block.thisTrialN'
p178
I0
sg19
S'space'
p179
sg157
g32
(g33
(S'i8'
p180
I0
I1
tp181
Rp182
(I3
S'<'
p183
NNNI-1
I-1
I0
tp184
bS'\x03\x00\x00\x00\x00\x00\x00\x00'
p185
tp186
Rp187
sg42
g12
sg159
Vlick
p188
sS'word_presentation_training.thisIndex'
p189
g32
(g132
S'\x02\x00\x00\x00'
p190
tp191
Rp192
sg161
Vchew
p193
sg160
Vruin
p194
sg29
g30
sS'word_presentation_training.thisN'
p195
I0
sg158
Vtraining
p196
sS'training_block.thisIndex'
p197
g146
sa(dp198
S'training_block.thisRepN'
p199
I0
sg20
F8.93896726785374
sS'training_block.thisN'
p200
I0
sS'word_presentation_training.thisTrialN'
p201
I1
sg43
g44
sg162
Vsigh
p202
sS'word_presentation_training.thisRepN'
p203
I0
sg45
g50
sg31
g41
sS'training_block.thisTrialN'
p204
I0
sg19
S'space'
p205
sg157
g32
(g182
S'\x01\x00\x00\x00\x00\x00\x00\x00'
p206
tp207
Rp208
sg42
g12
sg159
Vwait
p209
sS'word_presentation_training.thisIndex'
p210
g32
(g132
S'\x00\x00\x00\x00'
p211
tp212
Rp213
sg161
Vblush
p214
sg160
Vbless
p215
sg29
g30
sS'word_presentation_training.thisN'
p216
I1
sg158
g196
sS'training_block.thisIndex'
p217
g146
sa(dp218
S'training_block.thisRepN'
p219
I0
sg20
F7.229514207583861
sS'training_block.thisN'
p220
I0
sS'word_presentation_training.thisTrialN'
p221
I2
sg43
g44
sg162
Vprint
p222
sS'word_presentation_training.thisRepN'
p223
I0
sg45
g50
sg31
g41
sS'training_block.thisTrialN'
p224
I0
sg19
S'space'
p225
sg157
g32
(g182
S'\x04\x00\x00\x00\x00\x00\x00\x00'
p226
tp227
Rp228
sg42
g12
sg159
Vsave
p229
sS'word_presentation_training.thisIndex'
p230
g32
(g132
S'\x03\x00\x00\x00'
p231
tp232
Rp233
sg161
Vstay
p234
sg160
Vlook
p235
sg29
g30
sS'word_presentation_training.thisN'
p236
I2
sg158
g196
sS'training_block.thisIndex'
p237
g146
sa(dp238
S'training_block.thisRepN'
p239
I0
sg20
F8.453475135888539
sS'training_block.thisN'
p240
I0
sS'word_presentation_training.thisTrialN'
p241
I3
sg43
g44
sg162
Vyell
p242
sS'word_presentation_training.thisRepN'
p243
I0
sg45
g50
sg31
g41
sS'training_block.thisTrialN'
p244
I0
sg19
S'space'
p245
sg157
g32
(g182
S'\x02\x00\x00\x00\x00\x00\x00\x00'
p246
tp247
Rp248
sg42
g12
sg159
Vlike
p249
sS'word_presentation_training.thisIndex'
p250
g32
(g132
S'\x01\x00\x00\x00'
p251
tp252
Rp253
sg161
Vstare
p254
sg160
Vthank
p255
sg29
g30
sS'word_presentation_training.thisN'
p256
I3
sg158
g196
sS'training_block.thisIndex'
p257
g146
sa(dp258
S'training_block.thisRepN'
p259
I0
sS'training_block.thisN'
p260
I0
sg43
g44
sg24
F1.4420678981737183
sg31
g41
sS'training_block.thisTrialN'
p261
I0
sg22
F7.144785113181342
sg42
g12
sg21
g100
sg23
S'space'
p262
sg29
g30
sg45
g50
sS'training_block.thisIndex'
p263
g146
sa(dp264
S'training_block.thisRepN'
p265
I0
sg164
g32
(g36
S'\x9a\x99\x99\x99\x99\x99\xd9?'
p266
tp267
Rp268
sg31
g41
sS'word4'
p269
Vtoss
p270
sS'experimental_blocks.thisN'
p271
I0
sg43
g44
sS'word1'
p272
Vlift
p273
sS'word3'
p274
Vshake
p275
sS'word2'
p276
Vwhip
p277
sS'experimental_blocks.thisIndex'
p278
g32
(g132
S'\x03\x00\x00\x00'
p279
tp280
Rp281
sS'word_presentation.thisRepN'
p282
I0
sS'experimental_blocks.thisRepN'
p283
I0
sg45
g50
sg163
g32
(g36
S'\x9a\x99\x99\x99\x99\x99\xd9?'
p284
tp285
Rp286
sS'type'
p287
Varm
p288
sS'training_block.thisIndex'
p289
g146
sg165
g32
(g36
S'\x9a\x99\x99\x99\x99\x99\xe9?'
p290
tp291
Rp292
sg20
F11.085933391467279
sS'experimental_blocks.thisTrialN'
p293
I0
sS'training_block.thisN'
p294
I0
sS'word_presentation.thisN'
p295
I0
sS'training_block.thisTrialN'
p296
I0
sg19
S'space'
p297
sg29
g30
sS'word_presentation.thisTrialN'
p298
I0
sg42
g12
sS'word_presentation.thisIndex'
p299
g32
(g132
S'\x00\x00\x00\x00'
p300
tp301
Rp302
sa(dp303
S'training_block.thisRepN'
p304
I0
sg164
g268
sg31
g41
sg269
Vmount
p305
sS'experimental_blocks.thisN'
p306
I0
sg43
g44
sg272
Vrun
p307
sg274
Vwobble
p308
sg276
Vroam
p309
sS'experimental_blocks.thisIndex'
p310
g281
sS'word_presentation.thisRepN'
p311
I0
sS'experimental_blocks.thisRepN'
p312
I0
sg45
g50
sg163
g286
sg287
Vleg
p313
sS'training_block.thisIndex'
p314
g146
sg165
g292
sg20
F11.05284801636708
sS'experimental_blocks.thisTrialN'
p315
I0
sS'training_block.thisN'
p316
I0
sS'word_presentation.thisN'
p317
I1
sS'training_block.thisTrialN'
p318
I0
sg19
S'space'
p319
sg29
g30
sS'word_presentation.thisTrialN'
p320
I1
sg42
g12
sS'word_presentation.thisIndex'
p321
g32
(g132
S'\x01\x00\x00\x00'
p322
tp323
Rp324
sa(dp325
S'training_block.thisRepN'
p326
I0
sg164
g268
sg31
g41
sg269
Vclutch
p327
sS'experimental_blocks.thisN'
p328
I0
sg43
g44
sg272
Vpinch
p329
sg274
Vpat
p330
sg276
Vclaw
p331
sS'experimental_blocks.thisIndex'
p332
g281
sS'word_presentation.thisRepN'
p333
I0
sS'experimental_blocks.thisRepN'
p334
I0
sg45
g50
sg163
g286
sg287
g288
sS'training_block.thisIndex'
p335
g146
sg165
g292
sg20
F14.859474969151734
sS'experimental_blocks.thisTrialN'
p336
I0
sS'training_block.thisN'
p337
I0
sS'word_presentation.thisN'
p338
I2
sS'training_block.thisTrialN'
p339
I0
sg19
S'space'
p340
sg29
g30
sS'word_presentation.thisTrialN'
p341
I2
sg42
g12
sS'word_presentation.thisIndex'
p342
g32
(g132
S'\x02\x00\x00\x00'
p343
tp344
Rp345
sa(dp346
S'training_block.thisRepN'
p347
I0
sg164
g268
sg31
g41
sg269
Vwalk
p348
sS'experimental_blocks.thisN'
p349
I0
sg43
g44
sg272
Vrush
p350
sg274
Vtrek
p351
sg276
Vtrot
p352
sS'experimental_blocks.thisIndex'
p353
g281
sS'word_presentation.thisRepN'
p354
I0
sS'experimental_blocks.thisRepN'
p355
I0
sg45
g50
sg163
g286
sg287
g313
sS'training_block.thisIndex'
p356
g146
sg165
g292
sg20
F8.35250897197352
sS'experimental_blocks.thisTrialN'
p357
I0
sS'training_block.thisN'
p358
I0
sS'word_presentation.thisN'
p359
I3
sS'training_block.thisTrialN'
p360
I0
sg19
S'space'
p361
sg29
g30
sS'word_presentation.thisTrialN'
p362
I3
sg42
g12
sS'word_presentation.thisIndex'
p363
g32
(g132
S'\x03\x00\x00\x00'
p364
tp365
Rp366
sa(dp367
S'training_block.thisRepN'
p368
I0
sg164
g268
sg31
g41
sg269
Vgrasp
p369
sS'experimental_blocks.thisN'
p370
I0
sg43
g44
sg272
Vfile
p371
sg274
Vtug
p372
sg276
Vslap
p373
sS'experimental_blocks.thisIndex'
p374
g281
sS'word_presentation.thisRepN'
p375
I0
sS'experimental_blocks.thisRepN'
p376
I0
sg45
g50
sg163
g286
sg287
g288
sS'training_block.thisIndex'
p377
g146
sg165
g292
sg20
F13.618257981135002
sS'experimental_blocks.thisTrialN'
p378
I0
sS'training_block.thisN'
p379
I0
sS'word_presentation.thisN'
p380
I4
sS'training_block.thisTrialN'
p381
I0
sg19
S'space'
p382
sg29
g30
sS'word_presentation.thisTrialN'
p383
I4
sg42
g12
sS'word_presentation.thisIndex'
p384
g32
(g132
S'\x04\x00\x00\x00'
p385
tp386
Rp387
sa(dp388
S'training_block.thisRepN'
p389
I0
sg164
g268
sg31
g41
sg269
Vkick
p390
sS'experimental_blocks.thisN'
p391
I0
sg43
g44
sg272
Vleap
p392
sg274
Vstep
p393
sg276
Vglide
p394
sS'experimental_blocks.thisIndex'
p395
g281
sS'word_presentation.thisRepN'
p396
I0
sS'experimental_blocks.thisRepN'
p397
I0
sg45
g50
sg163
g286
sg287
g313
sS'training_block.thisIndex'
p398
g146
sg165
g292
sg20
F5.282859668178162
sS'experimental_blocks.thisTrialN'
p399
I0
sS'training_block.thisN'
p400
I0
sS'word_presentation.thisN'
p401
I5
sS'training_block.thisTrialN'
p402
I0
sg19
S'space'
p403
sg29
g30
sS'word_presentation.thisTrialN'
p404
I5
sg42
g12
sS'word_presentation.thisIndex'
p405
g32
(g132
S'\x05\x00\x00\x00'
p406
tp407
Rp408
sa(dp409
S'training_block.thisRepN'
p410
I0
sg164
g268
sg31
g41
sg269
Vdunk
p411
sS'experimental_blocks.thisN'
p412
I0
sg43
g44
sg272
Vwipe
p413
sg274
Vcut
p414
sg276
Vfold
p415
sS'experimental_blocks.thisIndex'
p416
g281
sS'word_presentation.thisRepN'
p417
I0
sS'experimental_blocks.thisRepN'
p418
I0
sg45
g50
sg163
g286
sg287
g288
sS'training_block.thisIndex'
p419
g146
sg165
g292
sg20
F7.195161712836125
sS'experimental_blocks.thisTrialN'
p420
I0
sS'training_block.thisN'
p421
I0
sS'word_presentation.thisN'
p422
I6
sS'training_block.thisTrialN'
p423
I0
sg19
S'space'
p424
sg29
g30
sS'word_presentation.thisTrialN'
p425
I6
sg42
g12
sS'word_presentation.thisIndex'
p426
g32
(g132
S'\x06\x00\x00\x00'
p427
tp428
Rp429
sa(dp430
S'training_block.thisRepN'
p431
I0
sg164
g268
sg31
g41
sg269
Vscrub
p432
sS'experimental_blocks.thisN'
p433
I0
sg43
g44
sg272
Vclick
p434
sg274
Vswitch
p435
sg276
Vchop
p436
sS'experimental_blocks.thisIndex'
p437
g281
sS'word_presentation.thisRepN'
p438
I0
sS'experimental_blocks.thisRepN'
p439
I0
sg45
g50
sg163
g286
sg287
g288
sS'training_block.thisIndex'
p440
g146
sg165
g292
sg20
F7.714169495329315
sS'experimental_blocks.thisTrialN'
p441
I0
sS'training_block.thisN'
p442
I0
sS'word_presentation.thisN'
p443
I7
sS'training_block.thisTrialN'
p444
I0
sg19
S'space'
p445
sg29
g30
sS'word_presentation.thisTrialN'
p446
I7
sg42
g12
sS'word_presentation.thisIndex'
p447
g32
(g132
S'\x07\x00\x00\x00'
p448
tp449
Rp450
sa(dp451
S'training_block.thisRepN'
p452
I0
sg164
g268
sg31
g41
sg269
Vwander
p453
sS'experimental_blocks.thisN'
p454
I0
sg43
g44
sg272
Vtraipse
p455
sg274
Vjump
p456
sg276
Vtiptoe
p457
sS'experimental_blocks.thisIndex'
p458
g281
sS'word_presentation.thisRepN'
p459
I0
sS'experimental_blocks.thisRepN'
p460
I0
sg45
g50
sg163
g286
sg287
g313
sS'training_block.thisIndex'
p461
g146
sg165
g292
sg20
F18.498542239494782
sS'experimental_blocks.thisTrialN'
p462
I0
sS'training_block.thisN'
p463
I0
sS'word_presentation.thisN'
p464
I8
sS'training_block.thisTrialN'
p465
I0
sg19
S'space'
p466
sg29
g30
sS'word_presentation.thisTrialN'
p467
I8
sg42
g12
sS'word_presentation.thisIndex'
p468
g32
(g132
S'\x08\x00\x00\x00'
p469
tp470
Rp471
sa(dp472
S'training_block.thisRepN'
p473
I0
sg164
g268
sg31
g41
sg269
Vtwine
p474
sS'experimental_blocks.thisN'
p475
I0
sg43
g44
sg272
Vknock
p476
sg274
Vbind
p477
sg276
Vpunch
p478
sS'experimental_blocks.thisIndex'
p479
g281
sS'word_presentation.thisRepN'
p480
I0
sS'experimental_blocks.thisRepN'
p481
I0
sg45
g50
sg163
g286
sg287
g288
sS'training_block.thisIndex'
p482
g146
sg165
g292
sg20
F7.479968485979725
sS'experimental_blocks.thisTrialN'
p483
I0
sS'training_block.thisN'
p484
I0
sS'word_presentation.thisN'
p485
I9
sS'training_block.thisTrialN'
p486
I0
sg19
S'space'
p487
sg29
g30
sS'word_presentation.thisTrialN'
p488
I9
sg42
g12
sS'word_presentation.thisIndex'
p489
g32
(g132
S'\t\x00\x00\x00'
p490
tp491
Rp492
sa(dp493
S'training_block.thisRepN'
p494
I0
sg164
g268
sg31
g41
sg269
Vskim
p495
sS'experimental_blocks.thisN'
p496
I0
sg43
g44
sg272
Vpull
p497
sg274
Vgrab
p498
sg276
Vbrush
p499
sS'experimental_blocks.thisIndex'
p500
g281
sS'word_presentation.thisRepN'
p501
I0
sS'experimental_blocks.thisRepN'
p502
I0
sg45
g50
sg163
g286
sg287
g288
sS'training_block.thisIndex'
p503
g146
sg165
g292
sg20
F12.611756436450378
sS'experimental_blocks.thisTrialN'
p504
I0
sS'training_block.thisN'
p505
I0
sS'word_presentation.thisN'
p506
I10
sS'training_block.thisTrialN'
p507
I0
sg19
S'space'
p508
sg29
g30
sS'word_presentation.thisTrialN'
p509
I10
sg42
g12
sS'word_presentation.thisIndex'
p510
g32
(g132
S'\n\x00\x00\x00'
p511
tp512
Rp513
sa(dp514
S'training_block.thisRepN'
p515
I0
sg164
g268
sg31
g41
sg269
Vsnatch
p516
sS'experimental_blocks.thisN'
p517
I0
sg43
g44
sg272
Vwash
p518
sg274
Vclean
p519
sg276
Vscratch
p520
sS'experimental_blocks.thisIndex'
p521
g281
sS'word_presentation.thisRepN'
p522
I0
sS'experimental_blocks.thisRepN'
p523
I0
sg45
g50
sg163
g286
sg287
g288
sS'training_block.thisIndex'
p524
g146
sg165
g292
sg20
F7.195732252521566
sS'experimental_blocks.thisTrialN'
p525
I0
sS'training_block.thisN'
p526
I0
sS'word_presentation.thisN'
p527
I11
sS'training_block.thisTrialN'
p528
I0
sg19
S'space'
p529
sg29
g30
sS'word_presentation.thisTrialN'
p530
I11
sg42
g12
sS'word_presentation.thisIndex'
p531
g32
(g132
S'\x0b\x00\x00\x00'
p532
tp533
Rp534
sa(dp535
S'training_block.thisRepN'
p536
I0
sg164
g268
sg31
g41
sg269
Vroll
p537
sS'experimental_blocks.thisN'
p538
I0
sg43
g44
sg272
Vramble
p539
sg274
Vstray
p540
sg276
Vtread
p541
sS'experimental_blocks.thisIndex'
p542
g281
sS'word_presentation.thisRepN'
p543
I0
sS'experimental_blocks.thisRepN'
p544
I0
sg45
g50
sg163
g286
sg287
g313
sS'training_block.thisIndex'
p545
g146
sg165
g292
sg20
F17.823242143127118
sS'experimental_blocks.thisTrialN'
p546
I0
sS'training_block.thisN'
p547
I0
sS'word_presentation.thisN'
p548
I12
sS'training_block.thisTrialN'
p549
I0
sg19
S'space'
p550
sg29
g30
sS'word_presentation.thisTrialN'
p551
I12
sg42
g12
sS'word_presentation.thisIndex'
p552
g32
(g132
S'\x0c\x00\x00\x00'
p553
tp554
Rp555
sa(dp556
S'training_block.thisRepN'
p557
I0
sg164
g268
sg31
g41
sg269
Vskip
p558
sS'experimental_blocks.thisN'
p559
I0
sg43
g44
sg272
Vmarch
p560
sg274
Vjog
p561
sg276
Vwade
p562
sS'experimental_blocks.thisIndex'
p563
g281
sS'word_presentation.thisRepN'
p564
I0
sS'experimental_blocks.thisRepN'
p565
I0
sg45
g50
sg163
g286
sg287
g313
sS'training_block.thisIndex'
p566
g146
sg165
g292
sg20
F4.695031523898024
sS'experimental_blocks.thisTrialN'
p567
I0
sS'training_block.thisN'
p568
I0
sS'word_presentation.thisN'
p569
I13
sS'training_block.thisTrialN'
p570
I0
sg19
S'space'
p571
sg29
g30
sS'word_presentation.thisTrialN'
p572
I13
sg42
g12
sS'word_presentation.thisIndex'
p573
g32
(g132
S'\r\x00\x00\x00'
p574
tp575
Rp576
sa(dp577
S'training_block.thisRepN'
p578
I0
sg164
g268
sg31
g41
sg269
Vcarve
p579
sS'experimental_blocks.thisN'
p580
I0
sg43
g44
sg272
Vstir
p581
sg274
Vstab
p582
sg276
Vscoop
p583
sS'experimental_blocks.thisIndex'
p584
g281
sS'word_presentation.thisRepN'
p585
I0
sS'experimental_blocks.thisRepN'
p586
I0
sg45
g50
sg163
g286
sg287
g288
sS'training_block.thisIndex'
p587
g146
sg165
g292
sg20
F4.142732118579033
sS'experimental_blocks.thisTrialN'
p588
I0
sS'training_block.thisN'
p589
I0
sS'word_presentation.thisN'
p590
I14
sS'training_block.thisTrialN'
p591
I0
sg19
S'space'
p592
sg29
g30
sS'word_presentation.thisTrialN'
p593
I14
sg42
g12
sS'word_presentation.thisIndex'
p594
g32
(g132
S'\x0e\x00\x00\x00'
p595
tp596
Rp597
sa(dp598
S'training_block.thisRepN'
p599
I0
sg164
g268
sg31
g41
sg269
Vslide
p600
sS'experimental_blocks.thisN'
p601
I0
sg43
g44
sg272
Vslither
p602
sg274
Vhike
p603
sg276
Vkneel
p604
sS'experimental_blocks.thisIndex'
p605
g281
sS'word_presentation.thisRepN'
p606
I0
sS'experimental_blocks.thisRepN'
p607
I0
sg45
g50
sg163
g286
sg287
g313
sS'training_block.thisIndex'
p608
g146
sg165
g292
sg20
F15.916182030607843
sS'experimental_blocks.thisTrialN'
p609
I0
sS'training_block.thisN'
p610
I0
sS'word_presentation.thisN'
p611
I15
sS'training_block.thisTrialN'
p612
I0
sg19
S'space'
p613
sg29
g30
sS'word_presentation.thisTrialN'
p614
I15
sg42
g12
sS'word_presentation.thisIndex'
p615
g32
(g132
S'\x0f\x00\x00\x00'
p616
tp617
Rp618
sa(dp619
S'training_block.thisRepN'
p620
I0
sg164
g268
sg31
g41
sg269
Vseize
p621
sS'experimental_blocks.thisN'
p622
I0
sg43
g44
sg272
Vrub
p623
sg274
Vcatch
p624
sg276
Vbraid
p625
sS'experimental_blocks.thisIndex'
p626
g281
sS'word_presentation.thisRepN'
p627
I0
sS'experimental_blocks.thisRepN'
p628
I0
sg45
g50
sg163
g286
sg287
g288
sS'training_block.thisIndex'
p629
g146
sg165
g292
sg20
F10.901262259787472
sS'experimental_blocks.thisTrialN'
p630
I0
sS'training_block.thisN'
p631
I0
sS'word_presentation.thisN'
p632
I16
sS'training_block.thisTrialN'
p633
I0
sg19
S'space'
p634
sg29
g30
sS'word_presentation.thisTrialN'
p635
I16
sg42
g12
sS'word_presentation.thisIndex'
p636
g32
(g132
S'\x10\x00\x00\x00'
p637
tp638
Rp639
sa(dp640
S'training_block.thisRepN'
p641
I0
sg164
g268
sg31
g41
sg269
Vprance
p642
sS'experimental_blocks.thisN'
p643
I0
sg43
g44
sg272
Vskate
p644
sg274
Vflit
p645
sg276
Vtrudge
p646
sS'experimental_blocks.thisIndex'
p647
g281
sS'word_presentation.thisRepN'
p648
I0
sS'experimental_blocks.thisRepN'
p649
I0
sg45
g50
sg163
g286
sg287
g313
sS'training_block.thisIndex'
p650
g146
sg165
g292
sg20
F17.30801082761036
sS'experimental_blocks.thisTrialN'
p651
I0
sS'training_block.thisN'
p652
I0
sS'word_presentation.thisN'
p653
I17
sS'training_block.thisTrialN'
p654
I0
sg19
S'space'
p655
sg29
g30
sS'word_presentation.thisTrialN'
p656
I17
sg42
g12
sS'word_presentation.thisIndex'
p657
g32
(g132
S'\x11\x00\x00\x00'
p658
tp659
Rp660
sa(dp661
S'training_block.thisRepN'
p662
I0
sg164
g268
sg31
g41
sg269
Vstamp
p663
sS'experimental_blocks.thisN'
p664
I0
sg43
g44
sg272
Vcreep
p665
sg274
Vstagger
p666
sg276
Vstroll
p667
sS'experimental_blocks.thisIndex'
p668
g281
sS'word_presentation.thisRepN'
p669
I0
sS'experimental_blocks.thisRepN'
p670
I0
sg45
g50
sg163
g286
sg287
g313
sS'training_block.thisIndex'
p671
g146
sg165
g292
sg20
F7.077789372078314
sS'experimental_blocks.thisTrialN'
p672
I0
sS'training_block.thisN'
p673
I0
sS'word_presentation.thisN'
p674
I18
sS'training_block.thisTrialN'
p675
I0
sg19
S'space'
p676
sg29
g30
sS'word_presentation.thisTrialN'
p677
I18
sg42
g12
sS'word_presentation.thisIndex'
p678
g32
(g132
S'\x12\x00\x00\x00'
p679
tp680
Rp681
sa(dp682
S'training_block.thisRepN'
p683
I0
sg164
g268
sg31
g41
sg269
Vslip
p684
sS'experimental_blocks.thisN'
p685
I0
sg43
g44
sg272
Vcrawl
p686
sg274
Vflee
p687
sg276
Vplod
p688
sS'experimental_blocks.thisIndex'
p689
g281
sS'word_presentation.thisRepN'
p690
I0
sS'experimental_blocks.thisRepN'
p691
I0
sg45
g50
sg163
g286
sg287
g313
sS'training_block.thisIndex'
p692
g146
sg165
g292
sg20
F16.268292336000513
sS'experimental_blocks.thisTrialN'
p693
I0
sS'training_block.thisN'
p694
I0
sS'word_presentation.thisN'
p695
I19
sS'training_block.thisTrialN'
p696
I0
sg19
S'space'
p697
sg29
g30
sS'word_presentation.thisTrialN'
p698
I19
sg42
g12
sS'word_presentation.thisIndex'
p699
g32
(g132
S'\x13\x00\x00\x00'
p700
tp701
Rp702
sa(dp703
S'training_block.thisRepN'
p704
I0
sg164
g268
sg31
g41
sg269
Vgrate
p705
sS'experimental_blocks.thisN'
p706
I0
sg43
g44
sg272
Vpush
p707
sg274
Vdelve
p708
sg276
Vclap
p709
sS'experimental_blocks.thisIndex'
p710
g281
sS'word_presentation.thisRepN'
p711
I0
sS'experimental_blocks.thisRepN'
p712
I0
sg45
g50
sg163
g286
sg287
g288
sS'training_block.thisIndex'
p713
g146
sg165
g292
sg20
F18.213740602788675
sS'experimental_blocks.thisTrialN'
p714
I0
sS'training_block.thisN'
p715
I0
sS'word_presentation.thisN'
p716
I20
sS'training_block.thisTrialN'
p717
I0
sg19
S'space'
p718
sg29
g30
sS'word_presentation.thisTrialN'
p719
I20
sg42
g12
sS'word_presentation.thisIndex'
p720
g32
(g132
S'\x14\x00\x00\x00'
p721
tp722
Rp723
sa(dp724
S'training_block.thisRepN'
p725
I0
sg164
g268
sg31
g41
sg269
Vinch
p726
sS'experimental_blocks.thisN'
p727
I0
sg43
g44
sg272
Vhop
p728
sg274
Vstrut
p729
sg276
Vlimp
p730
sS'experimental_blocks.thisIndex'
p731
g281
sS'word_presentation.thisRepN'
p732
I0
sS'experimental_blocks.thisRepN'
p733
I0
sg45
g50
sg163
g286
sg287
g313
sS'training_block.thisIndex'
p734
g146
sg165
g292
sg20
F7.044350373004136
sS'experimental_blocks.thisTrialN'
p735
I0
sS'training_block.thisN'
p736
I0
sS'word_presentation.thisN'
p737
I21
sS'training_block.thisTrialN'
p738
I0
sg19
S'space'
p739
sg29
g30
sS'word_presentation.thisTrialN'
p740
I21
sg42
g12
sS'word_presentation.thisIndex'
p741
g32
(g132
S'\x15\x00\x00\x00'
p742
tp743
Rp744
sa(dp745
S'training_block.thisRepN'
p746
I0
sg164
g268
sg31
g41
sg269
Vstumble
p747
sS'experimental_blocks.thisN'
p748
I0
sg43
g44
sg272
Vclimb
p749
sg274
Vdance
p750
sg276
Vsprint
p751
sS'experimental_blocks.thisIndex'
p752
g281
sS'word_presentation.thisRepN'
p753
I0
sS'experimental_blocks.thisRepN'
p754
I0
sg45
g50
sg163
g286
sg287
g313
sS'training_block.thisIndex'
p755
g146
sg165
g292
sg20
F39.14311102963052
sS'experimental_blocks.thisTrialN'
p756
I0
sS'training_block.thisN'
p757
I0
sS'word_presentation.thisN'
p758
I22
sS'training_block.thisTrialN'
p759
I0
sg19
S'space'
p760
sg29
g30
sS'word_presentation.thisTrialN'
p761
I22
sg42
g12
sS'word_presentation.thisIndex'
p762
g32
(g132
S'\x16\x00\x00\x00'
p763
tp764
Rp765
sa(dp766
S'training_block.thisRepN'
p767
I0
sg164
g268
sg31
g41
sg269
Vhack
p768
sS'experimental_blocks.thisN'
p769
I0
sg43
g44
sg272
Vpeel
p770
sg274
Vnip
p771
sg276
Vgrip
p772
sS'experimental_blocks.thisIndex'
p773
g281
sS'word_presentation.thisRepN'
p774
I0
sS'experimental_blocks.thisRepN'
p775
I0
sg45
g50
sg163
g286
sg287
g288
sS'training_block.thisIndex'
p776
g146
sg165
g292
sg20
F4.6459722229355975
sS'experimental_blocks.thisTrialN'
p777
I0
sS'training_block.thisN'
p778
I0
sS'word_presentation.thisN'
p779
I23
sS'training_block.thisTrialN'
p780
I0
sg19
S'space'
p781
sg29
g30
sS'word_presentation.thisTrialN'
p782
I23
sg42
g12
sS'word_presentation.thisIndex'
p783
g32
(g132
S'\x17\x00\x00\x00'
p784
tp785
Rp786
sa(dp787
S'training_block.thisRepN'
p788
I0
sg164
g268
sg31
g41
sg269
Vscrape
p789
sS'experimental_blocks.thisN'
p790
I0
sg43
g44
sg272
Vpolish
p791
sg274
Vpoke
p792
sg276
Vsqueeze
p793
sS'experimental_blocks.thisIndex'
p794
g281
sS'word_presentation.thisRepN'
p795
I0
sS'experimental_blocks.thisRepN'
p796
I0
sg45
g50
sg163
g286
sg287
g288
sS'training_block.thisIndex'
p797
g146
sg165
g292
sg20
F15.161460755443613
sS'experimental_blocks.thisTrialN'
p798
I0
sS'training_block.thisN'
p799
I0
sS'word_presentation.thisN'
p800
I24
sS'training_block.thisTrialN'
p801
I0
sg19
S'space'
p802
sg29
g30
sS'word_presentation.thisTrialN'
p803
I24
sg42
g12
sS'word_presentation.thisIndex'
p804
g32
(g132
S'\x18\x00\x00\x00'
p805
tp806
Rp807
sa(dp808
S'training_block.thisRepN'
p809
I0
sg164
g268
sg31
g41
sg269
Vsway
p810
sS'experimental_blocks.thisN'
p811
I0
sg43
g44
sg272
Vscuff
p812
sg274
Vpace
p813
sg276
Vstride
p814
sS'experimental_blocks.thisIndex'
p815
g281
sS'word_presentation.thisRepN'
p816
I0
sS'experimental_blocks.thisRepN'
p817
I0
sg45
g50
sg163
g286
sg287
g313
sS'training_block.thisIndex'
p818
g146
sg165
g292
sg20
F22.355519714635193
sS'experimental_blocks.thisTrialN'
p819
I0
sS'training_block.thisN'
p820
I0
sS'word_presentation.thisN'
p821
I25
sS'training_block.thisTrialN'
p822
I0
sg19
S'space'
p823
sg29
g30
sS'word_presentation.thisTrialN'
p824
I25
sg42
g12
sS'word_presentation.thisIndex'
p825
g32
(g132
S'\x19\x00\x00\x00'
p826
tp827
Rp828
sa(dp829
S'training_block.thisRepN'
p830
I0
sg164
g268
sg31
g41
sg269
Vsneak
p831
sS'experimental_blocks.thisN'
p832
I0
sg43
g44
sg272
Vtrip
p833
sg274
Vstomp
p834
sg276
Vbounce
p835
sS'experimental_blocks.thisIndex'
p836
g281
sS'word_presentation.thisRepN'
p837
I0
sS'experimental_blocks.thisRepN'
p838
I0
sg45
g50
sg163
g286
sg287
g313
sS'training_block.thisIndex'
p839
g146
sg165
g292
sg20
F16.637205114153403
sS'experimental_blocks.thisTrialN'
p840
I0
sS'training_block.thisN'
p841
I0
sS'word_presentation.thisN'
p842
I26
sS'training_block.thisTrialN'
p843
I0
sg19
S'space'
p844
sg29
g30
sS'word_presentation.thisTrialN'
p845
I26
sg42
g12
sS'word_presentation.thisIndex'
p846
g32
(g132
S'\x1a\x00\x00\x00'
p847
tp848
Rp849
sa(dp850
S'training_block.thisRepN'
p851
I0
sg164
g268
sg31
g41
sg269
Vthrow
p852
sS'experimental_blocks.thisN'
p853
I0
sg43
g44
sg272
Vbash
p854
sg274
Vwrap
p855
sg276
Vdig
p856
sS'experimental_blocks.thisIndex'
p857
g281
sS'word_presentation.thisRepN'
p858
I0
sS'experimental_blocks.thisRepN'
p859
I0
sg45
g50
sg163
g286
sg287
g288
sS'training_block.thisIndex'
p860
g146
sg165
g292
sg20
F19.01883452650145
sS'experimental_blocks.thisTrialN'
p861
I0
sS'training_block.thisN'
p862
I0
sS'word_presentation.thisN'
p863
I27
sS'training_block.thisTrialN'
p864
I0
sg19
S'space'
p865
sg29
g30
sS'word_presentation.thisTrialN'
p866
I27
sg42
g12
sS'word_presentation.thisIndex'
p867
g32
(g132
S'\x1b\x00\x00\x00'
p868
tp869
Rp870
sa(dp871
S'training_block.thisRepN'
p872
I0
sg164
g268
sS'experimental_blocks.thisRepN'
p873
I0
sS'experimental_blocks.thisTrialN'
p874
I0
sS'training_block.thisN'
p875
I0
sg43
g44
sg42
g12
sg31
g41
sS'training_block.thisTrialN'
p876
I0
sg45
g50
sS'experimental_blocks.thisN'
p877
I0
sg165
g292
sg29
g30
sS'experimental_blocks.thisIndex'
p878
g281
sg163
g286
sS'training_block.thisIndex'
p879
g146
sa(dp880
S'training_block.thisRepN'
p881
I0
sg164
g32
(g36
S'\x9a\x99\x99\x99\x99\x99\xd9?'
p882
tp883
Rp884
sg31
g41
sS'word4'
p885
Vtrudge
p886
sS'experimental_blocks.thisN'
p887
I1
sg43
g44
sS'word1'
p888
Vflee
p889
sS'word3'
p890
Vroam
p891
sS'word2'
p892
Vinch
p893
sS'experimental_blocks.thisIndex'
p894
g32
(g132
S'\x01\x00\x00\x00'
p895
tp896
Rp897
sS'word_presentation.thisRepN'
p898
I0
sS'experimental_blocks.thisRepN'
p899
I0
sg45
g50
sg163
g32
(g36
S'\x9a\x99\x99\x99\x99\x99\xc9?'
p900
tp901
Rp902
sS'type'
p903
Vleg
p904
sS'training_block.thisIndex'
p905
g146
sg165
g32
(g36
S'333333\xe3?'
p906
tp907
Rp908
sg20
F7.010549057522894
sS'experimental_blocks.thisTrialN'
p909
I1
sS'training_block.thisN'
p910
I0
sS'word_presentation.thisN'
p911
I0
sS'training_block.thisTrialN'
p912
I0
sg19
S'space'
p913
sg29
g30
sS'word_presentation.thisTrialN'
p914
I0
sg42
g12
sS'word_presentation.thisIndex'
p915
g32
(g132
S'\x00\x00\x00\x00'
p916
tp917
Rp918
sa(dp919
S'training_block.thisRepN'
p920
I0
sg164
g884
sg31
g41
sg885
Vpace
p921
sS'experimental_blocks.thisN'
p922
I1
sg43
g44
sg888
Vslither
p923
sg890
Vroll
p924
sg892
Vskip
p925
sS'experimental_blocks.thisIndex'
p926
g897
sS'word_presentation.thisRepN'
p927
I0
sS'experimental_blocks.thisRepN'
p928
I0
sg45
g50
sg163
g902
sg903
g904
sS'training_block.thisIndex'
p929
g146
sg165
g908
sg20
F4.629057538769075
sS'experimental_blocks.thisTrialN'
p930
I1
sS'training_block.thisN'
p931
I0
sS'word_presentation.thisN'
p932
I1
sS'training_block.thisTrialN'
p933
I0
sg19
S'space'
p934
sg29
g30
sS'word_presentation.thisTrialN'
p935
I1
sg42
g12
sS'word_presentation.thisIndex'
p936
g32
(g132
S'\x01\x00\x00\x00'
p937
tp938
Rp939
sa(dp940
S'training_block.thisRepN'
p941
I0
sg164
g884
sg31
g41
sg885
Vsqueeze
p942
sS'experimental_blocks.thisN'
p943
I1
sg43
g44
sg888
Vbash
p944
sg890
Vskim
p945
sg892
Vtwine
p946
sS'experimental_blocks.thisIndex'
p947
g897
sS'word_presentation.thisRepN'
p948
I0
sS'experimental_blocks.thisRepN'
p949
I0
sg45
g50
sg163
g902
sg903
Varm
p950
sS'training_block.thisIndex'
p951
g146
sg165
g908
sg20
F11.069243130113136
sS'experimental_blocks.thisTrialN'
p952
I1
sS'training_block.thisN'
p953
I0
sS'word_presentation.thisN'
p954
I2
sS'training_block.thisTrialN'
p955
I0
sg19
S'space'
p956
sg29
g30
sS'word_presentation.thisTrialN'
p957
I2
sg42
g12
sS'word_presentation.thisIndex'
p958
g32
(g132
S'\x02\x00\x00\x00'
p959
tp960
Rp961
sa(dp962
S'training_block.thisRepN'
p963
I0
sg164
g884
sg31
g41
sg885
Vlift
p964
sS'experimental_blocks.thisN'
p965
I1
sg43
g44
sg888
Vwash
p966
sg890
Vslap
p967
sg892
Vclick
p968
sS'experimental_blocks.thisIndex'
p969
g897
sS'word_presentation.thisRepN'
p970
I0
sS'experimental_blocks.thisRepN'
p971
I0
sg45
g50
sg163
g902
sg903
g950
sS'training_block.thisIndex'
p972
g146
sg165
g908
sg20
F13.618676403245445
sS'experimental_blocks.thisTrialN'
p973
I1
sS'training_block.thisN'
p974
I0
sS'word_presentation.thisN'
p975
I3
sS'training_block.thisTrialN'
p976
I0
sg19
S'space'
p977
sg29
g30
sS'word_presentation.thisTrialN'
p978
I3
sg42
g12
sS'word_presentation.thisIndex'
p979
g32
(g132
S'\x03\x00\x00\x00'
p980
tp981
Rp982
sa(dp983
S'training_block.thisRepN'
p984
I0
sg164
g884
sg31
g41
sg885
Vmarch
p985
sS'experimental_blocks.thisN'
p986
I1
sg43
g44
sg888
Vsprint
p987
sg890
Vsneak
p988
sg892
Vstray
p989
sS'experimental_blocks.thisIndex'
p990
g897
sS'word_presentation.thisRepN'
p991
I0
sS'experimental_blocks.thisRepN'
p992
I0
sg45
g50
sg163
g902
sg903
g904
sS'training_block.thisIndex'
p993
g146
sg165
g908
sg20
F9.408899944960922
sS'experimental_blocks.thisTrialN'
p994
I1
sS'training_block.thisN'
p995
I0
sS'word_presentation.thisN'
p996
I4
sS'training_block.thisTrialN'
p997
I0
sg19
S'space'
p998
sg29
g30
sS'word_presentation.thisTrialN'
p999
I4
sg42
g12
sS'word_presentation.thisIndex'
p1000
g32
(g132
S'\x04\x00\x00\x00'
p1001
tp1002
Rp1003
sa(dp1004
S'training_block.thisRepN'
p1005
I0
sg164
g884
sg31
g41
sg885
Vflit
p1006
sS'experimental_blocks.thisN'
p1007
I1
sg43
g44
sg888
Vglide
p1008
sg890
Vtiptoe
p1009
sg892
Vjump
p1010
sS'experimental_blocks.thisIndex'
p1011
g897
sS'word_presentation.thisRepN'
p1012
I0
sS'experimental_blocks.thisRepN'
p1013
I0
sg45
g50
sg163
g902
sg903
g904
sS'training_block.thisIndex'
p1014
g146
sg165
g908
sg20
F7.329283581535492
sS'experimental_blocks.thisTrialN'
p1015
I1
sS'training_block.thisN'
p1016
I0
sS'word_presentation.thisN'
p1017
I5
sS'training_block.thisTrialN'
p1018
I0
sg19
S'space'
p1019
sg29
g30
sS'word_presentation.thisTrialN'
p1020
I5
sg42
g12
sS'word_presentation.thisIndex'
p1021
g32
(g132
S'\x05\x00\x00\x00'
p1022
tp1023
Rp1024
sa(dp1025
S'training_block.thisRepN'
p1026
I0
sg164
g884
sg31
g41
sg885
Vchop
p1027
sS'experimental_blocks.thisN'
p1028
I1
sg43
g44
sg888
Vstir
p1029
sg890
Vscoop
p1030
sg892
Vwrap
p1031
sS'experimental_blocks.thisIndex'
p1032
g897
sS'word_presentation.thisRepN'
p1033
I0
sS'experimental_blocks.thisRepN'
p1034
I0
sg45
g50
sg163
g902
sg903
g950
sS'training_block.thisIndex'
p1035
g146
sg165
g908
sg20
F10.096391968666012
sS'experimental_blocks.thisTrialN'
p1036
I1
sS'training_block.thisN'
p1037
I0
sS'word_presentation.thisN'
p1038
I6
sS'training_block.thisTrialN'
p1039
I0
sg19
S'space'
p1040
sg29
g30
sS'word_presentation.thisTrialN'
p1041
I6
sg42
g12
sS'word_presentation.thisIndex'
p1042
g32
(g132
S'\x06\x00\x00\x00'
p1043
tp1044
Rp1045
sa(dp1046
S'training_block.thisRepN'
p1047
I0
sg164
g884
sg31
g41
sg885
Vcarve
p1048
sS'experimental_blocks.thisN'
p1049
I1
sg43
g44
sg888
Vgrip
p1050
sg890
Vtug
p1051
sg892
Vdig
p1052
sS'experimental_blocks.thisIndex'
p1053
g897
sS'word_presentation.thisRepN'
p1054
I0
sS'experimental_blocks.thisRepN'
p1055
I0
sg45
g50
sg163
g902
sg903
g950
sS'training_block.thisIndex'
p1056
g146
sg165
g908
sg20
F7.280097450074663
sS'experimental_blocks.thisTrialN'
p1057
I1
sS'training_block.thisN'
p1058
I0
sS'word_presentation.thisN'
p1059
I7
sS'training_block.thisTrialN'
p1060
I0
sg19
S'space'
p1061
sg29
g30
sS'word_presentation.thisTrialN'
p1062
I7
sg42
g12
sS'word_presentation.thisIndex'
p1063
g32
(g132
S'\x07\x00\x00\x00'
p1064
tp1065
Rp1066
sa(dp1067
S'training_block.thisRepN'
p1068
I0
sg164
g884
sg31
g41
sg885
Vstomp
p1069
sS'experimental_blocks.thisN'
p1070
I1
sg43
g44
sg888
Vslip
p1071
sg890
Vstagger
p1072
sg892
Vwobble
p1073
sS'experimental_blocks.thisIndex'
p1074
g897
sS'word_presentation.thisRepN'
p1075
I0
sS'experimental_blocks.thisRepN'
p1076
I0
sg45
g50
sg163
g902
sg903
g904
sS'training_block.thisIndex'
p1077
g146
sg165
g908
sg20
F27.588748751944422
sS'experimental_blocks.thisTrialN'
p1078
I1
sS'training_block.thisN'
p1079
I0
sS'word_presentation.thisN'
p1080
I8
sS'training_block.thisTrialN'
p1081
I0
sg19
S'space'
p1082
sg29
g30
sS'word_presentation.thisTrialN'
p1083
I8
sg42
g12
sS'word_presentation.thisIndex'
p1084
g32
(g132
S'\x08\x00\x00\x00'
p1085
tp1086
Rp1087
sa(dp1088
S'training_block.thisRepN'
p1089
I0
sg164
g884
sg31
g41
sg885
Vrush
p1090
sS'experimental_blocks.thisN'
p1091
I1
sg43
g44
sg888
Vstep
p1092
sg890
Vleap
p1093
sg892
Vkneel
p1094
sS'experimental_blocks.thisIndex'
p1095
g897
sS'word_presentation.thisRepN'
p1096
I0
sS'experimental_blocks.thisRepN'
p1097
I0
sg45
g50
sg163
g902
sg903
g904
sS'training_block.thisIndex'
p1098
g146
sg165
g908
sg20
F9.358506355551526
sS'experimental_blocks.thisTrialN'
p1099
I1
sS'training_block.thisN'
p1100
I0
sS'word_presentation.thisN'
p1101
I9
sS'training_block.thisTrialN'
p1102
I0
sg19
S'space'
p1103
sg29
g30
sS'word_presentation.thisTrialN'
p1104
I9
sg42
g12
sS'word_presentation.thisIndex'
p1105
g32
(g132
S'\t\x00\x00\x00'
p1106
tp1107
Rp1108
sa(dp1109
S'training_block.thisRepN'
p1110
I0
sg164
g884
sg31
g41
sg885
Vclutch
p1111
sS'experimental_blocks.thisN'
p1112
I1
sg43
g44
sg888
Vpolish
p1113
sg890
Vshake
p1114
sg892
Vnip
p1115
sS'experimental_blocks.thisIndex'
p1116
g897
sS'word_presentation.thisRepN'
p1117
I0
sS'experimental_blocks.thisRepN'
p1118
I0
sg45
g50
sg163
g902
sg903
g950
sS'training_block.thisIndex'
p1119
g146
sg165
g908
sg20
F11.304338274717793
sS'experimental_blocks.thisTrialN'
p1120
I1
sS'training_block.thisN'
p1121
I0
sS'word_presentation.thisN'
p1122
I10
sS'training_block.thisTrialN'
p1123
I0
sg19
S'space'
p1124
sg29
g30
sS'word_presentation.thisTrialN'
p1125
I10
sg42
g12
sS'word_presentation.thisIndex'
p1126
g32
(g132
S'\n\x00\x00\x00'
p1127
tp1128
Rp1129
sa(dp1130
S'training_block.thisRepN'
p1131
I0
sg164
g884
sg31
g41
sg885
Vstroll
p1132
sS'experimental_blocks.thisN'
p1133
I1
sg43
g44
sg888
Vcreep
p1134
sg890
Vstamp
p1135
sg892
Vkick
p1136
sS'experimental_blocks.thisIndex'
p1137
g897
sS'word_presentation.thisRepN'
p1138
I0
sS'experimental_blocks.thisRepN'
p1139
I0
sg45
g50
sg163
g902
sg903
g904
sS'training_block.thisIndex'
p1140
g146
sg165
g908
sg20
F8.553385169208013
sS'experimental_blocks.thisTrialN'
p1141
I1
sS'training_block.thisN'
p1142
I0
sS'word_presentation.thisN'
p1143
I11
sS'training_block.thisTrialN'
p1144
I0
sg19
S'space'
p1145
sg29
g30
sS'word_presentation.thisTrialN'
p1146
I11
sg42
g12
sS'word_presentation.thisIndex'
p1147
g32
(g132
S'\x0b\x00\x00\x00'
p1148
tp1149
Rp1150
sa(dp1151
S'training_block.thisRepN'
p1152
I0
sg164
g884
sg31
g41
sg885
Vcrawl
p1153
sS'experimental_blocks.thisN'
p1154
I1
sg43
g44
sg888
Vtrek
p1155
sg890
Vmount
p1156
sg892
Vstumble
p1157
sS'experimental_blocks.thisIndex'
p1158
g897
sS'word_presentation.thisRepN'
p1159
I0
sS'experimental_blocks.thisRepN'
p1160
I0
sg45
g50
sg163
g902
sg903
g904
sS'training_block.thisIndex'
p1161
g146
sg165
g908
sg20
F5.13228223381293
sS'experimental_blocks.thisTrialN'
p1162
I1
sS'training_block.thisN'
p1163
I0
sS'word_presentation.thisN'
p1164
I12
sS'training_block.thisTrialN'
p1165
I0
sg19
S'space'
p1166
sg29
g30
sS'word_presentation.thisTrialN'
p1167
I12
sg42
g12
sS'word_presentation.thisIndex'
p1168
g32
(g132
S'\x0c\x00\x00\x00'
p1169
tp1170
Rp1171
sa(dp1172
S'training_block.thisRepN'
p1173
I0
sg164
g884
sg31
g41
sg885
Vseize
p1174
sS'experimental_blocks.thisN'
p1175
I1
sg43
g44
sg888
Vthrow
p1176
sg890
Vcut
p1177
sg892
Vrub
p1178
sS'experimental_blocks.thisIndex'
p1179
g897
sS'word_presentation.thisRepN'
p1180
I0
sS'experimental_blocks.thisRepN'
p1181
I0
sg45
g50
sg163
g902
sg903
g950
sS'training_block.thisIndex'
p1182
g146
sg165
g908
sg20
F3.0698160404626833
sS'experimental_blocks.thisTrialN'
p1183
I1
sS'training_block.thisN'
p1184
I0
sS'word_presentation.thisN'
p1185
I13
sS'training_block.thisTrialN'
p1186
I0
sg19
S'space'
p1187
sg29
g30
sS'word_presentation.thisTrialN'
p1188
I13
sg42
g12
sS'word_presentation.thisIndex'
p1189
g32
(g132
S'\r\x00\x00\x00'
p1190
tp1191
Rp1192
sa(dp1193
S'training_block.thisRepN'
p1194
I0
sg164
g884
sg31
g41
sg885
Vbounce
p1195
sS'experimental_blocks.thisN'
p1196
I1
sg43
g44
sg888
Vlimp
p1197
sg890
Vtread
p1198
sg892
Vscuff
p1199
sS'experimental_blocks.thisIndex'
p1200
g897
sS'word_presentation.thisRepN'
p1201
I0
sS'experimental_blocks.thisRepN'
p1202
I0
sg45
g50
sg163
g902
sg903
g904
sS'training_block.thisIndex'
p1203
g146
sg165
g908
sg20
F12.680098319317949
sS'experimental_blocks.thisTrialN'
p1204
I1
sS'training_block.thisN'
p1205
I0
sS'word_presentation.thisN'
p1206
I14
sS'training_block.thisTrialN'
p1207
I0
sg19
S'space'
p1208
sg29
g30
sS'word_presentation.thisTrialN'
p1209
I14
sg42
g12
sS'word_presentation.thisIndex'
p1210
g32
(g132
S'\x0e\x00\x00\x00'
p1211
tp1212
Rp1213
sa(dp1214
S'training_block.thisRepN'
p1215
I0
sg164
g884
sg31
g41
sg885
Vprance
p1216
sS'experimental_blocks.thisN'
p1217
I1
sg43
g44
sg888
Vramble
p1218
sg890
Vtrip
p1219
sg892
Vrun
p1220
sS'experimental_blocks.thisIndex'
p1221
g897
sS'word_presentation.thisRepN'
p1222
I0
sS'experimental_blocks.thisRepN'
p1223
I0
sg45
g50
sg163
g902
sg903
g904
sS'training_block.thisIndex'
p1224
g146
sg165
g908
sg20
F4.059039794352884
sS'experimental_blocks.thisTrialN'
p1225
I1
sS'training_block.thisN'
p1226
I0
sS'word_presentation.thisN'
p1227
I15
sS'training_block.thisTrialN'
p1228
I0
sg19
S'space'
p1229
sg29
g30
sS'word_presentation.thisTrialN'
p1230
I15
sg42
g12
sS'word_presentation.thisIndex'
p1231
g32
(g132
S'\x0f\x00\x00\x00'
p1232
tp1233
Rp1234
sa(dp1235
S'training_block.thisRepN'
p1236
I0
sg164
g884
sg31
g41
sg885
Vhack
p1237
sS'experimental_blocks.thisN'
p1238
I1
sg43
g44
sg888
Vfold
p1239
sg890
Vclean
p1240
sg892
Vbrush
p1241
sS'experimental_blocks.thisIndex'
p1242
g897
sS'word_presentation.thisRepN'
p1243
I0
sS'experimental_blocks.thisRepN'
p1244
I0
sg45
g50
sg163
g902
sg903
g950
sS'training_block.thisIndex'
p1245
g146
sg165
g908
sg20
F3.471871484750409
sS'experimental_blocks.thisTrialN'
p1246
I1
sS'training_block.thisN'
p1247
I0
sS'word_presentation.thisN'
p1248
I16
sS'training_block.thisTrialN'
p1249
I0
sg19
S'space'
p1250
sg29
g30
sS'word_presentation.thisTrialN'
p1251
I16
sg42
g12
sS'word_presentation.thisIndex'
p1252
g32
(g132
S'\x10\x00\x00\x00'
p1253
tp1254
Rp1255
sa(dp1256
S'training_block.thisRepN'
p1257
I0
sg164
g884
sg31
g41
sg885
Vslide
p1258
sS'experimental_blocks.thisN'
p1259
I1
sg43
g44
sg888
Vskate
p1260
sg890
Vwalk
p1261
sg892
Vdance
p1262
sS'experimental_blocks.thisIndex'
p1263
g897
sS'word_presentation.thisRepN'
p1264
I0
sS'experimental_blocks.thisRepN'
p1265
I0
sg45
g50
sg163
g902
sg903
g904
sS'training_block.thisIndex'
p1266
g146
sg165
g908
sg20
F5.283085671433128
sS'experimental_blocks.thisTrialN'
p1267
I1
sS'training_block.thisN'
p1268
I0
sS'word_presentation.thisN'
p1269
I17
sS'training_block.thisTrialN'
p1270
I0
sg19
S'space'
p1271
sg29
g30
sS'word_presentation.thisTrialN'
p1272
I17
sg42
g12
sS'word_presentation.thisIndex'
p1273
g32
(g132
S'\x11\x00\x00\x00'
p1274
tp1275
Rp1276
sa(dp1277
S'training_block.thisRepN'
p1278
I0
sg164
g884
sg31
g41
sg885
Vknock
p1279
sS'experimental_blocks.thisN'
p1280
I1
sg43
g44
sg888
Vpat
p1281
sg890
Vwipe
p1282
sg892
Vstab
p1283
sS'experimental_blocks.thisIndex'
p1284
g897
sS'word_presentation.thisRepN'
p1285
I0
sS'experimental_blocks.thisRepN'
p1286
I0
sg45
g50
sg163
g902
sg903
g950
sS'training_block.thisIndex'
p1287
g146
sg165
g908
sg20
F3.45598448321698
sS'experimental_blocks.thisTrialN'
p1288
I1
sS'training_block.thisN'
p1289
I0
sS'word_presentation.thisN'
p1290
I18
sS'training_block.thisTrialN'
p1291
I0
sg19
S'space'
p1292
sg29
g30
sS'word_presentation.thisTrialN'
p1293
I18
sg42
g12
sS'word_presentation.thisIndex'
p1294
g32
(g132
S'\x12\x00\x00\x00'
p1295
tp1296
Rp1297
sa(dp1298
S'training_block.thisRepN'
p1299
I0
sg164
g884
sg31
g41
sg885
Vtoss
p1300
sS'experimental_blocks.thisN'
p1301
I1
sg43
g44
sg888
Vpush
p1302
sg890
Vfile
p1303
sg892
Vpoke
p1304
sS'experimental_blocks.thisIndex'
p1305
g897
sS'word_presentation.thisRepN'
p1306
I0
sS'experimental_blocks.thisRepN'
p1307
I0
sg45
g50
sg163
g902
sg903
g950
sS'training_block.thisIndex'
p1308
g146
sg165
g908
sg20
F11.236882624893497
sS'experimental_blocks.thisTrialN'
p1309
I1
sS'training_block.thisN'
p1310
I0
sS'word_presentation.thisN'
p1311
I19
sS'training_block.thisTrialN'
p1312
I0
sg19
S'space'
p1313
sg29
g30
sS'word_presentation.thisTrialN'
p1314
I19
sg42
g12
sS'word_presentation.thisIndex'
p1315
g32
(g132
S'\x13\x00\x00\x00'
p1316
tp1317
Rp1318
sa(dp1319
S'training_block.thisRepN'
p1320
I0
sg164
g884
sg31
g41
sg885
Vplod
p1321
sS'experimental_blocks.thisN'
p1322
I1
sg43
g44
sg888
Vwander
p1323
sg890
Vtrot
p1324
sg892
Vtraipse
p1325
sS'experimental_blocks.thisIndex'
p1326
g897
sS'word_presentation.thisRepN'
p1327
I0
sS'experimental_blocks.thisRepN'
p1328
I0
sg45
g50
sg163
g902
sg903
g904
sS'training_block.thisIndex'
p1329
g146
sg165
g908
sg20
F8.418942470713318
sS'experimental_blocks.thisTrialN'
p1330
I1
sS'training_block.thisN'
p1331
I0
sS'word_presentation.thisN'
p1332
I20
sS'training_block.thisTrialN'
p1333
I0
sg19
S'space'
p1334
sg29
g30
sS'word_presentation.thisTrialN'
p1335
I20
sg42
g12
sS'word_presentation.thisIndex'
p1336
g32
(g132
S'\x14\x00\x00\x00'
p1337
tp1338
Rp1339
sa(dp1340
S'training_block.thisRepN'
p1341
I0
sg164
g884
sg31
g41
sg885
Vbraid
p1342
sS'experimental_blocks.thisN'
p1343
I1
sg43
g44
sg888
Vgrasp
p1344
sg890
Vdelve
p1345
sg892
Vcatch
p1346
sS'experimental_blocks.thisIndex'
p1347
g897
sS'word_presentation.thisRepN'
p1348
I0
sS'experimental_blocks.thisRepN'
p1349
I0
sg45
g50
sg163
g902
sg903
g950
sS'training_block.thisIndex'
p1350
g146
sg165
g908
sg20
F9.224577695928474
sS'experimental_blocks.thisTrialN'
p1351
I1
sS'training_block.thisN'
p1352
I0
sS'word_presentation.thisN'
p1353
I21
sS'training_block.thisTrialN'
p1354
I0
sg19
S'space'
p1355
sg29
g30
sS'word_presentation.thisTrialN'
p1356
I21
sg42
g12
sS'word_presentation.thisIndex'
p1357
g32
(g132
S'\x15\x00\x00\x00'
p1358
tp1359
Rp1360
sa(dp1361
S'training_block.thisRepN'
p1362
I0
sg164
g884
sg31
g41
sg885
Vswitch
p1363
sS'experimental_blocks.thisN'
p1364
I1
sg43
g44
sg888
Vpunch
p1365
sg890
Vdunk
p1366
sg892
Vscrape
p1367
sS'experimental_blocks.thisIndex'
p1368
g897
sS'word_presentation.thisRepN'
p1369
I0
sS'experimental_blocks.thisRepN'
p1370
I0
sg45
g50
sg163
g902
sg903
g950
sS'training_block.thisIndex'
p1371
g146
sg165
g908
sg20
F18.616541620751377
sS'experimental_blocks.thisTrialN'
p1372
I1
sS'training_block.thisN'
p1373
I0
sS'word_presentation.thisN'
p1374
I22
sS'training_block.thisTrialN'
p1375
I0
sg19
S'space'
p1376
sg29
g30
sS'word_presentation.thisTrialN'
p1377
I22
sg42
g12
sS'word_presentation.thisIndex'
p1378
g32
(g132
S'\x16\x00\x00\x00'
p1379
tp1380
Rp1381
sa(dp1382
S'training_block.thisRepN'
p1383
I0
sg164
g884
sg31
g41
sg885
Vgrab
p1384
sS'experimental_blocks.thisN'
p1385
I1
sg43
g44
sg888
Vgrate
p1386
sg890
Vpinch
p1387
sg892
Vpull
p1388
sS'experimental_blocks.thisIndex'
p1389
g897
sS'word_presentation.thisRepN'
p1390
I0
sS'experimental_blocks.thisRepN'
p1391
I0
sg45
g50
sg163
g902
sg903
g950
sS'training_block.thisIndex'
p1392
g146
sg165
g908
sg20
F3.5214878916385715
sS'experimental_blocks.thisTrialN'
p1393
I1
sS'training_block.thisN'
p1394
I0
sS'word_presentation.thisN'
p1395
I23
sS'training_block.thisTrialN'
p1396
I0
sg19
S'space'
p1397
sg29
g30
sS'word_presentation.thisTrialN'
p1398
I23
sg42
g12
sS'word_presentation.thisIndex'
p1399
g32
(g132
S'\x17\x00\x00\x00'
p1400
tp1401
Rp1402
sa(dp1403
S'training_block.thisRepN'
p1404
I0
sg164
g884
sg31
g41
sg885
Vclimb
p1405
sS'experimental_blocks.thisN'
p1406
I1
sg43
g44
sg888
Vwade
p1407
sg890
Vhop
p1408
sg892
Vstrut
p1409
sS'experimental_blocks.thisIndex'
p1410
g897
sS'word_presentation.thisRepN'
p1411
I0
sS'experimental_blocks.thisRepN'
p1412
I0
sg45
g50
sg163
g902
sg903
g904
sS'training_block.thisIndex'
p1413
g146
sg165
g908
sg20
F12.6796810825399
sS'experimental_blocks.thisTrialN'
p1414
I1
sS'training_block.thisN'
p1415
I0
sS'word_presentation.thisN'
p1416
I24
sS'training_block.thisTrialN'
p1417
I0
sg19
S'space'
p1418
sg29
g30
sS'word_presentation.thisTrialN'
p1419
I24
sg42
g12
sS'word_presentation.thisIndex'
p1420
g32
(g132
S'\x18\x00\x00\x00'
p1421
tp1422
Rp1423
sa(dp1424
S'training_block.thisRepN'
p1425
I0
sg164
g884
sg31
g41
sg885
Vclap
p1426
sS'experimental_blocks.thisN'
p1427
I1
sg43
g44
sg888
Vbind
p1428
sg890
Vpeel
p1429
sg892
Vscrub
p1430
sS'experimental_blocks.thisIndex'
p1431
g897
sS'word_presentation.thisRepN'
p1432
I0
sS'experimental_blocks.thisRepN'
p1433
I0
sg45
g50
sg163
g902
sg903
g950
sS'training_block.thisIndex'
p1434
g146
sg165
g908
sg20
F8.771568000309799
sS'experimental_blocks.thisTrialN'
p1435
I1
sS'training_block.thisN'
p1436
I0
sS'word_presentation.thisN'
p1437
I25
sS'training_block.thisTrialN'
p1438
I0
sg19
S'space'
p1439
sg29
g30
sS'word_presentation.thisTrialN'
p1440
I25
sg42
g12
sS'word_presentation.thisIndex'
p1441
g32
(g132
S'\x19\x00\x00\x00'
p1442
tp1443
Rp1444
sa(dp1445
S'training_block.thisRepN'
p1446
I0
sg164
g884
sg31
g41
sg885
Vjog
p1447
sS'experimental_blocks.thisN'
p1448
I1
sg43
g44
sg888
Vhike
p1449
sg890
Vsway
p1450
sg892
Vstride
p1451
sS'experimental_blocks.thisIndex'
p1452
g897
sS'word_presentation.thisRepN'
p1453
I0
sS'experimental_blocks.thisRepN'
p1454
I0
sg45
g50
sg163
g902
sg903
g904
sS'training_block.thisIndex'
p1455
g146
sg165
g908
sg20
F4.008534388647149
sS'experimental_blocks.thisTrialN'
p1456
I1
sS'training_block.thisN'
p1457
I0
sS'word_presentation.thisN'
p1458
I26
sS'training_block.thisTrialN'
p1459
I0
sg19
S'space'
p1460
sg29
g30
sS'word_presentation.thisTrialN'
p1461
I26
sg42
g12
sS'word_presentation.thisIndex'
p1462
g32
(g132
S'\x1a\x00\x00\x00'
p1463
tp1464
Rp1465
sa(dp1466
S'training_block.thisRepN'
p1467
I0
sg164
g884
sg31
g41
sg885
Vwhip
p1468
sS'experimental_blocks.thisN'
p1469
I1
sg43
g44
sg888
Vscratch
p1470
sg890
Vsnatch
p1471
sg892
Vclaw
p1472
sS'experimental_blocks.thisIndex'
p1473
g897
sS'word_presentation.thisRepN'
p1474
I0
sS'experimental_blocks.thisRepN'
p1475
I0
sg45
g50
sg163
g902
sg903
g950
sS'training_block.thisIndex'
p1476
g146
sg165
g908
sg20
F4.679432162871308
sS'experimental_blocks.thisTrialN'
p1477
I1
sS'training_block.thisN'
p1478
I0
sS'word_presentation.thisN'
p1479
I27
sS'training_block.thisTrialN'
p1480
I0
sg19
S'space'
p1481
sg29
g30
sS'word_presentation.thisTrialN'
p1482
I27
sg42
g12
sS'word_presentation.thisIndex'
p1483
g32
(g132
S'\x1b\x00\x00\x00'
p1484
tp1485
Rp1486
sa(dp1487
S'training_block.thisRepN'
p1488
I0
sg164
g884
sS'experimental_blocks.thisRepN'
p1489
I0
sS'experimental_blocks.thisTrialN'
p1490
I1
sS'training_block.thisN'
p1491
I0
sg43
g44
sg42
g12
sg31
g41
sS'training_block.thisTrialN'
p1492
I0
sg45
g50
sS'experimental_blocks.thisN'
p1493
I1
sg165
g908
sg29
g30
sS'experimental_blocks.thisIndex'
p1494
g897
sg163
g902
sS'training_block.thisIndex'
p1495
g146
sa(dp1496
S'training_block.thisRepN'
p1497
I0
sg164
g32
(g36
S'\x9a\x99\x99\x99\x99\x99\xd9?'
p1498
tp1499
Rp1500
sg31
g41
sS'word4'
p1501
Vclap
p1502
sS'experimental_blocks.thisN'
p1503
I2
sg43
g44
sS'word1'
p1504
Vchop
p1505
sS'word3'
p1506
Vclaw
p1507
sS'word2'
p1508
Vcut
p1509
sS'experimental_blocks.thisIndex'
p1510
g32
(g132
S'\x02\x00\x00\x00'
p1511
tp1512
Rp1513
sS'word_presentation.thisRepN'
p1514
I0
sS'experimental_blocks.thisRepN'
p1515
I0
sg45
g50
sg163
g32
(g36
S'333333\xd3?'
p1516
tp1517
Rp1518
sS'type'
p1519
Varm
p1520
sS'training_block.thisIndex'
p1521
g146
sg165
g32
(g36
S'ffffff\xe6?'
p1522
tp1523
Rp1524
sg20
F4.796904071496101
sS'experimental_blocks.thisTrialN'
p1525
I2
sS'training_block.thisN'
p1526
I0
sS'word_presentation.thisN'
p1527
I0
sS'training_block.thisTrialN'
p1528
I0
sg19
S'space'
p1529
sg29
g30
sS'word_presentation.thisTrialN'
p1530
I0
sg42
g12
sS'word_presentation.thisIndex'
p1531
g32
(g132
S'\x00\x00\x00\x00'
p1532
tp1533
Rp1534
sa(dp1535
S'training_block.thisRepN'
p1536
I0
sg164
g1500
sg31
g41
sg1501
Vwade
p1537
sS'experimental_blocks.thisN'
p1538
I2
sg43
g44
sg1504
Vprance
p1539
sg1506
Vcreep
p1540
sg1508
Vhop
p1541
sS'experimental_blocks.thisIndex'
p1542
g1513
sS'word_presentation.thisRepN'
p1543
I0
sS'experimental_blocks.thisRepN'
p1544
I0
sg45
g50
sg163
g1518
sg1519
Vleg
p1545
sS'training_block.thisIndex'
p1546
g146
sg165
g1524
sg20
F16.855436543857195
sS'experimental_blocks.thisTrialN'
p1547
I2
sS'training_block.thisN'
p1548
I0
sS'word_presentation.thisN'
p1549
I1
sS'training_block.thisTrialN'
p1550
I0
sg19
S'space'
p1551
sg29
g30
sS'word_presentation.thisTrialN'
p1552
I1
sg42
g12
sS'word_presentation.thisIndex'
p1553
g32
(g132
S'\x01\x00\x00\x00'
p1554
tp1555
Rp1556
sa(dp1557
S'training_block.thisRepN'
p1558
I0
sg164
g1500
sg31
g41
sg1501
Vnip
p1559
sS'experimental_blocks.thisN'
p1560
I2
sg43
g44
sg1504
Vbash
p1561
sg1506
Vpeel
p1562
sg1508
Vtwine
p1563
sS'experimental_blocks.thisIndex'
p1564
g1513
sS'word_presentation.thisRepN'
p1565
I0
sS'experimental_blocks.thisRepN'
p1566
I0
sg45
g50
sg163
g1518
sg1519
g1520
sS'training_block.thisIndex'
p1567
g146
sg165
g1524
sg20
F7.295306046733003
sS'experimental_blocks.thisTrialN'
p1568
I2
sS'training_block.thisN'
p1569
I0
sS'word_presentation.thisN'
p1570
I2
sS'training_block.thisTrialN'
p1571
I0
sg19
S'space'
p1572
sg29
g30
sS'word_presentation.thisTrialN'
p1573
I2
sg42
g12
sS'word_presentation.thisIndex'
p1574
g32
(g132
S'\x02\x00\x00\x00'
p1575
tp1576
Rp1577
sa(dp1578
S'training_block.thisRepN'
p1579
I0
sg164
g1500
sg31
g41
sg1501
Vslide
p1580
sS'experimental_blocks.thisN'
p1581
I2
sg43
g44
sg1504
Vflit
p1582
sg1506
Vstomp
p1583
sg1508
Vskip
p1584
sS'experimental_blocks.thisIndex'
p1585
g1513
sS'word_presentation.thisRepN'
p1586
I0
sS'experimental_blocks.thisRepN'
p1587
I0
sg45
g50
sg163
g1518
sg1519
g1545
sS'training_block.thisIndex'
p1588
g146
sg165
g1524
sg20
F9.15767204003896
sS'experimental_blocks.thisTrialN'
p1589
I2
sS'training_block.thisN'
p1590
I0
sS'word_presentation.thisN'
p1591
I3
sS'training_block.thisTrialN'
p1592
I0
sg19
S'space'
p1593
sg29
g30
sS'word_presentation.thisTrialN'
p1594
I3
sg42
g12
sS'word_presentation.thisIndex'
p1595
g32
(g132
S'\x03\x00\x00\x00'
p1596
tp1597
Rp1598
sa(dp1599
S'training_block.thisRepN'
p1600
I0
sg164
g1500
sg31
g41
sg1501
Vstray
p1601
sS'experimental_blocks.thisN'
p1602
I2
sg43
g44
sg1504
Vtiptoe
p1603
sg1506
Vflee
p1604
sg1508
Vhike
p1605
sS'experimental_blocks.thisIndex'
p1606
g1513
sS'word_presentation.thisRepN'
p1607
I0
sS'experimental_blocks.thisRepN'
p1608
I0
sg45
g50
sg163
g1518
sg1519
g1545
sS'training_block.thisIndex'
p1609
g146
sg165
g1524
sg20
F6.541592303561629
sS'experimental_blocks.thisTrialN'
p1610
I2
sS'training_block.thisN'
p1611
I0
sS'word_presentation.thisN'
p1612
I4
sS'training_block.thisTrialN'
p1613
I0
sg19
S'space'
p1614
sg29
g30
sS'word_presentation.thisTrialN'
p1615
I4
sg42
g12
sS'word_presentation.thisIndex'
p1616
g32
(g132
S'\x04\x00\x00\x00'
p1617
tp1618
Rp1619
sa(dp1620
S'training_block.thisRepN'
p1621
I0
sg164
g1500
sg31
g41
sg1501
Vclean
p1622
sS'experimental_blocks.thisN'
p1623
I2
sg43
g44
sg1504
Vpinch
p1624
sg1506
Vpunch
p1625
sg1508
Vtug
p1626
sS'experimental_blocks.thisIndex'
p1627
g1513
sS'word_presentation.thisRepN'
p1628
I0
sS'experimental_blocks.thisRepN'
p1629
I0
sg45
g50
sg163
g1518
sg1519
g1520
sS'training_block.thisIndex'
p1630
g146
sg165
g1524
sg20
F9.609939322867376
sS'experimental_blocks.thisTrialN'
p1631
I2
sS'training_block.thisN'
p1632
I0
sS'word_presentation.thisN'
p1633
I5
sS'training_block.thisTrialN'
p1634
I0
sg19
S'space'
p1635
sg29
g30
sS'word_presentation.thisTrialN'
p1636
I5
sg42
g12
sS'word_presentation.thisIndex'
p1637
g32
(g132
S'\x05\x00\x00\x00'
p1638
tp1639
Rp1640
sa(dp1641
S'training_block.thisRepN'
p1642
I0
sg164
g1500
sg31
g41
sg1501
Vgrate
p1643
sS'experimental_blocks.thisN'
p1644
I2
sg43
g44
sg1504
Vwipe
p1645
sg1506
Vpoke
p1646
sg1508
Vcatch
p1647
sS'experimental_blocks.thisIndex'
p1648
g1513
sS'word_presentation.thisRepN'
p1649
I0
sS'experimental_blocks.thisRepN'
p1650
I0
sg45
g50
sg163
g1518
sg1519
g1520
sS'training_block.thisIndex'
p1651
g146
sg165
g1524
sg20
F10.54931908617209
sS'experimental_blocks.thisTrialN'
p1652
I2
sS'training_block.thisN'
p1653
I0
sS'word_presentation.thisN'
p1654
I6
sS'training_block.thisTrialN'
p1655
I0
sg19
S'space'
p1656
sg29
g30
sS'word_presentation.thisTrialN'
p1657
I6
sg42
g12
sS'word_presentation.thisIndex'
p1658
g32
(g132
S'\x06\x00\x00\x00'
p1659
tp1660
Rp1661
sa(dp1662
S'training_block.thisRepN'
p1663
I0
sg164
g1500
sg31
g41
sg1501
Vsqueeze
p1664
sS'experimental_blocks.thisN'
p1665
I2
sg43
g44
sg1504
Vtoss
p1666
sg1506
Vthrow
p1667
sg1508
Vshake
p1668
sS'experimental_blocks.thisIndex'
p1669
g1513
sS'word_presentation.thisRepN'
p1670
I0
sS'experimental_blocks.thisRepN'
p1671
I0
sg45
g50
sg163
g1518
sg1519
g1520
sS'training_block.thisIndex'
p1672
g146
sg165
g1524
sg20
F3.8408577534723918
sS'experimental_blocks.thisTrialN'
p1673
I2
sS'training_block.thisN'
p1674
I0
sS'word_presentation.thisN'
p1675
I7
sS'training_block.thisTrialN'
p1676
I0
sg19
S'space'
p1677
sg29
g30
sS'word_presentation.thisTrialN'
p1678
I7
sg42
g12
sS'word_presentation.thisIndex'
p1679
g32
(g132
S'\x07\x00\x00\x00'
p1680
tp1681
Rp1682
sa(dp1683
S'training_block.thisRepN'
p1684
I0
sg164
g1500
sg31
g41
sg1501
Vglide
p1685
sS'experimental_blocks.thisN'
p1686
I2
sg43
g44
sg1504
Vcrawl
p1687
sg1506
Vmount
p1688
sg1508
Vtrip
p1689
sS'experimental_blocks.thisIndex'
p1690
g1513
sS'word_presentation.thisRepN'
p1691
I0
sS'experimental_blocks.thisRepN'
p1692
I0
sg45
g50
sg163
g1518
sg1519
g1545
sS'training_block.thisIndex'
p1693
g146
sg165
g1524
sg20
F8.385823116102983
sS'experimental_blocks.thisTrialN'
p1694
I2
sS'training_block.thisN'
p1695
I0
sS'word_presentation.thisN'
p1696
I8
sS'training_block.thisTrialN'
p1697
I0
sg19
S'space'
p1698
sg29
g30
sS'word_presentation.thisTrialN'
p1699
I8
sg42
g12
sS'word_presentation.thisIndex'
p1700
g32
(g132
S'\x08\x00\x00\x00'
p1701
tp1702
Rp1703
sa(dp1704
S'training_block.thisRepN'
p1705
I0
sg164
g1500
sg31
g41
sg1501
Vslither
p1706
sS'experimental_blocks.thisN'
p1707
I2
sg43
g44
sg1504
Vstumble
p1708
sg1506
Vrun
p1709
sg1508
Vslip
p1710
sS'experimental_blocks.thisIndex'
p1711
g1513
sS'word_presentation.thisRepN'
p1712
I0
sS'experimental_blocks.thisRepN'
p1713
I0
sg45
g50
sg163
g1518
sg1519
g1545
sS'training_block.thisIndex'
p1714
g146
sg165
g1524
sg20
F7.748577700669557
sS'experimental_blocks.thisTrialN'
p1715
I2
sS'training_block.thisN'
p1716
I0
sS'word_presentation.thisN'
p1717
I9
sS'training_block.thisTrialN'
p1718
I0
sg19
S'space'
p1719
sg29
g30
sS'word_presentation.thisTrialN'
p1720
I9
sg42
g12
sS'word_presentation.thisIndex'
p1721
g32
(g132
S'\t\x00\x00\x00'
p1722
tp1723
Rp1724
sa(dp1725
S'training_block.thisRepN'
p1726
I0
sg164
g1500
sg31
g41
sg1501
Vbind
p1727
sS'experimental_blocks.thisN'
p1728
I2
sg43
g44
sg1504
Vscratch
p1729
sg1506
Vskim
p1730
sg1508
Vknock
p1731
sS'experimental_blocks.thisIndex'
p1732
g1513
sS'word_presentation.thisRepN'
p1733
I0
sS'experimental_blocks.thisRepN'
p1734
I0
sg45
g50
sg163
g1518
sg1519
g1520
sS'training_block.thisIndex'
p1735
g146
sg165
g1524
sg20
F9.828119388194864
sS'experimental_blocks.thisTrialN'
p1736
I2
sS'training_block.thisN'
p1737
I0
sS'word_presentation.thisN'
p1738
I10
sS'training_block.thisTrialN'
p1739
I0
sg19
S'space'
p1740
sg29
g30
sS'word_presentation.thisTrialN'
p1741
I10
sg42
g12
sS'word_presentation.thisIndex'
p1742
g32
(g132
S'\n\x00\x00\x00'
p1743
tp1744
Rp1745
sa(dp1746
S'training_block.thisRepN'
p1747
I0
sg164
g1500
sg31
g41
sg1501
Vscrub
p1748
sS'experimental_blocks.thisN'
p1749
I2
sg43
g44
sg1504
Vfold
p1750
sg1506
Vscrape
p1751
sg1508
Vwash
p1752
sS'experimental_blocks.thisIndex'
p1753
g1513
sS'word_presentation.thisRepN'
p1754
I0
sS'experimental_blocks.thisRepN'
p1755
I0
sg45
g50
sg163
g1518
sg1519
g1520
sS'training_block.thisIndex'
p1756
g146
sg165
g1524
sg20
F3.203595348284125
sS'experimental_blocks.thisTrialN'
p1757
I2
sS'training_block.thisN'
p1758
I0
sS'word_presentation.thisN'
p1759
I11
sS'training_block.thisTrialN'
p1760
I0
sg19
S'space'
p1761
sg29
g30
sS'word_presentation.thisTrialN'
p1762
I11
sg42
g12
sS'word_presentation.thisIndex'
p1763
g32
(g132
S'\x0b\x00\x00\x00'
p1764
tp1765
Rp1766
sa(dp1767
S'training_block.thisRepN'
p1768
I0
sg164
g1500
sg31
g41
sg1501
Vtread
p1769
sS'experimental_blocks.thisN'
p1770
I2
sg43
g44
sg1504
Vtraipse
p1771
sg1506
Vstrut
p1772
sg1508
Vstep
p1773
sS'experimental_blocks.thisIndex'
p1774
g1513
sS'word_presentation.thisRepN'
p1775
I0
sS'experimental_blocks.thisRepN'
p1776
I0
sg45
g50
sg163
g1518
sg1519
g1545
sS'training_block.thisIndex'
p1777
g146
sg165
g1524
sg20
F7.245625236819706
sS'experimental_blocks.thisTrialN'
p1778
I2
sS'training_block.thisN'
p1779
I0
sS'word_presentation.thisN'
p1780
I12
sS'training_block.thisTrialN'
p1781
I0
sg19
S'space'
p1782
sg29
g30
sS'word_presentation.thisTrialN'
p1783
I12
sg42
g12
sS'word_presentation.thisIndex'
p1784
g32
(g132
S'\x0c\x00\x00\x00'
p1785
tp1786
Rp1787
sa(dp1788
S'training_block.thisRepN'
p1789
I0
sg164
g1500
sg31
g41
sg1501
Vseize
p1790
sS'experimental_blocks.thisN'
p1791
I2
sg43
g44
sg1504
Vpush
p1792
sg1506
Vwhip
p1793
sg1508
Vsnatch
p1794
sS'experimental_blocks.thisIndex'
p1795
g1513
sS'word_presentation.thisRepN'
p1796
I0
sS'experimental_blocks.thisRepN'
p1797
I0
sg45
g50
sg163
g1518
sg1519
g1520
sS'training_block.thisIndex'
p1798
g146
sg165
g1524
sg20
F5.970838863235258
sS'experimental_blocks.thisTrialN'
p1799
I2
sS'training_block.thisN'
p1800
I0
sS'word_presentation.thisN'
p1801
I13
sS'training_block.thisTrialN'
p1802
I0
sg19
S'space'
p1803
sg29
g30
sS'word_presentation.thisTrialN'
p1804
I13
sg42
g12
sS'word_presentation.thisIndex'
p1805
g32
(g132
S'\r\x00\x00\x00'
p1806
tp1807
Rp1808
sa(dp1809
S'training_block.thisRepN'
p1810
I0
sg164
g1500
sg31
g41
sg1501
Vgrab
p1811
sS'experimental_blocks.thisN'
p1812
I2
sg43
g44
sg1504
Vslap
p1813
sg1506
Vstab
p1814
sg1508
Vbrush
p1815
sS'experimental_blocks.thisIndex'
p1816
g1513
sS'word_presentation.thisRepN'
p1817
I0
sS'experimental_blocks.thisRepN'
p1818
I0
sg45
g50
sg163
g1518
sg1519
g1520
sS'training_block.thisIndex'
p1819
g146
sg165
g1524
sg20
F10.247614618617717
sS'experimental_blocks.thisTrialN'
p1820
I2
sS'training_block.thisN'
p1821
I0
sS'word_presentation.thisN'
p1822
I14
sS'training_block.thisTrialN'
p1823
I0
sg19
S'space'
p1824
sg29
g30
sS'word_presentation.thisTrialN'
p1825
I14
sg42
g12
sS'word_presentation.thisIndex'
p1826
g32
(g132
S'\x0e\x00\x00\x00'
p1827
tp1828
Rp1829
sa(dp1830
S'training_block.thisRepN'
p1831
I0
sg164
g1500
sg31
g41
sg1501
Vskate
p1832
sS'experimental_blocks.thisN'
p1833
I2
sg43
g44
sg1504
Vtrot
p1834
sg1506
Vwalk
p1835
sg1508
Vwobble
p1836
sS'experimental_blocks.thisIndex'
p1837
g1513
sS'word_presentation.thisRepN'
p1838
I0
sS'experimental_blocks.thisRepN'
p1839
I0
sg45
g50
sg163
g1518
sg1519
g1545
sS'training_block.thisIndex'
p1840
g146
sg165
g1524
sg20
F6.792524270655576
sS'experimental_blocks.thisTrialN'
p1841
I2
sS'training_block.thisN'
p1842
I0
sS'word_presentation.thisN'
p1843
I15
sS'training_block.thisTrialN'
p1844
I0
sg19
S'space'
p1845
sg29
g30
sS'word_presentation.thisTrialN'
p1846
I15
sg42
g12
sS'word_presentation.thisIndex'
p1847
g32
(g132
S'\x0f\x00\x00\x00'
p1848
tp1849
Rp1850
sa(dp1851
S'training_block.thisRepN'
p1852
I0
sg164
g1500
sg31
g41
sg1501
Vroll
p1853
sS'experimental_blocks.thisN'
p1854
I2
sg43
g44
sg1504
Vstamp
p1855
sg1506
Vmarch
p1856
sg1508
Vdance
p1857
sS'experimental_blocks.thisIndex'
p1858
g1513
sS'word_presentation.thisRepN'
p1859
I0
sS'experimental_blocks.thisRepN'
p1860
I0
sg45
g50
sg163
g1518
sg1519
g1545
sS'training_block.thisIndex'
p1861
g146
sg165
g1524
sg20
F3.286928516988155
sS'experimental_blocks.thisTrialN'
p1862
I2
sS'training_block.thisN'
p1863
I0
sS'word_presentation.thisN'
p1864
I16
sS'training_block.thisTrialN'
p1865
I0
sg19
S'space'
p1866
sg29
g30
sS'word_presentation.thisTrialN'
p1867
I16
sg42
g12
sS'word_presentation.thisIndex'
p1868
g32
(g132
S'\x10\x00\x00\x00'
p1869
tp1870
Rp1871
sa(dp1872
S'training_block.thisRepN'
p1873
I0
sg164
g1500
sg31
g41
sg1501
Vdelve
p1874
sS'experimental_blocks.thisN'
p1875
I2
sg43
g44
sg1504
Vwrap
p1876
sg1506
Vgrip
p1877
sg1508
Vrub
p1878
sS'experimental_blocks.thisIndex'
p1879
g1513
sS'word_presentation.thisRepN'
p1880
I0
sS'experimental_blocks.thisRepN'
p1881
I0
sg45
g50
sg163
g1518
sg1519
g1520
sS'training_block.thisIndex'
p1882
g146
sg165
g1524
sg20
F11.102999798098608
sS'experimental_blocks.thisTrialN'
p1883
I2
sS'training_block.thisN'
p1884
I0
sS'word_presentation.thisN'
p1885
I17
sS'training_block.thisTrialN'
p1886
I0
sg19
S'space'
p1887
sg29
g30
sS'word_presentation.thisTrialN'
p1888
I17
sg42
g12
sS'word_presentation.thisIndex'
p1889
g32
(g132
S'\x11\x00\x00\x00'
p1890
tp1891
Rp1892
sa(dp1893
S'training_block.thisRepN'
p1894
I0
sg164
g1500
sg31
g41
sg1501
Vkick
p1895
sS'experimental_blocks.thisN'
p1896
I2
sg43
g44
sg1504
Vsneak
p1897
sg1506
Vramble
p1898
sg1508
Vbounce
p1899
sS'experimental_blocks.thisIndex'
p1900
g1513
sS'word_presentation.thisRepN'
p1901
I0
sS'experimental_blocks.thisRepN'
p1902
I0
sg45
g50
sg163
g1518
sg1519
g1545
sS'training_block.thisIndex'
p1903
g146
sg165
g1524
sg20
F5.58509318880715
sS'experimental_blocks.thisTrialN'
p1904
I2
sS'training_block.thisN'
p1905
I0
sS'word_presentation.thisN'
p1906
I18
sS'training_block.thisTrialN'
p1907
I0
sg19
S'space'
p1908
sg29
g30
sS'word_presentation.thisTrialN'
p1909
I18
sg42
g12
sS'word_presentation.thisIndex'
p1910
g32
(g132
S'\x12\x00\x00\x00'
p1911
tp1912
Rp1913
sa(dp1914
S'training_block.thisRepN'
p1915
I0
sg164
g1500
sg31
g41
sg1501
Vclutch
p1916
sS'experimental_blocks.thisN'
p1917
I2
sg43
g44
sg1504
Vlift
p1918
sg1506
Vdig
p1919
sg1508
Vgrasp
p1920
sS'experimental_blocks.thisIndex'
p1921
g1513
sS'word_presentation.thisRepN'
p1922
I0
sS'experimental_blocks.thisRepN'
p1923
I0
sg45
g50
sg163
g1518
sg1519
g1520
sS'training_block.thisIndex'
p1924
g146
sg165
g1524
sg20
F5.786182745757742
sS'experimental_blocks.thisTrialN'
p1925
I2
sS'training_block.thisN'
p1926
I0
sS'word_presentation.thisN'
p1927
I19
sS'training_block.thisTrialN'
p1928
I0
sg19
S'space'
p1929
sg29
g30
sS'word_presentation.thisTrialN'
p1930
I19
sg42
g12
sS'word_presentation.thisIndex'
p1931
g32
(g132
S'\x13\x00\x00\x00'
p1932
tp1933
Rp1934
sa(dp1935
S'training_block.thisRepN'
p1936
I0
sg164
g1500
sg31
g41
sg1501
Vcarve
p1937
sS'experimental_blocks.thisN'
p1938
I2
sg43
g44
sg1504
Vscoop
p1939
sg1506
Vpat
p1940
sg1508
Vbraid
p1941
sS'experimental_blocks.thisIndex'
p1942
g1513
sS'word_presentation.thisRepN'
p1943
I0
sS'experimental_blocks.thisRepN'
p1944
I0
sg45
g50
sg163
g1518
sg1519
g1520
sS'training_block.thisIndex'
p1945
g146
sg165
g1524
sg20
F3.0864422939012
sS'experimental_blocks.thisTrialN'
p1946
I2
sS'training_block.thisN'
p1947
I0
sS'word_presentation.thisN'
p1948
I20
sS'training_block.thisTrialN'
p1949
I0
sg19
S'space'
p1950
sg29
g30
sS'word_presentation.thisTrialN'
p1951
I20
sg42
g12
sS'word_presentation.thisIndex'
p1952
g32
(g132
S'\x14\x00\x00\x00'
p1953
tp1954
Rp1955
sa(dp1956
S'training_block.thisRepN'
p1957
I0
sg164
g1500
sg31
g41
sg1501
Vtrudge
p1958
sS'experimental_blocks.thisN'
p1959
I2
sg43
g44
sg1504
Vrush
p1960
sg1506
Vscuff
p1961
sg1508
Vtrek
p1962
sS'experimental_blocks.thisIndex'
p1963
g1513
sS'word_presentation.thisRepN'
p1964
I0
sS'experimental_blocks.thisRepN'
p1965
I0
sg45
g50
sg163
g1518
sg1519
g1545
sS'training_block.thisIndex'
p1966
g146
sg165
g1524
sg20
F4.19274363605291
sS'experimental_blocks.thisTrialN'
p1967
I2
sS'training_block.thisN'
p1968
I0
sS'word_presentation.thisN'
p1969
I21
sS'training_block.thisTrialN'
p1970
I0
sg19
S'space'
p1971
sg29
g30
sS'word_presentation.thisTrialN'
p1972
I21
sg42
g12
sS'word_presentation.thisIndex'
p1973
g32
(g132
S'\x15\x00\x00\x00'
p1974
tp1975
Rp1976
sa(dp1977
S'training_block.thisRepN'
p1978
I0
sg164
g1500
sg31
g41
sg1501
Vsway
p1979
sS'experimental_blocks.thisN'
p1980
I2
sg43
g44
sg1504
Vinch
p1981
sg1506
Vstagger
p1982
sg1508
Vplod
p1983
sS'experimental_blocks.thisIndex'
p1984
g1513
sS'word_presentation.thisRepN'
p1985
I0
sS'experimental_blocks.thisRepN'
p1986
I0
sg45
g50
sg163
g1518
sg1519
g1545
sS'training_block.thisIndex'
p1987
g146
sg165
g1524
sg20
F9.459507289197973
sS'experimental_blocks.thisTrialN'
p1988
I2
sS'training_block.thisN'
p1989
I0
sS'word_presentation.thisN'
p1990
I22
sS'training_block.thisTrialN'
p1991
I0
sg19
S'space'
p1992
sg29
g30
sS'word_presentation.thisTrialN'
p1993
I22
sg42
g12
sS'word_presentation.thisIndex'
p1994
g32
(g132
S'\x16\x00\x00\x00'
p1995
tp1996
Rp1997
sa(dp1998
S'training_block.thisRepN'
p1999
I0
sg164
g1500
sg31
g41
sg1501
Vhack
p2000
sS'experimental_blocks.thisN'
p2001
I2
sg43
g44
sg1504
Vclick
p2002
sg1506
Vpull
p2003
sg1508
Vstir
p2004
sS'experimental_blocks.thisIndex'
p2005
g1513
sS'word_presentation.thisRepN'
p2006
I0
sS'experimental_blocks.thisRepN'
p2007
I0
sg45
g50
sg163
g1518
sg1519
g1520
sS'training_block.thisIndex'
p2008
g146
sg165
g1524
sg20
F4.175664585882714
sS'experimental_blocks.thisTrialN'
p2009
I2
sS'training_block.thisN'
p2010
I0
sS'word_presentation.thisN'
p2011
I23
sS'training_block.thisTrialN'
p2012
I0
sg19
S'space'
p2013
sg29
g30
sS'word_presentation.thisTrialN'
p2014
I23
sg42
g12
sS'word_presentation.thisIndex'
p2015
g32
(g132
S'\x17\x00\x00\x00'
p2016
tp2017
Rp2018
sa(dp2019
S'training_block.thisRepN'
p2020
I0
sg164
g1500
sg31
g41
sg1501
Vwander
p2021
sS'experimental_blocks.thisN'
p2022
I2
sg43
g44
sg1504
Vclimb
p2023
sg1506
Vpace
p2024
sg1508
Vjog
p2025
sS'experimental_blocks.thisIndex'
p2026
g1513
sS'word_presentation.thisRepN'
p2027
I0
sS'experimental_blocks.thisRepN'
p2028
I0
sg45
g50
sg163
g1518
sg1519
g1545
sS'training_block.thisIndex'
p2029
g146
sg165
g1524
sg20
F6.457937909951852
sS'experimental_blocks.thisTrialN'
p2030
I2
sS'training_block.thisN'
p2031
I0
sS'word_presentation.thisN'
p2032
I24
sS'training_block.thisTrialN'
p2033
I0
sg19
S'space'
p2034
sg29
g30
sS'word_presentation.thisTrialN'
p2035
I24
sg42
g12
sS'word_presentation.thisIndex'
p2036
g32
(g132
S'\x18\x00\x00\x00'
p2037
tp2038
Rp2039
sa(dp2040
S'training_block.thisRepN'
p2041
I0
sg164
g1500
sg31
g41
sg1501
Vstride
p2042
sS'experimental_blocks.thisN'
p2043
I2
sg43
g44
sg1504
Vkneel
p2044
sg1506
Vjump
p2045
sg1508
Vroam
p2046
sS'experimental_blocks.thisIndex'
p2047
g1513
sS'word_presentation.thisRepN'
p2048
I0
sS'experimental_blocks.thisRepN'
p2049
I0
sg45
g50
sg163
g1518
sg1519
g1545
sS'training_block.thisIndex'
p2050
g146
sg165
g1524
sg20
F4.176806850585308
sS'experimental_blocks.thisTrialN'
p2051
I2
sS'training_block.thisN'
p2052
I0
sS'word_presentation.thisN'
p2053
I25
sS'training_block.thisTrialN'
p2054
I0
sg19
S'space'
p2055
sg29
g30
sS'word_presentation.thisTrialN'
p2056
I25
sg42
g12
sS'word_presentation.thisIndex'
p2057
g32
(g132
S'\x19\x00\x00\x00'
p2058
tp2059
Rp2060
sa(dp2061
S'training_block.thisRepN'
p2062
I0
sg164
g1500
sg31
g41
sg1501
Vleap
p2063
sS'experimental_blocks.thisN'
p2064
I2
sg43
g44
sg1504
Vstroll
p2065
sg1506
Vlimp
p2066
sg1508
Vsprint
p2067
sS'experimental_blocks.thisIndex'
p2068
g1513
sS'word_presentation.thisRepN'
p2069
I0
sS'experimental_blocks.thisRepN'
p2070
I0
sg45
g50
sg163
g1518
sg1519
g1545
sS'training_block.thisIndex'
p2071
g146
sg165
g1524
sg20
F9.090243652844947
sS'experimental_blocks.thisTrialN'
p2072
I2
sS'training_block.thisN'
p2073
I0
sS'word_presentation.thisN'
p2074
I26
sS'training_block.thisTrialN'
p2075
I0
sg19
S'space'
p2076
sg29
g30
sS'word_presentation.thisTrialN'
p2077
I26
sg42
g12
sS'word_presentation.thisIndex'
p2078
g32
(g132
S'\x1a\x00\x00\x00'
p2079
tp2080
Rp2081
sa(dp2082
S'training_block.thisRepN'
p2083
I0
sg164
g1500
sg31
g41
sg1501
Vdunk
p2084
sS'experimental_blocks.thisN'
p2085
I2
sg43
g44
sg1504
Vfile
p2086
sg1506
Vswitch
p2087
sg1508
Vpolish
p2088
sS'experimental_blocks.thisIndex'
p2089
g1513
sS'word_presentation.thisRepN'
p2090
I0
sS'experimental_blocks.thisRepN'
p2091
I0
sg45
g50
sg163
g1518
sg1519
g1520
sS'training_block.thisIndex'
p2092
g146
sg165
g1524
sg20
F4.864399627490002
sS'experimental_blocks.thisTrialN'
p2093
I2
sS'training_block.thisN'
p2094
I0
sS'word_presentation.thisN'
p2095
I27
sS'training_block.thisTrialN'
p2096
I0
sg19
S'space'
p2097
sg29
g30
sS'word_presentation.thisTrialN'
p2098
I27
sg42
g12
sS'word_presentation.thisIndex'
p2099
g32
(g132
S'\x1b\x00\x00\x00'
p2100
tp2101
Rp2102
sa(dp2103
S'training_block.thisRepN'
p2104
I0
sg164
g1500
sS'experimental_blocks.thisRepN'
p2105
I0
sS'experimental_blocks.thisTrialN'
p2106
I2
sS'training_block.thisN'
p2107
I0
sg43
g44
sg42
g12
sg31
g41
sS'training_block.thisTrialN'
p2108
I0
sg45
g50
sS'experimental_blocks.thisN'
p2109
I2
sg165
g1524
sg29
g30
sS'experimental_blocks.thisIndex'
p2110
g1513
sg163
g1518
sS'training_block.thisIndex'
p2111
g146
sa(dp2112
S'training_block.thisRepN'
p2113
I0
sg164
g32
(g36
S'\x9a\x99\x99\x99\x99\x99\xd9?'
p2114
tp2115
Rp2116
sg31
g41
sS'word4'
p2117
Vhop
p2118
sS'experimental_blocks.thisN'
p2119
I3
sg43
g44
sS'word1'
p2120
Vwalk
p2121
sS'word3'
p2122
Vprance
p2123
sS'word2'
p2124
Vtrudge
p2125
sS'experimental_blocks.thisIndex'
p2126
g32
(g132
S'\x00\x00\x00\x00'
p2127
tp2128
Rp2129
sS'word_presentation.thisRepN'
p2130
I0
sS'experimental_blocks.thisRepN'
p2131
I0
sg45
g50
sg163
g32
(g36
S'\x9a\x99\x99\x99\x99\x99\xb9?'
p2132
tp2133
Rp2134
sS'type'
p2135
Vleg
p2136
sS'training_block.thisIndex'
p2137
g146
sg165
g32
(g36
S'\x00\x00\x00\x00\x00\x00\xe0?'
p2138
tp2139
Rp2140
sg20
F3.8072583395000947
sS'experimental_blocks.thisTrialN'
p2141
I3
sS'training_block.thisN'
p2142
I0
sS'word_presentation.thisN'
p2143
I0
sS'training_block.thisTrialN'
p2144
I0
sg19
S'space'
p2145
sg29
g30
sS'word_presentation.thisTrialN'
p2146
I0
sg42
g12
sS'word_presentation.thisIndex'
p2147
g32
(g132
S'\x00\x00\x00\x00'
p2148
tp2149
Rp2150
sa(dp2151
S'training_block.thisRepN'
p2152
I0
sg164
g2116
sg31
g41
sg2117
Vtrek
p2153
sS'experimental_blocks.thisN'
p2154
I3
sg43
g44
sg2120
Vclimb
p2155
sg2122
Vdance
p2156
sg2124
Vroam
p2157
sS'experimental_blocks.thisIndex'
p2158
g2129
sS'word_presentation.thisRepN'
p2159
I0
sS'experimental_blocks.thisRepN'
p2160
I0
sg45
g50
sg163
g2134
sg2135
g2136
sS'training_block.thisIndex'
p2161
g146
sg165
g2140
sg20
F4.210276273174713
sS'experimental_blocks.thisTrialN'
p2162
I3
sS'training_block.thisN'
p2163
I0
sS'word_presentation.thisN'
p2164
I1
sS'training_block.thisTrialN'
p2165
I0
sg19
S'space'
p2166
sg29
g30
sS'word_presentation.thisTrialN'
p2167
I1
sg42
g12
sS'word_presentation.thisIndex'
p2168
g32
(g132
S'\x01\x00\x00\x00'
p2169
tp2170
Rp2171
sa(dp2172
S'training_block.thisRepN'
p2173
I0
sg164
g2116
sg31
g41
sg2117
Vpinch
p2174
sS'experimental_blocks.thisN'
p2175
I3
sg43
g44
sg2120
Vclaw
p2176
sg2122
Vwash
p2177
sg2124
Vpush
p2178
sS'experimental_blocks.thisIndex'
p2179
g2129
sS'word_presentation.thisRepN'
p2180
I0
sS'experimental_blocks.thisRepN'
p2181
I0
sg45
g50
sg163
g2134
sg2135
Varm
p2182
sS'training_block.thisIndex'
p2183
g146
sg165
g2140
sg20
F6.373517001806249
sS'experimental_blocks.thisTrialN'
p2184
I3
sS'training_block.thisN'
p2185
I0
sS'word_presentation.thisN'
p2186
I2
sS'training_block.thisTrialN'
p2187
I0
sg19
S'space'
p2188
sg29
g30
sS'word_presentation.thisTrialN'
p2189
I2
sg42
g12
sS'word_presentation.thisIndex'
p2190
g32
(g132
S'\x02\x00\x00\x00'
p2191
tp2192
Rp2193
sa(dp2194
S'training_block.thisRepN'
p2195
I0
sg164
g2116
sg31
g41
sg2117
Vstir
p2196
sS'experimental_blocks.thisN'
p2197
I3
sg43
g44
sg2120
Vsqueeze
p2198
sg2122
Vpoke
p2199
sg2124
Vrub
p2200
sS'experimental_blocks.thisIndex'
p2201
g2129
sS'word_presentation.thisRepN'
p2202
I0
sS'experimental_blocks.thisRepN'
p2203
I0
sg45
g50
sg163
g2134
sg2135
g2182
sS'training_block.thisIndex'
p2204
g146
sg165
g2140
sg20
F11.840636491544501
sS'experimental_blocks.thisTrialN'
p2205
I3
sS'training_block.thisN'
p2206
I0
sS'word_presentation.thisN'
p2207
I3
sS'training_block.thisTrialN'
p2208
I0
sg19
S'space'
p2209
sg29
g30
sS'word_presentation.thisTrialN'
p2210
I3
sg42
g12
sS'word_presentation.thisIndex'
p2211
g32
(g132
S'\x03\x00\x00\x00'
p2212
tp2213
Rp2214
sa(dp2215
S'training_block.thisRepN'
p2216
I0
sg164
g2116
sg31
g41
sg2117
Vstray
p2217
sS'experimental_blocks.thisN'
p2218
I3
sg43
g44
sg2120
Vflee
p2219
sg2122
Vjog
p2220
sg2124
Vstagger
p2221
sS'experimental_blocks.thisIndex'
p2222
g2129
sS'word_presentation.thisRepN'
p2223
I0
sS'experimental_blocks.thisRepN'
p2224
I0
sg45
g50
sg163
g2134
sg2135
g2136
sS'training_block.thisIndex'
p2225
g146
sg165
g2140
sg20
F4.98127136313542
sS'experimental_blocks.thisTrialN'
p2226
I3
sS'training_block.thisN'
p2227
I0
sS'word_presentation.thisN'
p2228
I4
sS'training_block.thisTrialN'
p2229
I0
sg19
S'space'
p2230
sg29
g30
sS'word_presentation.thisTrialN'
p2231
I4
sg42
g12
sS'word_presentation.thisIndex'
p2232
g32
(g132
S'\x04\x00\x00\x00'
p2233
tp2234
Rp2235
sa(dp2236
S'training_block.thisRepN'
p2237
I0
sg164
g2116
sg31
g41
sg2117
Vmount
p2238
sS'experimental_blocks.thisN'
p2239
I3
sg43
g44
sg2120
Vcreep
p2240
sg2122
Vcrawl
p2241
sg2124
Vskate
p2242
sS'experimental_blocks.thisIndex'
p2243
g2129
sS'word_presentation.thisRepN'
p2244
I0
sS'experimental_blocks.thisRepN'
p2245
I0
sg45
g50
sg163
g2134
sg2135
g2136
sS'training_block.thisIndex'
p2246
g146
sg165
g2140
sg20
F4.310375564464721
sS'experimental_blocks.thisTrialN'
p2247
I3
sS'training_block.thisN'
p2248
I0
sS'word_presentation.thisN'
p2249
I5
sS'training_block.thisTrialN'
p2250
I0
sg19
S'space'
p2251
sg29
g30
sS'word_presentation.thisTrialN'
p2252
I5
sg42
g12
sS'word_presentation.thisIndex'
p2253
g32
(g132
S'\x05\x00\x00\x00'
p2254
tp2255
Rp2256
sa(dp2257
S'training_block.thisRepN'
p2258
I0
sg164
g2116
sg31
g41
sg2117
Vbash
p2259
sS'experimental_blocks.thisN'
p2260
I3
sg43
g44
sg2120
Vnip
p2261
sg2122
Vshake
p2262
sg2124
Vpolish
p2263
sS'experimental_blocks.thisIndex'
p2264
g2129
sS'word_presentation.thisRepN'
p2265
I0
sS'experimental_blocks.thisRepN'
p2266
I0
sg45
g50
sg163
g2134
sg2135
g2182
sS'training_block.thisIndex'
p2267
g146
sg165
g2140
sg20
F3.5216506771998866
sS'experimental_blocks.thisTrialN'
p2268
I3
sS'training_block.thisN'
p2269
I0
sS'word_presentation.thisN'
p2270
I6
sS'training_block.thisTrialN'
p2271
I0
sg19
S'space'
p2272
sg29
g30
sS'word_presentation.thisTrialN'
p2273
I6
sg42
g12
sS'word_presentation.thisIndex'
p2274
g32
(g132
S'\x06\x00\x00\x00'
p2275
tp2276
Rp2277
sa(dp2278
S'training_block.thisRepN'
p2279
I0
sg164
g2116
sg31
g41
sg2117
Vclap
p2280
sS'experimental_blocks.thisN'
p2281
I3
sg43
g44
sg2120
Vdelve
p2282
sg2122
Vhack
p2283
sg2124
Vcut
p2284
sS'experimental_blocks.thisIndex'
p2285
g2129
sS'word_presentation.thisRepN'
p2286
I0
sS'experimental_blocks.thisRepN'
p2287
I0
sg45
g50
sg163
g2134
sg2135
g2182
sS'training_block.thisIndex'
p2288
g146
sg165
g2140
sg20
F8.151763951453177
sS'experimental_blocks.thisTrialN'
p2289
I3
sS'training_block.thisN'
p2290
I0
sS'word_presentation.thisN'
p2291
I7
sS'training_block.thisTrialN'
p2292
I0
sg19
S'space'
p2293
sg29
g30
sS'word_presentation.thisTrialN'
p2294
I7
sg42
g12
sS'word_presentation.thisIndex'
p2295
g32
(g132
S'\x07\x00\x00\x00'
p2296
tp2297
Rp2298
sa(dp2299
S'training_block.thisRepN'
p2300
I0
sg164
g2116
sg31
g41
sg2117
Vtread
p2301
sS'experimental_blocks.thisN'
p2302
I3
sg43
g44
sg2120
Vjump
p2303
sg2122
Vtiptoe
p2304
sg2124
Vstamp
p2305
sS'experimental_blocks.thisIndex'
p2306
g2129
sS'word_presentation.thisRepN'
p2307
I0
sS'experimental_blocks.thisRepN'
p2308
I0
sg45
g50
sg163
g2134
sg2135
g2136
sS'training_block.thisIndex'
p2309
g146
sg165
g2140
sg20
F9.039906169138249
sS'experimental_blocks.thisTrialN'
p2310
I3
sS'training_block.thisN'
p2311
I0
sS'word_presentation.thisN'
p2312
I8
sS'training_block.thisTrialN'
p2313
I0
sg19
S'space'
p2314
sg29
g30
sS'word_presentation.thisTrialN'
p2315
I8
sg42
g12
sS'word_presentation.thisIndex'
p2316
g32
(g132
S'\x08\x00\x00\x00'
p2317
tp2318
Rp2319
sa(dp2320
S'training_block.thisRepN'
p2321
I0
sg164
g2116
sg31
g41
sg2117
Vwander
p2322
sS'experimental_blocks.thisN'
p2323
I3
sg43
g44
sg2120
Vpace
p2324
sg2122
Vslip
p2325
sg2124
Vplod
p2326
sS'experimental_blocks.thisIndex'
p2327
g2129
sS'word_presentation.thisRepN'
p2328
I0
sS'experimental_blocks.thisRepN'
p2329
I0
sg45
g50
sg163
g2134
sg2135
g2136
sS'training_block.thisIndex'
p2330
g146
sg165
g2140
sg20
F4.84841147764655
sS'experimental_blocks.thisTrialN'
p2331
I3
sS'training_block.thisN'
p2332
I0
sS'word_presentation.thisN'
p2333
I9
sS'training_block.thisTrialN'
p2334
I0
sg19
S'space'
p2335
sg29
g30
sS'word_presentation.thisTrialN'
p2336
I9
sg42
g12
sS'word_presentation.thisIndex'
p2337
g32
(g132
S'\t\x00\x00\x00'
p2338
tp2339
Rp2340
sa(dp2341
S'training_block.thisRepN'
p2342
I0
sg164
g2116
sg31
g41
sg2117
Vmarch
p2343
sS'experimental_blocks.thisN'
p2344
I3
sg43
g44
sg2120
Vwade
p2345
sg2122
Vkneel
p2346
sg2124
Vhike
p2347
sS'experimental_blocks.thisIndex'
p2348
g2129
sS'word_presentation.thisRepN'
p2349
I0
sS'experimental_blocks.thisRepN'
p2350
I0
sg45
g50
sg163
g2134
sg2135
g2136
sS'training_block.thisIndex'
p2351
g146
sg165
g2140
sg20
F7.3300097947912946
sS'experimental_blocks.thisTrialN'
p2352
I3
sS'training_block.thisN'
p2353
I0
sS'word_presentation.thisN'
p2354
I10
sS'training_block.thisTrialN'
p2355
I0
sg19
S'space'
p2356
sg29
g30
sS'word_presentation.thisTrialN'
p2357
I10
sg42
g12
sS'word_presentation.thisIndex'
p2358
g32
(g132
S'\n\x00\x00\x00'
p2359
tp2360
Rp2361
sa(dp2362
S'training_block.thisRepN'
p2363
I0
sg164
g2116
sg31
g41
sg2117
Vlift
p2364
sS'experimental_blocks.thisN'
p2365
I3
sg43
g44
sg2120
Vclutch
p2366
sg2122
Vgrab
p2367
sg2124
Vwrap
p2368
sS'experimental_blocks.thisIndex'
p2369
g2129
sS'word_presentation.thisRepN'
p2370
I0
sS'experimental_blocks.thisRepN'
p2371
I0
sg45
g50
sg163
g2134
sg2135
g2182
sS'training_block.thisIndex'
p2372
g146
sg165
g2140
sg20
F11.237644793212894
sS'experimental_blocks.thisTrialN'
p2373
I3
sS'training_block.thisN'
p2374
I0
sS'word_presentation.thisN'
p2375
I11
sS'training_block.thisTrialN'
p2376
I0
sg19
S'space'
p2377
sg29
g30
sS'word_presentation.thisTrialN'
p2378
I11
sg42
g12
sS'word_presentation.thisIndex'
p2379
g32
(g132
S'\x0b\x00\x00\x00'
p2380
tp2381
Rp2382
sa(dp2383
S'training_block.thisRepN'
p2384
I0
sg164
g2116
sg31
g41
sg2117
Vslide
p2385
sS'experimental_blocks.thisN'
p2386
I3
sg43
g44
sg2120
Vglide
p2387
sg2122
Vrush
p2388
sg2124
Vroll
p2389
sS'experimental_blocks.thisIndex'
p2390
g2129
sS'word_presentation.thisRepN'
p2391
I0
sS'experimental_blocks.thisRepN'
p2392
I0
sg45
g50
sg163
g2134
sg2135
g2136
sS'training_block.thisIndex'
p2393
g146
sg165
g2140
sg20
F3.0860491588687182
sS'experimental_blocks.thisTrialN'
p2394
I3
sS'training_block.thisN'
p2395
I0
sS'word_presentation.thisN'
p2396
I12
sS'training_block.thisTrialN'
p2397
I0
sg19
S'space'
p2398
sg29
g30
sS'word_presentation.thisTrialN'
p2399
I12
sg42
g12
sS'word_presentation.thisIndex'
p2400
g32
(g132
S'\x0c\x00\x00\x00'
p2401
tp2402
Rp2403
sa(dp2404
S'training_block.thisRepN'
p2405
I0
sg164
g2116
sg31
g41
sg2117
Vstomp
p2406
sS'experimental_blocks.thisN'
p2407
I3
sg43
g44
sg2120
Vramble
p2408
sg2122
Vtrot
p2409
sg2124
Vflit
p2410
sS'experimental_blocks.thisIndex'
p2411
g2129
sS'word_presentation.thisRepN'
p2412
I0
sS'experimental_blocks.thisRepN'
p2413
I0
sg45
g50
sg163
g2134
sg2135
g2136
sS'training_block.thisIndex'
p2414
g146
sg165
g2140
sg20
F3.2202346403723823
sS'experimental_blocks.thisTrialN'
p2415
I3
sS'training_block.thisN'
p2416
I0
sS'word_presentation.thisN'
p2417
I13
sS'training_block.thisTrialN'
p2418
I0
sg19
S'space'
p2419
sg29
g30
sS'word_presentation.thisTrialN'
p2420
I13
sg42
g12
sS'word_presentation.thisIndex'
p2421
g32
(g132
S'\r\x00\x00\x00'
p2422
tp2423
Rp2424
sa(dp2425
S'training_block.thisRepN'
p2426
I0
sg164
g2116
sg31
g41
sg2117
Vtug
p2427
sS'experimental_blocks.thisN'
p2428
I3
sg43
g44
sg2120
Vfile
p2429
sg2122
Vpull
p2430
sg2124
Vgrasp
p2431
sS'experimental_blocks.thisIndex'
p2432
g2129
sS'word_presentation.thisRepN'
p2433
I0
sS'experimental_blocks.thisRepN'
p2434
I0
sg45
g50
sg163
g2134
sg2135
g2182
sS'training_block.thisIndex'
p2435
g146
sg165
g2140
sg20
F12.947494149399972
sS'experimental_blocks.thisTrialN'
p2436
I3
sS'training_block.thisN'
p2437
I0
sS'word_presentation.thisN'
p2438
I14
sS'training_block.thisTrialN'
p2439
I0
sg19
S'space'
p2440
sg29
g30
sS'word_presentation.thisTrialN'
p2441
I14
sg42
g12
sS'word_presentation.thisIndex'
p2442
g32
(g132
S'\x0e\x00\x00\x00'
p2443
tp2444
Rp2445
sa(dp2446
S'training_block.thisRepN'
p2447
I0
sg164
g2116
sg31
g41
sg2117
Vleap
p2448
sS'experimental_blocks.thisN'
p2449
I3
sg43
g44
sg2120
Vtraipse
p2450
sg2122
Vstroll
p2451
sg2124
Vrun
p2452
sS'experimental_blocks.thisIndex'
p2453
g2129
sS'word_presentation.thisRepN'
p2454
I0
sS'experimental_blocks.thisRepN'
p2455
I0
sg45
g50
sg163
g2134
sg2135
g2136
sS'training_block.thisIndex'
p2456
g146
sg165
g2140
sg20
F8.754824794137676
sS'experimental_blocks.thisTrialN'
p2457
I3
sS'training_block.thisN'
p2458
I0
sS'word_presentation.thisN'
p2459
I15
sS'training_block.thisTrialN'
p2460
I0
sg19
S'space'
p2461
sg29
g30
sS'word_presentation.thisTrialN'
p2462
I15
sg42
g12
sS'word_presentation.thisIndex'
p2463
g32
(g132
S'\x0f\x00\x00\x00'
p2464
tp2465
Rp2466
sa(dp2467
S'training_block.thisRepN'
p2468
I0
sg164
g2116
sg31
g41
sg2117
Vscrub
p2469
sS'experimental_blocks.thisN'
p2470
I3
sg43
g44
sg2120
Vtoss
p2471
sg2122
Vseize
p2472
sg2124
Vwhip
p2473
sS'experimental_blocks.thisIndex'
p2474
g2129
sS'word_presentation.thisRepN'
p2475
I0
sS'experimental_blocks.thisRepN'
p2476
I0
sg45
g50
sg163
g2134
sg2135
g2182
sS'training_block.thisIndex'
p2477
g146
sg165
g2140
sg20
F4.277217884127367
sS'experimental_blocks.thisTrialN'
p2478
I3
sS'training_block.thisN'
p2479
I0
sS'word_presentation.thisN'
p2480
I16
sS'training_block.thisTrialN'
p2481
I0
sg19
S'space'
p2482
sg29
g30
sS'word_presentation.thisTrialN'
p2483
I16
sg42
g12
sS'word_presentation.thisIndex'
p2484
g32
(g132
S'\x10\x00\x00\x00'
p2485
tp2486
Rp2487
sa(dp2488
S'training_block.thisRepN'
p2489
I0
sg164
g2116
sg31
g41
sg2117
Vbrush
p2490
sS'experimental_blocks.thisN'
p2491
I3
sg43
g44
sg2120
Vbind
p2492
sg2122
Vgrip
p2493
sg2124
Vscratch
p2494
sS'experimental_blocks.thisIndex'
p2495
g2129
sS'word_presentation.thisRepN'
p2496
I0
sS'experimental_blocks.thisRepN'
p2497
I0
sg45
g50
sg163
g2134
sg2135
g2182
sS'training_block.thisIndex'
p2498
g146
sg165
g2140
sg20
F14.322791124393916
sS'experimental_blocks.thisTrialN'
p2499
I3
sS'training_block.thisN'
p2500
I0
sS'word_presentation.thisN'
p2501
I17
sS'training_block.thisTrialN'
p2502
I0
sg19
S'space'
p2503
sg29
g30
sS'word_presentation.thisTrialN'
p2504
I17
sg42
g12
sS'word_presentation.thisIndex'
p2505
g32
(g132
S'\x11\x00\x00\x00'
p2506
tp2507
Rp2508
sa(dp2509
S'training_block.thisRepN'
p2510
I0
sg164
g2116
sg31
g41
sg2117
Vscrape
p2511
sS'experimental_blocks.thisN'
p2512
I3
sg43
g44
sg2120
Vthrow
p2513
sg2122
Vscoop
p2514
sg2124
Vwipe
p2515
sS'experimental_blocks.thisIndex'
p2516
g2129
sS'word_presentation.thisRepN'
p2517
I0
sS'experimental_blocks.thisRepN'
p2518
I0
sg45
g50
sg163
g2134
sg2135
g2182
sS'training_block.thisIndex'
p2519
g146
sg165
g2140
sg20
F6.7759074998703
sS'experimental_blocks.thisTrialN'
p2520
I3
sS'training_block.thisN'
p2521
I0
sS'word_presentation.thisN'
p2522
I18
sS'training_block.thisTrialN'
p2523
I0
sg19
S'space'
p2524
sg29
g30
sS'word_presentation.thisTrialN'
p2525
I18
sg42
g12
sS'word_presentation.thisIndex'
p2526
g32
(g132
S'\x12\x00\x00\x00'
p2527
tp2528
Rp2529
sa(dp2530
S'training_block.thisRepN'
p2531
I0
sg164
g2116
sg31
g41
sg2117
Vwobble
p2532
sS'experimental_blocks.thisN'
p2533
I3
sg43
g44
sg2120
Vlimp
p2534
sg2122
Vstride
p2535
sg2124
Vslither
p2536
sS'experimental_blocks.thisIndex'
p2537
g2129
sS'word_presentation.thisRepN'
p2538
I0
sS'experimental_blocks.thisRepN'
p2539
I0
sg45
g50
sg163
g2134
sg2135
g2136
sS'training_block.thisIndex'
p2540
g146
sg165
g2140
sg20
F8.804455820117255
sS'experimental_blocks.thisTrialN'
p2541
I3
sS'training_block.thisN'
p2542
I0
sS'word_presentation.thisN'
p2543
I19
sS'training_block.thisTrialN'
p2544
I0
sg19
S'space'
p2545
sg29
g30
sS'word_presentation.thisTrialN'
p2546
I19
sg42
g12
sS'word_presentation.thisIndex'
p2547
g32
(g132
S'\x13\x00\x00\x00'
p2548
tp2549
Rp2550
sa(dp2551
S'training_block.thisRepN'
p2552
I0
sg164
g2116
sg31
g41
sg2117
Vslap
p2553
sS'experimental_blocks.thisN'
p2554
I3
sg43
g44
sg2120
Vpat
p2555
sg2122
Vchop
p2556
sg2124
Vpeel
p2557
sS'experimental_blocks.thisIndex'
p2558
g2129
sS'word_presentation.thisRepN'
p2559
I0
sS'experimental_blocks.thisRepN'
p2560
I0
sg45
g50
sg163
g2134
sg2135
g2182
sS'training_block.thisIndex'
p2561
g146
sg165
g2140
sg20
F13.199564430090504
sS'experimental_blocks.thisTrialN'
p2562
I3
sS'training_block.thisN'
p2563
I0
sS'word_presentation.thisN'
p2564
I20
sS'training_block.thisTrialN'
p2565
I0
sg19
S'space'
p2566
sg29
g30
sS'word_presentation.thisTrialN'
p2567
I20
sg42
g12
sS'word_presentation.thisIndex'
p2568
g32
(g132
S'\x14\x00\x00\x00'
p2569
tp2570
Rp2571
sa(dp2572
S'training_block.thisRepN'
p2573
I0
sg164
g2116
sg31
g41
sg2117
Vpunch
p2574
sS'experimental_blocks.thisN'
p2575
I3
sg43
g44
sg2120
Vfold
p2576
sg2122
Vswitch
p2577
sg2124
Vcarve
p2578
sS'experimental_blocks.thisIndex'
p2579
g2129
sS'word_presentation.thisRepN'
p2580
I0
sS'experimental_blocks.thisRepN'
p2581
I0
sg45
g50
sg163
g2134
sg2135
g2182
sS'training_block.thisIndex'
p2582
g146
sg165
g2140
sg20
F9.878494407407288
sS'experimental_blocks.thisTrialN'
p2583
I3
sS'training_block.thisN'
p2584
I0
sS'word_presentation.thisN'
p2585
I21
sS'training_block.thisTrialN'
p2586
I0
sg19
S'space'
p2587
sg29
g30
sS'word_presentation.thisTrialN'
p2588
I21
sg42
g12
sS'word_presentation.thisIndex'
p2589
g32
(g132
S'\x15\x00\x00\x00'
p2590
tp2591
Rp2592
sa(dp2593
S'training_block.thisRepN'
p2594
I0
sg164
g2116
sg31
g41
sg2117
Vskip
p2595
sS'experimental_blocks.thisN'
p2596
I3
sg43
g44
sg2120
Vsway
p2597
sg2122
Vtrip
p2598
sg2124
Vscuff
p2599
sS'experimental_blocks.thisIndex'
p2600
g2129
sS'word_presentation.thisRepN'
p2601
I0
sS'experimental_blocks.thisRepN'
p2602
I0
sg45
g50
sg163
g2134
sg2135
g2136
sS'training_block.thisIndex'
p2603
g146
sg165
g2140
sg20
F8.15171337729862
sS'experimental_blocks.thisTrialN'
p2604
I3
sS'training_block.thisN'
p2605
I0
sS'word_presentation.thisN'
p2606
I22
sS'training_block.thisTrialN'
p2607
I0
sg19
S'space'
p2608
sg29
g30
sS'word_presentation.thisTrialN'
p2609
I22
sg42
g12
sS'word_presentation.thisIndex'
p2610
g32
(g132
S'\x16\x00\x00\x00'
p2611
tp2612
Rp2613
sa(dp2614
S'training_block.thisRepN'
p2615
I0
sg164
g2116
sg31
g41
sg2117
Vclick
p2616
sS'experimental_blocks.thisN'
p2617
I3
sg43
g44
sg2120
Vdunk
p2618
sg2122
Vgrate
p2619
sg2124
Vknock
p2620
sS'experimental_blocks.thisIndex'
p2621
g2129
sS'word_presentation.thisRepN'
p2622
I0
sS'experimental_blocks.thisRepN'
p2623
I0
sg45
g50
sg163
g2134
sg2135
g2182
sS'training_block.thisIndex'
p2624
g146
sg165
g2140
sg20
F4.930923211443314
sS'experimental_blocks.thisTrialN'
p2625
I3
sS'training_block.thisN'
p2626
I0
sS'word_presentation.thisN'
p2627
I23
sS'training_block.thisTrialN'
p2628
I0
sg19
S'space'
p2629
sg29
g30
sS'word_presentation.thisTrialN'
p2630
I23
sg42
g12
sS'word_presentation.thisIndex'
p2631
g32
(g132
S'\x17\x00\x00\x00'
p2632
tp2633
Rp2634
sa(dp2635
S'training_block.thisRepN'
p2636
I0
sg164
g2116
sg31
g41
sg2117
Vstab
p2637
sS'experimental_blocks.thisN'
p2638
I3
sg43
g44
sg2120
Vbraid
p2639
sg2122
Vsnatch
p2640
sg2124
Vcatch
p2641
sS'experimental_blocks.thisIndex'
p2642
g2129
sS'word_presentation.thisRepN'
p2643
I0
sS'experimental_blocks.thisRepN'
p2644
I0
sg45
g50
sg163
g2134
sg2135
g2182
sS'training_block.thisIndex'
p2645
g146
sg165
g2140
sg20
F12.226453285878051
sS'experimental_blocks.thisTrialN'
p2646
I3
sS'training_block.thisN'
p2647
I0
sS'word_presentation.thisN'
p2648
I24
sS'training_block.thisTrialN'
p2649
I0
sg19
S'space'
p2650
sg29
g30
sS'word_presentation.thisTrialN'
p2651
I24
sg42
g12
sS'word_presentation.thisIndex'
p2652
g32
(g132
S'\x18\x00\x00\x00'
p2653
tp2654
Rp2655
sa(dp2656
S'training_block.thisRepN'
p2657
I0
sg164
g2116
sg31
g41
sg2117
Vstrut
p2658
sS'experimental_blocks.thisN'
p2659
I3
sg43
g44
sg2120
Vbounce
p2660
sg2122
Vstep
p2661
sg2124
Vsneak
p2662
sS'experimental_blocks.thisIndex'
p2663
g2129
sS'word_presentation.thisRepN'
p2664
I0
sS'experimental_blocks.thisRepN'
p2665
I0
sg45
g50
sg163
g2134
sg2135
g2136
sS'training_block.thisIndex'
p2666
g146
sg165
g2140
sg20
F6.8596535591364045
sS'experimental_blocks.thisTrialN'
p2667
I3
sS'training_block.thisN'
p2668
I0
sS'word_presentation.thisN'
p2669
I25
sS'training_block.thisTrialN'
p2670
I0
sg19
S'space'
p2671
sg29
g30
sS'word_presentation.thisTrialN'
p2672
I25
sg42
g12
sS'word_presentation.thisIndex'
p2673
g32
(g132
S'\x19\x00\x00\x00'
p2674
tp2675
Rp2676
sa(dp2677
S'training_block.thisRepN'
p2678
I0
sg164
g2116
sg31
g41
sg2117
Vdig
p2679
sS'experimental_blocks.thisN'
p2680
I3
sg43
g44
sg2120
Vclean
p2681
sg2122
Vtwine
p2682
sg2124
Vskim
p2683
sS'experimental_blocks.thisIndex'
p2684
g2129
sS'word_presentation.thisRepN'
p2685
I0
sS'experimental_blocks.thisRepN'
p2686
I0
sg45
g50
sg163
g2134
sg2135
g2182
sS'training_block.thisIndex'
p2687
g146
sg165
g2140
sg20
F4.780083423648648
sS'experimental_blocks.thisTrialN'
p2688
I3
sS'training_block.thisN'
p2689
I0
sS'word_presentation.thisN'
p2690
I26
sS'training_block.thisTrialN'
p2691
I0
sg19
S'space'
p2692
sg29
g30
sS'word_presentation.thisTrialN'
p2693
I26
sg42
g12
sS'word_presentation.thisIndex'
p2694
g32
(g132
S'\x1a\x00\x00\x00'
p2695
tp2696
Rp2697
sa(dp2698
S'training_block.thisRepN'
p2699
I0
sg164
g2116
sg31
g41
sg2117
Vinch
p2700
sS'experimental_blocks.thisN'
p2701
I3
sg43
g44
sg2120
Vsprint
p2702
sg2122
Vkick
p2703
sg2124
Vstumble
p2704
sS'experimental_blocks.thisIndex'
p2705
g2129
sS'word_presentation.thisRepN'
p2706
I0
sS'experimental_blocks.thisRepN'
p2707
I0
sg45
g50
sg163
g2134
sg2135
g2136
sS'training_block.thisIndex'
p2708
g146
sg165
g2140
sg20
F11.11900888880291
sS'experimental_blocks.thisTrialN'
p2709
I3
sS'training_block.thisN'
p2710
I0
sS'word_presentation.thisN'
p2711
I27
sS'training_block.thisTrialN'
p2712
I0
sg19
S'space'
p2713
sg29
g30
sS'word_presentation.thisTrialN'
p2714
I27
sg42
g12
sS'word_presentation.thisIndex'
p2715
g32
(g132
S'\x1b\x00\x00\x00'
p2716
tp2717
Rp2718
sa(dp2719
S'training_block.thisRepN'
p2720
I0
sg164
g2116
sS'experimental_blocks.thisRepN'
p2721
I0
sS'experimental_blocks.thisTrialN'
p2722
I3
sS'training_block.thisN'
p2723
I0
sg43
g44
sg42
g12
sg31
g41
sS'training_block.thisTrialN'
p2724
I0
sg45
g50
sS'experimental_blocks.thisN'
p2725
I3
sg165
g2140
sg29
g30
sS'experimental_blocks.thisIndex'
p2726
g2129
sg163
g2134
sS'training_block.thisIndex'
p2727
g146
sa(dp2728
S'training_block.thisRepN'
p2729
I0
sS'training_block.thisN'
p2730
I0
sg43
g44
sg45
g50
sg31
g41
sS'training_block.thisTrialN'
p2731
I0
sg42
g12
sg29
g30
sg25
NsS'training_block.thisIndex'
p2732
g146
sasS'loops'
p2733
(lp2734
g55
ag0
(g53
g2
Ntp2735
Rp2736
(dp2737
g57
Nsg58
(lp2738
sg59
I363499504
sg11
S'word_presentation_training'
p2739
sg6
I-1
sg61
I1
sg26
I01
sg27
g28
sg62
g0
(g63
g64
(dp2740
g66
g67
(g68
g69
g70
g71
tp2741
Rp2742
(I1
(I4
I1
tp2743
g77
I00
S'\x00\x00\x80?\x00\x00\x80?\x00\x00\x80?\x00\x00\x80?'
p2744
S'\x00\x00\x00\x00'
p2745
Ntp2746
bsg20
g67
(g68
g69
g70
g71
tp2747
Rp2748
(I1
(I4
I1
tp2749
g77
I00
S'\x03\x06\x0fAoA\x07A\x9d\x08\xe3@.X\xe7@'
p2750
S'\x00\x00\x00\x00'
p2751
Ntp2752
bsg106
g67
(g68
g69
g70
g71
tp2753
Rp2754
(I1
(I4
I1
tp2755
g77
I00
S'\x00\x00\x80?\x00\x00@@\x00\x00\x00\x00\x00\x00\x00@'
p2756
S'\x00\x00\x00\x00'
p2757
Ntp2758
bsg19
g89
(g69
(I0
tp2759
g71
tp2760
Rp2761
(I1
(I4
I1
tp2762
g96
I00
(lp2763
g205
ag245
ag179
ag225
atp2764
bstp2765
Rp2766
(dp2767
g116
(dp2768
g66
I01
sg20
I01
sg106
I01
sg19
I00
ssg118
g2736
sg119
(lp2769
g66
ag106
ag19
ag20
asg121
(lp2770
I4
aI1
asbsg123
g124
sg125
g89
(g69
(I0
tp2771
g71
tp2772
Rp2773
(I1
(I4
I1
tp2774
g132
I00
S'\x02\x00\x00\x00\x00\x00\x00\x00\x03\x00\x00\x00\x01\x00\x00\x00'
p2775
tp2776
bsg137
I01
sg138
I1
sg139
I-1
sg140
(lp2777
ccollections
OrderedDict
p2778
((lp2779
(lp2780
g157
ag208
aa(lp2781
g158
ag196
aa(lp2782
g159
ag209
aa(lp2783
g160
ag215
aa(lp2784
g161
ag214
aa(lp2785
g162
ag202
aatp2786
Rp2787
ag2778
((lp2788
(lp2789
g157
ag248
aa(lp2790
g158
ag196
aa(lp2791
g159
ag249
aa(lp2792
g160
ag255
aa(lp2793
g161
ag254
aa(lp2794
g162
ag242
aatp2795
Rp2796
ag2778
((lp2797
(lp2798
g157
ag187
aa(lp2799
g158
ag196
aa(lp2800
g159
ag188
aa(lp2801
g160
ag194
aa(lp2802
g161
ag193
aa(lp2803
g162
ag176
aatp2804
Rp2805
ag2778
((lp2806
(lp2807
g157
ag228
aa(lp2808
g158
ag196
aa(lp2809
g159
ag229
aa(lp2810
g160
ag235
aa(lp2811
g161
ag234
aa(lp2812
g162
ag222
aatp2813
Rp2814
asg142
Nsg143
g253
sg147
I4
sg148
I0
sg149
I4
sbag0
(g53
g2
Ntp2815
Rp2816
(dp2817
g57
Nsg58
(lp2818
sg59
I363499504
sg11
S'experimental_blocks'
p2819
sg6
I-1
sg61
I1
sg26
I01
sg27
g28
sg62
g0
(g63
g64
(dp2820
g66
g67
(g68
g69
g70
g71
tp2821
Rp2822
(I1
(I4
I1
tp2823
g77
I00
S'\x00\x00\x80?\x00\x00\x80?\x00\x00\x80?\x00\x00\x80?'
p2824
S'\x00\x00\x00\x00'
p2825
Ntp2826
bsg106
g67
(g68
g69
g70
g71
tp2827
Rp2828
(I1
(I4
I1
tp2829
g77
I00
S'\x00\x00@@\x00\x00\x80?\x00\x00\x00@\x00\x00\x00\x00'
p2830
S'\x00\x00\x00\x00'
p2831
Ntp2832
bstp2833
Rp2834
(dp2835
g116
(dp2836
g66
I01
sg106
I01
ssg118
g2816
sg119
(lp2837
g66
ag106
asg121
(lp2838
I4
aI1
asbsg123
g124
sg125
g89
(g69
(I0
tp2839
g71
tp2840
Rp2841
(I1
(I4
I1
tp2842
g132
I00
S'\x03\x00\x00\x00\x01\x00\x00\x00\x02\x00\x00\x00\x00\x00\x00\x00'
p2843
tp2844
bsg137
I01
sg138
I1
sg139
I-1
sg140
(lp2845
g2778
((lp2846
(lp2847
g163
ag2134
aa(lp2848
g164
ag2116
aa(lp2849
g165
ag2140
aatp2850
Rp2851
ag2778
((lp2852
(lp2853
g163
ag902
aa(lp2854
g164
ag884
aa(lp2855
g165
ag908
aatp2856
Rp2857
ag2778
((lp2858
(lp2859
g163
ag1518
aa(lp2860
g164
ag1500
aa(lp2861
g165
ag1524
aatp2862
Rp2863
ag2778
((lp2864
(lp2865
g163
ag286
aa(lp2866
g164
ag268
aa(lp2867
g165
ag292
aatp2868
Rp2869
asg142
Nsg143
g2129
sg147
I4
sg148
I0
sg149
I4
sbag0
(g53
g2
Ntp2870
Rp2871
(dp2872
g57
Nsg58
(lp2873
sg59
I363499504
sg11
S'word_presentation'
p2874
sg6
I-1
sg61
I1
sg26
I01
sg27
g28
sg62
g0
(g63
g64
(dp2875
g66
g67
(g68
g69
g70
g71
tp2876
Rp2877
(I1
(I28
I1
tp2878
g77
I00
S'\x00\x00\x80?\x00\x00\x80?\x00\x00\x80?\x00\x00\x80?\x00\x00\x80?\x00\x00\x80?\x00\x00\x80?\x00\x00\x80?\x00\x00\x80?\x00\x00\x80?\x00\x00\x80?\x00\x00\x80?\x00\x00\x80?\x00\x00\x80?\x00\x00\x80?\x00\x00\x80?\x00\x00\x80?\x00\x00\x80?\x00\x00\x80?\x00\x00\x80?\x00\x00\x80?\x00\x00\x80?\x00\x00\x80?\x00\x00\x80?\x00\x00\x80?\x00\x00\x80?\x00\x00\x80?\x00\x00\x80?'
p2879
S'\x00\x00\x00\x00\x00\x00\x00\x00\x00\x00\x00\x00\x00\x00\x00\x00\x00\x00\x00\x00\x00\x00\x00\x00\x00\x00\x00\x00'
p2880
Ntp2881
bsg20
g67
(g68
g69
g70
g71
tp2882
Rp2883
(I1
(I28
I1
tp2884
g77
I00
S'\xfc_1Aw\xd80Ai\xc0mA\xe0\xa3\x05Ab\xe4YA0\r\xa9@\xc4>\xe6@z\xda\xf6@\x04\xfd\x93A\xe7[\xef@\xc1\xc9IApC\xe6@\x00\x96\x8eA\xb3=\x96@C\x91\x84@\xae\xa8~A\x92k.A\xcev\x8aA@}\xe2@v%\x82A\xbe\xb5\x91AQk\xe1@\x8c\x92\x1cB\xce\xab\x94@X\x95rA\x1b\xd8\xb2A\xff\x18\x85A\x93&\x98A'
p2885
S'\x00\x00\x00\x00\x00\x00\x00\x00\x00\x00\x00\x00\x00\x00\x00\x00\x00\x00\x00\x00\x00\x00\x00\x00\x00\x00\x00\x00'
p2886
Ntp2887
bsg106
g67
(g68
g69
g70
g71
tp2888
Rp2889
(I1
(I28
I1
tp2890
g77
I00
S'\x00\x00\x00\x00\x00\x00\x80?\x00\x00\x00@\x00\x00@@\x00\x00\x80@\x00\x00\xa0@\x00\x00\xc0@\x00\x00\xe0@\x00\x00\x00A\x00\x00\x10A\x00\x00 A\x00\x000A\x00\x00@A\x00\x00PA\x00\x00`A\x00\x00pA\x00\x00\x80A\x00\x00\x88A\x00\x00\x90A\x00\x00\x98A\x00\x00\xa0A\x00\x00\xa8A\x00\x00\xb0A\x00\x00\xb8A\x00\x00\xc0A\x00\x00\xc8A\x00\x00\xd0A\x00\x00\xd8A'
p2891
S'\x00\x00\x00\x00\x00\x00\x00\x00\x00\x00\x00\x00\x00\x00\x00\x00\x00\x00\x00\x00\x00\x00\x00\x00\x00\x00\x00\x00'
p2892
Ntp2893
bsg19
g89
(g69
(I0
tp2894
g71
tp2895
Rp2896
(I1
(I28
I1
tp2897
g96
I00
(lp2898
g297
ag319
ag340
ag361
ag382
ag403
ag424
ag445
ag466
ag487
ag508
ag529
ag550
ag571
ag592
ag613
ag634
ag655
ag676
ag697
ag718
ag739
ag760
ag781
ag802
ag823
ag844
ag865
atp2899
bstp2900
Rp2901
(dp2902
g116
(dp2903
g66
I01
sg20
I01
sg106
I01
sg19
I00
ssg118
g2871
sg119
(lp2904
g66
ag106
ag19
ag20
asg121
(lp2905
I28
aI1
asbsg123
S'sequential'
p2906
sg125
g89
(g69
(I0
tp2907
g71
tp2908
Rp2909
(I1
(I28
I1
tp2910
g132
I00
S'\x00\x00\x00\x00\x01\x00\x00\x00\x02\x00\x00\x00\x03\x00\x00\x00\x04\x00\x00\x00\x05\x00\x00\x00\x06\x00\x00\x00\x07\x00\x00\x00\x08\x00\x00\x00\t\x00\x00\x00\n\x00\x00\x00\x0b\x00\x00\x00\x0c\x00\x00\x00\r\x00\x00\x00\x0e\x00\x00\x00\x0f\x00\x00\x00\x10\x00\x00\x00\x11\x00\x00\x00\x12\x00\x00\x00\x13\x00\x00\x00\x14\x00\x00\x00\x15\x00\x00\x00\x16\x00\x00\x00\x17\x00\x00\x00\x18\x00\x00\x00\x19\x00\x00\x00\x1a\x00\x00\x00\x1b\x00\x00\x00'
p2911
tp2912
bsg137
I01
sg138
I1
sg139
I-1
sg140
(lp2913
g2778
((lp2914
(lp2915
g287
ag288
aa(lp2916
g272
ag273
aa(lp2917
g276
ag277
aa(lp2918
g274
ag275
aa(lp2919
g269
ag270
aatp2920
Rp2921
ag2778
((lp2922
(lp2923
g287
ag313
aa(lp2924
g272
ag307
aa(lp2925
g276
ag309
aa(lp2926
g274
ag308
aa(lp2927
g269
ag305
aatp2928
Rp2929
ag2778
((lp2930
(lp2931
g287
ag288
aa(lp2932
g272
ag329
aa(lp2933
g276
ag331
aa(lp2934
g274
ag330
aa(lp2935
g269
ag327
aatp2936
Rp2937
ag2778
((lp2938
(lp2939
g287
ag313
aa(lp2940
g272
ag350
aa(lp2941
g276
ag352
aa(lp2942
g274
ag351
aa(lp2943
g269
ag348
aatp2944
Rp2945
ag2778
((lp2946
(lp2947
g287
ag288
aa(lp2948
g272
ag371
aa(lp2949
g276
ag373
aa(lp2950
g274
ag372
aa(lp2951
g269
ag369
aatp2952
Rp2953
ag2778
((lp2954
(lp2955
g287
ag313
aa(lp2956
g272
ag392
aa(lp2957
g276
ag394
aa(lp2958
g274
ag393
aa(lp2959
g269
ag390
aatp2960
Rp2961
ag2778
((lp2962
(lp2963
g287
ag288
aa(lp2964
g272
ag413
aa(lp2965
g276
ag415
aa(lp2966
g274
ag414
aa(lp2967
g269
ag411
aatp2968
Rp2969
ag2778
((lp2970
(lp2971
g287
ag288
aa(lp2972
g272
ag434
aa(lp2973
g276
ag436
aa(lp2974
g274
ag435
aa(lp2975
g269
ag432
aatp2976
Rp2977
ag2778
((lp2978
(lp2979
g287
ag313
aa(lp2980
g272
ag455
aa(lp2981
g276
ag457
aa(lp2982
g274
ag456
aa(lp2983
g269
ag453
aatp2984
Rp2985
ag2778
((lp2986
(lp2987
g287
ag288
aa(lp2988
g272
ag476
aa(lp2989
g276
ag478
aa(lp2990
g274
ag477
aa(lp2991
g269
ag474
aatp2992
Rp2993
ag2778
((lp2994
(lp2995
g287
ag288
aa(lp2996
g272
ag497
aa(lp2997
g276
ag499
aa(lp2998
g274
ag498
aa(lp2999
g269
ag495
aatp3000
Rp3001
ag2778
((lp3002
(lp3003
g287
ag288
aa(lp3004
g272
ag518
aa(lp3005
g276
ag520
aa(lp3006
g274
ag519
aa(lp3007
g269
ag516
aatp3008
Rp3009
ag2778
((lp3010
(lp3011
g287
ag313
aa(lp3012
g272
ag539
aa(lp3013
g276
ag541
aa(lp3014
g274
ag540
aa(lp3015
g269
ag537
aatp3016
Rp3017
ag2778
((lp3018
(lp3019
g287
ag313
aa(lp3020
g272
ag560
aa(lp3021
g276
ag562
aa(lp3022
g274
ag561
aa(lp3023
g269
ag558
aatp3024
Rp3025
ag2778
((lp3026
(lp3027
g287
ag288
aa(lp3028
g272
ag581
aa(lp3029
g276
ag583
aa(lp3030
g274
ag582
aa(lp3031
g269
ag579
aatp3032
Rp3033
ag2778
((lp3034
(lp3035
g287
ag313
aa(lp3036
g272
ag602
aa(lp3037
g276
ag604
aa(lp3038
g274
ag603
aa(lp3039
g269
ag600
aatp3040
Rp3041
ag2778
((lp3042
(lp3043
g287
ag288
aa(lp3044
g272
ag623
aa(lp3045
g276
ag625
aa(lp3046
g274
ag624
aa(lp3047
g269
ag621
aatp3048
Rp3049
ag2778
((lp3050
(lp3051
g287
ag313
aa(lp3052
g272
ag644
aa(lp3053
g276
ag646
aa(lp3054
g274
ag645
aa(lp3055
g269
ag642
aatp3056
Rp3057
ag2778
((lp3058
(lp3059
g287
ag313
aa(lp3060
g272
ag665
aa(lp3061
g276
ag667
aa(lp3062
g274
ag666
aa(lp3063
g269
ag663
aatp3064
Rp3065
ag2778
((lp3066
(lp3067
g287
ag313
aa(lp3068
g272
ag686
aa(lp3069
g276
ag688
aa(lp3070
g274
ag687
aa(lp3071
g269
ag684
aatp3072
Rp3073
ag2778
((lp3074
(lp3075
g287
ag288
aa(lp3076
g272
ag707
aa(lp3077
g276
ag709
aa(lp3078
g274
ag708
aa(lp3079
g269
ag705
aatp3080
Rp3081
ag2778
((lp3082
(lp3083
g287
ag313
aa(lp3084
g272
ag728
aa(lp3085
g276
ag730
aa(lp3086
g274
ag729
aa(lp3087
g269
ag726
aatp3088
Rp3089
ag2778
((lp3090
(lp3091
g287
ag313
aa(lp3092
g272
ag749
aa(lp3093
g276
ag751
aa(lp3094
g274
ag750
aa(lp3095
g269
ag747
aatp3096
Rp3097
ag2778
((lp3098
(lp3099
g287
ag288
aa(lp3100
g272
ag770
aa(lp3101
g276
ag772
aa(lp3102
g274
ag771
aa(lp3103
g269
ag768
aatp3104
Rp3105
ag2778
((lp3106
(lp3107
g287
ag288
aa(lp3108
g272
ag791
aa(lp3109
g276
ag793
aa(lp3110
g274
ag792
aa(lp3111
g269
ag789
aatp3112
Rp3113
ag2778
((lp3114
(lp3115
g287
ag313
aa(lp3116
g272
ag812
aa(lp3117
g276
ag814
aa(lp3118
g274
ag813
aa(lp3119
g269
ag810
aatp3120
Rp3121
ag2778
((lp3122
(lp3123
g287
ag313
aa(lp3124
g272
ag833
aa(lp3125
g276
ag835
aa(lp3126
g274
ag834
aa(lp3127
g269
ag831
aatp3128
Rp3129
ag2778
((lp3130
(lp3131
g287
ag288
aa(lp3132
g272
ag854
aa(lp3133
g276
ag856
aa(lp3134
g274
ag855
aa(lp3135
g269
ag852
aatp3136
Rp3137
asg142
Nsg143
g870
sg147
I28
sg148
I0
sg149
I28
sbag0
(g53
g2
Ntp3138
Rp3139
(dp3140
g57
Nsg58
(lp3141
sg59
I363499504
sg11
g2874
sg6
I-1
sg61
I1
sg26
I01
sg27
g28
sg62
g0
(g63
g64
(dp3142
g66
g67
(g68
g69
g70
g71
tp3143
Rp3144
(I1
(I28
I1
tp3145
g77
I00
S'\x00\x00\x80?\x00\x00\x80?\x00\x00\x80?\x00\x00\x80?\x00\x00\x80?\x00\x00\x80?\x00\x00\x80?\x00\x00\x80?\x00\x00\x80?\x00\x00\x80?\x00\x00\x80?\x00\x00\x80?\x00\x00\x80?\x00\x00\x80?\x00\x00\x80?\x00\x00\x80?\x00\x00\x80?\x00\x00\x80?\x00\x00\x80?\x00\x00\x80?\x00\x00\x80?\x00\x00\x80?\x00\x00\x80?\x00\x00\x80?\x00\x00\x80?\x00\x00\x80?\x00\x00\x80?\x00\x00\x80?'
p3146
S'\x00\x00\x00\x00\x00\x00\x00\x00\x00\x00\x00\x00\x00\x00\x00\x00\x00\x00\x00\x00\x00\x00\x00\x00\x00\x00\x00\x00'
p3147
Ntp3148
bsg20
g67
(g68
g69
g70
g71
tp3149
Rp3150
(I1
(I28
I1
tp3151
g77
I00
S'kV\xe0@=!\x94@\x9f\x1b1A\x19\xe6YA\xdb\x8a\x16A~\x89\xea@\xd2\x8a!A\x8f\xf6\xe8@\xc2\xb5\xdcAq\xbc\x15A\x92\xde4A\xaa\xda\x08A\xa8;\xa4@\xdewD@\xaf\xe1JA\xa7\xe3\x81@$3^@\n\x0f\xa9@\xda.]@E\xca3A\xfd\xb3\x06A\xdf\x97\x13A\xad\xee\x94A\x0f`a@\xf9\xdfJAXX\x0cA\xeaE\x80@\xe9\xbd\x95@'
p3152
S'\x00\x00\x00\x00\x00\x00\x00\x00\x00\x00\x00\x00\x00\x00\x00\x00\x00\x00\x00\x00\x00\x00\x00\x00\x00\x00\x00\x00'
p3153
Ntp3154
bsg106
g67
(g68
g69
g70
g71
tp3155
Rp3156
(I1
(I28
I1
tp3157
g77
I00
S'\x00\x00\x00\x00\x00\x00\x80?\x00\x00\x00@\x00\x00@@\x00\x00\x80@\x00\x00\xa0@\x00\x00\xc0@\x00\x00\xe0@\x00\x00\x00A\x00\x00\x10A\x00\x00 A\x00\x000A\x00\x00@A\x00\x00PA\x00\x00`A\x00\x00pA\x00\x00\x80A\x00\x00\x88A\x00\x00\x90A\x00\x00\x98A\x00\x00\xa0A\x00\x00\xa8A\x00\x00\xb0A\x00\x00\xb8A\x00\x00\xc0A\x00\x00\xc8A\x00\x00\xd0A\x00\x00\xd8A'
p3158
S'\x00\x00\x00\x00\x00\x00\x00\x00\x00\x00\x00\x00\x00\x00\x00\x00\x00\x00\x00\x00\x00\x00\x00\x00\x00\x00\x00\x00'
p3159
Ntp3160
bsg19
g89
(g69
(I0
tp3161
g71
tp3162
Rp3163
(I1
(I28
I1
tp3164
g96
I00
(lp3165
g913
ag934
ag956
ag977
ag998
ag1019
ag1040
ag1061
ag1082
ag1103
ag1124
ag1145
ag1166
ag1187
ag1208
ag1229
ag1250
ag1271
ag1292
ag1313
ag1334
ag1355
ag1376
ag1397
ag1418
ag1439
ag1460
ag1481
atp3166
bstp3167
Rp3168
(dp3169
g116
(dp3170
g66
I01
sg20
I01
sg106
I01
sg19
I00
ssg118
g3139
sg119
(lp3171
g66
ag106
ag19
ag20
asg121
(lp3172
I28
aI1
asbsg123
g2906
sg125
g89
(g69
(I0
tp3173
g71
tp3174
Rp3175
(I1
(I28
I1
tp3176
g132
I00
S'\x00\x00\x00\x00\x01\x00\x00\x00\x02\x00\x00\x00\x03\x00\x00\x00\x04\x00\x00\x00\x05\x00\x00\x00\x06\x00\x00\x00\x07\x00\x00\x00\x08\x00\x00\x00\t\x00\x00\x00\n\x00\x00\x00\x0b\x00\x00\x00\x0c\x00\x00\x00\r\x00\x00\x00\x0e\x00\x00\x00\x0f\x00\x00\x00\x10\x00\x00\x00\x11\x00\x00\x00\x12\x00\x00\x00\x13\x00\x00\x00\x14\x00\x00\x00\x15\x00\x00\x00\x16\x00\x00\x00\x17\x00\x00\x00\x18\x00\x00\x00\x19\x00\x00\x00\x1a\x00\x00\x00\x1b\x00\x00\x00'
p3177
tp3178
bsg137
I01
sg138
I1
sg139
I-1
sg140
(lp3179
g2778
((lp3180
(lp3181
g903
ag904
aa(lp3182
g888
ag889
aa(lp3183
g892
ag893
aa(lp3184
g890
ag891
aa(lp3185
g885
ag886
aatp3186
Rp3187
ag2778
((lp3188
(lp3189
g903
ag904
aa(lp3190
g888
ag923
aa(lp3191
g892
ag925
aa(lp3192
g890
ag924
aa(lp3193
g885
ag921
aatp3194
Rp3195
ag2778
((lp3196
(lp3197
g903
ag950
aa(lp3198
g888
ag944
aa(lp3199
g892
ag946
aa(lp3200
g890
ag945
aa(lp3201
g885
ag942
aatp3202
Rp3203
ag2778
((lp3204
(lp3205
g903
ag950
aa(lp3206
g888
ag966
aa(lp3207
g892
ag968
aa(lp3208
g890
ag967
aa(lp3209
g885
ag964
aatp3210
Rp3211
ag2778
((lp3212
(lp3213
g903
ag904
aa(lp3214
g888
ag987
aa(lp3215
g892
ag989
aa(lp3216
g890
ag988
aa(lp3217
g885
ag985
aatp3218
Rp3219
ag2778
((lp3220
(lp3221
g903
ag904
aa(lp3222
g888
ag1008
aa(lp3223
g892
ag1010
aa(lp3224
g890
ag1009
aa(lp3225
g885
ag1006
aatp3226
Rp3227
ag2778
((lp3228
(lp3229
g903
ag950
aa(lp3230
g888
ag1029
aa(lp3231
g892
ag1031
aa(lp3232
g890
ag1030
aa(lp3233
g885
ag1027
aatp3234
Rp3235
ag2778
((lp3236
(lp3237
g903
ag950
aa(lp3238
g888
ag1050
aa(lp3239
g892
ag1052
aa(lp3240
g890
ag1051
aa(lp3241
g885
ag1048
aatp3242
Rp3243
ag2778
((lp3244
(lp3245
g903
ag904
aa(lp3246
g888
ag1071
aa(lp3247
g892
ag1073
aa(lp3248
g890
ag1072
aa(lp3249
g885
ag1069
aatp3250
Rp3251
ag2778
((lp3252
(lp3253
g903
ag904
aa(lp3254
g888
ag1092
aa(lp3255
g892
ag1094
aa(lp3256
g890
ag1093
aa(lp3257
g885
ag1090
aatp3258
Rp3259
ag2778
((lp3260
(lp3261
g903
ag950
aa(lp3262
g888
ag1113
aa(lp3263
g892
ag1115
aa(lp3264
g890
ag1114
aa(lp3265
g885
ag1111
aatp3266
Rp3267
ag2778
((lp3268
(lp3269
g903
ag904
aa(lp3270
g888
ag1134
aa(lp3271
g892
ag1136
aa(lp3272
g890
ag1135
aa(lp3273
g885
ag1132
aatp3274
Rp3275
ag2778
((lp3276
(lp3277
g903
ag904
aa(lp3278
g888
ag1155
aa(lp3279
g892
ag1157
aa(lp3280
g890
ag1156
aa(lp3281
g885
ag1153
aatp3282
Rp3283
ag2778
((lp3284
(lp3285
g903
ag950
aa(lp3286
g888
ag1176
aa(lp3287
g892
ag1178
aa(lp3288
g890
ag1177
aa(lp3289
g885
ag1174
aatp3290
Rp3291
ag2778
((lp3292
(lp3293
g903
ag904
aa(lp3294
g888
ag1197
aa(lp3295
g892
ag1199
aa(lp3296
g890
ag1198
aa(lp3297
g885
ag1195
aatp3298
Rp3299
ag2778
((lp3300
(lp3301
g903
ag904
aa(lp3302
g888
ag1218
aa(lp3303
g892
ag1220
aa(lp3304
g890
ag1219
aa(lp3305
g885
ag1216
aatp3306
Rp3307
ag2778
((lp3308
(lp3309
g903
ag950
aa(lp3310
g888
ag1239
aa(lp3311
g892
ag1241
aa(lp3312
g890
ag1240
aa(lp3313
g885
ag1237
aatp3314
Rp3315
ag2778
((lp3316
(lp3317
g903
ag904
aa(lp3318
g888
ag1260
aa(lp3319
g892
ag1262
aa(lp3320
g890
ag1261
aa(lp3321
g885
ag1258
aatp3322
Rp3323
ag2778
((lp3324
(lp3325
g903
ag950
aa(lp3326
g888
ag1281
aa(lp3327
g892
ag1283
aa(lp3328
g890
ag1282
aa(lp3329
g885
ag1279
aatp3330
Rp3331
ag2778
((lp3332
(lp3333
g903
ag950
aa(lp3334
g888
ag1302
aa(lp3335
g892
ag1304
aa(lp3336
g890
ag1303
aa(lp3337
g885
ag1300
aatp3338
Rp3339
ag2778
((lp3340
(lp3341
g903
ag904
aa(lp3342
g888
ag1323
aa(lp3343
g892
ag1325
aa(lp3344
g890
ag1324
aa(lp3345
g885
ag1321
aatp3346
Rp3347
ag2778
((lp3348
(lp3349
g903
ag950
aa(lp3350
g888
ag1344
aa(lp3351
g892
ag1346
aa(lp3352
g890
ag1345
aa(lp3353
g885
ag1342
aatp3354
Rp3355
ag2778
((lp3356
(lp3357
g903
ag950
aa(lp3358
g888
ag1365
aa(lp3359
g892
ag1367
aa(lp3360
g890
ag1366
aa(lp3361
g885
ag1363
aatp3362
Rp3363
ag2778
((lp3364
(lp3365
g903
ag950
aa(lp3366
g888
ag1386
aa(lp3367
g892
ag1388
aa(lp3368
g890
ag1387
aa(lp3369
g885
ag1384
aatp3370
Rp3371
ag2778
((lp3372
(lp3373
g903
ag904
aa(lp3374
g888
ag1407
aa(lp3375
g892
ag1409
aa(lp3376
g890
ag1408
aa(lp3377
g885
ag1405
aatp3378
Rp3379
ag2778
((lp3380
(lp3381
g903
ag950
aa(lp3382
g888
ag1428
aa(lp3383
g892
ag1430
aa(lp3384
g890
ag1429
aa(lp3385
g885
ag1426
aatp3386
Rp3387
ag2778
((lp3388
(lp3389
g903
ag904
aa(lp3390
g888
ag1449
aa(lp3391
g892
ag1451
aa(lp3392
g890
ag1450
aa(lp3393
g885
ag1447
aatp3394
Rp3395
ag2778
((lp3396
(lp3397
g903
ag950
aa(lp3398
g888
ag1470
aa(lp3399
g892
ag1472
aa(lp3400
g890
ag1471
aa(lp3401
g885
ag1468
aatp3402
Rp3403
asg142
Nsg143
g1486
sg147
I28
sg148
I0
sg149
I28
sbag0
(g53
g2
Ntp3404
Rp3405
(dp3406
g57
Nsg58
(lp3407
sg59
I363499504
sg11
g2874
sg6
I-1
sg61
I1
sg26
I01
sg27
g28
sg62
g0
(g63
g64
(dp3408
g66
g67
(g68
g69
g70
g71
tp3409
Rp3410
(I1
(I28
I1
tp3411
g77
I00
S'\x00\x00\x80?\x00\x00\x80?\x00\x00\x80?\x00\x00\x80?\x00\x00\x80?\x00\x00\x80?\x00\x00\x80?\x00\x00\x80?\x00\x00\x80?\x00\x00\x80?\x00\x00\x80?\x00\x00\x80?\x00\x00\x80?\x00\x00\x80?\x00\x00\x80?\x00\x00\x80?\x00\x00\x80?\x00\x00\x80?\x00\x00\x80?\x00\x00\x80?\x00\x00\x80?\x00\x00\x80?\x00\x00\x80?\x00\x00\x80?\x00\x00\x80?\x00\x00\x80?\x00\x00\x80?\x00\x00\x80?'
p3412
S'\x00\x00\x00\x00\x00\x00\x00\x00\x00\x00\x00\x00\x00\x00\x00\x00\x00\x00\x00\x00\x00\x00\x00\x00\x00\x00\x00\x00'
p3413
Ntp3414
bsg20
g67
(g68
g69
g70
g71
tp3415
Rp3416
(I1
(I28
I1
tp3417
g77
I00
S'=\x80\x99@\xef\xd7\x86A&s\xe9@\xd3\x85\x12A\xb9T\xd1@P\xc2\x19A\x03\xca(A\x9d\xd0u@U,\x06AY\xf4\xf7@\xfa?\x1dA\xb5\x07M@)\xdc\xe7@\x1d\x11\xbf@;\xf6#A\\\\\xd9@\t]R@\xe3\xa51A\x15\xb9\xb2@i(\xb9@E\x88E@\xf5*\x86@$Z\x17A\x0b\x9f\x85@m\xa7\xce@g\xa8\x85@\xa3q\x11A)\xa9\x9b@'
p3418
S'\x00\x00\x00\x00\x00\x00\x00\x00\x00\x00\x00\x00\x00\x00\x00\x00\x00\x00\x00\x00\x00\x00\x00\x00\x00\x00\x00\x00'
p3419
Ntp3420
bsg106
g67
(g68
g69
g70
g71
tp3421
Rp3422
(I1
(I28
I1
tp3423
g77
I00
S'\x00\x00\x00\x00\x00\x00\x80?\x00\x00\x00@\x00\x00@@\x00\x00\x80@\x00\x00\xa0@\x00\x00\xc0@\x00\x00\xe0@\x00\x00\x00A\x00\x00\x10A\x00\x00 A\x00\x000A\x00\x00@A\x00\x00PA\x00\x00`A\x00\x00pA\x00\x00\x80A\x00\x00\x88A\x00\x00\x90A\x00\x00\x98A\x00\x00\xa0A\x00\x00\xa8A\x00\x00\xb0A\x00\x00\xb8A\x00\x00\xc0A\x00\x00\xc8A\x00\x00\xd0A\x00\x00\xd8A'
p3424
S'\x00\x00\x00\x00\x00\x00\x00\x00\x00\x00\x00\x00\x00\x00\x00\x00\x00\x00\x00\x00\x00\x00\x00\x00\x00\x00\x00\x00'
p3425
Ntp3426
bsg19
g89
(g69
(I0
tp3427
g71
tp3428
Rp3429
(I1
(I28
I1
tp3430
g96
I00
(lp3431
g1529
ag1551
ag1572
ag1593
ag1614
ag1635
ag1656
ag1677
ag1698
ag1719
ag1740
ag1761
ag1782
ag1803
ag1824
ag1845
ag1866
ag1887
ag1908
ag1929
ag1950
ag1971
ag1992
ag2013
ag2034
ag2055
ag2076
ag2097
atp3432
bstp3433
Rp3434
(dp3435
g116
(dp3436
g66
I01
sg20
I01
sg106
I01
sg19
I00
ssg118
g3405
sg119
(lp3437
g66
ag106
ag19
ag20
asg121
(lp3438
I28
aI1
asbsg123
g2906
sg125
g89
(g69
(I0
tp3439
g71
tp3440
Rp3441
(I1
(I28
I1
tp3442
g132
I00
S'\x00\x00\x00\x00\x01\x00\x00\x00\x02\x00\x00\x00\x03\x00\x00\x00\x04\x00\x00\x00\x05\x00\x00\x00\x06\x00\x00\x00\x07\x00\x00\x00\x08\x00\x00\x00\t\x00\x00\x00\n\x00\x00\x00\x0b\x00\x00\x00\x0c\x00\x00\x00\r\x00\x00\x00\x0e\x00\x00\x00\x0f\x00\x00\x00\x10\x00\x00\x00\x11\x00\x00\x00\x12\x00\x00\x00\x13\x00\x00\x00\x14\x00\x00\x00\x15\x00\x00\x00\x16\x00\x00\x00\x17\x00\x00\x00\x18\x00\x00\x00\x19\x00\x00\x00\x1a\x00\x00\x00\x1b\x00\x00\x00'
p3443
tp3444
bsg137
I01
sg138
I1
sg139
I-1
sg140
(lp3445
g2778
((lp3446
(lp3447
g1519
ag1520
aa(lp3448
g1504
ag1505
aa(lp3449
g1508
ag1509
aa(lp3450
g1506
ag1507
aa(lp3451
g1501
ag1502
aatp3452
Rp3453
ag2778
((lp3454
(lp3455
g1519
ag1545
aa(lp3456
g1504
ag1539
aa(lp3457
g1508
ag1541
aa(lp3458
g1506
ag1540
aa(lp3459
g1501
ag1537
aatp3460
Rp3461
ag2778
((lp3462
(lp3463
g1519
ag1520
aa(lp3464
g1504
ag1561
aa(lp3465
g1508
ag1563
aa(lp3466
g1506
ag1562
aa(lp3467
g1501
ag1559
aatp3468
Rp3469
ag2778
((lp3470
(lp3471
g1519
ag1545
aa(lp3472
g1504
ag1582
aa(lp3473
g1508
ag1584
aa(lp3474
g1506
ag1583
aa(lp3475
g1501
ag1580
aatp3476
Rp3477
ag2778
((lp3478
(lp3479
g1519
ag1545
aa(lp3480
g1504
ag1603
aa(lp3481
g1508
ag1605
aa(lp3482
g1506
ag1604
aa(lp3483
g1501
ag1601
aatp3484
Rp3485
ag2778
((lp3486
(lp3487
g1519
ag1520
aa(lp3488
g1504
ag1624
aa(lp3489
g1508
ag1626
aa(lp3490
g1506
ag1625
aa(lp3491
g1501
ag1622
aatp3492
Rp3493
ag2778
((lp3494
(lp3495
g1519
ag1520
aa(lp3496
g1504
ag1645
aa(lp3497
g1508
ag1647
aa(lp3498
g1506
ag1646
aa(lp3499
g1501
ag1643
aatp3500
Rp3501
ag2778
((lp3502
(lp3503
g1519
ag1520
aa(lp3504
g1504
ag1666
aa(lp3505
g1508
ag1668
aa(lp3506
g1506
ag1667
aa(lp3507
g1501
ag1664
aatp3508
Rp3509
ag2778
((lp3510
(lp3511
g1519
ag1545
aa(lp3512
g1504
ag1687
aa(lp3513
g1508
ag1689
aa(lp3514
g1506
ag1688
aa(lp3515
g1501
ag1685
aatp3516
Rp3517
ag2778
((lp3518
(lp3519
g1519
ag1545
aa(lp3520
g1504
ag1708
aa(lp3521
g1508
ag1710
aa(lp3522
g1506
ag1709
aa(lp3523
g1501
ag1706
aatp3524
Rp3525
ag2778
((lp3526
(lp3527
g1519
ag1520
aa(lp3528
g1504
ag1729
aa(lp3529
g1508
ag1731
aa(lp3530
g1506
ag1730
aa(lp3531
g1501
ag1727
aatp3532
Rp3533
ag2778
((lp3534
(lp3535
g1519
ag1520
aa(lp3536
g1504
ag1750
aa(lp3537
g1508
ag1752
aa(lp3538
g1506
ag1751
aa(lp3539
g1501
ag1748
aatp3540
Rp3541
ag2778
((lp3542
(lp3543
g1519
ag1545
aa(lp3544
g1504
ag1771
aa(lp3545
g1508
ag1773
aa(lp3546
g1506
ag1772
aa(lp3547
g1501
ag1769
aatp3548
Rp3549
ag2778
((lp3550
(lp3551
g1519
ag1520
aa(lp3552
g1504
ag1792
aa(lp3553
g1508
ag1794
aa(lp3554
g1506
ag1793
aa(lp3555
g1501
ag1790
aatp3556
Rp3557
ag2778
((lp3558
(lp3559
g1519
ag1520
aa(lp3560
g1504
ag1813
aa(lp3561
g1508
ag1815
aa(lp3562
g1506
ag1814
aa(lp3563
g1501
ag1811
aatp3564
Rp3565
ag2778
((lp3566
(lp3567
g1519
ag1545
aa(lp3568
g1504
ag1834
aa(lp3569
g1508
ag1836
aa(lp3570
g1506
ag1835
aa(lp3571
g1501
ag1832
aatp3572
Rp3573
ag2778
((lp3574
(lp3575
g1519
ag1545
aa(lp3576
g1504
ag1855
aa(lp3577
g1508
ag1857
aa(lp3578
g1506
ag1856
aa(lp3579
g1501
ag1853
aatp3580
Rp3581
ag2778
((lp3582
(lp3583
g1519
ag1520
aa(lp3584
g1504
ag1876
aa(lp3585
g1508
ag1878
aa(lp3586
g1506
ag1877
aa(lp3587
g1501
ag1874
aatp3588
Rp3589
ag2778
((lp3590
(lp3591
g1519
ag1545
aa(lp3592
g1504
ag1897
aa(lp3593
g1508
ag1899
aa(lp3594
g1506
ag1898
aa(lp3595
g1501
ag1895
aatp3596
Rp3597
ag2778
((lp3598
(lp3599
g1519
ag1520
aa(lp3600
g1504
ag1918
aa(lp3601
g1508
ag1920
aa(lp3602
g1506
ag1919
aa(lp3603
g1501
ag1916
aatp3604
Rp3605
ag2778
((lp3606
(lp3607
g1519
ag1520
aa(lp3608
g1504
ag1939
aa(lp3609
g1508
ag1941
aa(lp3610
g1506
ag1940
aa(lp3611
g1501
ag1937
aatp3612
Rp3613
ag2778
((lp3614
(lp3615
g1519
ag1545
aa(lp3616
g1504
ag1960
aa(lp3617
g1508
ag1962
aa(lp3618
g1506
ag1961
aa(lp3619
g1501
ag1958
aatp3620
Rp3621
ag2778
((lp3622
(lp3623
g1519
ag1545
aa(lp3624
g1504
ag1981
aa(lp3625
g1508
ag1983
aa(lp3626
g1506
ag1982
aa(lp3627
g1501
ag1979
aatp3628
Rp3629
ag2778
((lp3630
(lp3631
g1519
ag1520
aa(lp3632
g1504
ag2002
aa(lp3633
g1508
ag2004
aa(lp3634
g1506
ag2003
aa(lp3635
g1501
ag2000
aatp3636
Rp3637
ag2778
((lp3638
(lp3639
g1519
ag1545
aa(lp3640
g1504
ag2023
aa(lp3641
g1508
ag2025
aa(lp3642
g1506
ag2024
aa(lp3643
g1501
ag2021
aatp3644
Rp3645
ag2778
((lp3646
(lp3647
g1519
ag1545
aa(lp3648
g1504
ag2044
aa(lp3649
g1508
ag2046
aa(lp3650
g1506
ag2045
aa(lp3651
g1501
ag2042
aatp3652
Rp3653
ag2778
((lp3654
(lp3655
g1519
ag1545
aa(lp3656
g1504
ag2065
aa(lp3657
g1508
ag2067
aa(lp3658
g1506
ag2066
aa(lp3659
g1501
ag2063
aatp3660
Rp3661
ag2778
((lp3662
(lp3663
g1519
ag1520
aa(lp3664
g1504
ag2086
aa(lp3665
g1508
ag2088
aa(lp3666
g1506
ag2087
aa(lp3667
g1501
ag2084
aatp3668
Rp3669
asg142
Nsg143
g2102
sg147
I28
sg148
I0
sg149
I28
sbag0
(g53
g2
Ntp3670
Rp3671
(dp3672
g57
Nsg58
(lp3673
sg59
I363499504
sg11
g2874
sg6
I-1
sg61
I1
sg26
I01
sg27
g28
sg62
g0
(g63
g64
(dp3674
g66
g67
(g68
g69
g70
g71
tp3675
Rp3676
(I1
(I28
I1
tp3677
g77
I00
S'\x00\x00\x80?\x00\x00\x80?\x00\x00\x80?\x00\x00\x80?\x00\x00\x80?\x00\x00\x80?\x00\x00\x80?\x00\x00\x80?\x00\x00\x80?\x00\x00\x80?\x00\x00\x80?\x00\x00\x80?\x00\x00\x80?\x00\x00\x80?\x00\x00\x80?\x00\x00\x80?\x00\x00\x80?\x00\x00\x80?\x00\x00\x80?\x00\x00\x80?\x00\x00\x80?\x00\x00\x80?\x00\x00\x80?\x00\x00\x80?\x00\x00\x80?\x00\x00\x80?\x00\x00\x80?\x00\x00\x80?'
p3678
S'\x00\x00\x00\x00\x00\x00\x00\x00\x00\x00\x00\x00\x00\x00\x00\x00\x00\x00\x00\x00\x00\x00\x00\x00\x00\x00\x00\x00'
p3679
Ntp3680
bsg20
g67
(g68
g69
g70
g71
tp3681
Rp3682
(I1
(I28
I1
tp3683
g77
I00
S"\x1f\xaas@\x95\xba\x86@\xda\xf3\xcb@?s=A\x93f\x9f@\x99\xee\x89@\xbaba@\xa0m\x02Au\xa3\x10A0&\x9b@q\x8f\xea@e\xcd3A\xd4\x81E@S\x18N@\xf0(OA\xc3\x13\x0cA\xf8\xde\x88@'*eA<\xd4\xd8@\r\xdf\x0cAj1SAP\x0e\x1eAkm\x02A\x1f\xca\x9d@\x8d\x9fCAH\x82\xdb@r\xf6\x98@v\xe71A"
p3684
S'\x00\x00\x00\x00\x00\x00\x00\x00\x00\x00\x00\x00\x00\x00\x00\x00\x00\x00\x00\x00\x00\x00\x00\x00\x00\x00\x00\x00'
p3685
Ntp3686
bsg106
g67
(g68
g69
g70
g71
tp3687
Rp3688
(I1
(I28
I1
tp3689
g77
I00
S'\x00\x00\x00\x00\x00\x00\x80?\x00\x00\x00@\x00\x00@@\x00\x00\x80@\x00\x00\xa0@\x00\x00\xc0@\x00\x00\xe0@\x00\x00\x00A\x00\x00\x10A\x00\x00 A\x00\x000A\x00\x00@A\x00\x00PA\x00\x00`A\x00\x00pA\x00\x00\x80A\x00\x00\x88A\x00\x00\x90A\x00\x00\x98A\x00\x00\xa0A\x00\x00\xa8A\x00\x00\xb0A\x00\x00\xb8A\x00\x00\xc0A\x00\x00\xc8A\x00\x00\xd0A\x00\x00\xd8A'
p3690
S'\x00\x00\x00\x00\x00\x00\x00\x00\x00\x00\x00\x00\x00\x00\x00\x00\x00\x00\x00\x00\x00\x00\x00\x00\x00\x00\x00\x00'
p3691
Ntp3692
bsg19
g89
(g69
(I0
tp3693
g71
tp3694
Rp3695
(I1
(I28
I1
tp3696
g96
I00
(lp3697
g2145
ag2166
ag2188
ag2209
ag2230
ag2251
ag2272
ag2293
ag2314
ag2335
ag2356
ag2377
ag2398
ag2419
ag2440
ag2461
ag2482
ag2503
ag2524
ag2545
ag2566
ag2587
ag2608
ag2629
ag2650
ag2671
ag2692
ag2713
atp3698
bstp3699
Rp3700
(dp3701
g116
(dp3702
g66
I01
sg20
I01
sg106
I01
sg19
I00
ssg118
g3671
sg119
(lp3703
g66
ag106
ag19
ag20
asg121
(lp3704
I28
aI1
asbsg123
g2906
sg125
g89
(g69
(I0
tp3705
g71
tp3706
Rp3707
(I1
(I28
I1
tp3708
g132
I00
S'\x00\x00\x00\x00\x01\x00\x00\x00\x02\x00\x00\x00\x03\x00\x00\x00\x04\x00\x00\x00\x05\x00\x00\x00\x06\x00\x00\x00\x07\x00\x00\x00\x08\x00\x00\x00\t\x00\x00\x00\n\x00\x00\x00\x0b\x00\x00\x00\x0c\x00\x00\x00\r\x00\x00\x00\x0e\x00\x00\x00\x0f\x00\x00\x00\x10\x00\x00\x00\x11\x00\x00\x00\x12\x00\x00\x00\x13\x00\x00\x00\x14\x00\x00\x00\x15\x00\x00\x00\x16\x00\x00\x00\x17\x00\x00\x00\x18\x00\x00\x00\x19\x00\x00\x00\x1a\x00\x00\x00\x1b\x00\x00\x00'
p3709
tp3710
bsg137
I01
sg138
I1
sg139
I-1
sg140
(lp3711
g2778
((lp3712
(lp3713
g2135
ag2136
aa(lp3714
g2120
ag2121
aa(lp3715
g2124
ag2125
aa(lp3716
g2122
ag2123
aa(lp3717
g2117
ag2118
aatp3718
Rp3719
ag2778
((lp3720
(lp3721
g2135
ag2136
aa(lp3722
g2120
ag2155
aa(lp3723
g2124
ag2157
aa(lp3724
g2122
ag2156
aa(lp3725
g2117
ag2153
aatp3726
Rp3727
ag2778
((lp3728
(lp3729
g2135
ag2182
aa(lp3730
g2120
ag2176
aa(lp3731
g2124
ag2178
aa(lp3732
g2122
ag2177
aa(lp3733
g2117
ag2174
aatp3734
Rp3735
ag2778
((lp3736
(lp3737
g2135
ag2182
aa(lp3738
g2120
ag2198
aa(lp3739
g2124
ag2200
aa(lp3740
g2122
ag2199
aa(lp3741
g2117
ag2196
aatp3742
Rp3743
ag2778
((lp3744
(lp3745
g2135
ag2136
aa(lp3746
g2120
ag2219
aa(lp3747
g2124
ag2221
aa(lp3748
g2122
ag2220
aa(lp3749
g2117
ag2217
aatp3750
Rp3751
ag2778
((lp3752
(lp3753
g2135
ag2136
aa(lp3754
g2120
ag2240
aa(lp3755
g2124
ag2242
aa(lp3756
g2122
ag2241
aa(lp3757
g2117
ag2238
aatp3758
Rp3759
ag2778
((lp3760
(lp3761
g2135
ag2182
aa(lp3762
g2120
ag2261
aa(lp3763
g2124
ag2263
aa(lp3764
g2122
ag2262
aa(lp3765
g2117
ag2259
aatp3766
Rp3767
ag2778
((lp3768
(lp3769
g2135
ag2182
aa(lp3770
g2120
ag2282
aa(lp3771
g2124
ag2284
aa(lp3772
g2122
ag2283
aa(lp3773
g2117
ag2280
aatp3774
Rp3775
ag2778
((lp3776
(lp3777
g2135
ag2136
aa(lp3778
g2120
ag2303
aa(lp3779
g2124
ag2305
aa(lp3780
g2122
ag2304
aa(lp3781
g2117
ag2301
aatp3782
Rp3783
ag2778
((lp3784
(lp3785
g2135
ag2136
aa(lp3786
g2120
ag2324
aa(lp3787
g2124
ag2326
aa(lp3788
g2122
ag2325
aa(lp3789
g2117
ag2322
aatp3790
Rp3791
ag2778
((lp3792
(lp3793
g2135
ag2136
aa(lp3794
g2120
ag2345
aa(lp3795
g2124
ag2347
aa(lp3796
g2122
ag2346
aa(lp3797
g2117
ag2343
aatp3798
Rp3799
ag2778
((lp3800
(lp3801
g2135
ag2182
aa(lp3802
g2120
ag2366
aa(lp3803
g2124
ag2368
aa(lp3804
g2122
ag2367
aa(lp3805
g2117
ag2364
aatp3806
Rp3807
ag2778
((lp3808
(lp3809
g2135
ag2136
aa(lp3810
g2120
ag2387
aa(lp3811
g2124
ag2389
aa(lp3812
g2122
ag2388
aa(lp3813
g2117
ag2385
aatp3814
Rp3815
ag2778
((lp3816
(lp3817
g2135
ag2136
aa(lp3818
g2120
ag2408
aa(lp3819
g2124
ag2410
aa(lp3820
g2122
ag2409
aa(lp3821
g2117
ag2406
aatp3822
Rp3823
ag2778
((lp3824
(lp3825
g2135
ag2182
aa(lp3826
g2120
ag2429
aa(lp3827
g2124
ag2431
aa(lp3828
g2122
ag2430
aa(lp3829
g2117
ag2427
aatp3830
Rp3831
ag2778
((lp3832
(lp3833
g2135
ag2136
aa(lp3834
g2120
ag2450
aa(lp3835
g2124
ag2452
aa(lp3836
g2122
ag2451
aa(lp3837
g2117
ag2448
aatp3838
Rp3839
ag2778
((lp3840
(lp3841
g2135
ag2182
aa(lp3842
g2120
ag2471
aa(lp3843
g2124
ag2473
aa(lp3844
g2122
ag2472
aa(lp3845
g2117
ag2469
aatp3846
Rp3847
ag2778
((lp3848
(lp3849
g2135
ag2182
aa(lp3850
g2120
ag2492
aa(lp3851
g2124
ag2494
aa(lp3852
g2122
ag2493
aa(lp3853
g2117
ag2490
aatp3854
Rp3855
ag2778
((lp3856
(lp3857
g2135
ag2182
aa(lp3858
g2120
ag2513
aa(lp3859
g2124
ag2515
aa(lp3860
g2122
ag2514
aa(lp3861
g2117
ag2511
aatp3862
Rp3863
ag2778
((lp3864
(lp3865
g2135
ag2136
aa(lp3866
g2120
ag2534
aa(lp3867
g2124
ag2536
aa(lp3868
g2122
ag2535
aa(lp3869
g2117
ag2532
aatp3870
Rp3871
ag2778
((lp3872
(lp3873
g2135
ag2182
aa(lp3874
g2120
ag2555
aa(lp3875
g2124
ag2557
aa(lp3876
g2122
ag2556
aa(lp3877
g2117
ag2553
aatp3878
Rp3879
ag2778
((lp3880
(lp3881
g2135
ag2182
aa(lp3882
g2120
ag2576
aa(lp3883
g2124
ag2578
aa(lp3884
g2122
ag2577
aa(lp3885
g2117
ag2574
aatp3886
Rp3887
ag2778
((lp3888
(lp3889
g2135
ag2136
aa(lp3890
g2120
ag2597
aa(lp3891
g2124
ag2599
aa(lp3892
g2122
ag2598
aa(lp3893
g2117
ag2595
aatp3894
Rp3895
ag2778
((lp3896
(lp3897
g2135
ag2182
aa(lp3898
g2120
ag2618
aa(lp3899
g2124
ag2620
aa(lp3900
g2122
ag2619
aa(lp3901
g2117
ag2616
aatp3902
Rp3903
ag2778
((lp3904
(lp3905
g2135
ag2182
aa(lp3906
g2120
ag2639
aa(lp3907
g2124
ag2641
aa(lp3908
g2122
ag2640
aa(lp3909
g2117
ag2637
aatp3910
Rp3911
ag2778
((lp3912
(lp3913
g2135
ag2136
aa(lp3914
g2120
ag2660
aa(lp3915
g2124
ag2662
aa(lp3916
g2122
ag2661
aa(lp3917
g2117
ag2658
aatp3918
Rp3919
ag2778
((lp3920
(lp3921
g2135
ag2182
aa(lp3922
g2120
ag2681
aa(lp3923
g2124
ag2683
aa(lp3924
g2122
ag2682
aa(lp3925
g2117
ag2679
aatp3926
Rp3927
ag2778
((lp3928
(lp3929
g2135
ag2136
aa(lp3930
g2120
ag2702
aa(lp3931
g2124
ag2704
aa(lp3932
g2122
ag2703
aa(lp3933
g2117
ag2700
aatp3934
Rp3935
asg142
Nsg143
g2718
sg147
I28
sg148
I0
sg149
I28
sbasS'savePickle'
p3936
I00
sb.