ccopy_reg
_reconstructor
p0
(cpsychopy.data.experiment
ExperimentHandler
p1
c__builtin__
object
p2
Ntp3
Rp4
(dp5
S'originPath'
p6
VC:\u005cUsers\u005cadmin\u005cDocuments\u005cgit-repos\u005cpia_rita\u005cPia_Rita_2018_replication_sheb-pulv2013\u005cexp-scripts_psychopy\u005cpilot\u005csheb_replic_pilot_control.psyexp
p7
sS'dataFileName'
p8
VC:\u005cUsers\u005cadmin\u005cDocuments\u005cgit-repos\u005cpia_rita\u005cPia_Rita_2018_replication_sheb-pulv2013\u005cexp-scripts_psychopy\u005cpilot\u005cdata/913_sheb_replic_pilot_control_2018_Jun_20_1145
p9
sS'runtimeInfo'
p10
NsS'name'
p11
S'sheb_replic_pilot_control'
p12
sS'dataNames'
p13
(lp14
S'key_resp_13.keys'
p15
aS'key_resp_13.rt'
p16
aS'key_resp_6.keys'
p17
aS'key_resp_6.rt'
p18
aS'key_resp_2.keys'
p19
aS'key_resp_2.rt'
p20
aS'key_resp_8.keys'
p21
aS'key_resp_8.rt'
p22
aS'key_resp_7.keys'
p23
aS'key_resp_7.rt'
p24
aS'key_resp_3.keys'
p25
aS'key_resp_3.rt'
p26
asS'autoLog'
p27
I01
sS'extraInfo'
p28
(dp29
S'date'
p30
V2018_Jun_20_1145
p31
sS'frameRate'
p32
cnumpy.core.multiarray
scalar
p33
(cnumpy
dtype
p34
(S'f8'
p35
I0
I1
tp36
Rp37
(I3
S'<'
p38
NNNI-1
I-1
I0
tp39
bS';{C\xc0\xda\x01N@'
p40
tp41
Rp42
sS'expName'
p43
g12
sVsession
p44
V001
p45
sVparticipant
p46
g0
(cfuture.types.newstr
newstr
p47
c__builtin__
unicode
p48
V913
p49
tp50
Rp51
ssS'loopsUnfinished'
p52
(lp53
g0
(cpsychopy.data.trial
TrialHandler
p54
g2
Ntp55
Rp56
(dp57
S'origin'
p58
NsS'thisTrial'
p59
NsS'_exp'
p60
I364072944
sg11
S'training_block'
p61
sg6
I-1
sS'thisRepN'
p62
I1
sg27
I01
sg28
g29
sS'data'
p63
g0
(cpsychopy.data.base
DataHandler
p64
c__builtin__
dict
p65
(dp66
S'ran'
p67
cnumpy.ma.core
_mareconstruct
p68
(cnumpy.ma.core
MaskedArray
p69
cnumpy
ndarray
p70
(I0
tp71
S'b'
p72
tp73
Rp74
(I1
(I1
I5
tp75
g34
(S'f4'
p76
I0
I1
tp77
Rp78
(I3
S'<'
p79
NNNI-1
I-1
I0
tp80
bI00
S'\x00\x00\x80?\x00\x00\x80?\x00\x00\x00\x00\x00\x00\x00\x00\x00\x00\x00\x00'
p81
S'\x00\x00\x00\x00\x00'
p82
Ntp83
bsg22
g68
(g69
g70
g71
g72
tp84
Rp85
(I1
(I1
I5
tp86
g78
I00
S'\x8d\x04nA\xc18\x8eA\x00\x00\x00\x00\x00\x00\x00\x00\x00\x00\x00\x00'
p87
S'\x00\x00\x01\x01\x01'
p88
Ntp89
bsg21
cnumpy.core.multiarray
_reconstruct
p90
(g70
(I0
tp91
g72
tp92
Rp93
(I1
(I1
I5
tp94
g34
(S'O4'
p95
I0
I1
tp96
Rp97
(I3
S'|'
p98
NNNI-1
I-1
I63
tp99
bI00
(lp100
S'p'
p101
aS's'
p102
aS'--'
p103
aS'--'
p104
aS'--'
p105
atp106
bsS'order'
p107
g68
(g69
g70
g71
g72
tp108
Rp109
(I1
(I1
I5
tp110
g78
I00
S'\x00\x00\x00\x00\x00\x00\x80?\x00\x00\x00\x00\x00\x00\x00\x00\x00\x00\x00\x00'
p111
S'\x00\x00\x01\x01\x01'
p112
Ntp113
bstp114
Rp115
(dp116
S'isNumeric'
p117
(dp118
g67
I01
sg22
I01
sg21
I00
sg107
I01
ssS'trials'
p119
g56
sS'dataTypes'
p120
(lp121
g67
ag107
ag21
ag22
asS'dataShape'
p122
(lp123
I1
aI5
asbsS'method'
p124
S'random'
p125
sS'sequenceIndices'
p126
g90
(g70
(I0
tp127
g72
tp128
Rp129
(I1
(I1
I5
tp130
g34
(S'i4'
p131
I0
I1
tp132
Rp133
(I3
S'<'
p134
NNNI-1
I-1
I0
tp135
bI00
S'\x00\x00\x00\x00\x00\x00\x00\x00\x00\x00\x00\x00\x00\x00\x00\x00\x00\x00\x00\x00'
p136
tp137
bsS'finished'
p138
I00
sS'nReps'
p139
I5
sS'nRemaining'
p140
I3
sS'trialList'
p141
(lp142
NasS'seed'
p143
NsS'thisIndex'
p144
g33
(g133
S'\x00\x00\x00\x00'
p145
tp146
Rp147
sS'thisN'
p148
I1
sS'thisTrialN'
p149
I0
sS'nTotal'
p150
I5
sbasS'saveWideText'
p151
I00
sS'thisEntry'
p152
(dp153
sS'version'
p154
S''
p155
sS'_paramNamesSoFar'
p156
(lp157
S'item'
p158
aS'type'
p159
aS'word1'
p160
aS'word2'
p161
aS'word3'
p162
aS'word4'
p163
aS'word_duration'
p164
aS'follow_blank'
p165
aS'SOA'
p166
asS'entries'
p167
(lp168
(dp169
g44
g45
sg43
g12
sg46
g51
sg15
S'space'
p170
sg30
g31
sg32
g42
sg16
F543.9021721994659
sa(dp171
g44
g45
sg43
g12
sg46
g51
sg30
g31
sg17
S'space'
p172
sg32
g42
sg18
F3.1029903154440035
sa(dp173
S'training_block.thisRepN'
p174
I0
sg20
F16.972651235490957
sS'training_block.thisN'
p175
I0
sS'word_presentation_training.thisTrialN'
p176
I0
sg44
g45
sg163
Vsigh
p177
sS'word_presentation_training.thisRepN'
p178
I0
sg46
g51
sg32
g42
sS'training_block.thisTrialN'
p179
I0
sg19
S'space'
p180
sg158
g33
(g34
(S'i8'
p181
I0
I1
tp182
Rp183
(I3
S'<'
p184
NNNI-1
I-1
I0
tp185
bS'\x01\x00\x00\x00\x00\x00\x00\x00'
p186
tp187
Rp188
sg43
g12
sg160
Vwait
p189
sS'word_presentation_training.thisIndex'
p190
g33
(g133
S'\x00\x00\x00\x00'
p191
tp192
Rp193
sg162
Vblush
p194
sg161
Vbless
p195
sg30
g31
sS'word_presentation_training.thisN'
p196
I0
sg159
Vtraining
p197
sS'training_block.thisIndex'
p198
g33
(g133
S'\x00\x00\x00\x00'
p199
tp200
Rp201
sa(dp202
S'training_block.thisRepN'
p203
I0
sg20
F9.777573286099141
sS'training_block.thisN'
p204
I0
sS'word_presentation_training.thisTrialN'
p205
I1
sg44
g45
sg163
Vprint
p206
sS'word_presentation_training.thisRepN'
p207
I0
sg46
g51
sg32
g42
sS'training_block.thisTrialN'
p208
I0
sg19
S'space'
p209
sg158
g33
(g183
S'\x04\x00\x00\x00\x00\x00\x00\x00'
p210
tp211
Rp212
sg43
g12
sg160
Vsave
p213
sS'word_presentation_training.thisIndex'
p214
g33
(g133
S'\x03\x00\x00\x00'
p215
tp216
Rp217
sg162
Vstay
p218
sg161
Vlook
p219
sg30
g31
sS'word_presentation_training.thisN'
p220
I1
sg159
g197
sS'training_block.thisIndex'
p221
g201
sa(dp222
S'training_block.thisRepN'
p223
I0
sg20
F6.9099716824239295
sS'training_block.thisN'
p224
I0
sS'word_presentation_training.thisTrialN'
p225
I2
sg44
g45
sg163
Vyell
p226
sS'word_presentation_training.thisRepN'
p227
I0
sg46
g51
sg32
g42
sS'training_block.thisTrialN'
p228
I0
sg19
S'space'
p229
sg158
g33
(g183
S'\x02\x00\x00\x00\x00\x00\x00\x00'
p230
tp231
Rp232
sg43
g12
sg160
Vlike
p233
sS'word_presentation_training.thisIndex'
p234
g33
(g133
S'\x01\x00\x00\x00'
p235
tp236
Rp237
sg162
Vstare
p238
sg161
Vthank
p239
sg30
g31
sS'word_presentation_training.thisN'
p240
I2
sg159
g197
sS'training_block.thisIndex'
p241
g201
sa(dp242
S'training_block.thisRepN'
p243
I0
sg20
F5.048430284910864
sS'training_block.thisN'
p244
I0
sS'word_presentation_training.thisTrialN'
p245
I3
sg44
g45
sg163
Vsoothe
p246
sS'word_presentation_training.thisRepN'
p247
I0
sg46
g51
sg32
g42
sS'training_block.thisTrialN'
p248
I0
sg19
S'space'
p249
sg158
g33
(g183
S'\x03\x00\x00\x00\x00\x00\x00\x00'
p250
tp251
Rp252
sg43
g12
sg160
Vlick
p253
sS'word_presentation_training.thisIndex'
p254
g33
(g133
S'\x02\x00\x00\x00'
p255
tp256
Rp257
sg162
Vchew
p258
sg161
Vruin
p259
sg30
g31
sS'word_presentation_training.thisN'
p260
I3
sg159
g197
sS'training_block.thisIndex'
p261
g201
sa(dp262
S'training_block.thisRepN'
p263
I0
sS'training_block.thisN'
p264
I0
sg44
g45
sg32
g42
sS'training_block.thisTrialN'
p265
I0
sg22
F14.87611149546592
sg43
g12
sg21
g101
sg30
g31
sg46
g51
sS'training_block.thisIndex'
p266
g201
sa(dp267
S'training_block.thisRepN'
p268
I1
sg20
F5.065747586763791
sS'training_block.thisN'
p269
I1
sS'word_presentation_training.thisTrialN'
p270
I0
sg44
g45
sS'word4'
p271
Vsigh
p272
sS'word_presentation_training.thisRepN'
p273
I0
sg46
g51
sg32
g42
sS'training_block.thisTrialN'
p274
I0
sg19
S'space'
p275
sS'item'
p276
g33
(g183
S'\x01\x00\x00\x00\x00\x00\x00\x00'
p277
tp278
Rp279
sg43
g12
sS'word1'
p280
Vwait
p281
sS'word_presentation_training.thisIndex'
p282
g33
(g133
S'\x00\x00\x00\x00'
p283
tp284
Rp285
sS'word3'
p286
Vblush
p287
sS'word2'
p288
Vbless
p289
sg30
g31
sS'word_presentation_training.thisN'
p290
I0
sS'type'
p291
Vtraining
p292
sS'training_block.thisIndex'
p293
g147
sa(dp294
S'training_block.thisRepN'
p295
I1
sg20
F4.847125392690941
sS'training_block.thisN'
p296
I1
sS'word_presentation_training.thisTrialN'
p297
I1
sg44
g45
sg271
Vsoothe
p298
sS'word_presentation_training.thisRepN'
p299
I0
sg46
g51
sg32
g42
sS'training_block.thisTrialN'
p300
I0
sg19
S'space'
p301
sg276
g33
(g183
S'\x03\x00\x00\x00\x00\x00\x00\x00'
p302
tp303
Rp304
sg43
g12
sg280
Vlick
p305
sS'word_presentation_training.thisIndex'
p306
g33
(g133
S'\x02\x00\x00\x00'
p307
tp308
Rp309
sg286
Vchew
p310
sg288
Vruin
p311
sg30
g31
sS'word_presentation_training.thisN'
p312
I1
sg291
g292
sS'training_block.thisIndex'
p313
g147
sa(dp314
S'training_block.thisRepN'
p315
I1
sg20
F6.541621936855336
sS'training_block.thisN'
p316
I1
sS'word_presentation_training.thisTrialN'
p317
I2
sg44
g45
sg271
Vyell
p318
sS'word_presentation_training.thisRepN'
p319
I0
sg46
g51
sg32
g42
sS'training_block.thisTrialN'
p320
I0
sg19
S'space'
p321
sg276
g33
(g183
S'\x02\x00\x00\x00\x00\x00\x00\x00'
p322
tp323
Rp324
sg43
g12
sg280
Vlike
p325
sS'word_presentation_training.thisIndex'
p326
g33
(g133
S'\x01\x00\x00\x00'
p327
tp328
Rp329
sg286
Vstare
p330
sg288
Vthank
p331
sg30
g31
sS'word_presentation_training.thisN'
p332
I2
sg291
g292
sS'training_block.thisIndex'
p333
g147
sa(dp334
S'training_block.thisRepN'
p335
I1
sg20
F4.66261309546644
sS'training_block.thisN'
p336
I1
sS'word_presentation_training.thisTrialN'
p337
I3
sg44
g45
sg271
Vprint
p338
sS'word_presentation_training.thisRepN'
p339
I0
sg46
g51
sg32
g42
sS'training_block.thisTrialN'
p340
I0
sg19
S'space'
p341
sg276
g33
(g183
S'\x04\x00\x00\x00\x00\x00\x00\x00'
p342
tp343
Rp344
sg43
g12
sg280
Vsave
p345
sS'word_presentation_training.thisIndex'
p346
g33
(g133
S'\x03\x00\x00\x00'
p347
tp348
Rp349
sg286
Vstay
p350
sg288
Vlook
p351
sg30
g31
sS'word_presentation_training.thisN'
p352
I3
sg291
g292
sS'training_block.thisIndex'
p353
g147
sa(dp354
S'training_block.thisRepN'
p355
I1
sS'training_block.thisN'
p356
I1
sg44
g45
sg24
F5.618892528735159
sg32
g42
sS'training_block.thisTrialN'
p357
I0
sg22
F17.77771196991489
sg43
g12
sg21
g102
sg23
S'space'
p358
sg30
g31
sg46
g51
sS'training_block.thisIndex'
p359
g147
sa(dp360
S'training_block.thisRepN'
p361
I1
sg165
g33
(g37
S'\x9a\x99\x99\x99\x99\x99\xd9?'
p362
tp363
Rp364
sg32
g42
sS'word4'
p365
Vthrow
p366
sS'experimental_blocks.thisN'
p367
I0
sg44
g45
sS'word1'
p368
Vgrip
p369
sS'word3'
p370
Vgrab
p371
sS'word2'
p372
Vstab
p373
sS'experimental_blocks.thisIndex'
p374
g33
(g133
S'\x00\x00\x00\x00'
p375
tp376
Rp377
sS'word_presentation.thisRepN'
p378
I0
sS'experimental_blocks.thisRepN'
p379
I0
sg46
g51
sg164
g33
(g37
S'\x9a\x99\x99\x99\x99\x99\xb9?'
p380
tp381
Rp382
sS'type'
p383
Varm
p384
sS'training_block.thisIndex'
p385
g147
sg166
g33
(g37
S'\x00\x00\x00\x00\x00\x00\xe0?'
p386
tp387
Rp388
sg20
F9.459107437284729
sS'experimental_blocks.thisTrialN'
p389
I0
sS'training_block.thisN'
p390
I1
sS'word_presentation.thisN'
p391
I0
sS'training_block.thisTrialN'
p392
I0
sg19
S'space'
p393
sg30
g31
sS'word_presentation.thisTrialN'
p394
I0
sg43
g12
sS'word_presentation.thisIndex'
p395
g33
(g133
S'\x00\x00\x00\x00'
p396
tp397
Rp398
sa(dp399
S'training_block.thisRepN'
p400
I1
sg165
g364
sg32
g42
sg365
Vwalk
p401
sS'experimental_blocks.thisN'
p402
I0
sg44
g45
sg368
Vtread
p403
sg370
Vpace
p404
sg372
Vhop
p405
sS'experimental_blocks.thisIndex'
p406
g377
sS'word_presentation.thisRepN'
p407
I0
sS'experimental_blocks.thisRepN'
p408
I0
sg46
g51
sg164
g382
sg383
Vleg
p409
sS'training_block.thisIndex'
p410
g147
sg166
g388
sg20
F11.169950496595447
sS'experimental_blocks.thisTrialN'
p411
I0
sS'training_block.thisN'
p412
I1
sS'word_presentation.thisN'
p413
I1
sS'training_block.thisTrialN'
p414
I0
sg19
S'space'
p415
sg30
g31
sS'word_presentation.thisTrialN'
p416
I1
sg43
g12
sS'word_presentation.thisIndex'
p417
g33
(g133
S'\x01\x00\x00\x00'
p418
tp419
Rp420
sa(dp421
S'training_block.thisRepN'
p422
I1
sg165
g364
sg32
g42
sg365
Vbash
p423
sS'experimental_blocks.thisN'
p424
I0
sg44
g45
sg368
Vdig
p425
sg370
Vbrush
p426
sg372
Vgrasp
p427
sS'experimental_blocks.thisIndex'
p428
g377
sS'word_presentation.thisRepN'
p429
I0
sS'experimental_blocks.thisRepN'
p430
I0
sg46
g51
sg164
g382
sg383
g384
sS'training_block.thisIndex'
p431
g147
sg166
g388
sg20
F11.354593180311895
sS'experimental_blocks.thisTrialN'
p432
I0
sS'training_block.thisN'
p433
I1
sS'word_presentation.thisN'
p434
I2
sS'training_block.thisTrialN'
p435
I0
sg19
S'space'
p436
sg30
g31
sS'word_presentation.thisTrialN'
p437
I2
sg43
g12
sS'word_presentation.thisIndex'
p438
g33
(g133
S'\x02\x00\x00\x00'
p439
tp440
Rp441
sa(dp442
S'training_block.thisRepN'
p443
I1
sg165
g364
sg32
g42
sg365
Vcatch
p444
sS'experimental_blocks.thisN'
p445
I0
sg44
g45
sg368
Vchop
p446
sg370
Vpush
p447
sg372
Vdunk
p448
sS'experimental_blocks.thisIndex'
p449
g377
sS'word_presentation.thisRepN'
p450
I0
sS'experimental_blocks.thisRepN'
p451
I0
sg46
g51
sg164
g382
sg383
g384
sS'training_block.thisIndex'
p452
g147
sg166
g388
sg20
F13.58540967238605
sS'experimental_blocks.thisTrialN'
p453
I0
sS'training_block.thisN'
p454
I1
sS'word_presentation.thisN'
p455
I3
sS'training_block.thisTrialN'
p456
I0
sg19
S'space'
p457
sg30
g31
sS'word_presentation.thisTrialN'
p458
I3
sg43
g12
sS'word_presentation.thisIndex'
p459
g33
(g133
S'\x03\x00\x00\x00'
p460
tp461
Rp462
sa(dp463
S'training_block.thisRepN'
p464
I1
sg165
g364
sg32
g42
sg365
Vskate
p465
sS'experimental_blocks.thisN'
p466
I0
sg44
g45
sg368
Vslither
p467
sg370
Vslip
p468
sg372
Vmarch
p469
sS'experimental_blocks.thisIndex'
p470
g377
sS'word_presentation.thisRepN'
p471
I0
sS'experimental_blocks.thisRepN'
p472
I0
sg46
g51
sg164
g382
sg383
g409
sS'training_block.thisIndex'
p473
g147
sg166
g388
sg20
F17.55851568016078
sS'experimental_blocks.thisTrialN'
p474
I0
sS'training_block.thisN'
p475
I1
sS'word_presentation.thisN'
p476
I4
sS'training_block.thisTrialN'
p477
I0
sg19
S'space'
p478
sg30
g31
sS'word_presentation.thisTrialN'
p479
I4
sg43
g12
sS'word_presentation.thisIndex'
p480
g33
(g133
S'\x04\x00\x00\x00'
p481
tp482
Rp483
sa(dp484
S'training_block.thisRepN'
p485
I1
sg165
g364
sg32
g42
sg365
Vinch
p486
sS'experimental_blocks.thisN'
p487
I0
sg44
g45
sg368
Vstep
p488
sg370
Vcrawl
p489
sg372
Vkick
p490
sS'experimental_blocks.thisIndex'
p491
g377
sS'word_presentation.thisRepN'
p492
I0
sS'experimental_blocks.thisRepN'
p493
I0
sg46
g51
sg164
g382
sg383
g409
sS'training_block.thisIndex'
p494
g147
sg166
g388
sg20
F7.614219555840464
sS'experimental_blocks.thisTrialN'
p495
I0
sS'training_block.thisN'
p496
I1
sS'word_presentation.thisN'
p497
I5
sS'training_block.thisTrialN'
p498
I0
sg19
S'space'
p499
sg30
g31
sS'word_presentation.thisTrialN'
p500
I5
sg43
g12
sS'word_presentation.thisIndex'
p501
g33
(g133
S'\x05\x00\x00\x00'
p502
tp503
Rp504
sa(dp505
S'training_block.thisRepN'
p506
I1
sg165
g364
sg32
g42
sg365
Vscrub
p507
sS'experimental_blocks.thisN'
p508
I0
sg44
g45
sg368
Vscoop
p509
sg370
Vclap
p510
sg372
Vclick
p511
sS'experimental_blocks.thisIndex'
p512
g377
sS'word_presentation.thisRepN'
p513
I0
sS'experimental_blocks.thisRepN'
p514
I0
sg46
g51
sg164
g382
sg383
g384
sS'training_block.thisIndex'
p515
g147
sg166
g388
sg20
F20.561912050753563
sS'experimental_blocks.thisTrialN'
p516
I0
sS'training_block.thisN'
p517
I1
sS'word_presentation.thisN'
p518
I6
sS'training_block.thisTrialN'
p519
I0
sg19
S'space'
p520
sg30
g31
sS'word_presentation.thisTrialN'
p521
I6
sg43
g12
sS'word_presentation.thisIndex'
p522
g33
(g133
S'\x06\x00\x00\x00'
p523
tp524
Rp525
sa(dp526
S'training_block.thisRepN'
p527
I1
sg165
g364
sg32
g42
sg365
Vtrip
p528
sS'experimental_blocks.thisN'
p529
I0
sg44
g45
sg368
Vdance
p530
sg370
Vjump
p531
sg372
Vclimb
p532
sS'experimental_blocks.thisIndex'
p533
g377
sS'word_presentation.thisRepN'
p534
I0
sS'experimental_blocks.thisRepN'
p535
I0
sg46
g51
sg164
g382
sg383
g409
sS'training_block.thisIndex'
p536
g147
sg166
g388
sg20
F16.318565021570976
sS'experimental_blocks.thisTrialN'
p537
I0
sS'training_block.thisN'
p538
I1
sS'word_presentation.thisN'
p539
I7
sS'training_block.thisTrialN'
p540
I0
sg19
S'space'
p541
sg30
g31
sS'word_presentation.thisTrialN'
p542
I7
sg43
g12
sS'word_presentation.thisIndex'
p543
g33
(g133
S'\x07\x00\x00\x00'
p544
tp545
Rp546
sa(dp547
S'training_block.thisRepN'
p548
I1
sg165
g364
sg32
g42
sg365
Vwade
p549
sS'experimental_blocks.thisN'
p550
I0
sg44
g45
sg368
Vjog
p551
sg370
Vskip
p552
sg372
Vstomp
p553
sS'experimental_blocks.thisIndex'
p554
g377
sS'word_presentation.thisRepN'
p555
I0
sS'experimental_blocks.thisRepN'
p556
I0
sg46
g51
sg164
g382
sg383
g409
sS'training_block.thisIndex'
p557
g147
sg166
g388
sg20
F32.16717128873552
sS'experimental_blocks.thisTrialN'
p558
I0
sS'training_block.thisN'
p559
I1
sS'word_presentation.thisN'
p560
I8
sS'training_block.thisTrialN'
p561
I0
sg19
S'space'
p562
sg30
g31
sS'word_presentation.thisTrialN'
p563
I8
sg43
g12
sS'word_presentation.thisIndex'
p564
g33
(g133
S'\x08\x00\x00\x00'
p565
tp566
Rp567
sa(dp568
S'training_block.thisRepN'
p569
I1
sg165
g364
sg32
g42
sg365
Vcarve
p570
sS'experimental_blocks.thisN'
p571
I0
sg44
g45
sg368
Vdelve
p572
sg370
Vskim
p573
sg372
Vpeel
p574
sS'experimental_blocks.thisIndex'
p575
g377
sS'word_presentation.thisRepN'
p576
I0
sS'experimental_blocks.thisRepN'
p577
I0
sg46
g51
sg164
g382
sg383
g384
sS'training_block.thisIndex'
p578
g147
sg166
g388
sg20
F7.748904852234773
sS'experimental_blocks.thisTrialN'
p579
I0
sS'training_block.thisN'
p580
I1
sS'word_presentation.thisN'
p581
I9
sS'training_block.thisTrialN'
p582
I0
sg19
S'space'
p583
sg30
g31
sS'word_presentation.thisTrialN'
p584
I9
sg43
g12
sS'word_presentation.thisIndex'
p585
g33
(g133
S'\t\x00\x00\x00'
p586
tp587
Rp588
sa(dp589
S'training_block.thisRepN'
p590
I1
sg165
g364
sg32
g42
sg365
Vfile
p591
sS'experimental_blocks.thisN'
p592
I0
sg44
g45
sg368
Vscrape
p593
sg370
Vwrap
p594
sg372
Vpolish
p595
sS'experimental_blocks.thisIndex'
p596
g377
sS'word_presentation.thisRepN'
p597
I0
sS'experimental_blocks.thisRepN'
p598
I0
sg46
g51
sg164
g382
sg383
g384
sS'training_block.thisIndex'
p599
g147
sg166
g388
sg20
F18.850990364438076
sS'experimental_blocks.thisTrialN'
p600
I0
sS'training_block.thisN'
p601
I1
sS'word_presentation.thisN'
p602
I10
sS'training_block.thisTrialN'
p603
I0
sg19
S'space'
p604
sg30
g31
sS'word_presentation.thisTrialN'
p605
I10
sg43
g12
sS'word_presentation.thisIndex'
p606
g33
(g133
S'\n\x00\x00\x00'
p607
tp608
Rp609
sa(dp610
S'training_block.thisRepN'
p611
I1
sg165
g364
sg32
g42
sg365
Vstagger
p612
sS'experimental_blocks.thisN'
p613
I0
sg44
g45
sg368
Vplod
p614
sg370
Vtrek
p615
sg372
Vbounce
p616
sS'experimental_blocks.thisIndex'
p617
g377
sS'word_presentation.thisRepN'
p618
I0
sS'experimental_blocks.thisRepN'
p619
I0
sg46
g51
sg164
g382
sg383
g409
sS'training_block.thisIndex'
p620
g147
sg166
g388
sg20
F8.989115888700326
sS'experimental_blocks.thisTrialN'
p621
I0
sS'training_block.thisN'
p622
I1
sS'word_presentation.thisN'
p623
I11
sS'training_block.thisTrialN'
p624
I0
sg19
S'space'
p625
sg30
g31
sS'word_presentation.thisTrialN'
p626
I11
sg43
g12
sS'word_presentation.thisIndex'
p627
g33
(g133
S'\x0b\x00\x00\x00'
p628
tp629
Rp630
sa(dp631
S'training_block.thisRepN'
p632
I1
sg165
g364
sg32
g42
sg365
Vstroll
p633
sS'experimental_blocks.thisN'
p634
I0
sg44
g45
sg368
Vtiptoe
p635
sg370
Vglide
p636
sg372
Vrun
p637
sS'experimental_blocks.thisIndex'
p638
g377
sS'word_presentation.thisRepN'
p639
I0
sS'experimental_blocks.thisRepN'
p640
I0
sg46
g51
sg164
g382
sg383
g409
sS'training_block.thisIndex'
p641
g147
sg166
g388
sg20
F18.498804197813115
sS'experimental_blocks.thisTrialN'
p642
I0
sS'training_block.thisN'
p643
I1
sS'word_presentation.thisN'
p644
I12
sS'training_block.thisTrialN'
p645
I0
sg19
S'space'
p646
sg30
g31
sS'word_presentation.thisTrialN'
p647
I12
sg43
g12
sS'word_presentation.thisIndex'
p648
g33
(g133
S'\x0c\x00\x00\x00'
p649
tp650
Rp651
sa(dp652
S'training_block.thisRepN'
p653
I1
sg165
g364
sg32
g42
sg365
Vrub
p654
sS'experimental_blocks.thisN'
p655
I0
sg44
g45
sg368
Vscratch
p656
sg370
Vclean
p657
sg372
Vpat
p658
sS'experimental_blocks.thisIndex'
p659
g377
sS'word_presentation.thisRepN'
p660
I0
sS'experimental_blocks.thisRepN'
p661
I0
sg46
g51
sg164
g382
sg383
g384
sS'training_block.thisIndex'
p662
g147
sg166
g388
sg20
F10.767344663260701
sS'experimental_blocks.thisTrialN'
p663
I0
sS'training_block.thisN'
p664
I1
sS'word_presentation.thisN'
p665
I13
sS'training_block.thisTrialN'
p666
I0
sg19
S'space'
p667
sg30
g31
sS'word_presentation.thisTrialN'
p668
I13
sg43
g12
sS'word_presentation.thisIndex'
p669
g33
(g133
S'\r\x00\x00\x00'
p670
tp671
Rp672
sa(dp673
S'training_block.thisRepN'
p674
I1
sg165
g364
sg32
g42
sg365
Vpunch
p675
sS'experimental_blocks.thisN'
p676
I0
sg44
g45
sg368
Vswitch
p677
sg370
Vclutch
p678
sg372
Vlift
p679
sS'experimental_blocks.thisIndex'
p680
g377
sS'word_presentation.thisRepN'
p681
I0
sS'experimental_blocks.thisRepN'
p682
I0
sg46
g51
sg164
g382
sg383
g384
sS'training_block.thisIndex'
p683
g147
sg166
g388
sg20
F23.882291420134607
sS'experimental_blocks.thisTrialN'
p684
I0
sS'training_block.thisN'
p685
I1
sS'word_presentation.thisN'
p686
I14
sS'training_block.thisTrialN'
p687
I0
sg19
S'space'
p688
sg30
g31
sS'word_presentation.thisTrialN'
p689
I14
sg43
g12
sS'word_presentation.thisIndex'
p690
g33
(g133
S'\x0e\x00\x00\x00'
p691
tp692
Rp693
sa(dp694
S'training_block.thisRepN'
p695
I1
sg165
g364
sg32
g42
sg365
Vscuff
p696
sS'experimental_blocks.thisN'
p697
I0
sg44
g45
sg368
Vcreep
p698
sg370
Vstumble
p699
sg372
Vtraipse
p700
sS'experimental_blocks.thisIndex'
p701
g377
sS'word_presentation.thisRepN'
p702
I0
sS'experimental_blocks.thisRepN'
p703
I0
sg46
g51
sg164
g382
sg383
g409
sS'training_block.thisIndex'
p704
g147
sg166
g388
sg20
F21.601503711865917
sS'experimental_blocks.thisTrialN'
p705
I0
sS'training_block.thisN'
p706
I1
sS'word_presentation.thisN'
p707
I15
sS'training_block.thisTrialN'
p708
I0
sg19
S'space'
p709
sg30
g31
sS'word_presentation.thisTrialN'
p710
I15
sg43
g12
sS'word_presentation.thisIndex'
p711
g33
(g133
S'\x0f\x00\x00\x00'
p712
tp713
Rp714
sa(dp715
S'training_block.thisRepN'
p716
I1
sg165
g364
sg32
g42
sg365
Vgrate
p717
sS'experimental_blocks.thisN'
p718
I0
sg44
g45
sg368
Vshake
p719
sg370
Vbraid
p720
sg372
Vcut
p721
sS'experimental_blocks.thisIndex'
p722
g377
sS'word_presentation.thisRepN'
p723
I0
sS'experimental_blocks.thisRepN'
p724
I0
sg46
g51
sg164
g382
sg383
g384
sS'training_block.thisIndex'
p725
g147
sg166
g388
sg20
F14.624426052486342
sS'experimental_blocks.thisTrialN'
p726
I0
sS'training_block.thisN'
p727
I1
sS'word_presentation.thisN'
p728
I16
sS'training_block.thisTrialN'
p729
I0
sg19
S'space'
p730
sg30
g31
sS'word_presentation.thisTrialN'
p731
I16
sg43
g12
sS'word_presentation.thisIndex'
p732
g33
(g133
S'\x10\x00\x00\x00'
p733
tp734
Rp735
sa(dp736
S'training_block.thisRepN'
p737
I1
sg165
g364
sg32
g42
sg365
Vsnatch
p738
sS'experimental_blocks.thisN'
p739
I0
sg44
g45
sg368
Vhack
p740
sg370
Vtug
p741
sg372
Vtwine
p742
sS'experimental_blocks.thisIndex'
p743
g377
sS'word_presentation.thisRepN'
p744
I0
sS'experimental_blocks.thisRepN'
p745
I0
sg46
g51
sg164
g382
sg383
g384
sS'training_block.thisIndex'
p746
g147
sg166
g388
sg20
F9.711423871870466
sS'experimental_blocks.thisTrialN'
p747
I0
sS'training_block.thisN'
p748
I1
sS'word_presentation.thisN'
p749
I17
sS'training_block.thisTrialN'
p750
I0
sg19
S'space'
p751
sg30
g31
sS'word_presentation.thisTrialN'
p752
I17
sg43
g12
sS'word_presentation.thisIndex'
p753
g33
(g133
S'\x11\x00\x00\x00'
p754
tp755
Rp756
sa(dp757
S'training_block.thisRepN'
p758
I1
sg165
g364
sg32
g42
sg365
Vpull
p759
sS'experimental_blocks.thisN'
p760
I0
sg44
g45
sg368
Vseize
p761
sg370
Vpinch
p762
sg372
Vwipe
p763
sS'experimental_blocks.thisIndex'
p764
g377
sS'word_presentation.thisRepN'
p765
I0
sS'experimental_blocks.thisRepN'
p766
I0
sg46
g51
sg164
g382
sg383
g384
sS'training_block.thisIndex'
p767
g147
sg166
g388
sg20
F21.19893778470214
sS'experimental_blocks.thisTrialN'
p768
I0
sS'training_block.thisN'
p769
I1
sS'word_presentation.thisN'
p770
I18
sS'training_block.thisTrialN'
p771
I0
sg19
S'space'
p772
sg30
g31
sS'word_presentation.thisTrialN'
p773
I18
sg43
g12
sS'word_presentation.thisIndex'
p774
g33
(g133
S'\x12\x00\x00\x00'
p775
tp776
Rp777
sa(dp778
S'training_block.thisRepN'
p779
I1
sg165
g364
sg32
g42
sg365
Vkneel
p780
sS'experimental_blocks.thisN'
p781
I0
sg44
g45
sg368
Vramble
p782
sg370
Vmount
p783
sg372
Vflee
p784
sS'experimental_blocks.thisIndex'
p785
g377
sS'word_presentation.thisRepN'
p786
I0
sS'experimental_blocks.thisRepN'
p787
I0
sg46
g51
sg164
g382
sg383
g409
sS'training_block.thisIndex'
p788
g147
sg166
g388
sg20
F15.446432684811953
sS'experimental_blocks.thisTrialN'
p789
I0
sS'training_block.thisN'
p790
I1
sS'word_presentation.thisN'
p791
I19
sS'training_block.thisTrialN'
p792
I0
sg19
S'space'
p793
sg30
g31
sS'word_presentation.thisTrialN'
p794
I19
sg43
g12
sS'word_presentation.thisIndex'
p795
g33
(g133
S'\x13\x00\x00\x00'
p796
tp797
Rp798
sa(dp799
S'training_block.thisRepN'
p800
I1
sg165
g364
sg32
g42
sg365
Vtrot
p801
sS'experimental_blocks.thisN'
p802
I0
sg44
g45
sg368
Vhike
p803
sg370
Vstamp
p804
sg372
Vrush
p805
sS'experimental_blocks.thisIndex'
p806
g377
sS'word_presentation.thisRepN'
p807
I0
sS'experimental_blocks.thisRepN'
p808
I0
sg46
g51
sg164
g382
sg383
g409
sS'training_block.thisIndex'
p809
g147
sg166
g388
sg20
F19.354057015247236
sS'experimental_blocks.thisTrialN'
p810
I0
sS'training_block.thisN'
p811
I1
sS'word_presentation.thisN'
p812
I20
sS'training_block.thisTrialN'
p813
I0
sg19
S'space'
p814
sg30
g31
sS'word_presentation.thisTrialN'
p815
I20
sg43
g12
sS'word_presentation.thisIndex'
p816
g33
(g133
S'\x14\x00\x00\x00'
p817
tp818
Rp819
sa(dp820
S'training_block.thisRepN'
p821
I1
sg165
g364
sg32
g42
sg365
Vwander
p822
sS'experimental_blocks.thisN'
p823
I0
sg44
g45
sg368
Vroam
p824
sg370
Vsneak
p825
sg372
Vroll
p826
sS'experimental_blocks.thisIndex'
p827
g377
sS'word_presentation.thisRepN'
p828
I0
sS'experimental_blocks.thisRepN'
p829
I0
sg46
g51
sg164
g382
sg383
g409
sS'training_block.thisIndex'
p830
g147
sg166
g388
sg20
F15.782967730923701
sS'experimental_blocks.thisTrialN'
p831
I0
sS'training_block.thisN'
p832
I1
sS'word_presentation.thisN'
p833
I21
sS'training_block.thisTrialN'
p834
I0
sg19
S'space'
p835
sg30
g31
sS'word_presentation.thisTrialN'
p836
I21
sg43
g12
sS'word_presentation.thisIndex'
p837
g33
(g133
S'\x15\x00\x00\x00'
p838
tp839
Rp840
sa(dp841
S'training_block.thisRepN'
p842
I1
sg165
g364
sg32
g42
sg365
Vwhip
p843
sS'experimental_blocks.thisN'
p844
I0
sg44
g45
sg368
Vfold
p845
sg370
Vpoke
p846
sg372
Vknock
p847
sS'experimental_blocks.thisIndex'
p848
g377
sS'word_presentation.thisRepN'
p849
I0
sS'experimental_blocks.thisRepN'
p850
I0
sg46
g51
sg164
g382
sg383
g384
sS'training_block.thisIndex'
p851
g147
sg166
g388
sg20
F8.436109235433833
sS'experimental_blocks.thisTrialN'
p852
I0
sS'training_block.thisN'
p853
I1
sS'word_presentation.thisN'
p854
I22
sS'training_block.thisTrialN'
p855
I0
sg19
S'space'
p856
sg30
g31
sS'word_presentation.thisTrialN'
p857
I22
sg43
g12
sS'word_presentation.thisIndex'
p858
g33
(g133
S'\x16\x00\x00\x00'
p859
tp860
Rp861
sa(dp862
S'training_block.thisRepN'
p863
I1
sg165
g364
sg32
g42
sg365
Vlimp
p864
sS'experimental_blocks.thisN'
p865
I0
sg44
g45
sg368
Vsway
p866
sg370
Vleap
p867
sg372
Vflit
p868
sS'experimental_blocks.thisIndex'
p869
g377
sS'word_presentation.thisRepN'
p870
I0
sS'experimental_blocks.thisRepN'
p871
I0
sg46
g51
sg164
g382
sg383
g409
sS'training_block.thisIndex'
p872
g147
sg166
g388
sg20
F7.044207342972186
sS'experimental_blocks.thisTrialN'
p873
I0
sS'training_block.thisN'
p874
I1
sS'word_presentation.thisN'
p875
I23
sS'training_block.thisTrialN'
p876
I0
sg19
S'space'
p877
sg30
g31
sS'word_presentation.thisTrialN'
p878
I23
sg43
g12
sS'word_presentation.thisIndex'
p879
g33
(g133
S'\x17\x00\x00\x00'
p880
tp881
Rp882
sa(dp883
S'training_block.thisRepN'
p884
I1
sg165
g364
sg32
g42
sg365
Vwash
p885
sS'experimental_blocks.thisN'
p886
I0
sg44
g45
sg368
Vslap
p887
sg370
Vtoss
p888
sg372
Vstir
p889
sS'experimental_blocks.thisIndex'
p890
g377
sS'word_presentation.thisRepN'
p891
I0
sS'experimental_blocks.thisRepN'
p892
I0
sg46
g51
sg164
g382
sg383
g384
sS'training_block.thisIndex'
p893
g147
sg166
g388
sg20
F24.402325699928042
sS'experimental_blocks.thisTrialN'
p894
I0
sS'training_block.thisN'
p895
I1
sS'word_presentation.thisN'
p896
I24
sS'training_block.thisTrialN'
p897
I0
sg19
S'space'
p898
sg30
g31
sS'word_presentation.thisTrialN'
p899
I24
sg43
g12
sS'word_presentation.thisIndex'
p900
g33
(g133
S'\x18\x00\x00\x00'
p901
tp902
Rp903
sa(dp904
S'training_block.thisRepN'
p905
I1
sg165
g364
sg32
g42
sg365
Vsqueeze
p906
sS'experimental_blocks.thisN'
p907
I0
sg44
g45
sg368
Vclaw
p908
sg370
Vbind
p909
sg372
Vnip
p910
sS'experimental_blocks.thisIndex'
p911
g377
sS'word_presentation.thisRepN'
p912
I0
sS'experimental_blocks.thisRepN'
p913
I0
sg46
g51
sg164
g382
sg383
g384
sS'training_block.thisIndex'
p914
g147
sg166
g388
sg20
F9.341916057175695
sS'experimental_blocks.thisTrialN'
p915
I0
sS'training_block.thisN'
p916
I1
sS'word_presentation.thisN'
p917
I25
sS'training_block.thisTrialN'
p918
I0
sg19
S'space'
p919
sg30
g31
sS'word_presentation.thisTrialN'
p920
I25
sg43
g12
sS'word_presentation.thisIndex'
p921
g33
(g133
S'\x19\x00\x00\x00'
p922
tp923
Rp924
sa(dp925
S'training_block.thisRepN'
p926
I1
sg165
g364
sg32
g42
sg365
Vstrut
p927
sS'experimental_blocks.thisN'
p928
I0
sg44
g45
sg368
Vtrudge
p929
sg370
Vwobble
p930
sg372
Vslide
p931
sS'experimental_blocks.thisIndex'
p932
g377
sS'word_presentation.thisRepN'
p933
I0
sS'experimental_blocks.thisRepN'
p934
I0
sg46
g51
sg164
g382
sg383
g409
sS'training_block.thisIndex'
p935
g147
sg166
g388
sg20
F17.527505030744578
sS'experimental_blocks.thisTrialN'
p936
I0
sS'training_block.thisN'
p937
I1
sS'word_presentation.thisN'
p938
I26
sS'training_block.thisTrialN'
p939
I0
sg19
S'space'
p940
sg30
g31
sS'word_presentation.thisTrialN'
p941
I26
sg43
g12
sS'word_presentation.thisIndex'
p942
g33
(g133
S'\x1a\x00\x00\x00'
p943
tp944
Rp945
sa(dp946
S'training_block.thisRepN'
p947
I1
sg165
g364
sg32
g42
sg365
Vprance
p948
sS'experimental_blocks.thisN'
p949
I0
sg44
g45
sg368
Vstride
p950
sg370
Vsprint
p951
sg372
Vstray
p952
sS'experimental_blocks.thisIndex'
p953
g377
sS'word_presentation.thisRepN'
p954
I0
sS'experimental_blocks.thisRepN'
p955
I0
sg46
g51
sg164
g382
sg383
g409
sS'training_block.thisIndex'
p956
g147
sg166
g388
sg20
F32.45366913518592
sS'experimental_blocks.thisTrialN'
p957
I0
sS'training_block.thisN'
p958
I1
sS'word_presentation.thisN'
p959
I27
sS'training_block.thisTrialN'
p960
I0
sg19
S'space'
p961
sg30
g31
sS'word_presentation.thisTrialN'
p962
I27
sg43
g12
sS'word_presentation.thisIndex'
p963
g33
(g133
S'\x1b\x00\x00\x00'
p964
tp965
Rp966
sa(dp967
S'training_block.thisRepN'
p968
I1
sg165
g364
sS'experimental_blocks.thisRepN'
p969
I0
sS'experimental_blocks.thisTrialN'
p970
I0
sS'training_block.thisN'
p971
I1
sg44
g45
sg43
g12
sg32
g42
sS'training_block.thisTrialN'
p972
I0
sg46
g51
sS'experimental_blocks.thisN'
p973
I0
sg166
g388
sg30
g31
sS'experimental_blocks.thisIndex'
p974
g377
sg164
g382
sS'training_block.thisIndex'
p975
g147
sa(dp976
S'training_block.thisRepN'
p977
I1
sg165
g33
(g37
S'\x9a\x99\x99\x99\x99\x99\xd9?'
p978
tp979
Rp980
sg32
g42
sS'word4'
p981
Vwhip
p982
sS'experimental_blocks.thisN'
p983
I1
sg44
g45
sS'word1'
p984
Vstir
p985
sS'word3'
p986
Vpull
p987
sS'word2'
p988
Vfile
p989
sS'experimental_blocks.thisIndex'
p990
g33
(g133
S'\x02\x00\x00\x00'
p991
tp992
Rp993
sS'word_presentation.thisRepN'
p994
I0
sS'experimental_blocks.thisRepN'
p995
I0
sg46
g51
sg164
g33
(g37
S'333333\xd3?'
p996
tp997
Rp998
sS'type'
p999
Varm
p1000
sS'training_block.thisIndex'
p1001
g147
sg166
g33
(g37
S'ffffff\xe6?'
p1002
tp1003
Rp1004
sg20
F5.585332625822048
sS'experimental_blocks.thisTrialN'
p1005
I1
sS'training_block.thisN'
p1006
I1
sS'word_presentation.thisN'
p1007
I0
sS'training_block.thisTrialN'
p1008
I0
sg19
S'space'
p1009
sg30
g31
sS'word_presentation.thisTrialN'
p1010
I0
sg43
g12
sS'word_presentation.thisIndex'
p1011
g33
(g133
S'\x00\x00\x00\x00'
p1012
tp1013
Rp1014
sa(dp1015
S'training_block.thisRepN'
p1016
I1
sg165
g980
sg32
g42
sg981
Vramble
p1017
sS'experimental_blocks.thisN'
p1018
I1
sg44
g45
sg984
Vstray
p1019
sg986
Vscuff
p1020
sg988
Vjump
p1021
sS'experimental_blocks.thisIndex'
p1022
g993
sS'word_presentation.thisRepN'
p1023
I0
sS'experimental_blocks.thisRepN'
p1024
I0
sg46
g51
sg164
g998
sg999
Vleg
p1025
sS'training_block.thisIndex'
p1026
g147
sg166
g1004
sg20
F15.379358711812529
sS'experimental_blocks.thisTrialN'
p1027
I1
sS'training_block.thisN'
p1028
I1
sS'word_presentation.thisN'
p1029
I1
sS'training_block.thisTrialN'
p1030
I0
sg19
S'space'
p1031
sg30
g31
sS'word_presentation.thisTrialN'
p1032
I1
sg43
g12
sS'word_presentation.thisIndex'
p1033
g33
(g133
S'\x01\x00\x00\x00'
p1034
tp1035
Rp1036
sa(dp1037
S'training_block.thisRepN'
p1038
I1
sg165
g980
sg32
g42
sg981
Vtrip
p1039
sS'experimental_blocks.thisN'
p1040
I1
sg44
g45
sg984
Vhop
p1041
sg986
Vroll
p1042
sg988
Vstamp
p1043
sS'experimental_blocks.thisIndex'
p1044
g993
sS'word_presentation.thisRepN'
p1045
I0
sS'experimental_blocks.thisRepN'
p1046
I0
sg46
g51
sg164
g998
sg999
g1025
sS'training_block.thisIndex'
p1047
g147
sg166
g1004
sg20
F19.756634400619077
sS'experimental_blocks.thisTrialN'
p1048
I1
sS'training_block.thisN'
p1049
I1
sS'word_presentation.thisN'
p1050
I2
sS'training_block.thisTrialN'
p1051
I0
sg19
S'space'
p1052
sg30
g31
sS'word_presentation.thisTrialN'
p1053
I2
sg43
g12
sS'word_presentation.thisIndex'
p1054
g33
(g133
S'\x02\x00\x00\x00'
p1055
tp1056
Rp1057
sa(dp1058
S'training_block.thisRepN'
p1059
I1
sg165
g980
sg32
g42
sg981
Vslip
p1060
sS'experimental_blocks.thisN'
p1061
I1
sg44
g45
sg984
Vstroll
p1062
sg986
Vroam
p1063
sg988
Vslide
p1064
sS'experimental_blocks.thisIndex'
p1065
g993
sS'word_presentation.thisRepN'
p1066
I0
sS'experimental_blocks.thisRepN'
p1067
I0
sg46
g51
sg164
g998
sg999
g1025
sS'training_block.thisIndex'
p1068
g147
sg166
g1004
sg20
F9.123561748079737
sS'experimental_blocks.thisTrialN'
p1069
I1
sS'training_block.thisN'
p1070
I1
sS'word_presentation.thisN'
p1071
I3
sS'training_block.thisTrialN'
p1072
I0
sg19
S'space'
p1073
sg30
g31
sS'word_presentation.thisTrialN'
p1074
I3
sg43
g12
sS'word_presentation.thisIndex'
p1075
g33
(g133
S'\x03\x00\x00\x00'
p1076
tp1077
Rp1078
sa(dp1079
S'training_block.thisRepN'
p1080
I1
sg165
g980
sg32
g42
sg981
Vbind
p1081
sS'experimental_blocks.thisN'
p1082
I1
sg44
g45
sg984
Vsnatch
p1083
sg986
Vclean
p1084
sg988
Vrub
p1085
sS'experimental_blocks.thisIndex'
p1086
g993
sS'word_presentation.thisRepN'
p1087
I0
sS'experimental_blocks.thisRepN'
p1088
I0
sg46
g51
sg164
g998
sg999
g1000
sS'training_block.thisIndex'
p1089
g147
sg166
g1004
sg20
F7.965706771839905
sS'experimental_blocks.thisTrialN'
p1090
I1
sS'training_block.thisN'
p1091
I1
sS'word_presentation.thisN'
p1092
I4
sS'training_block.thisTrialN'
p1093
I0
sg19
S'space'
p1094
sg30
g31
sS'word_presentation.thisTrialN'
p1095
I4
sg43
g12
sS'word_presentation.thisIndex'
p1096
g33
(g133
S'\x04\x00\x00\x00'
p1097
tp1098
Rp1099
sa(dp1100
S'training_block.thisRepN'
p1101
I1
sg165
g980
sg32
g42
sg981
Vrun
p1102
sS'experimental_blocks.thisN'
p1103
I1
sg44
g45
sg984
Vstomp
p1104
sg986
Vlimp
p1105
sg988
Vjog
p1106
sS'experimental_blocks.thisIndex'
p1107
g993
sS'word_presentation.thisRepN'
p1108
I0
sS'experimental_blocks.thisRepN'
p1109
I0
sg46
g51
sg164
g998
sg999
g1025
sS'training_block.thisIndex'
p1110
g147
sg166
g1004
sg20
F21.20002552414371
sS'experimental_blocks.thisTrialN'
p1111
I1
sS'training_block.thisN'
p1112
I1
sS'word_presentation.thisN'
p1113
I5
sS'training_block.thisTrialN'
p1114
I0
sg19
S'space'
p1115
sg30
g31
sS'word_presentation.thisTrialN'
p1116
I5
sg43
g12
sS'word_presentation.thisIndex'
p1117
g33
(g133
S'\x05\x00\x00\x00'
p1118
tp1119
Rp1120
sa(dp1121
S'training_block.thisRepN'
p1122
I1
sg165
g980
sg32
g42
sg981
Vdunk
p1123
sS'experimental_blocks.thisN'
p1124
I1
sg44
g45
sg984
Vpinch
p1125
sg986
Vpoke
p1126
sg988
Vscratch
p1127
sS'experimental_blocks.thisIndex'
p1128
g993
sS'word_presentation.thisRepN'
p1129
I0
sS'experimental_blocks.thisRepN'
p1130
I0
sg46
g51
sg164
g998
sg999
g1000
sS'training_block.thisIndex'
p1131
g147
sg166
g1004
sg20
F21.601962040145736
sS'experimental_blocks.thisTrialN'
p1132
I1
sS'training_block.thisN'
p1133
I1
sS'word_presentation.thisN'
p1134
I6
sS'training_block.thisTrialN'
p1135
I0
sg19
S'space'
p1136
sg30
g31
sS'word_presentation.thisTrialN'
p1137
I6
sg43
g12
sS'word_presentation.thisIndex'
p1138
g33
(g133
S'\x06\x00\x00\x00'
p1139
tp1140
Rp1141
sa(dp1142
S'training_block.thisRepN'
p1143
I1
sg165
g980
sg32
g42
sg981
Vcreep
p1144
sS'experimental_blocks.thisN'
p1145
I1
sg44
g45
sg984
Vkick
p1146
sg986
Vmount
p1147
sg988
Vpace
p1148
sS'experimental_blocks.thisIndex'
p1149
g993
sS'word_presentation.thisRepN'
p1150
I0
sS'experimental_blocks.thisRepN'
p1151
I0
sg46
g51
sg164
g998
sg999
g1025
sS'training_block.thisIndex'
p1152
g147
sg166
g1004
sg20
F10.02934170230219
sS'experimental_blocks.thisTrialN'
p1153
I1
sS'training_block.thisN'
p1154
I1
sS'word_presentation.thisN'
p1155
I7
sS'training_block.thisTrialN'
p1156
I0
sg19
S'space'
p1157
sg30
g31
sS'word_presentation.thisTrialN'
p1158
I7
sg43
g12
sS'word_presentation.thisIndex'
p1159
g33
(g133
S'\x07\x00\x00\x00'
p1160
tp1161
Rp1162
sa(dp1163
S'training_block.thisRepN'
p1164
I1
sg165
g980
sg32
g42
sg981
Vleap
p1165
sS'experimental_blocks.thisN'
p1166
I1
sg44
g45
sg984
Vflit
p1167
sg986
Vsprint
p1168
sg988
Vtrudge
p1169
sS'experimental_blocks.thisIndex'
p1170
g993
sS'word_presentation.thisRepN'
p1171
I0
sS'experimental_blocks.thisRepN'
p1172
I0
sg46
g51
sg164
g998
sg999
g1025
sS'training_block.thisIndex'
p1173
g147
sg166
g1004
sg20
F22.624495987058253
sS'experimental_blocks.thisTrialN'
p1174
I1
sS'training_block.thisN'
p1175
I1
sS'word_presentation.thisN'
p1176
I8
sS'training_block.thisTrialN'
p1177
I0
sg19
S'space'
p1178
sg30
g31
sS'word_presentation.thisTrialN'
p1179
I8
sg43
g12
sS'word_presentation.thisIndex'
p1180
g33
(g133
S'\x08\x00\x00\x00'
p1181
tp1182
Rp1183
sa(dp1184
S'training_block.thisRepN'
p1185
I1
sg165
g980
sg32
g42
sg981
Vhike
p1186
sS'experimental_blocks.thisN'
p1187
I1
sg44
g45
sg984
Vinch
p1188
sg986
Vkneel
p1189
sg988
Vwalk
p1190
sS'experimental_blocks.thisIndex'
p1191
g993
sS'word_presentation.thisRepN'
p1192
I0
sS'experimental_blocks.thisRepN'
p1193
I0
sg46
g51
sg164
g998
sg999
g1025
sS'training_block.thisIndex'
p1194
g147
sg166
g1004
sg20
F7.111186884540075
sS'experimental_blocks.thisTrialN'
p1195
I1
sS'training_block.thisN'
p1196
I1
sS'word_presentation.thisN'
p1197
I9
sS'training_block.thisTrialN'
p1198
I0
sg19
S'space'
p1199
sg30
g31
sS'word_presentation.thisTrialN'
p1200
I9
sg43
g12
sS'word_presentation.thisIndex'
p1201
g33
(g133
S'\t\x00\x00\x00'
p1202
tp1203
Rp1204
sa(dp1205
S'training_block.thisRepN'
p1206
I1
sg165
g980
sg32
g42
sg981
Vlift
p1207
sS'experimental_blocks.thisN'
p1208
I1
sg44
g45
sg984
Vpeel
p1209
sg986
Vclick
p1210
sg988
Vswitch
p1211
sS'experimental_blocks.thisIndex'
p1212
g993
sS'word_presentation.thisRepN'
p1213
I0
sS'experimental_blocks.thisRepN'
p1214
I0
sg46
g51
sg164
g998
sg999
g1000
sS'training_block.thisIndex'
p1215
g147
sg166
g1004
sg20
F22.875921842383832
sS'experimental_blocks.thisTrialN'
p1216
I1
sS'training_block.thisN'
p1217
I1
sS'word_presentation.thisN'
p1218
I10
sS'training_block.thisTrialN'
p1219
I0
sg19
S'space'
p1220
sg30
g31
sS'word_presentation.thisTrialN'
p1221
I10
sg43
g12
sS'word_presentation.thisIndex'
p1222
g33
(g133
S'\n\x00\x00\x00'
p1223
tp1224
Rp1225
sa(dp1226
S'training_block.thisRepN'
p1227
I1
sg165
g980
sg32
g42
sg981
Vclutch
p1228
sS'experimental_blocks.thisN'
p1229
I1
sg44
g45
sg984
Vbash
p1230
sg986
Vthrow
p1231
sg988
Vpunch
p1232
sS'experimental_blocks.thisIndex'
p1233
g993
sS'word_presentation.thisRepN'
p1234
I0
sS'experimental_blocks.thisRepN'
p1235
I0
sg46
g51
sg164
g998
sg999
g1000
sS'training_block.thisIndex'
p1236
g147
sg166
g1004
sg20
F13.719036862632493
sS'experimental_blocks.thisTrialN'
p1237
I1
sS'training_block.thisN'
p1238
I1
sS'word_presentation.thisN'
p1239
I11
sS'training_block.thisTrialN'
p1240
I0
sg19
S'space'
p1241
sg30
g31
sS'word_presentation.thisTrialN'
p1242
I11
sg43
g12
sS'word_presentation.thisIndex'
p1243
g33
(g133
S'\x0b\x00\x00\x00'
p1244
tp1245
Rp1246
sa(dp1247
S'training_block.thisRepN'
p1248
I1
sg165
g980
sg32
g42
sg981
Vbounce
p1249
sS'experimental_blocks.thisN'
p1250
I1
sg44
g45
sg984
Vwander
p1251
sg986
Vcrawl
p1252
sg988
Vglide
p1253
sS'experimental_blocks.thisIndex'
p1254
g993
sS'word_presentation.thisRepN'
p1255
I0
sS'experimental_blocks.thisRepN'
p1256
I0
sg46
g51
sg164
g998
sg999
g1025
sS'training_block.thisIndex'
p1257
g147
sg166
g1004
sg20
F12.612161424800433
sS'experimental_blocks.thisTrialN'
p1258
I1
sS'training_block.thisN'
p1259
I1
sS'word_presentation.thisN'
p1260
I12
sS'training_block.thisTrialN'
p1261
I0
sg19
S'space'
p1262
sg30
g31
sS'word_presentation.thisTrialN'
p1263
I12
sg43
g12
sS'word_presentation.thisIndex'
p1264
g33
(g133
S'\x0c\x00\x00\x00'
p1265
tp1266
Rp1267
sa(dp1268
S'training_block.thisRepN'
p1269
I1
sg165
g980
sg32
g42
sg981
Vtug
p1270
sS'experimental_blocks.thisN'
p1271
I1
sg44
g45
sg984
Vhack
p1272
sg986
Vcut
p1273
sg988
Vskim
p1274
sS'experimental_blocks.thisIndex'
p1275
g993
sS'word_presentation.thisRepN'
p1276
I0
sS'experimental_blocks.thisRepN'
p1277
I0
sg46
g51
sg164
g998
sg999
g1000
sS'training_block.thisIndex'
p1278
g147
sg166
g1004
sg20
F16.03335602585139
sS'experimental_blocks.thisTrialN'
p1279
I1
sS'training_block.thisN'
p1280
I1
sS'word_presentation.thisN'
p1281
I13
sS'training_block.thisTrialN'
p1282
I0
sg19
S'space'
p1283
sg30
g31
sS'word_presentation.thisTrialN'
p1284
I13
sg43
g12
sS'word_presentation.thisIndex'
p1285
g33
(g133
S'\r\x00\x00\x00'
p1286
tp1287
Rp1288
sa(dp1289
S'training_block.thisRepN'
p1290
I1
sg165
g980
sg32
g42
sg981
Vshake
p1291
sS'experimental_blocks.thisN'
p1292
I1
sg44
g45
sg984
Vcarve
p1293
sg986
Vscoop
p1294
sg988
Vbraid
p1295
sS'experimental_blocks.thisIndex'
p1296
g993
sS'word_presentation.thisRepN'
p1297
I0
sS'experimental_blocks.thisRepN'
p1298
I0
sg46
g51
sg164
g998
sg999
g1000
sS'training_block.thisIndex'
p1299
g147
sg166
g1004
sg20
F21.064450438710992
sS'experimental_blocks.thisTrialN'
p1300
I1
sS'training_block.thisN'
p1301
I1
sS'word_presentation.thisN'
p1302
I14
sS'training_block.thisTrialN'
p1303
I0
sg19
S'space'
p1304
sg30
g31
sS'word_presentation.thisTrialN'
p1305
I14
sg43
g12
sS'word_presentation.thisIndex'
p1306
g33
(g133
S'\x0e\x00\x00\x00'
p1307
tp1308
Rp1309
sa(dp1310
S'training_block.thisRepN'
p1311
I1
sg165
g980
sg32
g42
sg981
Vsneak
p1312
sS'experimental_blocks.thisN'
p1313
I1
sg44
g45
sg984
Vdance
p1314
sg986
Vwade
p1315
sg988
Vskate
p1316
sS'experimental_blocks.thisIndex'
p1317
g993
sS'word_presentation.thisRepN'
p1318
I0
sS'experimental_blocks.thisRepN'
p1319
I0
sg46
g51
sg164
g998
sg999
g1025
sS'training_block.thisIndex'
p1320
g147
sg166
g1004
sg20
F20.645999880676754
sS'experimental_blocks.thisTrialN'
p1321
I1
sS'training_block.thisN'
p1322
I1
sS'word_presentation.thisN'
p1323
I15
sS'training_block.thisTrialN'
p1324
I0
sg19
S'space'
p1325
sg30
g31
sS'word_presentation.thisTrialN'
p1326
I15
sg43
g12
sS'word_presentation.thisIndex'
p1327
g33
(g133
S'\x0f\x00\x00\x00'
p1328
tp1329
Rp1330
sa(dp1331
S'training_block.thisRepN'
p1332
I1
sg165
g980
sg32
g42
sg981
Vprance
p1333
sS'experimental_blocks.thisN'
p1334
I1
sg44
g45
sg984
Vstrut
p1335
sg986
Vflee
p1336
sg988
Vtrot
p1337
sS'experimental_blocks.thisIndex'
p1338
g993
sS'word_presentation.thisRepN'
p1339
I0
sS'experimental_blocks.thisRepN'
p1340
I0
sg46
g51
sg164
g998
sg999
g1025
sS'training_block.thisIndex'
p1341
g147
sg166
g1004
sg20
F13.853124356710396
sS'experimental_blocks.thisTrialN'
p1342
I1
sS'training_block.thisN'
p1343
I1
sS'word_presentation.thisN'
p1344
I16
sS'training_block.thisTrialN'
p1345
I0
sg19
S'space'
p1346
sg30
g31
sS'word_presentation.thisTrialN'
p1347
I16
sg43
g12
sS'word_presentation.thisIndex'
p1348
g33
(g133
S'\x10\x00\x00\x00'
p1349
tp1350
Rp1351
sa(dp1352
S'training_block.thisRepN'
p1353
I1
sg165
g980
sg32
g42
sg981
Vscrub
p1354
sS'experimental_blocks.thisN'
p1355
I1
sg44
g45
sg984
Vdig
p1356
sg986
Vcatch
p1357
sg988
Vscrape
p1358
sS'experimental_blocks.thisIndex'
p1359
g993
sS'word_presentation.thisRepN'
p1360
I0
sS'experimental_blocks.thisRepN'
p1361
I0
sg46
g51
sg164
g998
sg999
g1000
sS'training_block.thisIndex'
p1362
g147
sg166
g1004
sg20
F16.922435445845622
sS'experimental_blocks.thisTrialN'
p1363
I1
sS'training_block.thisN'
p1364
I1
sS'word_presentation.thisN'
p1365
I17
sS'training_block.thisTrialN'
p1366
I0
sg19
S'space'
p1367
sg30
g31
sS'word_presentation.thisTrialN'
p1368
I17
sg43
g12
sS'word_presentation.thisIndex'
p1369
g33
(g133
S'\x11\x00\x00\x00'
p1370
tp1371
Rp1372
sa(dp1373
S'training_block.thisRepN'
p1374
I1
sg165
g980
sg32
g42
sg981
Vgrate
p1375
sS'experimental_blocks.thisN'
p1376
I1
sg44
g45
sg984
Vknock
p1377
sg986
Vpolish
p1378
sg988
Vgrip
p1379
sS'experimental_blocks.thisIndex'
p1380
g993
sS'word_presentation.thisRepN'
p1381
I0
sS'experimental_blocks.thisRepN'
p1382
I0
sg46
g51
sg164
g998
sg999
g1000
sS'training_block.thisIndex'
p1383
g147
sg166
g1004
sg20
F8.85547249892079
sS'experimental_blocks.thisTrialN'
p1384
I1
sS'training_block.thisN'
p1385
I1
sS'word_presentation.thisN'
p1386
I18
sS'training_block.thisTrialN'
p1387
I0
sg19
S'space'
p1388
sg30
g31
sS'word_presentation.thisTrialN'
p1389
I18
sg43
g12
sS'word_presentation.thisIndex'
p1390
g33
(g133
S'\x12\x00\x00\x00'
p1391
tp1392
Rp1393
sa(dp1394
S'training_block.thisRepN'
p1395
I1
sg165
g980
sg32
g42
sg981
Vtiptoe
p1396
sS'experimental_blocks.thisN'
p1397
I1
sg44
g45
sg984
Vstumble
p1398
sg986
Vtraipse
p1399
sg988
Vtread
p1400
sS'experimental_blocks.thisIndex'
p1401
g993
sS'word_presentation.thisRepN'
p1402
I0
sS'experimental_blocks.thisRepN'
p1403
I0
sg46
g51
sg164
g998
sg999
g1025
sS'training_block.thisIndex'
p1404
g147
sg166
g1004
sg20
F16.234214443109522
sS'experimental_blocks.thisTrialN'
p1405
I1
sS'training_block.thisN'
p1406
I1
sS'word_presentation.thisN'
p1407
I19
sS'training_block.thisTrialN'
p1408
I0
sg19
S'space'
p1409
sg30
g31
sS'word_presentation.thisTrialN'
p1410
I19
sg43
g12
sS'word_presentation.thisIndex'
p1411
g33
(g133
S'\x13\x00\x00\x00'
p1412
tp1413
Rp1414
sa(dp1415
S'training_block.thisRepN'
p1416
I1
sg165
g980
sg32
g42
sg981
Vbrush
p1417
sS'experimental_blocks.thisN'
p1418
I1
sg44
g45
sg984
Vtwine
p1419
sg986
Vwash
p1420
sg988
Vgrasp
p1421
sS'experimental_blocks.thisIndex'
p1422
g993
sS'word_presentation.thisRepN'
p1423
I0
sS'experimental_blocks.thisRepN'
p1424
I0
sg46
g51
sg164
g998
sg999
g1000
sS'training_block.thisIndex'
p1425
g147
sg166
g1004
sg20
F9.057219914997404
sS'experimental_blocks.thisTrialN'
p1426
I1
sS'training_block.thisN'
p1427
I1
sS'word_presentation.thisN'
p1428
I20
sS'training_block.thisTrialN'
p1429
I0
sg19
S'space'
p1430
sg30
g31
sS'word_presentation.thisTrialN'
p1431
I20
sg43
g12
sS'word_presentation.thisIndex'
p1432
g33
(g133
S'\x14\x00\x00\x00'
p1433
tp1434
Rp1435
sa(dp1436
S'training_block.thisRepN'
p1437
I1
sg165
g980
sg32
g42
sg981
Vslap
p1438
sS'experimental_blocks.thisN'
p1439
I1
sg44
g45
sg984
Vgrab
p1440
sg986
Vdelve
p1441
sg988
Vwrap
p1442
sS'experimental_blocks.thisIndex'
p1443
g993
sS'word_presentation.thisRepN'
p1444
I0
sS'experimental_blocks.thisRepN'
p1445
I0
sg46
g51
sg164
g998
sg999
g1000
sS'training_block.thisIndex'
p1446
g147
sg166
g1004
sg20
F9.359521394646436
sS'experimental_blocks.thisTrialN'
p1447
I1
sS'training_block.thisN'
p1448
I1
sS'word_presentation.thisN'
p1449
I21
sS'training_block.thisTrialN'
p1450
I0
sg19
S'space'
p1451
sg30
g31
sS'word_presentation.thisTrialN'
p1452
I21
sg43
g12
sS'word_presentation.thisIndex'
p1453
g33
(g133
S'\x15\x00\x00\x00'
p1454
tp1455
Rp1456
sa(dp1457
S'training_block.thisRepN'
p1458
I1
sg165
g980
sg32
g42
sg981
Vrush
p1459
sS'experimental_blocks.thisN'
p1460
I1
sg44
g45
sg984
Vclimb
p1461
sg986
Vstep
p1462
sg988
Vwobble
p1463
sS'experimental_blocks.thisIndex'
p1464
g993
sS'word_presentation.thisRepN'
p1465
I0
sS'experimental_blocks.thisRepN'
p1466
I0
sg46
g51
sg164
g998
sg999
g1025
sS'training_block.thisIndex'
p1467
g147
sg166
g1004
sg20
F14.793346495784135
sS'experimental_blocks.thisTrialN'
p1468
I1
sS'training_block.thisN'
p1469
I1
sS'word_presentation.thisN'
p1470
I22
sS'training_block.thisTrialN'
p1471
I0
sg19
S'space'
p1472
sg30
g31
sS'word_presentation.thisTrialN'
p1473
I22
sg43
g12
sS'word_presentation.thisIndex'
p1474
g33
(g133
S'\x16\x00\x00\x00'
p1475
tp1476
Rp1477
sa(dp1478
S'training_block.thisRepN'
p1479
I1
sg165
g980
sg32
g42
sg981
Vstab
p1480
sS'experimental_blocks.thisN'
p1481
I1
sg44
g45
sg984
Vnip
p1482
sg986
Vwipe
p1483
sg988
Vpat
p1484
sS'experimental_blocks.thisIndex'
p1485
g993
sS'word_presentation.thisRepN'
p1486
I0
sS'experimental_blocks.thisRepN'
p1487
I0
sg46
g51
sg164
g998
sg999
g1000
sS'training_block.thisIndex'
p1488
g147
sg166
g1004
sg20
F7.094697734475631
sS'experimental_blocks.thisTrialN'
p1489
I1
sS'training_block.thisN'
p1490
I1
sS'word_presentation.thisN'
p1491
I23
sS'training_block.thisTrialN'
p1492
I0
sg19
S'space'
p1493
sg30
g31
sS'word_presentation.thisTrialN'
p1494
I23
sg43
g12
sS'word_presentation.thisIndex'
p1495
g33
(g133
S'\x17\x00\x00\x00'
p1496
tp1497
Rp1498
sa(dp1499
S'training_block.thisRepN'
p1500
I1
sg165
g980
sg32
g42
sg981
Vpush
p1501
sS'experimental_blocks.thisN'
p1502
I1
sg44
g45
sg984
Vclaw
p1503
sg986
Vtoss
p1504
sg988
Vchop
p1505
sS'experimental_blocks.thisIndex'
p1506
g993
sS'word_presentation.thisRepN'
p1507
I0
sS'experimental_blocks.thisRepN'
p1508
I0
sg46
g51
sg164
g998
sg999
g1000
sS'training_block.thisIndex'
p1509
g147
sg166
g1004
sg20
F18.231089908598733
sS'experimental_blocks.thisTrialN'
p1510
I1
sS'training_block.thisN'
p1511
I1
sS'word_presentation.thisN'
p1512
I24
sS'training_block.thisTrialN'
p1513
I0
sg19
S'space'
p1514
sg30
g31
sS'word_presentation.thisTrialN'
p1515
I24
sg43
g12
sS'word_presentation.thisIndex'
p1516
g33
(g133
S'\x18\x00\x00\x00'
p1517
tp1518
Rp1519
sa(dp1520
S'training_block.thisRepN'
p1521
I1
sg165
g980
sg32
g42
sg981
Vskip
p1522
sS'experimental_blocks.thisN'
p1523
I1
sg44
g45
sg984
Vplod
p1524
sg986
Vslither
p1525
sg988
Vmarch
p1526
sS'experimental_blocks.thisIndex'
p1527
g993
sS'word_presentation.thisRepN'
p1528
I0
sS'experimental_blocks.thisRepN'
p1529
I0
sg46
g51
sg164
g998
sg999
g1025
sS'training_block.thisIndex'
p1530
g147
sg166
g1004
sg20
F7.178305109926441
sS'experimental_blocks.thisTrialN'
p1531
I1
sS'training_block.thisN'
p1532
I1
sS'word_presentation.thisN'
p1533
I25
sS'training_block.thisTrialN'
p1534
I0
sg19
S'space'
p1535
sg30
g31
sS'word_presentation.thisTrialN'
p1536
I25
sg43
g12
sS'word_presentation.thisIndex'
p1537
g33
(g133
S'\x19\x00\x00\x00'
p1538
tp1539
Rp1540
sa(dp1541
S'training_block.thisRepN'
p1542
I1
sg165
g980
sg32
g42
sg981
Vstride
p1543
sS'experimental_blocks.thisN'
p1544
I1
sg44
g45
sg984
Vtrek
p1545
sg986
Vsway
p1546
sg988
Vstagger
p1547
sS'experimental_blocks.thisIndex'
p1548
g993
sS'word_presentation.thisRepN'
p1549
I0
sS'experimental_blocks.thisRepN'
p1550
I0
sg46
g51
sg164
g998
sg999
g1025
sS'training_block.thisIndex'
p1551
g147
sg166
g1004
sg20
F15.312304494342243
sS'experimental_blocks.thisTrialN'
p1552
I1
sS'training_block.thisN'
p1553
I1
sS'word_presentation.thisN'
p1554
I26
sS'training_block.thisTrialN'
p1555
I0
sg19
S'space'
p1556
sg30
g31
sS'word_presentation.thisTrialN'
p1557
I26
sg43
g12
sS'word_presentation.thisIndex'
p1558
g33
(g133
S'\x1a\x00\x00\x00'
p1559
tp1560
Rp1561
sa(dp1562
S'training_block.thisRepN'
p1563
I1
sg165
g980
sg32
g42
sg981
Vsqueeze
p1564
sS'experimental_blocks.thisN'
p1565
I1
sg44
g45
sg984
Vclap
p1566
sg986
Vfold
p1567
sg988
Vseize
p1568
sS'experimental_blocks.thisIndex'
p1569
g993
sS'word_presentation.thisRepN'
p1570
I0
sS'experimental_blocks.thisRepN'
p1571
I0
sg46
g51
sg164
g998
sg999
g1000
sS'training_block.thisIndex'
p1572
g147
sg166
g1004
sg20
F13.451368801355784
sS'experimental_blocks.thisTrialN'
p1573
I1
sS'training_block.thisN'
p1574
I1
sS'word_presentation.thisN'
p1575
I27
sS'training_block.thisTrialN'
p1576
I0
sg19
S'space'
p1577
sg30
g31
sS'word_presentation.thisTrialN'
p1578
I27
sg43
g12
sS'word_presentation.thisIndex'
p1579
g33
(g133
S'\x1b\x00\x00\x00'
p1580
tp1581
Rp1582
sa(dp1583
S'training_block.thisRepN'
p1584
I1
sg165
g980
sS'experimental_blocks.thisRepN'
p1585
I0
sS'experimental_blocks.thisTrialN'
p1586
I1
sS'training_block.thisN'
p1587
I1
sg44
g45
sg43
g12
sg32
g42
sS'training_block.thisTrialN'
p1588
I0
sg46
g51
sS'experimental_blocks.thisN'
p1589
I1
sg166
g1004
sg30
g31
sS'experimental_blocks.thisIndex'
p1590
g993
sg164
g998
sS'training_block.thisIndex'
p1591
g147
sa(dp1592
S'training_block.thisRepN'
p1593
I1
sg165
g33
(g37
S'\x9a\x99\x99\x99\x99\x99\xd9?'
p1594
tp1595
Rp1596
sg32
g42
sS'word4'
p1597
Vstep
p1598
sS'experimental_blocks.thisN'
p1599
I2
sg44
g45
sS'word1'
p1600
Vhop
p1601
sS'word3'
p1602
Vrun
p1603
sS'word2'
p1604
Vrush
p1605
sS'experimental_blocks.thisIndex'
p1606
g33
(g133
S'\x03\x00\x00\x00'
p1607
tp1608
Rp1609
sS'word_presentation.thisRepN'
p1610
I0
sS'experimental_blocks.thisRepN'
p1611
I0
sg46
g51
sg164
g33
(g37
S'\x9a\x99\x99\x99\x99\x99\xd9?'
p1612
tp1613
Rp1614
sS'type'
p1615
Vleg
p1616
sS'training_block.thisIndex'
p1617
g147
sg166
g33
(g37
S'\x9a\x99\x99\x99\x99\x99\xe9?'
p1618
tp1619
Rp1620
sg20
F9.056755264946332
sS'experimental_blocks.thisTrialN'
p1621
I2
sS'training_block.thisN'
p1622
I1
sS'word_presentation.thisN'
p1623
I0
sS'training_block.thisTrialN'
p1624
I0
sg19
S'space'
p1625
sg30
g31
sS'word_presentation.thisTrialN'
p1626
I0
sg43
g12
sS'word_presentation.thisIndex'
p1627
g33
(g133
S'\x00\x00\x00\x00'
p1628
tp1629
Rp1630
sa(dp1631
S'training_block.thisRepN'
p1632
I1
sg165
g1596
sg32
g42
sg1597
Vbraid
p1633
sS'experimental_blocks.thisN'
p1634
I2
sg44
g45
sg1600
Vclean
p1635
sg1602
Vpunch
p1636
sg1604
Vbrush
p1637
sS'experimental_blocks.thisIndex'
p1638
g1609
sS'word_presentation.thisRepN'
p1639
I0
sS'experimental_blocks.thisRepN'
p1640
I0
sg46
g51
sg164
g1614
sg1615
Varm
p1641
sS'training_block.thisIndex'
p1642
g147
sg166
g1620
sg20
F12.378082899731453
sS'experimental_blocks.thisTrialN'
p1643
I2
sS'training_block.thisN'
p1644
I1
sS'word_presentation.thisN'
p1645
I1
sS'training_block.thisTrialN'
p1646
I0
sg19
S'space'
p1647
sg30
g31
sS'word_presentation.thisTrialN'
p1648
I1
sg43
g12
sS'word_presentation.thisIndex'
p1649
g33
(g133
S'\x01\x00\x00\x00'
p1650
tp1651
Rp1652
sa(dp1653
S'training_block.thisRepN'
p1654
I1
sg165
g1596
sg32
g42
sg1597
Vrub
p1655
sS'experimental_blocks.thisN'
p1656
I2
sg44
g45
sg1600
Vpull
p1657
sg1602
Vpat
p1658
sg1604
Vknock
p1659
sS'experimental_blocks.thisIndex'
p1660
g1609
sS'word_presentation.thisRepN'
p1661
I0
sS'experimental_blocks.thisRepN'
p1662
I0
sg46
g51
sg164
g1614
sg1615
g1641
sS'training_block.thisIndex'
p1663
g147
sg166
g1620
sg20
F7.547166918813673
sS'experimental_blocks.thisTrialN'
p1664
I2
sS'training_block.thisN'
p1665
I1
sS'word_presentation.thisN'
p1666
I2
sS'training_block.thisTrialN'
p1667
I0
sg19
S'space'
p1668
sg30
g31
sS'word_presentation.thisTrialN'
p1669
I2
sg43
g12
sS'word_presentation.thisIndex'
p1670
g33
(g133
S'\x02\x00\x00\x00'
p1671
tp1672
Rp1673
sa(dp1674
S'training_block.thisRepN'
p1675
I1
sg165
g1596
sg32
g42
sg1597
Vslide
p1676
sS'experimental_blocks.thisN'
p1677
I2
sg44
g45
sg1600
Vmount
p1678
sg1602
Vtrek
p1679
sg1604
Vslither
p1680
sS'experimental_blocks.thisIndex'
p1681
g1609
sS'word_presentation.thisRepN'
p1682
I0
sS'experimental_blocks.thisRepN'
p1683
I0
sg46
g51
sg164
g1614
sg1615
g1616
sS'training_block.thisIndex'
p1684
g147
sg166
g1620
sg20
F12.596131393234828
sS'experimental_blocks.thisTrialN'
p1685
I2
sS'training_block.thisN'
p1686
I1
sS'word_presentation.thisN'
p1687
I3
sS'training_block.thisTrialN'
p1688
I0
sg19
S'space'
p1689
sg30
g31
sS'word_presentation.thisTrialN'
p1690
I3
sg43
g12
sS'word_presentation.thisIndex'
p1691
g33
(g133
S'\x03\x00\x00\x00'
p1692
tp1693
Rp1694
sa(dp1695
S'training_block.thisRepN'
p1696
I1
sg165
g1596
sg32
g42
sg1597
Vtrip
p1697
sS'experimental_blocks.thisN'
p1698
I2
sg44
g45
sg1600
Vslip
p1699
sg1602
Vjog
p1700
sg1604
Vroam
p1701
sS'experimental_blocks.thisIndex'
p1702
g1609
sS'word_presentation.thisRepN'
p1703
I0
sS'experimental_blocks.thisRepN'
p1704
I0
sg46
g51
sg164
g1614
sg1615
g1616
sS'training_block.thisIndex'
p1705
g147
sg166
g1620
sg20
F18.129794617565494
sS'experimental_blocks.thisTrialN'
p1706
I2
sS'training_block.thisN'
p1707
I1
sS'word_presentation.thisN'
p1708
I4
sS'training_block.thisTrialN'
p1709
I0
sg19
S'space'
p1710
sg30
g31
sS'word_presentation.thisTrialN'
p1711
I4
sg43
g12
sS'word_presentation.thisIndex'
p1712
g33
(g133
S'\x04\x00\x00\x00'
p1713
tp1714
Rp1715
sa(dp1716
S'training_block.thisRepN'
p1717
I1
sg165
g1596
sg32
g42
sg1597
Vslap
p1718
sS'experimental_blocks.thisN'
p1719
I2
sg44
g45
sg1600
Vskim
p1720
sg1602
Vseize
p1721
sg1604
Vscrub
p1722
sS'experimental_blocks.thisIndex'
p1723
g1609
sS'word_presentation.thisRepN'
p1724
I0
sS'experimental_blocks.thisRepN'
p1725
I0
sg46
g51
sg164
g1614
sg1615
g1641
sS'training_block.thisIndex'
p1726
g147
sg166
g1620
sg20
F13.718908846802151
sS'experimental_blocks.thisTrialN'
p1727
I2
sS'training_block.thisN'
p1728
I1
sS'word_presentation.thisN'
p1729
I5
sS'training_block.thisTrialN'
p1730
I0
sg19
S'space'
p1731
sg30
g31
sS'word_presentation.thisTrialN'
p1732
I5
sg43
g12
sS'word_presentation.thisIndex'
p1733
g33
(g133
S'\x05\x00\x00\x00'
p1734
tp1735
Rp1736
sa(dp1737
S'training_block.thisRepN'
p1738
I1
sg165
g1596
sg32
g42
sg1597
Vdelve
p1739
sS'experimental_blocks.thisN'
p1740
I2
sg44
g45
sg1600
Vstab
p1741
sg1602
Vtwine
p1742
sg1604
Vwrap
p1743
sS'experimental_blocks.thisIndex'
p1744
g1609
sS'word_presentation.thisRepN'
p1745
I0
sS'experimental_blocks.thisRepN'
p1746
I0
sg46
g51
sg164
g1614
sg1615
g1641
sS'training_block.thisIndex'
p1747
g147
sg166
g1620
sg20
F19.55541406206612
sS'experimental_blocks.thisTrialN'
p1748
I2
sS'training_block.thisN'
p1749
I1
sS'word_presentation.thisN'
p1750
I6
sS'training_block.thisTrialN'
p1751
I0
sg19
S'space'
p1752
sg30
g31
sS'word_presentation.thisTrialN'
p1753
I6
sg43
g12
sS'word_presentation.thisIndex'
p1754
g33
(g133
S'\x06\x00\x00\x00'
p1755
tp1756
Rp1757
sa(dp1758
S'training_block.thisRepN'
p1759
I1
sg165
g1596
sg32
g42
sg1597
Vkick
p1760
sS'experimental_blocks.thisN'
p1761
I2
sg44
g45
sg1600
Vskate
p1762
sg1602
Vcrawl
p1763
sg1604
Vstrut
p1764
sS'experimental_blocks.thisIndex'
p1765
g1609
sS'word_presentation.thisRepN'
p1766
I0
sS'experimental_blocks.thisRepN'
p1767
I0
sg46
g51
sg164
g1614
sg1615
g1616
sS'training_block.thisIndex'
p1768
g147
sg166
g1620
sg20
F10.566625324929191
sS'experimental_blocks.thisTrialN'
p1769
I2
sS'training_block.thisN'
p1770
I1
sS'word_presentation.thisN'
p1771
I7
sS'training_block.thisTrialN'
p1772
I0
sg19
S'space'
p1773
sg30
g31
sS'word_presentation.thisTrialN'
p1774
I7
sg43
g12
sS'word_presentation.thisIndex'
p1775
g33
(g133
S'\x07\x00\x00\x00'
p1776
tp1777
Rp1778
sa(dp1779
S'training_block.thisRepN'
p1780
I1
sg165
g1596
sg32
g42
sg1597
Vcatch
p1781
sS'experimental_blocks.thisN'
p1782
I2
sg44
g45
sg1600
Vclaw
p1783
sg1602
Vtug
p1784
sg1604
Vgrate
p1785
sS'experimental_blocks.thisIndex'
p1786
g1609
sS'word_presentation.thisRepN'
p1787
I0
sS'experimental_blocks.thisRepN'
p1788
I0
sg46
g51
sg164
g1614
sg1615
g1641
sS'training_block.thisIndex'
p1789
g147
sg166
g1620
sg20
F12.444104298132515
sS'experimental_blocks.thisTrialN'
p1790
I2
sS'training_block.thisN'
p1791
I1
sS'word_presentation.thisN'
p1792
I8
sS'training_block.thisTrialN'
p1793
I0
sg19
S'space'
p1794
sg30
g31
sS'word_presentation.thisTrialN'
p1795
I8
sg43
g12
sS'word_presentation.thisIndex'
p1796
g33
(g133
S'\x08\x00\x00\x00'
p1797
tp1798
Rp1799
sa(dp1800
S'training_block.thisRepN'
p1801
I1
sg165
g1596
sg32
g42
sg1597
Vlimp
p1802
sS'experimental_blocks.thisN'
p1803
I2
sg44
g45
sg1600
Vbounce
p1804
sg1602
Vwalk
p1805
sg1604
Vsneak
p1806
sS'experimental_blocks.thisIndex'
p1807
g1609
sS'word_presentation.thisRepN'
p1808
I0
sS'experimental_blocks.thisRepN'
p1809
I0
sg46
g51
sg164
g1614
sg1615
g1616
sS'training_block.thisIndex'
p1810
g147
sg166
g1620
sg20
F12.561881627238108
sS'experimental_blocks.thisTrialN'
p1811
I2
sS'training_block.thisN'
p1812
I1
sS'word_presentation.thisN'
p1813
I9
sS'training_block.thisTrialN'
p1814
I0
sg19
S'space'
p1815
sg30
g31
sS'word_presentation.thisTrialN'
p1816
I9
sg43
g12
sS'word_presentation.thisIndex'
p1817
g33
(g133
S'\t\x00\x00\x00'
p1818
tp1819
Rp1820
sa(dp1821
S'training_block.thisRepN'
p1822
I1
sg165
g1596
sg32
g42
sg1597
Vshake
p1823
sS'experimental_blocks.thisN'
p1824
I2
sg44
g45
sg1600
Vfold
p1825
sg1602
Vsqueeze
p1826
sg1604
Vchop
p1827
sS'experimental_blocks.thisIndex'
p1828
g1609
sS'word_presentation.thisRepN'
p1829
I0
sS'experimental_blocks.thisRepN'
p1830
I0
sg46
g51
sg164
g1614
sg1615
g1641
sS'training_block.thisIndex'
p1831
g147
sg166
g1620
sg20
F11.572433845645719
sS'experimental_blocks.thisTrialN'
p1832
I2
sS'training_block.thisN'
p1833
I1
sS'word_presentation.thisN'
p1834
I10
sS'training_block.thisTrialN'
p1835
I0
sg19
S'space'
p1836
sg30
g31
sS'word_presentation.thisTrialN'
p1837
I10
sg43
g12
sS'word_presentation.thisIndex'
p1838
g33
(g133
S'\n\x00\x00\x00'
p1839
tp1840
Rp1841
sa(dp1842
S'training_block.thisRepN'
p1843
I1
sg165
g1596
sg32
g42
sg1597
Vleap
p1844
sS'experimental_blocks.thisN'
p1845
I2
sg44
g45
sg1600
Vpace
p1846
sg1602
Vkneel
p1847
sg1604
Vstride
p1848
sS'experimental_blocks.thisIndex'
p1849
g1609
sS'word_presentation.thisRepN'
p1850
I0
sS'experimental_blocks.thisRepN'
p1851
I0
sg46
g51
sg164
g1614
sg1615
g1616
sS'training_block.thisIndex'
p1852
g147
sg166
g1620
sg20
F11.740108505269745
sS'experimental_blocks.thisTrialN'
p1853
I2
sS'training_block.thisN'
p1854
I1
sS'word_presentation.thisN'
p1855
I11
sS'training_block.thisTrialN'
p1856
I0
sg19
S'space'
p1857
sg30
g31
sS'word_presentation.thisTrialN'
p1858
I11
sg43
g12
sS'word_presentation.thisIndex'
p1859
g33
(g133
S'\x0b\x00\x00\x00'
p1860
tp1861
Rp1862
sa(dp1863
S'training_block.thisRepN'
p1864
I1
sg165
g1596
sg32
g42
sg1597
Vramble
p1865
sS'experimental_blocks.thisN'
p1866
I2
sg44
g45
sg1600
Vplod
p1867
sg1602
Vcreep
p1868
sg1604
Vstray
p1869
sS'experimental_blocks.thisIndex'
p1870
g1609
sS'word_presentation.thisRepN'
p1871
I0
sS'experimental_blocks.thisRepN'
p1872
I0
sg46
g51
sg164
g1614
sg1615
g1616
sS'training_block.thisIndex'
p1873
g147
sg166
g1620
sg20
F10.750305124149236
sS'experimental_blocks.thisTrialN'
p1874
I2
sS'training_block.thisN'
p1875
I1
sS'word_presentation.thisN'
p1876
I12
sS'training_block.thisTrialN'
p1877
I0
sg19
S'space'
p1878
sg30
g31
sS'word_presentation.thisTrialN'
p1879
I12
sg43
g12
sS'word_presentation.thisIndex'
p1880
g33
(g133
S'\x0c\x00\x00\x00'
p1881
tp1882
Rp1883
sa(dp1884
S'training_block.thisRepN'
p1885
I1
sg165
g1596
sg32
g42
sg1597
Vbash
p1886
sS'experimental_blocks.thisN'
p1887
I2
sg44
g45
sg1600
Vfile
p1888
sg1602
Vlift
p1889
sg1604
Vgrab
p1890
sS'experimental_blocks.thisIndex'
p1891
g1609
sS'word_presentation.thisRepN'
p1892
I0
sS'experimental_blocks.thisRepN'
p1893
I0
sg46
g51
sg164
g1614
sg1615
g1641
sS'training_block.thisIndex'
p1894
g147
sg166
g1620
sg20
F18.633090037405054
sS'experimental_blocks.thisTrialN'
p1895
I2
sS'training_block.thisN'
p1896
I1
sS'word_presentation.thisN'
p1897
I13
sS'training_block.thisTrialN'
p1898
I0
sg19
S'space'
p1899
sg30
g31
sS'word_presentation.thisTrialN'
p1900
I13
sg43
g12
sS'word_presentation.thisIndex'
p1901
g33
(g133
S'\r\x00\x00\x00'
p1902
tp1903
Rp1904
sa(dp1905
S'training_block.thisRepN'
p1906
I1
sg165
g1596
sg32
g42
sg1597
Vswitch
p1907
sS'experimental_blocks.thisN'
p1908
I2
sg44
g45
sg1600
Vstir
p1909
sg1602
Vclutch
p1910
sg1604
Vgrasp
p1911
sS'experimental_blocks.thisIndex'
p1912
g1609
sS'word_presentation.thisRepN'
p1913
I0
sS'experimental_blocks.thisRepN'
p1914
I0
sg46
g51
sg164
g1614
sg1615
g1641
sS'training_block.thisIndex'
p1915
g147
sg166
g1620
sg20
F5.836852122356504
sS'experimental_blocks.thisTrialN'
p1916
I2
sS'training_block.thisN'
p1917
I1
sS'word_presentation.thisN'
p1918
I14
sS'training_block.thisTrialN'
p1919
I0
sg19
S'space'
p1920
sg30
g31
sS'word_presentation.thisTrialN'
p1921
I14
sg43
g12
sS'word_presentation.thisIndex'
p1922
g33
(g133
S'\x0e\x00\x00\x00'
p1923
tp1924
Rp1925
sa(dp1926
S'training_block.thisRepN'
p1927
I1
sg165
g1596
sg32
g42
sg1597
Vscratch
p1928
sS'experimental_blocks.thisN'
p1929
I2
sg44
g45
sg1600
Vscoop
p1930
sg1602
Vdig
p1931
sg1604
Vcut
p1932
sS'experimental_blocks.thisIndex'
p1933
g1609
sS'word_presentation.thisRepN'
p1934
I0
sS'experimental_blocks.thisRepN'
p1935
I0
sg46
g51
sg164
g1614
sg1615
g1641
sS'training_block.thisIndex'
p1936
g147
sg166
g1620
sg20
F6.507463836514944
sS'experimental_blocks.thisTrialN'
p1937
I2
sS'training_block.thisN'
p1938
I1
sS'word_presentation.thisN'
p1939
I15
sS'training_block.thisTrialN'
p1940
I0
sg19
S'space'
p1941
sg30
g31
sS'word_presentation.thisTrialN'
p1942
I15
sg43
g12
sS'word_presentation.thisIndex'
p1943
g33
(g133
S'\x0f\x00\x00\x00'
p1944
tp1945
Rp1946
sa(dp1947
S'training_block.thisRepN'
p1948
I1
sg165
g1596
sg32
g42
sg1597
Vhike
p1949
sS'experimental_blocks.thisN'
p1950
I2
sg44
g45
sg1600
Vtrudge
p1951
sg1602
Vflee
p1952
sg1604
Vtread
p1953
sS'experimental_blocks.thisIndex'
p1954
g1609
sS'word_presentation.thisRepN'
p1955
I0
sS'experimental_blocks.thisRepN'
p1956
I0
sg46
g51
sg164
g1614
sg1615
g1616
sS'training_block.thisIndex'
p1957
g147
sg166
g1620
sg20
F17.30807444041602
sS'experimental_blocks.thisTrialN'
p1958
I2
sS'training_block.thisN'
p1959
I1
sS'word_presentation.thisN'
p1960
I16
sS'training_block.thisTrialN'
p1961
I0
sg19
S'space'
p1962
sg30
g31
sS'word_presentation.thisTrialN'
p1963
I16
sg43
g12
sS'word_presentation.thisIndex'
p1964
g33
(g133
S'\x10\x00\x00\x00'
p1965
tp1966
Rp1967
sa(dp1968
S'training_block.thisRepN'
p1969
I1
sg165
g1596
sg32
g42
sg1597
Vwipe
p1970
sS'experimental_blocks.thisN'
p1971
I2
sg44
g45
sg1600
Vthrow
p1972
sg1602
Vnip
p1973
sg1604
Vpinch
p1974
sS'experimental_blocks.thisIndex'
p1975
g1609
sS'word_presentation.thisRepN'
p1976
I0
sS'experimental_blocks.thisRepN'
p1977
I0
sg46
g51
sg164
g1614
sg1615
g1641
sS'training_block.thisIndex'
p1978
g147
sg166
g1620
sg20
F13.668648409660818
sS'experimental_blocks.thisTrialN'
p1979
I2
sS'training_block.thisN'
p1980
I1
sS'word_presentation.thisN'
p1981
I17
sS'training_block.thisTrialN'
p1982
I0
sg19
S'space'
p1983
sg30
g31
sS'word_presentation.thisTrialN'
p1984
I17
sg43
g12
sS'word_presentation.thisIndex'
p1985
g33
(g133
S'\x11\x00\x00\x00'
p1986
tp1987
Rp1988
sa(dp1989
S'training_block.thisRepN'
p1990
I1
sg165
g1596
sg32
g42
sg1597
Vgrip
p1991
sS'experimental_blocks.thisN'
p1992
I2
sg44
g45
sg1600
Vpeel
p1993
sg1602
Vsnatch
p1994
sg1604
Vwash
p1995
sS'experimental_blocks.thisIndex'
p1996
g1609
sS'word_presentation.thisRepN'
p1997
I0
sS'experimental_blocks.thisRepN'
p1998
I0
sg46
g51
sg164
g1614
sg1615
g1641
sS'training_block.thisIndex'
p1999
g147
sg166
g1620
sg20
F27.22019908041875
sS'experimental_blocks.thisTrialN'
p2000
I2
sS'training_block.thisN'
p2001
I1
sS'word_presentation.thisN'
p2002
I18
sS'training_block.thisTrialN'
p2003
I0
sg19
S'space'
p2004
sg30
g31
sS'word_presentation.thisTrialN'
p2005
I18
sg43
g12
sS'word_presentation.thisIndex'
p2006
g33
(g133
S'\x12\x00\x00\x00'
p2007
tp2008
Rp2009
sa(dp2010
S'training_block.thisRepN'
p2011
I1
sg165
g1596
sg32
g42
sg1597
Vstomp
p2012
sS'experimental_blocks.thisN'
p2013
I2
sg44
g45
sg1600
Vsprint
p2014
sg1602
Vwander
p2015
sg1604
Vclimb
p2016
sS'experimental_blocks.thisIndex'
p2017
g1609
sS'word_presentation.thisRepN'
p2018
I0
sS'experimental_blocks.thisRepN'
p2019
I0
sg46
g51
sg164
g1614
sg1615
g1616
sS'training_block.thisIndex'
p2020
g147
sg166
g1620
sg20
F7.111464647283356
sS'experimental_blocks.thisTrialN'
p2021
I2
sS'training_block.thisN'
p2022
I1
sS'word_presentation.thisN'
p2023
I19
sS'training_block.thisTrialN'
p2024
I0
sg19
S'space'
p2025
sg30
g31
sS'word_presentation.thisTrialN'
p2026
I19
sg43
g12
sS'word_presentation.thisIndex'
p2027
g33
(g133
S'\x13\x00\x00\x00'
p2028
tp2029
Rp2030
sa(dp2031
S'training_block.thisRepN'
p2032
I1
sg165
g1596
sg32
g42
sg1597
Vinch
p2033
sS'experimental_blocks.thisN'
p2034
I2
sg44
g45
sg1600
Vroll
p2035
sg1602
Vwobble
p2036
sg1604
Vskip
p2037
sS'experimental_blocks.thisIndex'
p2038
g1609
sS'word_presentation.thisRepN'
p2039
I0
sS'experimental_blocks.thisRepN'
p2040
I0
sg46
g51
sg164
g1614
sg1615
g1616
sS'training_block.thisIndex'
p2041
g147
sg166
g1620
sg20
F21.33247884084085
sS'experimental_blocks.thisTrialN'
p2042
I2
sS'training_block.thisN'
p2043
I1
sS'word_presentation.thisN'
p2044
I20
sS'training_block.thisTrialN'
p2045
I0
sg19
S'space'
p2046
sg30
g31
sS'word_presentation.thisTrialN'
p2047
I20
sg43
g12
sS'word_presentation.thisIndex'
p2048
g33
(g133
S'\x14\x00\x00\x00'
p2049
tp2050
Rp2051
sa(dp2052
S'training_block.thisRepN'
p2053
I1
sg165
g1596
sg32
g42
sg1597
Vdance
p2054
sS'experimental_blocks.thisN'
p2055
I2
sg44
g45
sg1600
Vstamp
p2056
sg1602
Vtiptoe
p2057
sg1604
Vstroll
p2058
sS'experimental_blocks.thisIndex'
p2059
g1609
sS'word_presentation.thisRepN'
p2060
I0
sS'experimental_blocks.thisRepN'
p2061
I0
sg46
g51
sg164
g1614
sg1615
g1616
sS'training_block.thisIndex'
p2062
g147
sg166
g1620
sg20
F23.34561824336197
sS'experimental_blocks.thisTrialN'
p2063
I2
sS'training_block.thisN'
p2064
I1
sS'word_presentation.thisN'
p2065
I21
sS'training_block.thisTrialN'
p2066
I0
sg19
S'space'
p2067
sg30
g31
sS'word_presentation.thisTrialN'
p2068
I21
sg43
g12
sS'word_presentation.thisIndex'
p2069
g33
(g133
S'\x15\x00\x00\x00'
p2070
tp2071
Rp2072
sa(dp2073
S'training_block.thisRepN'
p2074
I1
sg165
g1596
sg32
g42
sg1597
Vhack
p2075
sS'experimental_blocks.thisN'
p2076
I2
sg44
g45
sg1600
Vclap
p2077
sg1602
Vbind
p2078
sg1604
Vdunk
p2079
sS'experimental_blocks.thisIndex'
p2080
g1609
sS'word_presentation.thisRepN'
p2081
I0
sS'experimental_blocks.thisRepN'
p2082
I0
sg46
g51
sg164
g1614
sg1615
g1641
sS'training_block.thisIndex'
p2083
g147
sg166
g1620
sg20
F19.75743963599234
sS'experimental_blocks.thisTrialN'
p2084
I2
sS'training_block.thisN'
p2085
I1
sS'word_presentation.thisN'
p2086
I22
sS'training_block.thisTrialN'
p2087
I0
sg19
S'space'
p2088
sg30
g31
sS'word_presentation.thisTrialN'
p2089
I22
sg43
g12
sS'word_presentation.thisIndex'
p2090
g33
(g133
S'\x16\x00\x00\x00'
p2091
tp2092
Rp2093
sa(dp2094
S'training_block.thisRepN'
p2095
I1
sg165
g1596
sg32
g42
sg1597
Vstagger
p2096
sS'experimental_blocks.thisN'
p2097
I2
sg44
g45
sg1600
Vstumble
p2098
sg1602
Vmarch
p2099
sg1604
Vtrot
p2100
sS'experimental_blocks.thisIndex'
p2101
g1609
sS'word_presentation.thisRepN'
p2102
I0
sS'experimental_blocks.thisRepN'
p2103
I0
sg46
g51
sg164
g1614
sg1615
g1616
sS'training_block.thisIndex'
p2104
g147
sg166
g1620
sg20
F8.53678420284632
sS'experimental_blocks.thisTrialN'
p2105
I2
sS'training_block.thisN'
p2106
I1
sS'word_presentation.thisN'
p2107
I23
sS'training_block.thisTrialN'
p2108
I0
sg19
S'space'
p2109
sg30
g31
sS'word_presentation.thisTrialN'
p2110
I23
sg43
g12
sS'word_presentation.thisIndex'
p2111
g33
(g133
S'\x17\x00\x00\x00'
p2112
tp2113
Rp2114
sa(dp2115
S'training_block.thisRepN'
p2116
I1
sg165
g1596
sg32
g42
sg1597
Vsway
p2117
sS'experimental_blocks.thisN'
p2118
I2
sg44
g45
sg1600
Vscuff
p2119
sg1602
Vprance
p2120
sg1604
Vglide
p2121
sS'experimental_blocks.thisIndex'
p2122
g1609
sS'word_presentation.thisRepN'
p2123
I0
sS'experimental_blocks.thisRepN'
p2124
I0
sg46
g51
sg164
g1614
sg1615
g1616
sS'training_block.thisIndex'
p2125
g147
sg166
g1620
sg20
F23.44646231810657
sS'experimental_blocks.thisTrialN'
p2126
I2
sS'training_block.thisN'
p2127
I1
sS'word_presentation.thisN'
p2128
I24
sS'training_block.thisTrialN'
p2129
I0
sg19
S'space'
p2130
sg30
g31
sS'word_presentation.thisTrialN'
p2131
I24
sg43
g12
sS'word_presentation.thisIndex'
p2132
g33
(g133
S'\x18\x00\x00\x00'
p2133
tp2134
Rp2135
sa(dp2136
S'training_block.thisRepN'
p2137
I1
sg165
g1596
sg32
g42
sg1597
Vtraipse
p2138
sS'experimental_blocks.thisN'
p2139
I2
sg44
g45
sg1600
Vwade
p2140
sg1602
Vflit
p2141
sg1604
Vjump
p2142
sS'experimental_blocks.thisIndex'
p2143
g1609
sS'word_presentation.thisRepN'
p2144
I0
sS'experimental_blocks.thisRepN'
p2145
I0
sg46
g51
sg164
g1614
sg1615
g1616
sS'training_block.thisIndex'
p2146
g147
sg166
g1620
sg20
F14.97693739512215
sS'experimental_blocks.thisTrialN'
p2147
I2
sS'training_block.thisN'
p2148
I1
sS'word_presentation.thisN'
p2149
I25
sS'training_block.thisTrialN'
p2150
I0
sg19
S'space'
p2151
sg30
g31
sS'word_presentation.thisTrialN'
p2152
I25
sg43
g12
sS'word_presentation.thisIndex'
p2153
g33
(g133
S'\x19\x00\x00\x00'
p2154
tp2155
Rp2156
sa(dp2157
S'training_block.thisRepN'
p2158
I1
sg165
g1596
sg32
g42
sg1597
Vpolish
p2159
sS'experimental_blocks.thisN'
p2160
I2
sg44
g45
sg1600
Vclick
p2161
sg1602
Vtoss
p2162
sg1604
Vpush
p2163
sS'experimental_blocks.thisIndex'
p2164
g1609
sS'word_presentation.thisRepN'
p2165
I0
sS'experimental_blocks.thisRepN'
p2166
I0
sg46
g51
sg164
g1614
sg1615
g1641
sS'training_block.thisIndex'
p2167
g147
sg166
g1620
sg20
F24.519802744991466
sS'experimental_blocks.thisTrialN'
p2168
I2
sS'training_block.thisN'
p2169
I1
sS'word_presentation.thisN'
p2170
I26
sS'training_block.thisTrialN'
p2171
I0
sg19
S'space'
p2172
sg30
g31
sS'word_presentation.thisTrialN'
p2173
I26
sg43
g12
sS'word_presentation.thisIndex'
p2174
g33
(g133
S'\x1a\x00\x00\x00'
p2175
tp2176
Rp2177
sa(dp2178
S'training_block.thisRepN'
p2179
I1
sg165
g1596
sg32
g42
sg1597
Vpoke
p2180
sS'experimental_blocks.thisN'
p2181
I2
sg44
g45
sg1600
Vwhip
p2182
sg1602
Vscrape
p2183
sg1604
Vcarve
p2184
sS'experimental_blocks.thisIndex'
p2185
g1609
sS'word_presentation.thisRepN'
p2186
I0
sS'experimental_blocks.thisRepN'
p2187
I0
sg46
g51
sg164
g1614
sg1615
g1641
sS'training_block.thisIndex'
p2188
g147
sg166
g1620
sg20
F26.934590232785922
sS'experimental_blocks.thisTrialN'
p2189
I2
sS'training_block.thisN'
p2190
I1
sS'word_presentation.thisN'
p2191
I27
sS'training_block.thisTrialN'
p2192
I0
sg19
S'space'
p2193
sg30
g31
sS'word_presentation.thisTrialN'
p2194
I27
sg43
g12
sS'word_presentation.thisIndex'
p2195
g33
(g133
S'\x1b\x00\x00\x00'
p2196
tp2197
Rp2198
sa(dp2199
S'training_block.thisRepN'
p2200
I1
sg165
g1596
sS'experimental_blocks.thisRepN'
p2201
I0
sS'experimental_blocks.thisTrialN'
p2202
I2
sS'training_block.thisN'
p2203
I1
sg44
g45
sg43
g12
sg32
g42
sS'training_block.thisTrialN'
p2204
I0
sg46
g51
sS'experimental_blocks.thisN'
p2205
I2
sg166
g1620
sg30
g31
sS'experimental_blocks.thisIndex'
p2206
g1609
sg164
g1614
sS'training_block.thisIndex'
p2207
g147
sa(dp2208
S'training_block.thisRepN'
p2209
I1
sg165
g33
(g37
S'\x9a\x99\x99\x99\x99\x99\xd9?'
p2210
tp2211
Rp2212
sg32
g42
sS'word4'
p2213
Vlift
p2214
sS'experimental_blocks.thisN'
p2215
I3
sg44
g45
sS'word1'
p2216
Vclaw
p2217
sS'word3'
p2218
Vpush
p2219
sS'word2'
p2220
Vcatch
p2221
sS'experimental_blocks.thisIndex'
p2222
g33
(g133
S'\x01\x00\x00\x00'
p2223
tp2224
Rp2225
sS'word_presentation.thisRepN'
p2226
I0
sS'experimental_blocks.thisRepN'
p2227
I0
sg46
g51
sg164
g33
(g37
S'\x9a\x99\x99\x99\x99\x99\xc9?'
p2228
tp2229
Rp2230
sS'type'
p2231
Varm
p2232
sS'training_block.thisIndex'
p2233
g147
sg166
g33
(g37
S'333333\xe3?'
p2234
tp2235
Rp2236
sg20
F12.310458932797701
sS'experimental_blocks.thisTrialN'
p2237
I3
sS'training_block.thisN'
p2238
I1
sS'word_presentation.thisN'
p2239
I0
sS'training_block.thisTrialN'
p2240
I0
sg19
S'space'
p2241
sg30
g31
sS'word_presentation.thisTrialN'
p2242
I0
sg43
g12
sS'word_presentation.thisIndex'
p2243
g33
(g133
S'\x00\x00\x00\x00'
p2244
tp2245
Rp2246
sa(dp2247
S'training_block.thisRepN'
p2248
I1
sg165
g2212
sg32
g42
sg2213
Vglide
p2249
sS'experimental_blocks.thisN'
p2250
I3
sg44
g45
sg2216
Vsway
p2251
sg2218
Vkick
p2252
sg2220
Vrush
p2253
sS'experimental_blocks.thisIndex'
p2254
g2225
sS'word_presentation.thisRepN'
p2255
I0
sS'experimental_blocks.thisRepN'
p2256
I0
sg46
g51
sg164
g2230
sg2231
Vleg
p2257
sS'training_block.thisIndex'
p2258
g147
sg166
g2236
sg20
F19.16965613920911
sS'experimental_blocks.thisTrialN'
p2259
I3
sS'training_block.thisN'
p2260
I1
sS'word_presentation.thisN'
p2261
I1
sS'training_block.thisTrialN'
p2262
I0
sg19
S'space'
p2263
sg30
g31
sS'word_presentation.thisTrialN'
p2264
I1
sg43
g12
sS'word_presentation.thisIndex'
p2265
g33
(g133
S'\x01\x00\x00\x00'
p2266
tp2267
Rp2268
sa(dp2269
S'training_block.thisRepN'
p2270
I1
sg165
g2212
sg32
g42
sg2213
Vslip
p2271
sS'experimental_blocks.thisN'
p2272
I3
sg44
g45
sg2216
Vsprint
p2273
sg2218
Vwade
p2274
sg2220
Vkneel
p2275
sS'experimental_blocks.thisIndex'
p2276
g2225
sS'word_presentation.thisRepN'
p2277
I0
sS'experimental_blocks.thisRepN'
p2278
I0
sg46
g51
sg164
g2230
sg2231
g2257
sS'training_block.thisIndex'
p2279
g147
sg166
g2236
sg20
F12.88126610816471
sS'experimental_blocks.thisTrialN'
p2280
I3
sS'training_block.thisN'
p2281
I1
sS'word_presentation.thisN'
p2282
I2
sS'training_block.thisTrialN'
p2283
I0
sg19
S'space'
p2284
sg30
g31
sS'word_presentation.thisTrialN'
p2285
I2
sg43
g12
sS'word_presentation.thisIndex'
p2286
g33
(g133
S'\x02\x00\x00\x00'
p2287
tp2288
Rp2289
sa(dp2290
S'training_block.thisRepN'
p2291
I1
sg165
g2212
sg32
g42
sg2213
Vgrasp
p2292
sS'experimental_blocks.thisN'
p2293
I3
sg44
g45
sg2216
Vdig
p2294
sg2218
Vclick
p2295
sg2220
Vbind
p2296
sS'experimental_blocks.thisIndex'
p2297
g2225
sS'word_presentation.thisRepN'
p2298
I0
sS'experimental_blocks.thisRepN'
p2299
I0
sg46
g51
sg164
g2230
sg2231
g2232
sS'training_block.thisIndex'
p2300
g147
sg166
g2236
sg20
F19.472128701741894
sS'experimental_blocks.thisTrialN'
p2301
I3
sS'training_block.thisN'
p2302
I1
sS'word_presentation.thisN'
p2303
I3
sS'training_block.thisTrialN'
p2304
I0
sg19
S'space'
p2305
sg30
g31
sS'word_presentation.thisTrialN'
p2306
I3
sg43
g12
sS'word_presentation.thisIndex'
p2307
g33
(g133
S'\x03\x00\x00\x00'
p2308
tp2309
Rp2310
sa(dp2311
S'training_block.thisRepN'
p2312
I1
sg165
g2212
sg32
g42
sg2213
Vpolish
p2313
sS'experimental_blocks.thisN'
p2314
I3
sg44
g45
sg2216
Vfold
p2315
sg2218
Vstir
p2316
sg2220
Vfile
p2317
sS'experimental_blocks.thisIndex'
p2318
g2225
sS'word_presentation.thisRepN'
p2319
I0
sS'experimental_blocks.thisRepN'
p2320
I0
sg46
g51
sg164
g2230
sg2231
g2232
sS'training_block.thisIndex'
p2321
g147
sg166
g2236
sg20
F5.684742054028902
sS'experimental_blocks.thisTrialN'
p2322
I3
sS'training_block.thisN'
p2323
I1
sS'word_presentation.thisN'
p2324
I4
sS'training_block.thisTrialN'
p2325
I0
sg19
S'space'
p2326
sg30
g31
sS'word_presentation.thisTrialN'
p2327
I4
sg43
g12
sS'word_presentation.thisIndex'
p2328
g33
(g133
S'\x04\x00\x00\x00'
p2329
tp2330
Rp2331
sa(dp2332
S'training_block.thisRepN'
p2333
I1
sg165
g2212
sg32
g42
sg2213
Vstomp
p2334
sS'experimental_blocks.thisN'
p2335
I3
sg44
g45
sg2216
Vwalk
p2336
sg2218
Vsneak
p2337
sg2220
Vlimp
p2338
sS'experimental_blocks.thisIndex'
p2339
g2225
sS'word_presentation.thisRepN'
p2340
I0
sS'experimental_blocks.thisRepN'
p2341
I0
sg46
g51
sg164
g2230
sg2231
g2257
sS'training_block.thisIndex'
p2342
g147
sg166
g2236
sg20
F22.0207069555654
sS'experimental_blocks.thisTrialN'
p2343
I3
sS'training_block.thisN'
p2344
I1
sS'word_presentation.thisN'
p2345
I5
sS'training_block.thisTrialN'
p2346
I0
sg19
S'space'
p2347
sg30
g31
sS'word_presentation.thisTrialN'
p2348
I5
sg43
g12
sS'word_presentation.thisIndex'
p2349
g33
(g133
S'\x05\x00\x00\x00'
p2350
tp2351
Rp2352
sa(dp2353
S'training_block.thisRepN'
p2354
I1
sg165
g2212
sg32
g42
sg2213
Vwipe
p2355
sS'experimental_blocks.thisN'
p2356
I3
sg44
g45
sg2216
Vbraid
p2357
sg2218
Vgrab
p2358
sg2220
Vtug
p2359
sS'experimental_blocks.thisIndex'
p2360
g2225
sS'word_presentation.thisRepN'
p2361
I0
sS'experimental_blocks.thisRepN'
p2362
I0
sg46
g51
sg164
g2230
sg2231
g2232
sS'training_block.thisIndex'
p2363
g147
sg166
g2236
sg20
F14.842453605126138
sS'experimental_blocks.thisTrialN'
p2364
I3
sS'training_block.thisN'
p2365
I1
sS'word_presentation.thisN'
p2366
I6
sS'training_block.thisTrialN'
p2367
I0
sg19
S'space'
p2368
sg30
g31
sS'word_presentation.thisTrialN'
p2369
I6
sg43
g12
sS'word_presentation.thisIndex'
p2370
g33
(g133
S'\x06\x00\x00\x00'
p2371
tp2372
Rp2373
sa(dp2374
S'training_block.thisRepN'
p2375
I1
sg165
g2212
sg32
g42
sg2213
Vclimb
p2376
sS'experimental_blocks.thisN'
p2377
I3
sg44
g45
sg2216
Vinch
p2378
sg2218
Vtrek
p2379
sg2220
Vtrot
p2380
sS'experimental_blocks.thisIndex'
p2381
g2225
sS'word_presentation.thisRepN'
p2382
I0
sS'experimental_blocks.thisRepN'
p2383
I0
sg46
g51
sg164
g2230
sg2231
g2257
sS'training_block.thisIndex'
p2384
g147
sg166
g2236
sg20
F11.119633953749144
sS'experimental_blocks.thisTrialN'
p2385
I3
sS'training_block.thisN'
p2386
I1
sS'word_presentation.thisN'
p2387
I7
sS'training_block.thisTrialN'
p2388
I0
sg19
S'space'
p2389
sg30
g31
sS'word_presentation.thisTrialN'
p2390
I7
sg43
g12
sS'word_presentation.thisIndex'
p2391
g33
(g133
S'\x07\x00\x00\x00'
p2392
tp2393
Rp2394
sa(dp2395
S'training_block.thisRepN'
p2396
I1
sg165
g2212
sg32
g42
sg2213
Vslide
p2397
sS'experimental_blocks.thisN'
p2398
I3
sg44
g45
sg2216
Vstep
p2399
sg2218
Vstroll
p2400
sg2220
Vramble
p2401
sS'experimental_blocks.thisIndex'
p2402
g2225
sS'word_presentation.thisRepN'
p2403
I0
sS'experimental_blocks.thisRepN'
p2404
I0
sg46
g51
sg164
g2230
sg2231
g2257
sS'training_block.thisIndex'
p2405
g147
sg166
g2236
sg20
F21.41706964653895
sS'experimental_blocks.thisTrialN'
p2406
I3
sS'training_block.thisN'
p2407
I1
sS'word_presentation.thisN'
p2408
I8
sS'training_block.thisTrialN'
p2409
I0
sg19
S'space'
p2410
sg30
g31
sS'word_presentation.thisTrialN'
p2411
I8
sg43
g12
sS'word_presentation.thisIndex'
p2412
g33
(g133
S'\x08\x00\x00\x00'
p2413
tp2414
Rp2415
sa(dp2416
S'training_block.thisRepN'
p2417
I1
sg165
g2212
sg32
g42
sg2213
Vthrow
p2418
sS'experimental_blocks.thisN'
p2419
I3
sg44
g45
sg2216
Vcut
p2420
sg2218
Vswitch
p2421
sg2220
Vsnatch
p2422
sS'experimental_blocks.thisIndex'
p2423
g2225
sS'word_presentation.thisRepN'
p2424
I0
sS'experimental_blocks.thisRepN'
p2425
I0
sg46
g51
sg164
g2230
sg2231
g2232
sS'training_block.thisIndex'
p2426
g147
sg166
g2236
sg20
F12.980683043473618
sS'experimental_blocks.thisTrialN'
p2427
I3
sS'training_block.thisN'
p2428
I1
sS'word_presentation.thisN'
p2429
I9
sS'training_block.thisTrialN'
p2430
I0
sg19
S'space'
p2431
sg30
g31
sS'word_presentation.thisTrialN'
p2432
I9
sg43
g12
sS'word_presentation.thisIndex'
p2433
g33
(g133
S'\t\x00\x00\x00'
p2434
tp2435
Rp2436
sa(dp2437
S'training_block.thisRepN'
p2438
I1
sg165
g2212
sg32
g42
sg2213
Vbash
p2439
sS'experimental_blocks.thisN'
p2440
I3
sg44
g45
sg2216
Vcarve
p2441
sg2218
Vpat
p2442
sg2220
Vsqueeze
p2443
sS'experimental_blocks.thisIndex'
p2444
g2225
sS'word_presentation.thisRepN'
p2445
I0
sS'experimental_blocks.thisRepN'
p2446
I0
sg46
g51
sg164
g2230
sg2231
g2232
sS'training_block.thisIndex'
p2447
g147
sg166
g2236
sg20
F12.109007849661793
sS'experimental_blocks.thisTrialN'
p2448
I3
sS'training_block.thisN'
p2449
I1
sS'word_presentation.thisN'
p2450
I10
sS'training_block.thisTrialN'
p2451
I0
sg19
S'space'
p2452
sg30
g31
sS'word_presentation.thisTrialN'
p2453
I10
sg43
g12
sS'word_presentation.thisIndex'
p2454
g33
(g133
S'\n\x00\x00\x00'
p2455
tp2456
Rp2457
sa(dp2458
S'training_block.thisRepN'
p2459
I1
sg165
g2212
sg32
g42
sg2213
Vstray
p2460
sS'experimental_blocks.thisN'
p2461
I3
sg44
g45
sg2216
Vcrawl
p2462
sg2218
Vflee
p2463
sg2220
Vtraipse
p2464
sS'experimental_blocks.thisIndex'
p2465
g2225
sS'word_presentation.thisRepN'
p2466
I0
sS'experimental_blocks.thisRepN'
p2467
I0
sg46
g51
sg164
g2230
sg2231
g2257
sS'training_block.thisIndex'
p2468
g147
sg166
g2236
sg20
F24.670536643148807
sS'experimental_blocks.thisTrialN'
p2469
I3
sS'training_block.thisN'
p2470
I1
sS'word_presentation.thisN'
p2471
I11
sS'training_block.thisTrialN'
p2472
I0
sg19
S'space'
p2473
sg30
g31
sS'word_presentation.thisTrialN'
p2474
I11
sg43
g12
sS'word_presentation.thisIndex'
p2475
g33
(g133
S'\x0b\x00\x00\x00'
p2476
tp2477
Rp2478
sa(dp2479
S'training_block.thisRepN'
p2480
I1
sg165
g2212
sg32
g42
sg2213
Vmount
p2481
sS'experimental_blocks.thisN'
p2482
I3
sg44
g45
sg2216
Vscuff
p2483
sg2218
Vprance
p2484
sg2220
Vtiptoe
p2485
sS'experimental_blocks.thisIndex'
p2486
g2225
sS'word_presentation.thisRepN'
p2487
I0
sS'experimental_blocks.thisRepN'
p2488
I0
sg46
g51
sg164
g2230
sg2231
g2257
sS'training_block.thisIndex'
p2489
g147
sg166
g2236
sg20
F23.613980118825566
sS'experimental_blocks.thisTrialN'
p2490
I3
sS'training_block.thisN'
p2491
I1
sS'word_presentation.thisN'
p2492
I12
sS'training_block.thisTrialN'
p2493
I0
sg19
S'space'
p2494
sg30
g31
sS'word_presentation.thisTrialN'
p2495
I12
sg43
g12
sS'word_presentation.thisIndex'
p2496
g33
(g133
S'\x0c\x00\x00\x00'
p2497
tp2498
Rp2499
sa(dp2500
S'training_block.thisRepN'
p2501
I1
sg165
g2212
sg32
g42
sg2213
Vtrip
p2502
sS'experimental_blocks.thisN'
p2503
I3
sg44
g45
sg2216
Vstumble
p2504
sg2218
Vwander
p2505
sg2220
Vcreep
p2506
sS'experimental_blocks.thisIndex'
p2507
g2225
sS'word_presentation.thisRepN'
p2508
I0
sS'experimental_blocks.thisRepN'
p2509
I0
sg46
g51
sg164
g2230
sg2231
g2257
sS'training_block.thisIndex'
p2510
g147
sg166
g2236
sg20
F12.293541877968892
sS'experimental_blocks.thisTrialN'
p2511
I3
sS'training_block.thisN'
p2512
I1
sS'word_presentation.thisN'
p2513
I13
sS'training_block.thisTrialN'
p2514
I0
sg19
S'space'
p2515
sg30
g31
sS'word_presentation.thisTrialN'
p2516
I13
sg43
g12
sS'word_presentation.thisIndex'
p2517
g33
(g133
S'\r\x00\x00\x00'
p2518
tp2519
Rp2520
sa(dp2521
S'training_block.thisRepN'
p2522
I1
sg165
g2212
sg32
g42
sg2213
Vgrate
p2523
sS'experimental_blocks.thisN'
p2524
I3
sg44
g45
sg2216
Vslap
p2525
sg2218
Vskim
p2526
sg2220
Vscrub
p2527
sS'experimental_blocks.thisIndex'
p2528
g2225
sS'word_presentation.thisRepN'
p2529
I0
sS'experimental_blocks.thisRepN'
p2530
I0
sg46
g51
sg164
g2230
sg2231
g2232
sS'training_block.thisIndex'
p2531
g147
sg166
g2236
sg20
F7.983565770306086
sS'experimental_blocks.thisTrialN'
p2532
I3
sS'training_block.thisN'
p2533
I1
sS'word_presentation.thisN'
p2534
I14
sS'training_block.thisTrialN'
p2535
I0
sg19
S'space'
p2536
sg30
g31
sS'word_presentation.thisTrialN'
p2537
I14
sg43
g12
sS'word_presentation.thisIndex'
p2538
g33
(g133
S'\x0e\x00\x00\x00'
p2539
tp2540
Rp2541
sa(dp2542
S'training_block.thisRepN'
p2543
I1
sg165
g2212
sg32
g42
sg2213
Vmarch
p2544
sS'experimental_blocks.thisN'
p2545
I3
sg44
g45
sg2216
Vrun
p2546
sg2218
Vroll
p2547
sg2220
Vflit
p2548
sS'experimental_blocks.thisIndex'
p2549
g2225
sS'word_presentation.thisRepN'
p2550
I0
sS'experimental_blocks.thisRepN'
p2551
I0
sg46
g51
sg164
g2230
sg2231
g2257
sS'training_block.thisIndex'
p2552
g147
sg166
g2236
sg20
F25.710542775264912
sS'experimental_blocks.thisTrialN'
p2553
I3
sS'training_block.thisN'
p2554
I1
sS'word_presentation.thisN'
p2555
I15
sS'training_block.thisTrialN'
p2556
I0
sg19
S'space'
p2557
sg30
g31
sS'word_presentation.thisTrialN'
p2558
I15
sg43
g12
sS'word_presentation.thisIndex'
p2559
g33
(g133
S'\x0f\x00\x00\x00'
p2560
tp2561
Rp2562
sa(dp2563
S'training_block.thisRepN'
p2564
I1
sg165
g2212
sg32
g42
sg2213
Vhop
p2565
sS'experimental_blocks.thisN'
p2566
I3
sg44
g45
sg2216
Vleap
p2567
sg2218
Vhike
p2568
sg2220
Vskip
p2569
sS'experimental_blocks.thisIndex'
p2570
g2225
sS'word_presentation.thisRepN'
p2571
I0
sS'experimental_blocks.thisRepN'
p2572
I0
sg46
g51
sg164
g2230
sg2231
g2257
sS'training_block.thisIndex'
p2573
g147
sg166
g2236
sg20
F14.591120600789509
sS'experimental_blocks.thisTrialN'
p2574
I3
sS'training_block.thisN'
p2575
I1
sS'word_presentation.thisN'
p2576
I16
sS'training_block.thisTrialN'
p2577
I0
sg19
S'space'
p2578
sg30
g31
sS'word_presentation.thisTrialN'
p2579
I16
sg43
g12
sS'word_presentation.thisIndex'
p2580
g33
(g133
S'\x10\x00\x00\x00'
p2581
tp2582
Rp2583
sa(dp2584
S'training_block.thisRepN'
p2585
I1
sg165
g2212
sg32
g42
sg2213
Vwhip
p2586
sS'experimental_blocks.thisN'
p2587
I3
sg44
g45
sg2216
Vtoss
p2588
sg2218
Vtwine
p2589
sg2220
Vdelve
p2590
sS'experimental_blocks.thisIndex'
p2591
g2225
sS'word_presentation.thisRepN'
p2592
I0
sS'experimental_blocks.thisRepN'
p2593
I0
sg46
g51
sg164
g2230
sg2231
g2232
sS'training_block.thisIndex'
p2594
g147
sg166
g2236
sg20
F21.232485044076384
sS'experimental_blocks.thisTrialN'
p2595
I3
sS'training_block.thisN'
p2596
I1
sS'word_presentation.thisN'
p2597
I17
sS'training_block.thisTrialN'
p2598
I0
sg19
S'space'
p2599
sg30
g31
sS'word_presentation.thisTrialN'
p2600
I17
sg43
g12
sS'word_presentation.thisIndex'
p2601
g33
(g133
S'\x11\x00\x00\x00'
p2602
tp2603
Rp2604
sa(dp2605
S'training_block.thisRepN'
p2606
I1
sg165
g2212
sg32
g42
sg2213
Vslither
p2607
sS'experimental_blocks.thisN'
p2608
I3
sg44
g45
sg2216
Vtrudge
p2609
sg2218
Vbounce
p2610
sg2220
Vplod
p2611
sS'experimental_blocks.thisIndex'
p2612
g2225
sS'word_presentation.thisRepN'
p2613
I0
sS'experimental_blocks.thisRepN'
p2614
I0
sg46
g51
sg164
g2230
sg2231
g2257
sS'training_block.thisIndex'
p2615
g147
sg166
g2236
sg20
F11.95808192775985
sS'experimental_blocks.thisTrialN'
p2616
I3
sS'training_block.thisN'
p2617
I1
sS'word_presentation.thisN'
p2618
I18
sS'training_block.thisTrialN'
p2619
I0
sg19
S'space'
p2620
sg30
g31
sS'word_presentation.thisTrialN'
p2621
I18
sg43
g12
sS'word_presentation.thisIndex'
p2622
g33
(g133
S'\x12\x00\x00\x00'
p2623
tp2624
Rp2625
sa(dp2626
S'training_block.thisRepN'
p2627
I1
sg165
g2212
sg32
g42
sg2213
Vclean
p2628
sS'experimental_blocks.thisN'
p2629
I3
sg44
g45
sg2216
Vbrush
p2630
sg2218
Vpoke
p2631
sg2220
Vchop
p2632
sS'experimental_blocks.thisIndex'
p2633
g2225
sS'word_presentation.thisRepN'
p2634
I0
sS'experimental_blocks.thisRepN'
p2635
I0
sg46
g51
sg164
g2230
sg2231
g2232
sS'training_block.thisIndex'
p2636
g147
sg166
g2236
sg20
F14.607792687056644
sS'experimental_blocks.thisTrialN'
p2637
I3
sS'training_block.thisN'
p2638
I1
sS'word_presentation.thisN'
p2639
I19
sS'training_block.thisTrialN'
p2640
I0
sg19
S'space'
p2641
sg30
g31
sS'word_presentation.thisTrialN'
p2642
I19
sg43
g12
sS'word_presentation.thisIndex'
p2643
g33
(g133
S'\x13\x00\x00\x00'
p2644
tp2645
Rp2646
sa(dp2647
S'training_block.thisRepN'
p2648
I1
sg165
g2212
sg32
g42
sg2213
Vskate
p2649
sS'experimental_blocks.thisN'
p2650
I3
sg44
g45
sg2216
Vjump
p2651
sg2218
Vtread
p2652
sg2220
Vstagger
p2653
sS'experimental_blocks.thisIndex'
p2654
g2225
sS'word_presentation.thisRepN'
p2655
I0
sS'experimental_blocks.thisRepN'
p2656
I0
sg46
g51
sg164
g2230
sg2231
g2257
sS'training_block.thisIndex'
p2657
g147
sg166
g2236
sg20
F11.203619450028782
sS'experimental_blocks.thisTrialN'
p2658
I3
sS'training_block.thisN'
p2659
I1
sS'word_presentation.thisN'
p2660
I20
sS'training_block.thisTrialN'
p2661
I0
sg19
S'space'
p2662
sg30
g31
sS'word_presentation.thisTrialN'
p2663
I20
sg43
g12
sS'word_presentation.thisIndex'
p2664
g33
(g133
S'\x14\x00\x00\x00'
p2665
tp2666
Rp2667
sa(dp2668
S'training_block.thisRepN'
p2669
I1
sg165
g2212
sg32
g42
sg2213
Vclap
p2670
sS'experimental_blocks.thisN'
p2671
I3
sg44
g45
sg2216
Vhack
p2672
sg2218
Vpinch
p2673
sg2220
Vscrape
p2674
sS'experimental_blocks.thisIndex'
p2675
g2225
sS'word_presentation.thisRepN'
p2676
I0
sS'experimental_blocks.thisRepN'
p2677
I0
sg46
g51
sg164
g2230
sg2231
g2232
sS'training_block.thisIndex'
p2678
g147
sg166
g2236
sg20
F22.322622412173587
sS'experimental_blocks.thisTrialN'
p2679
I3
sS'training_block.thisN'
p2680
I1
sS'word_presentation.thisN'
p2681
I21
sS'training_block.thisTrialN'
p2682
I0
sg19
S'space'
p2683
sg30
g31
sS'word_presentation.thisTrialN'
p2684
I21
sg43
g12
sS'word_presentation.thisIndex'
p2685
g33
(g133
S'\x15\x00\x00\x00'
p2686
tp2687
Rp2688
sa(dp2689
S'training_block.thisRepN'
p2690
I1
sg165
g2212
sg32
g42
sg2213
Vdance
p2691
sS'experimental_blocks.thisN'
p2692
I3
sg44
g45
sg2216
Vstrut
p2693
sg2218
Vwobble
p2694
sg2220
Vpace
p2695
sS'experimental_blocks.thisIndex'
p2696
g2225
sS'word_presentation.thisRepN'
p2697
I0
sS'experimental_blocks.thisRepN'
p2698
I0
sg46
g51
sg164
g2230
sg2231
g2257
sS'training_block.thisIndex'
p2699
g147
sg166
g2236
sg20
F37.90229626419023
sS'experimental_blocks.thisTrialN'
p2700
I3
sS'training_block.thisN'
p2701
I1
sS'word_presentation.thisN'
p2702
I22
sS'training_block.thisTrialN'
p2703
I0
sg19
S'space'
p2704
sg30
g31
sS'word_presentation.thisTrialN'
p2705
I22
sg43
g12
sS'word_presentation.thisIndex'
p2706
g33
(g133
S'\x16\x00\x00\x00'
p2707
tp2708
Rp2709
sa(dp2710
S'training_block.thisRepN'
p2711
I1
sg165
g2212
sg32
g42
sg2213
Vscoop
p2712
sS'experimental_blocks.thisN'
p2713
I3
sg44
g45
sg2216
Vpeel
p2714
sg2218
Vgrip
p2715
sg2220
Vshake
p2716
sS'experimental_blocks.thisIndex'
p2717
g2225
sS'word_presentation.thisRepN'
p2718
I0
sS'experimental_blocks.thisRepN'
p2719
I0
sg46
g51
sg164
g2230
sg2231
g2232
sS'training_block.thisIndex'
p2720
g147
sg166
g2236
sg20
F14.826292791956803
sS'experimental_blocks.thisTrialN'
p2721
I3
sS'training_block.thisN'
p2722
I1
sS'word_presentation.thisN'
p2723
I23
sS'training_block.thisTrialN'
p2724
I0
sg19
S'space'
p2725
sg30
g31
sS'word_presentation.thisTrialN'
p2726
I23
sg43
g12
sS'word_presentation.thisIndex'
p2727
g33
(g133
S'\x17\x00\x00\x00'
p2728
tp2729
Rp2730
sa(dp2731
S'training_block.thisRepN'
p2732
I1
sg165
g2212
sg32
g42
sg2213
Vwrap
p2733
sS'experimental_blocks.thisN'
p2734
I3
sg44
g45
sg2216
Vrub
p2735
sg2218
Vscratch
p2736
sg2220
Vseize
p2737
sS'experimental_blocks.thisIndex'
p2738
g2225
sS'word_presentation.thisRepN'
p2739
I0
sS'experimental_blocks.thisRepN'
p2740
I0
sg46
g51
sg164
g2230
sg2231
g2232
sS'training_block.thisIndex'
p2741
g147
sg166
g2236
sg20
F22.607735000910907
sS'experimental_blocks.thisTrialN'
p2742
I3
sS'training_block.thisN'
p2743
I1
sS'word_presentation.thisN'
p2744
I24
sS'training_block.thisTrialN'
p2745
I0
sg19
S'space'
p2746
sg30
g31
sS'word_presentation.thisTrialN'
p2747
I24
sg43
g12
sS'word_presentation.thisIndex'
p2748
g33
(g133
S'\x18\x00\x00\x00'
p2749
tp2750
Rp2751
sa(dp2752
S'training_block.thisRepN'
p2753
I1
sg165
g2212
sg32
g42
sg2213
Vdunk
p2754
sS'experimental_blocks.thisN'
p2755
I3
sg44
g45
sg2216
Vstab
p2756
sg2218
Vpunch
p2757
sg2220
Vclutch
p2758
sS'experimental_blocks.thisIndex'
p2759
g2225
sS'word_presentation.thisRepN'
p2760
I0
sS'experimental_blocks.thisRepN'
p2761
I0
sg46
g51
sg164
g2230
sg2231
g2232
sS'training_block.thisIndex'
p2762
g147
sg166
g2236
sg20
F12.226425628135985
sS'experimental_blocks.thisTrialN'
p2763
I3
sS'training_block.thisN'
p2764
I1
sS'word_presentation.thisN'
p2765
I25
sS'training_block.thisTrialN'
p2766
I0
sg19
S'space'
p2767
sg30
g31
sS'word_presentation.thisTrialN'
p2768
I25
sg43
g12
sS'word_presentation.thisIndex'
p2769
g33
(g133
S'\x19\x00\x00\x00'
p2770
tp2771
Rp2772
sa(dp2773
S'training_block.thisRepN'
p2774
I1
sg165
g2212
sg32
g42
sg2213
Vroam
p2775
sS'experimental_blocks.thisN'
p2776
I3
sg44
g45
sg2216
Vjog
p2777
sg2218
Vstamp
p2778
sg2220
Vstride
p2779
sS'experimental_blocks.thisIndex'
p2780
g2225
sS'word_presentation.thisRepN'
p2781
I0
sS'experimental_blocks.thisRepN'
p2782
I0
sg46
g51
sg164
g2230
sg2231
g2257
sS'training_block.thisIndex'
p2783
g147
sg166
g2236
sg20
F23.680985342582062
sS'experimental_blocks.thisTrialN'
p2784
I3
sS'training_block.thisN'
p2785
I1
sS'word_presentation.thisN'
p2786
I26
sS'training_block.thisTrialN'
p2787
I0
sg19
S'space'
p2788
sg30
g31
sS'word_presentation.thisTrialN'
p2789
I26
sg43
g12
sS'word_presentation.thisIndex'
p2790
g33
(g133
S'\x1a\x00\x00\x00'
p2791
tp2792
Rp2793
sa(dp2794
S'training_block.thisRepN'
p2795
I1
sg165
g2212
sg32
g42
sg2213
Vpull
p2796
sS'experimental_blocks.thisN'
p2797
I3
sg44
g45
sg2216
Vwash
p2798
sg2218
Vnip
p2799
sg2220
Vknock
p2800
sS'experimental_blocks.thisIndex'
p2801
g2225
sS'word_presentation.thisRepN'
p2802
I0
sS'experimental_blocks.thisRepN'
p2803
I0
sg46
g51
sg164
g2230
sg2231
g2232
sS'training_block.thisIndex'
p2804
g147
sg166
g2236
sg20
F9.006374319076713
sS'experimental_blocks.thisTrialN'
p2805
I3
sS'training_block.thisN'
p2806
I1
sS'word_presentation.thisN'
p2807
I27
sS'training_block.thisTrialN'
p2808
I0
sg19
S'space'
p2809
sg30
g31
sS'word_presentation.thisTrialN'
p2810
I27
sg43
g12
sS'word_presentation.thisIndex'
p2811
g33
(g133
S'\x1b\x00\x00\x00'
p2812
tp2813
Rp2814
sa(dp2815
S'training_block.thisRepN'
p2816
I1
sg165
g2212
sS'experimental_blocks.thisRepN'
p2817
I0
sS'experimental_blocks.thisTrialN'
p2818
I3
sS'training_block.thisN'
p2819
I1
sg44
g45
sg43
g12
sg32
g42
sS'training_block.thisTrialN'
p2820
I0
sg46
g51
sS'experimental_blocks.thisN'
p2821
I3
sg166
g2236
sg30
g31
sS'experimental_blocks.thisIndex'
p2822
g2225
sg164
g2230
sS'training_block.thisIndex'
p2823
g147
sa(dp2824
S'training_block.thisRepN'
p2825
I1
sS'training_block.thisN'
p2826
I1
sg44
g45
sg46
g51
sg32
g42
sS'training_block.thisTrialN'
p2827
I0
sg43
g12
sg30
g31
sg25
S'space'
p2828
sg26
F1.3930105727649789
sS'training_block.thisIndex'
p2829
g147
sasS'loops'
p2830
(lp2831
g56
ag0
(g54
g2
Ntp2832
Rp2833
(dp2834
g58
Nsg59
(lp2835
sg60
I364072944
sg11
S'word_presentation_training'
p2836
sg6
I-1
sg62
I1
sg27
I01
sg28
g29
sg63
g0
(g64
g65
(dp2837
g67
g68
(g69
g70
g71
g72
tp2838
Rp2839
(I1
(I4
I1
tp2840
g78
I00
S'\x00\x00\x80?\x00\x00\x80?\x00\x00\x80?\x00\x00\x80?'
p2841
S'\x00\x00\x00\x00'
p2842
Ntp2843
bsg20
g68
(g69
g70
g71
g72
tp2844
Rp2845
(I1
(I4
I1
tp2846
g78
I00
S'\xfd\xc7\x87A}\x1e\xdd@\xbe\x8c\xa1@\xf1p\x1cA'
p2847
S'\x00\x00\x00\x00'
p2848
Ntp2849
bsg107
g68
(g69
g70
g71
g72
tp2850
Rp2851
(I1
(I4
I1
tp2852
g78
I00
S'\x00\x00\x00\x00\x00\x00\x00@\x00\x00@@\x00\x00\x80?'
p2853
S'\x00\x00\x00\x00'
p2854
Ntp2855
bsg19
g90
(g70
(I0
tp2856
g72
tp2857
Rp2858
(I1
(I4
I1
tp2859
g97
I00
(lp2860
g180
ag229
ag249
ag209
atp2861
bstp2862
Rp2863
(dp2864
g117
(dp2865
g67
I01
sg20
I01
sg107
I01
sg19
I00
ssg119
g2833
sg120
(lp2866
g67
ag107
ag19
ag20
asg122
(lp2867
I4
aI1
asbsg124
g125
sg126
g90
(g70
(I0
tp2868
g72
tp2869
Rp2870
(I1
(I4
I1
tp2871
g133
I00
S'\x00\x00\x00\x00\x03\x00\x00\x00\x01\x00\x00\x00\x02\x00\x00\x00'
p2872
tp2873
bsg138
I01
sg139
I1
sg140
I-1
sg141
(lp2874
ccollections
OrderedDict
p2875
((lp2876
(lp2877
g158
ag188
aa(lp2878
g159
ag197
aa(lp2879
g160
ag189
aa(lp2880
g161
ag195
aa(lp2881
g162
ag194
aa(lp2882
g163
ag177
aatp2883
Rp2884
ag2875
((lp2885
(lp2886
g158
ag232
aa(lp2887
g159
ag197
aa(lp2888
g160
ag233
aa(lp2889
g161
ag239
aa(lp2890
g162
ag238
aa(lp2891
g163
ag226
aatp2892
Rp2893
ag2875
((lp2894
(lp2895
g158
ag252
aa(lp2896
g159
ag197
aa(lp2897
g160
ag253
aa(lp2898
g161
ag259
aa(lp2899
g162
ag258
aa(lp2900
g163
ag246
aatp2901
Rp2902
ag2875
((lp2903
(lp2904
g158
ag212
aa(lp2905
g159
ag197
aa(lp2906
g160
ag213
aa(lp2907
g161
ag219
aa(lp2908
g162
ag218
aa(lp2909
g163
ag206
aatp2910
Rp2911
asg143
Nsg144
g257
sg148
I4
sg149
I0
sg150
I4
sbag0
(g54
g2
Ntp2912
Rp2913
(dp2914
g58
Nsg59
(lp2915
sg60
I364072944
sg11
g2836
sg6
I-1
sg62
I1
sg27
I01
sg28
g29
sg63
g0
(g64
g65
(dp2916
g67
g68
(g69
g70
g71
g72
tp2917
Rp2918
(I1
(I4
I1
tp2919
g78
I00
S'\x00\x00\x80?\x00\x00\x80?\x00\x00\x80?\x00\x00\x80?'
p2920
S'\x00\x00\x00\x00'
p2921
Ntp2922
bsg20
g68
(g69
g70
g71
g72
tp2923
Rp2924
(I1
(I4
I1
tp2925
g78
I00
S'\x9b\x1a\xa2@\xf8T\xd1@\xa7\x1b\x9b@ 4\x95@'
p2926
S'\x00\x00\x00\x00'
p2927
Ntp2928
bsg107
g68
(g69
g70
g71
g72
tp2929
Rp2930
(I1
(I4
I1
tp2931
g78
I00
S'\x00\x00\x00\x00\x00\x00\x00@\x00\x00\x80?\x00\x00@@'
p2932
S'\x00\x00\x00\x00'
p2933
Ntp2934
bsg19
g90
(g70
(I0
tp2935
g72
tp2936
Rp2937
(I1
(I4
I1
tp2938
g97
I00
(lp2939
g275
ag321
ag301
ag341
atp2940
bstp2941
Rp2942
(dp2943
g117
(dp2944
g67
I01
sg20
I01
sg107
I01
sg19
I00
ssg119
g2913
sg120
(lp2945
g67
ag107
ag19
ag20
asg122
(lp2946
I4
aI1
asbsg124
g125
sg126
g90
(g70
(I0
tp2947
g72
tp2948
Rp2949
(I1
(I4
I1
tp2950
g133
I00
S'\x00\x00\x00\x00\x02\x00\x00\x00\x01\x00\x00\x00\x03\x00\x00\x00'
p2951
tp2952
bsg138
I01
sg139
I1
sg140
I-1
sg141
(lp2953
g2875
((lp2954
(lp2955
g276
ag279
aa(lp2956
g291
ag292
aa(lp2957
g280
ag281
aa(lp2958
g288
ag289
aa(lp2959
g286
ag287
aa(lp2960
g271
ag272
aatp2961
Rp2962
ag2875
((lp2963
(lp2964
g276
ag324
aa(lp2965
g291
ag292
aa(lp2966
g280
ag325
aa(lp2967
g288
ag331
aa(lp2968
g286
ag330
aa(lp2969
g271
ag318
aatp2970
Rp2971
ag2875
((lp2972
(lp2973
g276
ag304
aa(lp2974
g291
ag292
aa(lp2975
g280
ag305
aa(lp2976
g288
ag311
aa(lp2977
g286
ag310
aa(lp2978
g271
ag298
aatp2979
Rp2980
ag2875
((lp2981
(lp2982
g276
ag344
aa(lp2983
g291
ag292
aa(lp2984
g280
ag345
aa(lp2985
g288
ag351
aa(lp2986
g286
ag350
aa(lp2987
g271
ag338
aatp2988
Rp2989
asg143
Nsg144
g349
sg148
I4
sg149
I0
sg150
I4
sbag0
(g54
g2
Ntp2990
Rp2991
(dp2992
g58
Nsg59
(lp2993
sg60
I364072944
sg11
S'experimental_blocks'
p2994
sg6
I-1
sg62
I1
sg27
I01
sg28
g29
sg63
g0
(g64
g65
(dp2995
g67
g68
(g69
g70
g71
g72
tp2996
Rp2997
(I1
(I4
I1
tp2998
g78
I00
S'\x00\x00\x80?\x00\x00\x80?\x00\x00\x80?\x00\x00\x80?'
p2999
S'\x00\x00\x00\x00'
p3000
Ntp3001
bsg107
g68
(g69
g70
g71
g72
tp3002
Rp3003
(I1
(I4
I1
tp3004
g78
I00
S'\x00\x00\x00\x00\x00\x00@@\x00\x00\x80?\x00\x00\x00@'
p3005
S'\x00\x00\x00\x00'
p3006
Ntp3007
bstp3008
Rp3009
(dp3010
g117
(dp3011
g67
I01
sg107
I01
ssg119
g2991
sg120
(lp3012
g67
ag107
asg122
(lp3013
I4
aI1
asbsg124
g125
sg126
g90
(g70
(I0
tp3014
g72
tp3015
Rp3016
(I1
(I4
I1
tp3017
g133
I00
S'\x00\x00\x00\x00\x02\x00\x00\x00\x03\x00\x00\x00\x01\x00\x00\x00'
p3018
tp3019
bsg138
I01
sg139
I1
sg140
I-1
sg141
(lp3020
g2875
((lp3021
(lp3022
g164
ag382
aa(lp3023
g165
ag364
aa(lp3024
g166
ag388
aatp3025
Rp3026
ag2875
((lp3027
(lp3028
g164
ag2230
aa(lp3029
g165
ag2212
aa(lp3030
g166
ag2236
aatp3031
Rp3032
ag2875
((lp3033
(lp3034
g164
ag998
aa(lp3035
g165
ag980
aa(lp3036
g166
ag1004
aatp3037
Rp3038
ag2875
((lp3039
(lp3040
g164
ag1614
aa(lp3041
g165
ag1596
aa(lp3042
g166
ag1620
aatp3043
Rp3044
asg143
Nsg144
g2225
sg148
I4
sg149
I0
sg150
I4
sbag0
(g54
g2
Ntp3045
Rp3046
(dp3047
g58
Nsg59
(lp3048
sg60
I364072944
sg11
S'word_presentation'
p3049
sg6
I-1
sg62
I1
sg27
I01
sg28
g29
sg63
g0
(g64
g65
(dp3050
g67
g68
(g69
g70
g71
g72
tp3051
Rp3052
(I1
(I28
I1
tp3053
g78
I00
S'\x00\x00\x80?\x00\x00\x80?\x00\x00\x80?\x00\x00\x80?\x00\x00\x80?\x00\x00\x80?\x00\x00\x80?\x00\x00\x80?\x00\x00\x80?\x00\x00\x80?\x00\x00\x80?\x00\x00\x80?\x00\x00\x80?\x00\x00\x80?\x00\x00\x80?\x00\x00\x80?\x00\x00\x80?\x00\x00\x80?\x00\x00\x80?\x00\x00\x80?\x00\x00\x80?\x00\x00\x80?\x00\x00\x80?\x00\x00\x80?\x00\x00\x80?\x00\x00\x80?\x00\x00\x80?\x00\x00\x80?'
p3054
S'\x00\x00\x00\x00\x00\x00\x00\x00\x00\x00\x00\x00\x00\x00\x00\x00\x00\x00\x00\x00\x00\x00\x00\x00\x00\x00\x00\x00'
p3055
Ntp3056
bsg20
g68
(g69
g70
g71
g72
tp3057
Rp3058
(I1
(I28
I1
tp3059
g78
I00
S'\x81X\x17A\x1e\xb82Aj\xac5A\xd7]YA\xd7w\x8cA\xb0\xa7\xf3@\xcc~\xa4Al\x8c\x82A/\xab\x00B\x07\xf7\xf7@\xd4\xce\x96Ak\xd3\x0fA\x8d\xfd\x93A\x0bG,A\xef\x0e\xbfA\xe1\xcf\xacA\xa6\xfdiA\xfea\x1bAm\x97\xa9A\x97$wA\x1c\xd5\x9aA\t\x87|AN\xfa\x06A&j\xe1@\xf77\xc3A}x\x15AU8\x8cA\x8f\xd0\x01B'
p3060
S'\x00\x00\x00\x00\x00\x00\x00\x00\x00\x00\x00\x00\x00\x00\x00\x00\x00\x00\x00\x00\x00\x00\x00\x00\x00\x00\x00\x00'
p3061
Ntp3062
bsg107
g68
(g69
g70
g71
g72
tp3063
Rp3064
(I1
(I28
I1
tp3065
g78
I00
S'\x00\x00\x00\x00\x00\x00\x80?\x00\x00\x00@\x00\x00@@\x00\x00\x80@\x00\x00\xa0@\x00\x00\xc0@\x00\x00\xe0@\x00\x00\x00A\x00\x00\x10A\x00\x00 A\x00\x000A\x00\x00@A\x00\x00PA\x00\x00`A\x00\x00pA\x00\x00\x80A\x00\x00\x88A\x00\x00\x90A\x00\x00\x98A\x00\x00\xa0A\x00\x00\xa8A\x00\x00\xb0A\x00\x00\xb8A\x00\x00\xc0A\x00\x00\xc8A\x00\x00\xd0A\x00\x00\xd8A'
p3066
S'\x00\x00\x00\x00\x00\x00\x00\x00\x00\x00\x00\x00\x00\x00\x00\x00\x00\x00\x00\x00\x00\x00\x00\x00\x00\x00\x00\x00'
p3067
Ntp3068
bsg19
g90
(g70
(I0
tp3069
g72
tp3070
Rp3071
(I1
(I28
I1
tp3072
g97
I00
(lp3073
g393
ag415
ag436
ag457
ag478
ag499
ag520
ag541
ag562
ag583
ag604
ag625
ag646
ag667
ag688
ag709
ag730
ag751
ag772
ag793
ag814
ag835
ag856
ag877
ag898
ag919
ag940
ag961
atp3074
bstp3075
Rp3076
(dp3077
g117
(dp3078
g67
I01
sg20
I01
sg107
I01
sg19
I00
ssg119
g3046
sg120
(lp3079
g67
ag107
ag19
ag20
asg122
(lp3080
I28
aI1
asbsg124
S'sequential'
p3081
sg126
g90
(g70
(I0
tp3082
g72
tp3083
Rp3084
(I1
(I28
I1
tp3085
g133
I00
S'\x00\x00\x00\x00\x01\x00\x00\x00\x02\x00\x00\x00\x03\x00\x00\x00\x04\x00\x00\x00\x05\x00\x00\x00\x06\x00\x00\x00\x07\x00\x00\x00\x08\x00\x00\x00\t\x00\x00\x00\n\x00\x00\x00\x0b\x00\x00\x00\x0c\x00\x00\x00\r\x00\x00\x00\x0e\x00\x00\x00\x0f\x00\x00\x00\x10\x00\x00\x00\x11\x00\x00\x00\x12\x00\x00\x00\x13\x00\x00\x00\x14\x00\x00\x00\x15\x00\x00\x00\x16\x00\x00\x00\x17\x00\x00\x00\x18\x00\x00\x00\x19\x00\x00\x00\x1a\x00\x00\x00\x1b\x00\x00\x00'
p3086
tp3087
bsg138
I01
sg139
I1
sg140
I-1
sg141
(lp3088
g2875
((lp3089
(lp3090
g383
ag384
aa(lp3091
g368
ag369
aa(lp3092
g372
ag373
aa(lp3093
g370
ag371
aa(lp3094
g365
ag366
aatp3095
Rp3096
ag2875
((lp3097
(lp3098
g383
ag409
aa(lp3099
g368
ag403
aa(lp3100
g372
ag405
aa(lp3101
g370
ag404
aa(lp3102
g365
ag401
aatp3103
Rp3104
ag2875
((lp3105
(lp3106
g383
ag384
aa(lp3107
g368
ag425
aa(lp3108
g372
ag427
aa(lp3109
g370
ag426
aa(lp3110
g365
ag423
aatp3111
Rp3112
ag2875
((lp3113
(lp3114
g383
ag384
aa(lp3115
g368
ag446
aa(lp3116
g372
ag448
aa(lp3117
g370
ag447
aa(lp3118
g365
ag444
aatp3119
Rp3120
ag2875
((lp3121
(lp3122
g383
ag409
aa(lp3123
g368
ag467
aa(lp3124
g372
ag469
aa(lp3125
g370
ag468
aa(lp3126
g365
ag465
aatp3127
Rp3128
ag2875
((lp3129
(lp3130
g383
ag409
aa(lp3131
g368
ag488
aa(lp3132
g372
ag490
aa(lp3133
g370
ag489
aa(lp3134
g365
ag486
aatp3135
Rp3136
ag2875
((lp3137
(lp3138
g383
ag384
aa(lp3139
g368
ag509
aa(lp3140
g372
ag511
aa(lp3141
g370
ag510
aa(lp3142
g365
ag507
aatp3143
Rp3144
ag2875
((lp3145
(lp3146
g383
ag409
aa(lp3147
g368
ag530
aa(lp3148
g372
ag532
aa(lp3149
g370
ag531
aa(lp3150
g365
ag528
aatp3151
Rp3152
ag2875
((lp3153
(lp3154
g383
ag409
aa(lp3155
g368
ag551
aa(lp3156
g372
ag553
aa(lp3157
g370
ag552
aa(lp3158
g365
ag549
aatp3159
Rp3160
ag2875
((lp3161
(lp3162
g383
ag384
aa(lp3163
g368
ag572
aa(lp3164
g372
ag574
aa(lp3165
g370
ag573
aa(lp3166
g365
ag570
aatp3167
Rp3168
ag2875
((lp3169
(lp3170
g383
ag384
aa(lp3171
g368
ag593
aa(lp3172
g372
ag595
aa(lp3173
g370
ag594
aa(lp3174
g365
ag591
aatp3175
Rp3176
ag2875
((lp3177
(lp3178
g383
ag409
aa(lp3179
g368
ag614
aa(lp3180
g372
ag616
aa(lp3181
g370
ag615
aa(lp3182
g365
ag612
aatp3183
Rp3184
ag2875
((lp3185
(lp3186
g383
ag409
aa(lp3187
g368
ag635
aa(lp3188
g372
ag637
aa(lp3189
g370
ag636
aa(lp3190
g365
ag633
aatp3191
Rp3192
ag2875
((lp3193
(lp3194
g383
ag384
aa(lp3195
g368
ag656
aa(lp3196
g372
ag658
aa(lp3197
g370
ag657
aa(lp3198
g365
ag654
aatp3199
Rp3200
ag2875
((lp3201
(lp3202
g383
ag384
aa(lp3203
g368
ag677
aa(lp3204
g372
ag679
aa(lp3205
g370
ag678
aa(lp3206
g365
ag675
aatp3207
Rp3208
ag2875
((lp3209
(lp3210
g383
ag409
aa(lp3211
g368
ag698
aa(lp3212
g372
ag700
aa(lp3213
g370
ag699
aa(lp3214
g365
ag696
aatp3215
Rp3216
ag2875
((lp3217
(lp3218
g383
ag384
aa(lp3219
g368
ag719
aa(lp3220
g372
ag721
aa(lp3221
g370
ag720
aa(lp3222
g365
ag717
aatp3223
Rp3224
ag2875
((lp3225
(lp3226
g383
ag384
aa(lp3227
g368
ag740
aa(lp3228
g372
ag742
aa(lp3229
g370
ag741
aa(lp3230
g365
ag738
aatp3231
Rp3232
ag2875
((lp3233
(lp3234
g383
ag384
aa(lp3235
g368
ag761
aa(lp3236
g372
ag763
aa(lp3237
g370
ag762
aa(lp3238
g365
ag759
aatp3239
Rp3240
ag2875
((lp3241
(lp3242
g383
ag409
aa(lp3243
g368
ag782
aa(lp3244
g372
ag784
aa(lp3245
g370
ag783
aa(lp3246
g365
ag780
aatp3247
Rp3248
ag2875
((lp3249
(lp3250
g383
ag409
aa(lp3251
g368
ag803
aa(lp3252
g372
ag805
aa(lp3253
g370
ag804
aa(lp3254
g365
ag801
aatp3255
Rp3256
ag2875
((lp3257
(lp3258
g383
ag409
aa(lp3259
g368
ag824
aa(lp3260
g372
ag826
aa(lp3261
g370
ag825
aa(lp3262
g365
ag822
aatp3263
Rp3264
ag2875
((lp3265
(lp3266
g383
ag384
aa(lp3267
g368
ag845
aa(lp3268
g372
ag847
aa(lp3269
g370
ag846
aa(lp3270
g365
ag843
aatp3271
Rp3272
ag2875
((lp3273
(lp3274
g383
ag409
aa(lp3275
g368
ag866
aa(lp3276
g372
ag868
aa(lp3277
g370
ag867
aa(lp3278
g365
ag864
aatp3279
Rp3280
ag2875
((lp3281
(lp3282
g383
ag384
aa(lp3283
g368
ag887
aa(lp3284
g372
ag889
aa(lp3285
g370
ag888
aa(lp3286
g365
ag885
aatp3287
Rp3288
ag2875
((lp3289
(lp3290
g383
ag384
aa(lp3291
g368
ag908
aa(lp3292
g372
ag910
aa(lp3293
g370
ag909
aa(lp3294
g365
ag906
aatp3295
Rp3296
ag2875
((lp3297
(lp3298
g383
ag409
aa(lp3299
g368
ag929
aa(lp3300
g372
ag931
aa(lp3301
g370
ag930
aa(lp3302
g365
ag927
aatp3303
Rp3304
ag2875
((lp3305
(lp3306
g383
ag409
aa(lp3307
g368
ag950
aa(lp3308
g372
ag952
aa(lp3309
g370
ag951
aa(lp3310
g365
ag948
aatp3311
Rp3312
asg143
Nsg144
g966
sg148
I28
sg149
I0
sg150
I28
sbag0
(g54
g2
Ntp3313
Rp3314
(dp3315
g58
Nsg59
(lp3316
sg60
I364072944
sg11
g3049
sg6
I-1
sg62
I1
sg27
I01
sg28
g29
sg63
g0
(g64
g65
(dp3317
g67
g68
(g69
g70
g71
g72
tp3318
Rp3319
(I1
(I28
I1
tp3320
g78
I00
S'\x00\x00\x80?\x00\x00\x80?\x00\x00\x80?\x00\x00\x80?\x00\x00\x80?\x00\x00\x80?\x00\x00\x80?\x00\x00\x80?\x00\x00\x80?\x00\x00\x80?\x00\x00\x80?\x00\x00\x80?\x00\x00\x80?\x00\x00\x80?\x00\x00\x80?\x00\x00\x80?\x00\x00\x80?\x00\x00\x80?\x00\x00\x80?\x00\x00\x80?\x00\x00\x80?\x00\x00\x80?\x00\x00\x80?\x00\x00\x80?\x00\x00\x80?\x00\x00\x80?\x00\x00\x80?\x00\x00\x80?'
p3321
S'\x00\x00\x00\x00\x00\x00\x00\x00\x00\x00\x00\x00\x00\x00\x00\x00\x00\x00\x00\x00\x00\x00\x00\x00\x00\x00\x00\x00'
p3322
Ntp3323
bsg20
g68
(g69
g70
g71
g72
tp3324
Rp3325
(I1
(I28
I1
tp3326
g78
I00
S'\x0b\xbb\xb2@\xda\x11vA\x96\r\x9eA\x1c\xfa\x11A\x12\xe7\xfe@\xa7\x99\xa9A\xd1\xd0\xacA/x A\xf8\xfe\xb4A\xd8\x8e\xe3@\xe3\x01\xb7A-\x81[Aj\xcbIAPD\x80A\xff\x83\xa8A\x02+\xa5Af\xa6]A&a\x87A\x04\xb0\rA\xac\xdf\x81A_\xea\x10A\x9a\xc0\x15A\x8c\xb1lA\xc4\x07\xe3@F\xd9\x91A\xad\xb4\xe5@3\xfftA\xce8WA'
p3327
S'\x00\x00\x00\x00\x00\x00\x00\x00\x00\x00\x00\x00\x00\x00\x00\x00\x00\x00\x00\x00\x00\x00\x00\x00\x00\x00\x00\x00'
p3328
Ntp3329
bsg107
g68
(g69
g70
g71
g72
tp3330
Rp3331
(I1
(I28
I1
tp3332
g78
I00
S'\x00\x00\x00\x00\x00\x00\x80?\x00\x00\x00@\x00\x00@@\x00\x00\x80@\x00\x00\xa0@\x00\x00\xc0@\x00\x00\xe0@\x00\x00\x00A\x00\x00\x10A\x00\x00 A\x00\x000A\x00\x00@A\x00\x00PA\x00\x00`A\x00\x00pA\x00\x00\x80A\x00\x00\x88A\x00\x00\x90A\x00\x00\x98A\x00\x00\xa0A\x00\x00\xa8A\x00\x00\xb0A\x00\x00\xb8A\x00\x00\xc0A\x00\x00\xc8A\x00\x00\xd0A\x00\x00\xd8A'
p3333
S'\x00\x00\x00\x00\x00\x00\x00\x00\x00\x00\x00\x00\x00\x00\x00\x00\x00\x00\x00\x00\x00\x00\x00\x00\x00\x00\x00\x00'
p3334
Ntp3335
bsg19
g90
(g70
(I0
tp3336
g72
tp3337
Rp3338
(I1
(I28
I1
tp3339
g97
I00
(lp3340
g1009
ag1031
ag1052
ag1073
ag1094
ag1115
ag1136
ag1157
ag1178
ag1199
ag1220
ag1241
ag1262
ag1283
ag1304
ag1325
ag1346
ag1367
ag1388
ag1409
ag1430
ag1451
ag1472
ag1493
ag1514
ag1535
ag1556
ag1577
atp3341
bstp3342
Rp3343
(dp3344
g117
(dp3345
g67
I01
sg20
I01
sg107
I01
sg19
I00
ssg119
g3314
sg120
(lp3346
g67
ag107
ag19
ag20
asg122
(lp3347
I28
aI1
asbsg124
g3081
sg126
g90
(g70
(I0
tp3348
g72
tp3349
Rp3350
(I1
(I28
I1
tp3351
g133
I00
S'\x00\x00\x00\x00\x01\x00\x00\x00\x02\x00\x00\x00\x03\x00\x00\x00\x04\x00\x00\x00\x05\x00\x00\x00\x06\x00\x00\x00\x07\x00\x00\x00\x08\x00\x00\x00\t\x00\x00\x00\n\x00\x00\x00\x0b\x00\x00\x00\x0c\x00\x00\x00\r\x00\x00\x00\x0e\x00\x00\x00\x0f\x00\x00\x00\x10\x00\x00\x00\x11\x00\x00\x00\x12\x00\x00\x00\x13\x00\x00\x00\x14\x00\x00\x00\x15\x00\x00\x00\x16\x00\x00\x00\x17\x00\x00\x00\x18\x00\x00\x00\x19\x00\x00\x00\x1a\x00\x00\x00\x1b\x00\x00\x00'
p3352
tp3353
bsg138
I01
sg139
I1
sg140
I-1
sg141
(lp3354
g2875
((lp3355
(lp3356
g999
ag1000
aa(lp3357
g984
ag985
aa(lp3358
g988
ag989
aa(lp3359
g986
ag987
aa(lp3360
g981
ag982
aatp3361
Rp3362
ag2875
((lp3363
(lp3364
g999
ag1025
aa(lp3365
g984
ag1019
aa(lp3366
g988
ag1021
aa(lp3367
g986
ag1020
aa(lp3368
g981
ag1017
aatp3369
Rp3370
ag2875
((lp3371
(lp3372
g999
ag1025
aa(lp3373
g984
ag1041
aa(lp3374
g988
ag1043
aa(lp3375
g986
ag1042
aa(lp3376
g981
ag1039
aatp3377
Rp3378
ag2875
((lp3379
(lp3380
g999
ag1025
aa(lp3381
g984
ag1062
aa(lp3382
g988
ag1064
aa(lp3383
g986
ag1063
aa(lp3384
g981
ag1060
aatp3385
Rp3386
ag2875
((lp3387
(lp3388
g999
ag1000
aa(lp3389
g984
ag1083
aa(lp3390
g988
ag1085
aa(lp3391
g986
ag1084
aa(lp3392
g981
ag1081
aatp3393
Rp3394
ag2875
((lp3395
(lp3396
g999
ag1025
aa(lp3397
g984
ag1104
aa(lp3398
g988
ag1106
aa(lp3399
g986
ag1105
aa(lp3400
g981
ag1102
aatp3401
Rp3402
ag2875
((lp3403
(lp3404
g999
ag1000
aa(lp3405
g984
ag1125
aa(lp3406
g988
ag1127
aa(lp3407
g986
ag1126
aa(lp3408
g981
ag1123
aatp3409
Rp3410
ag2875
((lp3411
(lp3412
g999
ag1025
aa(lp3413
g984
ag1146
aa(lp3414
g988
ag1148
aa(lp3415
g986
ag1147
aa(lp3416
g981
ag1144
aatp3417
Rp3418
ag2875
((lp3419
(lp3420
g999
ag1025
aa(lp3421
g984
ag1167
aa(lp3422
g988
ag1169
aa(lp3423
g986
ag1168
aa(lp3424
g981
ag1165
aatp3425
Rp3426
ag2875
((lp3427
(lp3428
g999
ag1025
aa(lp3429
g984
ag1188
aa(lp3430
g988
ag1190
aa(lp3431
g986
ag1189
aa(lp3432
g981
ag1186
aatp3433
Rp3434
ag2875
((lp3435
(lp3436
g999
ag1000
aa(lp3437
g984
ag1209
aa(lp3438
g988
ag1211
aa(lp3439
g986
ag1210
aa(lp3440
g981
ag1207
aatp3441
Rp3442
ag2875
((lp3443
(lp3444
g999
ag1000
aa(lp3445
g984
ag1230
aa(lp3446
g988
ag1232
aa(lp3447
g986
ag1231
aa(lp3448
g981
ag1228
aatp3449
Rp3450
ag2875
((lp3451
(lp3452
g999
ag1025
aa(lp3453
g984
ag1251
aa(lp3454
g988
ag1253
aa(lp3455
g986
ag1252
aa(lp3456
g981
ag1249
aatp3457
Rp3458
ag2875
((lp3459
(lp3460
g999
ag1000
aa(lp3461
g984
ag1272
aa(lp3462
g988
ag1274
aa(lp3463
g986
ag1273
aa(lp3464
g981
ag1270
aatp3465
Rp3466
ag2875
((lp3467
(lp3468
g999
ag1000
aa(lp3469
g984
ag1293
aa(lp3470
g988
ag1295
aa(lp3471
g986
ag1294
aa(lp3472
g981
ag1291
aatp3473
Rp3474
ag2875
((lp3475
(lp3476
g999
ag1025
aa(lp3477
g984
ag1314
aa(lp3478
g988
ag1316
aa(lp3479
g986
ag1315
aa(lp3480
g981
ag1312
aatp3481
Rp3482
ag2875
((lp3483
(lp3484
g999
ag1025
aa(lp3485
g984
ag1335
aa(lp3486
g988
ag1337
aa(lp3487
g986
ag1336
aa(lp3488
g981
ag1333
aatp3489
Rp3490
ag2875
((lp3491
(lp3492
g999
ag1000
aa(lp3493
g984
ag1356
aa(lp3494
g988
ag1358
aa(lp3495
g986
ag1357
aa(lp3496
g981
ag1354
aatp3497
Rp3498
ag2875
((lp3499
(lp3500
g999
ag1000
aa(lp3501
g984
ag1377
aa(lp3502
g988
ag1379
aa(lp3503
g986
ag1378
aa(lp3504
g981
ag1375
aatp3505
Rp3506
ag2875
((lp3507
(lp3508
g999
ag1025
aa(lp3509
g984
ag1398
aa(lp3510
g988
ag1400
aa(lp3511
g986
ag1399
aa(lp3512
g981
ag1396
aatp3513
Rp3514
ag2875
((lp3515
(lp3516
g999
ag1000
aa(lp3517
g984
ag1419
aa(lp3518
g988
ag1421
aa(lp3519
g986
ag1420
aa(lp3520
g981
ag1417
aatp3521
Rp3522
ag2875
((lp3523
(lp3524
g999
ag1000
aa(lp3525
g984
ag1440
aa(lp3526
g988
ag1442
aa(lp3527
g986
ag1441
aa(lp3528
g981
ag1438
aatp3529
Rp3530
ag2875
((lp3531
(lp3532
g999
ag1025
aa(lp3533
g984
ag1461
aa(lp3534
g988
ag1463
aa(lp3535
g986
ag1462
aa(lp3536
g981
ag1459
aatp3537
Rp3538
ag2875
((lp3539
(lp3540
g999
ag1000
aa(lp3541
g984
ag1482
aa(lp3542
g988
ag1484
aa(lp3543
g986
ag1483
aa(lp3544
g981
ag1480
aatp3545
Rp3546
ag2875
((lp3547
(lp3548
g999
ag1000
aa(lp3549
g984
ag1503
aa(lp3550
g988
ag1505
aa(lp3551
g986
ag1504
aa(lp3552
g981
ag1501
aatp3553
Rp3554
ag2875
((lp3555
(lp3556
g999
ag1025
aa(lp3557
g984
ag1524
aa(lp3558
g988
ag1526
aa(lp3559
g986
ag1525
aa(lp3560
g981
ag1522
aatp3561
Rp3562
ag2875
((lp3563
(lp3564
g999
ag1025
aa(lp3565
g984
ag1545
aa(lp3566
g988
ag1547
aa(lp3567
g986
ag1546
aa(lp3568
g981
ag1543
aatp3569
Rp3570
ag2875
((lp3571
(lp3572
g999
ag1000
aa(lp3573
g984
ag1566
aa(lp3574
g988
ag1568
aa(lp3575
g986
ag1567
aa(lp3576
g981
ag1564
aatp3577
Rp3578
asg143
Nsg144
g1582
sg148
I28
sg149
I0
sg150
I28
sbag0
(g54
g2
Ntp3579
Rp3580
(dp3581
g58
Nsg59
(lp3582
sg60
I364072944
sg11
g3049
sg6
I-1
sg62
I1
sg27
I01
sg28
g29
sg63
g0
(g64
g65
(dp3583
g67
g68
(g69
g70
g71
g72
tp3584
Rp3585
(I1
(I28
I1
tp3586
g78
I00
S'\x00\x00\x80?\x00\x00\x80?\x00\x00\x80?\x00\x00\x80?\x00\x00\x80?\x00\x00\x80?\x00\x00\x80?\x00\x00\x80?\x00\x00\x80?\x00\x00\x80?\x00\x00\x80?\x00\x00\x80?\x00\x00\x80?\x00\x00\x80?\x00\x00\x80?\x00\x00\x80?\x00\x00\x80?\x00\x00\x80?\x00\x00\x80?\x00\x00\x80?\x00\x00\x80?\x00\x00\x80?\x00\x00\x80?\x00\x00\x80?\x00\x00\x80?\x00\x00\x80?\x00\x00\x80?\x00\x00\x80?'
p3587
S'\x00\x00\x00\x00\x00\x00\x00\x00\x00\x00\x00\x00\x00\x00\x00\x00\x00\x00\x00\x00\x00\x00\x00\x00\x00\x00\x00\x00'
p3588
Ntp3589
bsg20
g68
(g69
g70
g71
g72
tp3590
Rp3591
(I1
(I28
I1
tp3592
g78
I00
S'x\xe8\x10A\xa1\x0cFAd\x82\xf1@\xc1\x89IA\xd2\t\x91A\xa7\x80[A}q\x9cA\xe6\x10)A\r\x1bGAx\xfdHA\xb0(9A|\xd7;A@\x01,A\x92\x10\x95A~\xc7\xba@%=\xd0@\xf0v\x8aA\xc9\xb2ZA\xf8\xc2\xd9A\x1e\x91\xe3@\xeb\xa8\xaaA\xd3\xc3\xbaA=\x0f\x9eA\xab\x96\x08A[\x92\xbbA\x89\xa1oA\x8e(\xc4A\nz\xd7A'
p3593
S'\x00\x00\x00\x00\x00\x00\x00\x00\x00\x00\x00\x00\x00\x00\x00\x00\x00\x00\x00\x00\x00\x00\x00\x00\x00\x00\x00\x00'
p3594
Ntp3595
bsg107
g68
(g69
g70
g71
g72
tp3596
Rp3597
(I1
(I28
I1
tp3598
g78
I00
S'\x00\x00\x00\x00\x00\x00\x80?\x00\x00\x00@\x00\x00@@\x00\x00\x80@\x00\x00\xa0@\x00\x00\xc0@\x00\x00\xe0@\x00\x00\x00A\x00\x00\x10A\x00\x00 A\x00\x000A\x00\x00@A\x00\x00PA\x00\x00`A\x00\x00pA\x00\x00\x80A\x00\x00\x88A\x00\x00\x90A\x00\x00\x98A\x00\x00\xa0A\x00\x00\xa8A\x00\x00\xb0A\x00\x00\xb8A\x00\x00\xc0A\x00\x00\xc8A\x00\x00\xd0A\x00\x00\xd8A'
p3599
S'\x00\x00\x00\x00\x00\x00\x00\x00\x00\x00\x00\x00\x00\x00\x00\x00\x00\x00\x00\x00\x00\x00\x00\x00\x00\x00\x00\x00'
p3600
Ntp3601
bsg19
g90
(g70
(I0
tp3602
g72
tp3603
Rp3604
(I1
(I28
I1
tp3605
g97
I00
(lp3606
g1625
ag1647
ag1668
ag1689
ag1710
ag1731
ag1752
ag1773
ag1794
ag1815
ag1836
ag1857
ag1878
ag1899
ag1920
ag1941
ag1962
ag1983
ag2004
ag2025
ag2046
ag2067
ag2088
ag2109
ag2130
ag2151
ag2172
ag2193
atp3607
bstp3608
Rp3609
(dp3610
g117
(dp3611
g67
I01
sg20
I01
sg107
I01
sg19
I00
ssg119
g3580
sg120
(lp3612
g67
ag107
ag19
ag20
asg122
(lp3613
I28
aI1
asbsg124
g3081
sg126
g90
(g70
(I0
tp3614
g72
tp3615
Rp3616
(I1
(I28
I1
tp3617
g133
I00
S'\x00\x00\x00\x00\x01\x00\x00\x00\x02\x00\x00\x00\x03\x00\x00\x00\x04\x00\x00\x00\x05\x00\x00\x00\x06\x00\x00\x00\x07\x00\x00\x00\x08\x00\x00\x00\t\x00\x00\x00\n\x00\x00\x00\x0b\x00\x00\x00\x0c\x00\x00\x00\r\x00\x00\x00\x0e\x00\x00\x00\x0f\x00\x00\x00\x10\x00\x00\x00\x11\x00\x00\x00\x12\x00\x00\x00\x13\x00\x00\x00\x14\x00\x00\x00\x15\x00\x00\x00\x16\x00\x00\x00\x17\x00\x00\x00\x18\x00\x00\x00\x19\x00\x00\x00\x1a\x00\x00\x00\x1b\x00\x00\x00'
p3618
tp3619
bsg138
I01
sg139
I1
sg140
I-1
sg141
(lp3620
g2875
((lp3621
(lp3622
g1615
ag1616
aa(lp3623
g1600
ag1601
aa(lp3624
g1604
ag1605
aa(lp3625
g1602
ag1603
aa(lp3626
g1597
ag1598
aatp3627
Rp3628
ag2875
((lp3629
(lp3630
g1615
ag1641
aa(lp3631
g1600
ag1635
aa(lp3632
g1604
ag1637
aa(lp3633
g1602
ag1636
aa(lp3634
g1597
ag1633
aatp3635
Rp3636
ag2875
((lp3637
(lp3638
g1615
ag1641
aa(lp3639
g1600
ag1657
aa(lp3640
g1604
ag1659
aa(lp3641
g1602
ag1658
aa(lp3642
g1597
ag1655
aatp3643
Rp3644
ag2875
((lp3645
(lp3646
g1615
ag1616
aa(lp3647
g1600
ag1678
aa(lp3648
g1604
ag1680
aa(lp3649
g1602
ag1679
aa(lp3650
g1597
ag1676
aatp3651
Rp3652
ag2875
((lp3653
(lp3654
g1615
ag1616
aa(lp3655
g1600
ag1699
aa(lp3656
g1604
ag1701
aa(lp3657
g1602
ag1700
aa(lp3658
g1597
ag1697
aatp3659
Rp3660
ag2875
((lp3661
(lp3662
g1615
ag1641
aa(lp3663
g1600
ag1720
aa(lp3664
g1604
ag1722
aa(lp3665
g1602
ag1721
aa(lp3666
g1597
ag1718
aatp3667
Rp3668
ag2875
((lp3669
(lp3670
g1615
ag1641
aa(lp3671
g1600
ag1741
aa(lp3672
g1604
ag1743
aa(lp3673
g1602
ag1742
aa(lp3674
g1597
ag1739
aatp3675
Rp3676
ag2875
((lp3677
(lp3678
g1615
ag1616
aa(lp3679
g1600
ag1762
aa(lp3680
g1604
ag1764
aa(lp3681
g1602
ag1763
aa(lp3682
g1597
ag1760
aatp3683
Rp3684
ag2875
((lp3685
(lp3686
g1615
ag1641
aa(lp3687
g1600
ag1783
aa(lp3688
g1604
ag1785
aa(lp3689
g1602
ag1784
aa(lp3690
g1597
ag1781
aatp3691
Rp3692
ag2875
((lp3693
(lp3694
g1615
ag1616
aa(lp3695
g1600
ag1804
aa(lp3696
g1604
ag1806
aa(lp3697
g1602
ag1805
aa(lp3698
g1597
ag1802
aatp3699
Rp3700
ag2875
((lp3701
(lp3702
g1615
ag1641
aa(lp3703
g1600
ag1825
aa(lp3704
g1604
ag1827
aa(lp3705
g1602
ag1826
aa(lp3706
g1597
ag1823
aatp3707
Rp3708
ag2875
((lp3709
(lp3710
g1615
ag1616
aa(lp3711
g1600
ag1846
aa(lp3712
g1604
ag1848
aa(lp3713
g1602
ag1847
aa(lp3714
g1597
ag1844
aatp3715
Rp3716
ag2875
((lp3717
(lp3718
g1615
ag1616
aa(lp3719
g1600
ag1867
aa(lp3720
g1604
ag1869
aa(lp3721
g1602
ag1868
aa(lp3722
g1597
ag1865
aatp3723
Rp3724
ag2875
((lp3725
(lp3726
g1615
ag1641
aa(lp3727
g1600
ag1888
aa(lp3728
g1604
ag1890
aa(lp3729
g1602
ag1889
aa(lp3730
g1597
ag1886
aatp3731
Rp3732
ag2875
((lp3733
(lp3734
g1615
ag1641
aa(lp3735
g1600
ag1909
aa(lp3736
g1604
ag1911
aa(lp3737
g1602
ag1910
aa(lp3738
g1597
ag1907
aatp3739
Rp3740
ag2875
((lp3741
(lp3742
g1615
ag1641
aa(lp3743
g1600
ag1930
aa(lp3744
g1604
ag1932
aa(lp3745
g1602
ag1931
aa(lp3746
g1597
ag1928
aatp3747
Rp3748
ag2875
((lp3749
(lp3750
g1615
ag1616
aa(lp3751
g1600
ag1951
aa(lp3752
g1604
ag1953
aa(lp3753
g1602
ag1952
aa(lp3754
g1597
ag1949
aatp3755
Rp3756
ag2875
((lp3757
(lp3758
g1615
ag1641
aa(lp3759
g1600
ag1972
aa(lp3760
g1604
ag1974
aa(lp3761
g1602
ag1973
aa(lp3762
g1597
ag1970
aatp3763
Rp3764
ag2875
((lp3765
(lp3766
g1615
ag1641
aa(lp3767
g1600
ag1993
aa(lp3768
g1604
ag1995
aa(lp3769
g1602
ag1994
aa(lp3770
g1597
ag1991
aatp3771
Rp3772
ag2875
((lp3773
(lp3774
g1615
ag1616
aa(lp3775
g1600
ag2014
aa(lp3776
g1604
ag2016
aa(lp3777
g1602
ag2015
aa(lp3778
g1597
ag2012
aatp3779
Rp3780
ag2875
((lp3781
(lp3782
g1615
ag1616
aa(lp3783
g1600
ag2035
aa(lp3784
g1604
ag2037
aa(lp3785
g1602
ag2036
aa(lp3786
g1597
ag2033
aatp3787
Rp3788
ag2875
((lp3789
(lp3790
g1615
ag1616
aa(lp3791
g1600
ag2056
aa(lp3792
g1604
ag2058
aa(lp3793
g1602
ag2057
aa(lp3794
g1597
ag2054
aatp3795
Rp3796
ag2875
((lp3797
(lp3798
g1615
ag1641
aa(lp3799
g1600
ag2077
aa(lp3800
g1604
ag2079
aa(lp3801
g1602
ag2078
aa(lp3802
g1597
ag2075
aatp3803
Rp3804
ag2875
((lp3805
(lp3806
g1615
ag1616
aa(lp3807
g1600
ag2098
aa(lp3808
g1604
ag2100
aa(lp3809
g1602
ag2099
aa(lp3810
g1597
ag2096
aatp3811
Rp3812
ag2875
((lp3813
(lp3814
g1615
ag1616
aa(lp3815
g1600
ag2119
aa(lp3816
g1604
ag2121
aa(lp3817
g1602
ag2120
aa(lp3818
g1597
ag2117
aatp3819
Rp3820
ag2875
((lp3821
(lp3822
g1615
ag1616
aa(lp3823
g1600
ag2140
aa(lp3824
g1604
ag2142
aa(lp3825
g1602
ag2141
aa(lp3826
g1597
ag2138
aatp3827
Rp3828
ag2875
((lp3829
(lp3830
g1615
ag1641
aa(lp3831
g1600
ag2161
aa(lp3832
g1604
ag2163
aa(lp3833
g1602
ag2162
aa(lp3834
g1597
ag2159
aatp3835
Rp3836
ag2875
((lp3837
(lp3838
g1615
ag1641
aa(lp3839
g1600
ag2182
aa(lp3840
g1604
ag2184
aa(lp3841
g1602
ag2183
aa(lp3842
g1597
ag2180
aatp3843
Rp3844
asg143
Nsg144
g2198
sg148
I28
sg149
I0
sg150
I28
sbag0
(g54
g2
Ntp3845
Rp3846
(dp3847
g58
Nsg59
(lp3848
sg60
I364072944
sg11
g3049
sg6
I-1
sg62
I1
sg27
I01
sg28
g29
sg63
g0
(g64
g65
(dp3849
g67
g68
(g69
g70
g71
g72
tp3850
Rp3851
(I1
(I28
I1
tp3852
g78
I00
S'\x00\x00\x80?\x00\x00\x80?\x00\x00\x80?\x00\x00\x80?\x00\x00\x80?\x00\x00\x80?\x00\x00\x80?\x00\x00\x80?\x00\x00\x80?\x00\x00\x80?\x00\x00\x80?\x00\x00\x80?\x00\x00\x80?\x00\x00\x80?\x00\x00\x80?\x00\x00\x80?\x00\x00\x80?\x00\x00\x80?\x00\x00\x80?\x00\x00\x80?\x00\x00\x80?\x00\x00\x80?\x00\x00\x80?\x00\x00\x80?\x00\x00\x80?\x00\x00\x80?\x00\x00\x80?\x00\x00\x80?'
p3853
S'\x00\x00\x00\x00\x00\x00\x00\x00\x00\x00\x00\x00\x00\x00\x00\x00\x00\x00\x00\x00\x00\x00\x00\x00\x00\x00\x00\x00'
p3854
Ntp3855
bsg20
g68
(g69
g70
g71
g72
tp3856
Rp3857
(I1
(I28
I1
tp3858
g78
I00
S'\xa4\xf7DAu[\x99A\xaa\x19NA\xeb\xc6\x9bAh\xe9\xb5@h*\xb0A\xb1zmA\x05\xea1A)V\xabA\xe1\xb0OA\x7f\xbeAAB]\xc5An\xe9\xbcAY\xb2DA_y\xff@1\xaf\xcdA;uiA!\xdc\xa9ANT?A\x85\xb9iA\x06B3A\xbb\x94\xb2A\xf4\x9b\x17B\x7f8mA\xa4\xdc\xb4Ap\x9fCA\xa8r\xbdA\x1c\x1a\x10A'
p3859
S'\x00\x00\x00\x00\x00\x00\x00\x00\x00\x00\x00\x00\x00\x00\x00\x00\x00\x00\x00\x00\x00\x00\x00\x00\x00\x00\x00\x00'
p3860
Ntp3861
bsg107
g68
(g69
g70
g71
g72
tp3862
Rp3863
(I1
(I28
I1
tp3864
g78
I00
S'\x00\x00\x00\x00\x00\x00\x80?\x00\x00\x00@\x00\x00@@\x00\x00\x80@\x00\x00\xa0@\x00\x00\xc0@\x00\x00\xe0@\x00\x00\x00A\x00\x00\x10A\x00\x00 A\x00\x000A\x00\x00@A\x00\x00PA\x00\x00`A\x00\x00pA\x00\x00\x80A\x00\x00\x88A\x00\x00\x90A\x00\x00\x98A\x00\x00\xa0A\x00\x00\xa8A\x00\x00\xb0A\x00\x00\xb8A\x00\x00\xc0A\x00\x00\xc8A\x00\x00\xd0A\x00\x00\xd8A'
p3865
S'\x00\x00\x00\x00\x00\x00\x00\x00\x00\x00\x00\x00\x00\x00\x00\x00\x00\x00\x00\x00\x00\x00\x00\x00\x00\x00\x00\x00'
p3866
Ntp3867
bsg19
g90
(g70
(I0
tp3868
g72
tp3869
Rp3870
(I1
(I28
I1
tp3871
g97
I00
(lp3872
g2241
ag2263
ag2284
ag2305
ag2326
ag2347
ag2368
ag2389
ag2410
ag2431
ag2452
ag2473
ag2494
ag2515
ag2536
ag2557
ag2578
ag2599
ag2620
ag2641
ag2662
ag2683
ag2704
ag2725
ag2746
ag2767
ag2788
ag2809
atp3873
bstp3874
Rp3875
(dp3876
g117
(dp3877
g67
I01
sg20
I01
sg107
I01
sg19
I00
ssg119
g3846
sg120
(lp3878
g67
ag107
ag19
ag20
asg122
(lp3879
I28
aI1
asbsg124
g3081
sg126
g90
(g70
(I0
tp3880
g72
tp3881
Rp3882
(I1
(I28
I1
tp3883
g133
I00
S'\x00\x00\x00\x00\x01\x00\x00\x00\x02\x00\x00\x00\x03\x00\x00\x00\x04\x00\x00\x00\x05\x00\x00\x00\x06\x00\x00\x00\x07\x00\x00\x00\x08\x00\x00\x00\t\x00\x00\x00\n\x00\x00\x00\x0b\x00\x00\x00\x0c\x00\x00\x00\r\x00\x00\x00\x0e\x00\x00\x00\x0f\x00\x00\x00\x10\x00\x00\x00\x11\x00\x00\x00\x12\x00\x00\x00\x13\x00\x00\x00\x14\x00\x00\x00\x15\x00\x00\x00\x16\x00\x00\x00\x17\x00\x00\x00\x18\x00\x00\x00\x19\x00\x00\x00\x1a\x00\x00\x00\x1b\x00\x00\x00'
p3884
tp3885
bsg138
I01
sg139
I1
sg140
I-1
sg141
(lp3886
g2875
((lp3887
(lp3888
g2231
ag2232
aa(lp3889
g2216
ag2217
aa(lp3890
g2220
ag2221
aa(lp3891
g2218
ag2219
aa(lp3892
g2213
ag2214
aatp3893
Rp3894
ag2875
((lp3895
(lp3896
g2231
ag2257
aa(lp3897
g2216
ag2251
aa(lp3898
g2220
ag2253
aa(lp3899
g2218
ag2252
aa(lp3900
g2213
ag2249
aatp3901
Rp3902
ag2875
((lp3903
(lp3904
g2231
ag2257
aa(lp3905
g2216
ag2273
aa(lp3906
g2220
ag2275
aa(lp3907
g2218
ag2274
aa(lp3908
g2213
ag2271
aatp3909
Rp3910
ag2875
((lp3911
(lp3912
g2231
ag2232
aa(lp3913
g2216
ag2294
aa(lp3914
g2220
ag2296
aa(lp3915
g2218
ag2295
aa(lp3916
g2213
ag2292
aatp3917
Rp3918
ag2875
((lp3919
(lp3920
g2231
ag2232
aa(lp3921
g2216
ag2315
aa(lp3922
g2220
ag2317
aa(lp3923
g2218
ag2316
aa(lp3924
g2213
ag2313
aatp3925
Rp3926
ag2875
((lp3927
(lp3928
g2231
ag2257
aa(lp3929
g2216
ag2336
aa(lp3930
g2220
ag2338
aa(lp3931
g2218
ag2337
aa(lp3932
g2213
ag2334
aatp3933
Rp3934
ag2875
((lp3935
(lp3936
g2231
ag2232
aa(lp3937
g2216
ag2357
aa(lp3938
g2220
ag2359
aa(lp3939
g2218
ag2358
aa(lp3940
g2213
ag2355
aatp3941
Rp3942
ag2875
((lp3943
(lp3944
g2231
ag2257
aa(lp3945
g2216
ag2378
aa(lp3946
g2220
ag2380
aa(lp3947
g2218
ag2379
aa(lp3948
g2213
ag2376
aatp3949
Rp3950
ag2875
((lp3951
(lp3952
g2231
ag2257
aa(lp3953
g2216
ag2399
aa(lp3954
g2220
ag2401
aa(lp3955
g2218
ag2400
aa(lp3956
g2213
ag2397
aatp3957
Rp3958
ag2875
((lp3959
(lp3960
g2231
ag2232
aa(lp3961
g2216
ag2420
aa(lp3962
g2220
ag2422
aa(lp3963
g2218
ag2421
aa(lp3964
g2213
ag2418
aatp3965
Rp3966
ag2875
((lp3967
(lp3968
g2231
ag2232
aa(lp3969
g2216
ag2441
aa(lp3970
g2220
ag2443
aa(lp3971
g2218
ag2442
aa(lp3972
g2213
ag2439
aatp3973
Rp3974
ag2875
((lp3975
(lp3976
g2231
ag2257
aa(lp3977
g2216
ag2462
aa(lp3978
g2220
ag2464
aa(lp3979
g2218
ag2463
aa(lp3980
g2213
ag2460
aatp3981
Rp3982
ag2875
((lp3983
(lp3984
g2231
ag2257
aa(lp3985
g2216
ag2483
aa(lp3986
g2220
ag2485
aa(lp3987
g2218
ag2484
aa(lp3988
g2213
ag2481
aatp3989
Rp3990
ag2875
((lp3991
(lp3992
g2231
ag2257
aa(lp3993
g2216
ag2504
aa(lp3994
g2220
ag2506
aa(lp3995
g2218
ag2505
aa(lp3996
g2213
ag2502
aatp3997
Rp3998
ag2875
((lp3999
(lp4000
g2231
ag2232
aa(lp4001
g2216
ag2525
aa(lp4002
g2220
ag2527
aa(lp4003
g2218
ag2526
aa(lp4004
g2213
ag2523
aatp4005
Rp4006
ag2875
((lp4007
(lp4008
g2231
ag2257
aa(lp4009
g2216
ag2546
aa(lp4010
g2220
ag2548
aa(lp4011
g2218
ag2547
aa(lp4012
g2213
ag2544
aatp4013
Rp4014
ag2875
((lp4015
(lp4016
g2231
ag2257
aa(lp4017
g2216
ag2567
aa(lp4018
g2220
ag2569
aa(lp4019
g2218
ag2568
aa(lp4020
g2213
ag2565
aatp4021
Rp4022
ag2875
((lp4023
(lp4024
g2231
ag2232
aa(lp4025
g2216
ag2588
aa(lp4026
g2220
ag2590
aa(lp4027
g2218
ag2589
aa(lp4028
g2213
ag2586
aatp4029
Rp4030
ag2875
((lp4031
(lp4032
g2231
ag2257
aa(lp4033
g2216
ag2609
aa(lp4034
g2220
ag2611
aa(lp4035
g2218
ag2610
aa(lp4036
g2213
ag2607
aatp4037
Rp4038
ag2875
((lp4039
(lp4040
g2231
ag2232
aa(lp4041
g2216
ag2630
aa(lp4042
g2220
ag2632
aa(lp4043
g2218
ag2631
aa(lp4044
g2213
ag2628
aatp4045
Rp4046
ag2875
((lp4047
(lp4048
g2231
ag2257
aa(lp4049
g2216
ag2651
aa(lp4050
g2220
ag2653
aa(lp4051
g2218
ag2652
aa(lp4052
g2213
ag2649
aatp4053
Rp4054
ag2875
((lp4055
(lp4056
g2231
ag2232
aa(lp4057
g2216
ag2672
aa(lp4058
g2220
ag2674
aa(lp4059
g2218
ag2673
aa(lp4060
g2213
ag2670
aatp4061
Rp4062
ag2875
((lp4063
(lp4064
g2231
ag2257
aa(lp4065
g2216
ag2693
aa(lp4066
g2220
ag2695
aa(lp4067
g2218
ag2694
aa(lp4068
g2213
ag2691
aatp4069
Rp4070
ag2875
((lp4071
(lp4072
g2231
ag2232
aa(lp4073
g2216
ag2714
aa(lp4074
g2220
ag2716
aa(lp4075
g2218
ag2715
aa(lp4076
g2213
ag2712
aatp4077
Rp4078
ag2875
((lp4079
(lp4080
g2231
ag2232
aa(lp4081
g2216
ag2735
aa(lp4082
g2220
ag2737
aa(lp4083
g2218
ag2736
aa(lp4084
g2213
ag2733
aatp4085
Rp4086
ag2875
((lp4087
(lp4088
g2231
ag2232
aa(lp4089
g2216
ag2756
aa(lp4090
g2220
ag2758
aa(lp4091
g2218
ag2757
aa(lp4092
g2213
ag2754
aatp4093
Rp4094
ag2875
((lp4095
(lp4096
g2231
ag2257
aa(lp4097
g2216
ag2777
aa(lp4098
g2220
ag2779
aa(lp4099
g2218
ag2778
aa(lp4100
g2213
ag2775
aatp4101
Rp4102
ag2875
((lp4103
(lp4104
g2231
ag2232
aa(lp4105
g2216
ag2798
aa(lp4106
g2220
ag2800
aa(lp4107
g2218
ag2799
aa(lp4108
g2213
ag2796
aatp4109
Rp4110
asg143
Nsg144
g2814
sg148
I28
sg149
I0
sg150
I28
sbasS'savePickle'
p4111
I00
sb.