ccopy_reg
_reconstructor
p0
(cpsychopy.data.experiment
ExperimentHandler
p1
c__builtin__
object
p2
Ntp3
Rp4
(dp5
S'originPath'
p6
VC:\u005cUsers\u005cadmin\u005cDocuments\u005cgit-repos\u005cpia_rita\u005cPia_Rita_2018_replication_sheb-pulv2013\u005cexp-scripts_psychopy\u005cpilot\u005csheb_replic_pilot_control.psyexp
p7
sS'dataFileName'
p8
VC:\u005cUsers\u005cadmin\u005cDocuments\u005cgit-repos\u005cpia_rita\u005cPia_Rita_2018_replication_sheb-pulv2013\u005cexp-scripts_psychopy\u005cpilot\u005cdata/915_sheb_replic_pilot_control_2018_Jun_21_1543
p9
sS'runtimeInfo'
p10
NsS'name'
p11
S'sheb_replic_pilot_control'
p12
sS'dataNames'
p13
(lp14
S'key_resp_13.keys'
p15
aS'key_resp_13.rt'
p16
aS'key_resp_6.keys'
p17
aS'key_resp_6.rt'
p18
aS'key_resp_2.keys'
p19
aS'key_resp_2.rt'
p20
aS'key_resp_8.keys'
p21
aS'key_resp_8.rt'
p22
aS'key_resp_7.keys'
p23
aS'key_resp_7.rt'
p24
asS'autoLog'
p25
I01
sS'extraInfo'
p26
(dp27
S'date'
p28
V2018_Jun_21_1543
p29
sS'frameRate'
p30
cnumpy.core.multiarray
scalar
p31
(cnumpy
dtype
p32
(S'f8'
p33
I0
I1
tp34
Rp35
(I3
S'<'
p36
NNNI-1
I-1
I0
tp37
bS'\xabM\xc5\x04\xad\xd3M@'
p38
tp39
Rp40
sS'expName'
p41
g12
sVsession
p42
V001
p43
sVparticipant
p44
g0
(cfuture.types.newstr
newstr
p45
c__builtin__
unicode
p46
V915
p47
tp48
Rp49
ssS'loopsUnfinished'
p50
(lp51
g0
(cpsychopy.data.trial
TrialHandler
p52
g2
Ntp53
Rp54
(dp55
S'origin'
p56
NsS'thisTrial'
p57
NsS'_exp'
p58
I353542128
sg11
S'training_block'
p59
sg6
I-1
sS'thisRepN'
p60
I1
sg25
I01
sg26
g27
sS'data'
p61
g0
(cpsychopy.data.base
DataHandler
p62
c__builtin__
dict
p63
(dp64
S'ran'
p65
cnumpy.ma.core
_mareconstruct
p66
(cnumpy.ma.core
MaskedArray
p67
cnumpy
ndarray
p68
(I0
tp69
S'b'
p70
tp71
Rp72
(I1
(I1
I5
tp73
g32
(S'f4'
p74
I0
I1
tp75
Rp76
(I3
S'<'
p77
NNNI-1
I-1
I0
tp78
bI00
S'\x00\x00\x80?\x00\x00\x80?\x00\x00\x00\x00\x00\x00\x00\x00\x00\x00\x00\x00'
p79
S'\x00\x00\x00\x00\x00'
p80
Ntp81
bsg22
g66
(g67
g68
g69
g70
tp82
Rp83
(I1
(I1
I5
tp84
g76
I00
S'\xb5\xe0\xf6@\x13}b@\x00\x00\x00\x00\x00\x00\x00\x00\x00\x00\x00\x00'
p85
S'\x00\x00\x01\x01\x01'
p86
Ntp87
bsg21
cnumpy.core.multiarray
_reconstruct
p88
(g68
(I0
tp89
g70
tp90
Rp91
(I1
(I1
I5
tp92
g32
(S'O4'
p93
I0
I1
tp94
Rp95
(I3
S'|'
p96
NNNI-1
I-1
I63
tp97
bI00
(lp98
S'p'
p99
aS's'
p100
aS'--'
p101
aS'--'
p102
aS'--'
p103
atp104
bsS'order'
p105
g66
(g67
g68
g69
g70
tp106
Rp107
(I1
(I1
I5
tp108
g76
I00
S'\x00\x00\x00\x00\x00\x00\x80?\x00\x00\x00\x00\x00\x00\x00\x00\x00\x00\x00\x00'
p109
S'\x00\x00\x01\x01\x01'
p110
Ntp111
bstp112
Rp113
(dp114
S'isNumeric'
p115
(dp116
g65
I01
sg22
I01
sg21
I00
sg105
I01
ssS'trials'
p117
g54
sS'dataTypes'
p118
(lp119
g65
ag105
ag21
ag22
asS'dataShape'
p120
(lp121
I1
aI5
asbsS'method'
p122
S'random'
p123
sS'sequenceIndices'
p124
g88
(g68
(I0
tp125
g70
tp126
Rp127
(I1
(I1
I5
tp128
g32
(S'i4'
p129
I0
I1
tp130
Rp131
(I3
S'<'
p132
NNNI-1
I-1
I0
tp133
bI00
S'\x00\x00\x00\x00\x00\x00\x00\x00\x00\x00\x00\x00\x00\x00\x00\x00\x00\x00\x00\x00'
p134
tp135
bsS'finished'
p136
I00
sS'nReps'
p137
I5
sS'nRemaining'
p138
I3
sS'trialList'
p139
(lp140
NasS'seed'
p141
NsS'thisIndex'
p142
g31
(g131
S'\x00\x00\x00\x00'
p143
tp144
Rp145
sS'thisN'
p146
I1
sS'thisTrialN'
p147
I0
sS'nTotal'
p148
I5
sbasS'saveWideText'
p149
I00
sS'thisEntry'
p150
(dp151
sS'version'
p152
S''
p153
sS'_paramNamesSoFar'
p154
(lp155
S'item'
p156
aS'type'
p157
aS'word1'
p158
aS'word2'
p159
aS'word3'
p160
aS'word4'
p161
aS'word_duration'
p162
aS'follow_blank'
p163
aS'SOA'
p164
asS'entries'
p165
(lp166
(dp167
g42
g43
sg41
g12
sg44
g49
sg15
S'space'
p168
sg28
g29
sg30
g40
sg16
F1374.8861984467649
sa(dp169
g42
g43
sg41
g12
sg44
g49
sg28
g29
sg17
S'space'
p170
sg30
g40
sg18
F3.7738552242299193
sa(dp171
S'training_block.thisRepN'
p172
I0
sg20
F28.410087649981506
sS'training_block.thisN'
p173
I0
sS'word_presentation_training.thisTrialN'
p174
I0
sg42
g43
sg161
Vyell
p175
sS'word_presentation_training.thisRepN'
p176
I0
sg44
g49
sg30
g40
sS'training_block.thisTrialN'
p177
I0
sg19
S'space'
p178
sg156
g31
(g32
(S'i8'
p179
I0
I1
tp180
Rp181
(I3
S'<'
p182
NNNI-1
I-1
I0
tp183
bS'\x02\x00\x00\x00\x00\x00\x00\x00'
p184
tp185
Rp186
sg41
g12
sg158
Vlike
p187
sS'word_presentation_training.thisIndex'
p188
g31
(g131
S'\x01\x00\x00\x00'
p189
tp190
Rp191
sg160
Vstare
p192
sg159
Vthank
p193
sg28
g29
sS'word_presentation_training.thisN'
p194
I0
sg157
Vtraining
p195
sS'training_block.thisIndex'
p196
g31
(g131
S'\x00\x00\x00\x00'
p197
tp198
Rp199
sa(dp200
S'training_block.thisRepN'
p201
I0
sg20
F6.137025400477796
sS'training_block.thisN'
p202
I0
sS'word_presentation_training.thisTrialN'
p203
I1
sg42
g43
sg161
Vsoothe
p204
sS'word_presentation_training.thisRepN'
p205
I0
sg44
g49
sg30
g40
sS'training_block.thisTrialN'
p206
I0
sg19
S'space'
p207
sg156
g31
(g181
S'\x03\x00\x00\x00\x00\x00\x00\x00'
p208
tp209
Rp210
sg41
g12
sg158
Vlick
p211
sS'word_presentation_training.thisIndex'
p212
g31
(g131
S'\x02\x00\x00\x00'
p213
tp214
Rp215
sg160
Vchew
p216
sg159
Vruin
p217
sg28
g29
sS'word_presentation_training.thisN'
p218
I1
sg157
g195
sS'training_block.thisIndex'
p219
g199
sa(dp220
S'training_block.thisRepN'
p221
I0
sg20
F10.129781949730386
sS'training_block.thisN'
p222
I0
sS'word_presentation_training.thisTrialN'
p223
I2
sg42
g43
sg161
Vsigh
p224
sS'word_presentation_training.thisRepN'
p225
I0
sg44
g49
sg30
g40
sS'training_block.thisTrialN'
p226
I0
sg19
S'space'
p227
sg156
g31
(g181
S'\x01\x00\x00\x00\x00\x00\x00\x00'
p228
tp229
Rp230
sg41
g12
sg158
Vwait
p231
sS'word_presentation_training.thisIndex'
p232
g31
(g131
S'\x00\x00\x00\x00'
p233
tp234
Rp235
sg160
Vblush
p236
sg159
Vbless
p237
sg28
g29
sS'word_presentation_training.thisN'
p238
I2
sg157
g195
sS'training_block.thisIndex'
p239
g199
sa(dp240
S'training_block.thisRepN'
p241
I0
sg20
F6.976903376404152
sS'training_block.thisN'
p242
I0
sS'word_presentation_training.thisTrialN'
p243
I3
sg42
g43
sg161
Vprint
p244
sS'word_presentation_training.thisRepN'
p245
I0
sg44
g49
sg30
g40
sS'training_block.thisTrialN'
p246
I0
sg19
S'space'
p247
sg156
g31
(g181
S'\x04\x00\x00\x00\x00\x00\x00\x00'
p248
tp249
Rp250
sg41
g12
sg158
Vsave
p251
sS'word_presentation_training.thisIndex'
p252
g31
(g131
S'\x03\x00\x00\x00'
p253
tp254
Rp255
sg160
Vstay
p256
sg159
Vlook
p257
sg28
g29
sS'word_presentation_training.thisN'
p258
I3
sg157
g195
sS'training_block.thisIndex'
p259
g199
sa(dp260
S'training_block.thisRepN'
p261
I0
sS'training_block.thisN'
p262
I0
sg42
g43
sg30
g40
sS'training_block.thisTrialN'
p263
I0
sg22
F7.714930129719505
sg41
g12
sg21
g99
sg28
g29
sg44
g49
sS'training_block.thisIndex'
p264
g199
sa(dp265
S'training_block.thisRepN'
p266
I1
sg20
F5.401471211107491
sS'training_block.thisN'
p267
I1
sS'word_presentation_training.thisTrialN'
p268
I0
sg42
g43
sS'word4'
p269
Vsoothe
p270
sS'word_presentation_training.thisRepN'
p271
I0
sg44
g49
sg30
g40
sS'training_block.thisTrialN'
p272
I0
sg19
S'space'
p273
sS'item'
p274
g31
(g181
S'\x03\x00\x00\x00\x00\x00\x00\x00'
p275
tp276
Rp277
sg41
g12
sS'word1'
p278
Vlick
p279
sS'word_presentation_training.thisIndex'
p280
g31
(g131
S'\x02\x00\x00\x00'
p281
tp282
Rp283
sS'word3'
p284
Vchew
p285
sS'word2'
p286
Vruin
p287
sg28
g29
sS'word_presentation_training.thisN'
p288
I0
sS'type'
p289
Vtraining
p290
sS'training_block.thisIndex'
p291
g145
sa(dp292
S'training_block.thisRepN'
p293
I1
sg20
F4.813628023339334
sS'training_block.thisN'
p294
I1
sS'word_presentation_training.thisTrialN'
p295
I1
sg42
g43
sg269
Vsigh
p296
sS'word_presentation_training.thisRepN'
p297
I0
sg44
g49
sg30
g40
sS'training_block.thisTrialN'
p298
I0
sg19
S'space'
p299
sg274
g31
(g181
S'\x01\x00\x00\x00\x00\x00\x00\x00'
p300
tp301
Rp302
sg41
g12
sg278
Vwait
p303
sS'word_presentation_training.thisIndex'
p304
g31
(g131
S'\x00\x00\x00\x00'
p305
tp306
Rp307
sg284
Vblush
p308
sg286
Vbless
p309
sg28
g29
sS'word_presentation_training.thisN'
p310
I1
sg289
g290
sS'training_block.thisIndex'
p311
g145
sa(dp312
S'training_block.thisRepN'
p313
I1
sg20
F4.09279068628166
sS'training_block.thisN'
p314
I1
sS'word_presentation_training.thisTrialN'
p315
I2
sg42
g43
sg269
Vprint
p316
sS'word_presentation_training.thisRepN'
p317
I0
sg44
g49
sg30
g40
sS'training_block.thisTrialN'
p318
I0
sg19
S'space'
p319
sg274
g31
(g181
S'\x04\x00\x00\x00\x00\x00\x00\x00'
p320
tp321
Rp322
sg41
g12
sg278
Vsave
p323
sS'word_presentation_training.thisIndex'
p324
g31
(g131
S'\x03\x00\x00\x00'
p325
tp326
Rp327
sg284
Vstay
p328
sg286
Vlook
p329
sg28
g29
sS'word_presentation_training.thisN'
p330
I2
sg289
g290
sS'training_block.thisIndex'
p331
g145
sa(dp332
S'training_block.thisRepN'
p333
I1
sg20
F6.188780138571019
sS'training_block.thisN'
p334
I1
sS'word_presentation_training.thisTrialN'
p335
I3
sg42
g43
sg269
Vyell
p336
sS'word_presentation_training.thisRepN'
p337
I0
sg44
g49
sg30
g40
sS'training_block.thisTrialN'
p338
I0
sg19
S'space'
p339
sg274
g31
(g181
S'\x02\x00\x00\x00\x00\x00\x00\x00'
p340
tp341
Rp342
sg41
g12
sg278
Vlike
p343
sS'word_presentation_training.thisIndex'
p344
g31
(g131
S'\x01\x00\x00\x00'
p345
tp346
Rp347
sg284
Vstare
p348
sg286
Vthank
p349
sg28
g29
sS'word_presentation_training.thisN'
p350
I3
sg289
g290
sS'training_block.thisIndex'
p351
g145
sa(dp352
S'training_block.thisRepN'
p353
I1
sS'training_block.thisN'
p354
I1
sg42
g43
sg24
F7.245794112626754
sg30
g40
sS'training_block.thisTrialN'
p355
I0
sg22
F3.5388838139915606
sg41
g12
sg21
g100
sg23
S'space'
p356
sg28
g29
sg44
g49
sS'training_block.thisIndex'
p357
g145
sa(dp358
S'training_block.thisRepN'
p359
I1
sg163
g31
(g35
S'\x9a\x99\x99\x99\x99\x99\xd9?'
p360
tp361
Rp362
sg30
g40
sS'word4'
p363
Vdance
p364
sS'experimental_blocks.thisN'
p365
I0
sg42
g43
sS'word1'
p366
Vroll
p367
sS'word3'
p368
Vbounce
p369
sS'word2'
p370
Vclimb
p371
sS'experimental_blocks.thisIndex'
p372
g31
(g131
S'\x00\x00\x00\x00'
p373
tp374
Rp375
sS'word_presentation.thisRepN'
p376
I0
sS'experimental_blocks.thisRepN'
p377
I0
sg44
g49
sg162
g31
(g35
S'\x9a\x99\x99\x99\x99\x99\xb9?'
p378
tp379
Rp380
sS'type'
p381
Vleg
p382
sS'training_block.thisIndex'
p383
g145
sg164
g31
(g35
S'\x00\x00\x00\x00\x00\x00\xe0?'
p384
tp385
Rp386
sg20
F6.976914439330358
sS'experimental_blocks.thisTrialN'
p387
I0
sS'training_block.thisN'
p388
I1
sS'word_presentation.thisN'
p389
I0
sS'training_block.thisTrialN'
p390
I0
sg19
S'space'
p391
sg28
g29
sS'word_presentation.thisTrialN'
p392
I0
sg41
g12
sS'word_presentation.thisIndex'
p393
g31
(g131
S'\x00\x00\x00\x00'
p394
tp395
Rp396
sa(dp397
S'training_block.thisRepN'
p398
I1
sg163
g362
sg30
g40
sg363
Vtwine
p399
sS'experimental_blocks.thisN'
p400
I0
sg42
g43
sg366
Vpinch
p401
sg368
Vskim
p402
sg370
Vpush
p403
sS'experimental_blocks.thisIndex'
p404
g375
sS'word_presentation.thisRepN'
p405
I0
sS'experimental_blocks.thisRepN'
p406
I0
sg44
g49
sg162
g380
sg381
Varm
p407
sS'training_block.thisIndex'
p408
g145
sg164
g386
sg20
F7.815466049460156
sS'experimental_blocks.thisTrialN'
p409
I0
sS'training_block.thisN'
p410
I1
sS'word_presentation.thisN'
p411
I1
sS'training_block.thisTrialN'
p412
I0
sg19
S'space'
p413
sg28
g29
sS'word_presentation.thisTrialN'
p414
I1
sg41
g12
sS'word_presentation.thisIndex'
p415
g31
(g131
S'\x01\x00\x00\x00'
p416
tp417
Rp418
sa(dp419
S'training_block.thisRepN'
p420
I1
sg163
g362
sg30
g40
sg363
Vstab
p421
sS'experimental_blocks.thisN'
p422
I0
sg42
g43
sg366
Vfile
p423
sg368
Vpull
p424
sg370
Vcarve
p425
sS'experimental_blocks.thisIndex'
p426
g375
sS'word_presentation.thisRepN'
p427
I0
sS'experimental_blocks.thisRepN'
p428
I0
sg44
g49
sg162
g380
sg381
g407
sS'training_block.thisIndex'
p429
g145
sg164
g386
sg20
F24.620093197248934
sS'experimental_blocks.thisTrialN'
p430
I0
sS'training_block.thisN'
p431
I1
sS'word_presentation.thisN'
p432
I2
sS'training_block.thisTrialN'
p433
I0
sg19
S'space'
p434
sg28
g29
sS'word_presentation.thisTrialN'
p435
I2
sg41
g12
sS'word_presentation.thisIndex'
p436
g31
(g131
S'\x02\x00\x00\x00'
p437
tp438
Rp439
sa(dp440
S'training_block.thisRepN'
p441
I1
sg163
g362
sg30
g40
sg363
Vflit
p442
sS'experimental_blocks.thisN'
p443
I0
sg42
g43
sg366
Vkneel
p444
sg368
Vwobble
p445
sg370
Vstomp
p446
sS'experimental_blocks.thisIndex'
p447
g375
sS'word_presentation.thisRepN'
p448
I0
sS'experimental_blocks.thisRepN'
p449
I0
sg44
g49
sg162
g380
sg381
g382
sS'training_block.thisIndex'
p450
g145
sg164
g386
sg20
F18.34737152782145
sS'experimental_blocks.thisTrialN'
p451
I0
sS'training_block.thisN'
p452
I1
sS'word_presentation.thisN'
p453
I3
sS'training_block.thisTrialN'
p454
I0
sg19
S'space'
p455
sg28
g29
sS'word_presentation.thisTrialN'
p456
I3
sg41
g12
sS'word_presentation.thisIndex'
p457
g31
(g131
S'\x03\x00\x00\x00'
p458
tp459
Rp460
sa(dp461
S'training_block.thisRepN'
p462
I1
sg163
g362
sg30
g40
sg363
Vwipe
p463
sS'experimental_blocks.thisN'
p464
I0
sg42
g43
sg366
Vpunch
p465
sg368
Vbrush
p466
sg370
Vbind
p467
sS'experimental_blocks.thisIndex'
p468
g375
sS'word_presentation.thisRepN'
p469
I0
sS'experimental_blocks.thisRepN'
p470
I0
sg44
g49
sg162
g380
sg381
g407
sS'training_block.thisIndex'
p471
g145
sg164
g386
sg20
F20.627968815191707
sS'experimental_blocks.thisTrialN'
p472
I0
sS'training_block.thisN'
p473
I1
sS'word_presentation.thisN'
p474
I4
sS'training_block.thisTrialN'
p475
I0
sg19
S'space'
p476
sg28
g29
sS'word_presentation.thisTrialN'
p477
I4
sg41
g12
sS'word_presentation.thisIndex'
p478
g31
(g131
S'\x04\x00\x00\x00'
p479
tp480
Rp481
sa(dp482
S'training_block.thisRepN'
p483
I1
sg163
g362
sg30
g40
sg363
Vscoop
p484
sS'experimental_blocks.thisN'
p485
I0
sg42
g43
sg366
Vswitch
p486
sg368
Vnip
p487
sg370
Vslap
p488
sS'experimental_blocks.thisIndex'
p489
g375
sS'word_presentation.thisRepN'
p490
I0
sS'experimental_blocks.thisRepN'
p491
I0
sg44
g49
sg162
g380
sg381
g407
sS'training_block.thisIndex'
p492
g145
sg164
g386
sg20
F5.970558393282772
sS'experimental_blocks.thisTrialN'
p493
I0
sS'training_block.thisN'
p494
I1
sS'word_presentation.thisN'
p495
I5
sS'training_block.thisTrialN'
p496
I0
sg19
S'space'
p497
sg28
g29
sS'word_presentation.thisTrialN'
p498
I5
sg41
g12
sS'word_presentation.thisIndex'
p499
g31
(g131
S'\x05\x00\x00\x00'
p500
tp501
Rp502
sa(dp503
S'training_block.thisRepN'
p504
I1
sg163
g362
sg30
g40
sg363
Vcut
p505
sS'experimental_blocks.thisN'
p506
I0
sg42
g43
sg366
Vclick
p507
sg368
Vknock
p508
sg370
Vchop
p509
sS'experimental_blocks.thisIndex'
p510
g375
sS'word_presentation.thisRepN'
p511
I0
sS'experimental_blocks.thisRepN'
p512
I0
sg44
g49
sg162
g380
sg381
g407
sS'training_block.thisIndex'
p513
g145
sg164
g386
sg20
F12.193300529123007
sS'experimental_blocks.thisTrialN'
p514
I0
sS'training_block.thisN'
p515
I1
sS'word_presentation.thisN'
p516
I6
sS'training_block.thisTrialN'
p517
I0
sg19
S'space'
p518
sg28
g29
sS'word_presentation.thisTrialN'
p519
I6
sg41
g12
sS'word_presentation.thisIndex'
p520
g31
(g131
S'\x06\x00\x00\x00'
p521
tp522
Rp523
sa(dp524
S'training_block.thisRepN'
p525
I1
sg163
g362
sg30
g40
sg363
Vhop
p526
sS'experimental_blocks.thisN'
p527
I0
sg42
g43
sg366
Vlimp
p528
sg368
Vtrot
p529
sg370
Vrush
p530
sS'experimental_blocks.thisIndex'
p531
g375
sS'word_presentation.thisRepN'
p532
I0
sS'experimental_blocks.thisRepN'
p533
I0
sg44
g49
sg162
g380
sg381
g382
sS'training_block.thisIndex'
p534
g145
sg164
g386
sg20
F7.529976973310113
sS'experimental_blocks.thisTrialN'
p535
I0
sS'training_block.thisN'
p536
I1
sS'word_presentation.thisN'
p537
I7
sS'training_block.thisTrialN'
p538
I0
sg19
S'space'
p539
sg28
g29
sS'word_presentation.thisTrialN'
p540
I7
sg41
g12
sS'word_presentation.thisIndex'
p541
g31
(g131
S'\x07\x00\x00\x00'
p542
tp543
Rp544
sa(dp545
S'training_block.thisRepN'
p546
I1
sg163
g362
sg30
g40
sg363
Vclap
p547
sS'experimental_blocks.thisN'
p548
I0
sg42
g43
sg366
Vgrate
p549
sg368
Vdunk
p550
sg370
Vgrasp
p551
sS'experimental_blocks.thisIndex'
p552
g375
sS'word_presentation.thisRepN'
p553
I0
sS'experimental_blocks.thisRepN'
p554
I0
sg44
g49
sg162
g380
sg381
g407
sS'training_block.thisIndex'
p555
g145
sg164
g386
sg20
F6.40669093661927
sS'experimental_blocks.thisTrialN'
p556
I0
sS'training_block.thisN'
p557
I1
sS'word_presentation.thisN'
p558
I8
sS'training_block.thisTrialN'
p559
I0
sg19
S'space'
p560
sg28
g29
sS'word_presentation.thisTrialN'
p561
I8
sg41
g12
sS'word_presentation.thisIndex'
p562
g31
(g131
S'\x08\x00\x00\x00'
p563
tp564
Rp565
sa(dp566
S'training_block.thisRepN'
p567
I1
sg163
g362
sg30
g40
sg363
Vthrow
p568
sS'experimental_blocks.thisN'
p569
I0
sg42
g43
sg366
Vdig
p570
sg368
Vhack
p571
sg370
Vclean
p572
sS'experimental_blocks.thisIndex'
p573
g375
sS'word_presentation.thisRepN'
p574
I0
sS'experimental_blocks.thisRepN'
p575
I0
sg44
g49
sg162
g380
sg381
g407
sS'training_block.thisIndex'
p576
g145
sg164
g386
sg20
F4.679377836850108
sS'experimental_blocks.thisTrialN'
p577
I0
sS'training_block.thisN'
p578
I1
sS'word_presentation.thisN'
p579
I9
sS'training_block.thisTrialN'
p580
I0
sg19
S'space'
p581
sg28
g29
sS'word_presentation.thisTrialN'
p582
I9
sg41
g12
sS'word_presentation.thisIndex'
p583
g31
(g131
S'\t\x00\x00\x00'
p584
tp585
Rp586
sa(dp587
S'training_block.thisRepN'
p588
I1
sg163
g362
sg30
g40
sg363
Vtiptoe
p589
sS'experimental_blocks.thisN'
p590
I0
sg42
g43
sg366
Vstagger
p591
sg368
Vglide
p592
sg370
Vsneak
p593
sS'experimental_blocks.thisIndex'
p594
g375
sS'word_presentation.thisRepN'
p595
I0
sS'experimental_blocks.thisRepN'
p596
I0
sg44
g49
sg162
g380
sg381
g382
sS'training_block.thisIndex'
p597
g145
sg164
g386
sg20
F10.196552634241016
sS'experimental_blocks.thisTrialN'
p598
I0
sS'training_block.thisN'
p599
I1
sS'word_presentation.thisN'
p600
I10
sS'training_block.thisTrialN'
p601
I0
sg19
S'space'
p602
sg28
g29
sS'word_presentation.thisTrialN'
p603
I10
sg41
g12
sS'word_presentation.thisIndex'
p604
g31
(g131
S'\n\x00\x00\x00'
p605
tp606
Rp607
sa(dp608
S'training_block.thisRepN'
p609
I1
sg163
g362
sg30
g40
sg363
Vpace
p610
sS'experimental_blocks.thisN'
p611
I0
sg42
g43
sg366
Vcreep
p612
sg368
Vrun
p613
sg370
Vleap
p614
sS'experimental_blocks.thisIndex'
p615
g375
sS'word_presentation.thisRepN'
p616
I0
sS'experimental_blocks.thisRepN'
p617
I0
sg44
g49
sg162
g380
sg381
g382
sS'training_block.thisIndex'
p618
g145
sg164
g386
sg20
F19.26999742391854
sS'experimental_blocks.thisTrialN'
p619
I0
sS'training_block.thisN'
p620
I1
sS'word_presentation.thisN'
p621
I11
sS'training_block.thisTrialN'
p622
I0
sg19
S'space'
p623
sg28
g29
sS'word_presentation.thisTrialN'
p624
I11
sg41
g12
sS'word_presentation.thisIndex'
p625
g31
(g131
S'\x0b\x00\x00\x00'
p626
tp627
Rp628
sa(dp629
S'training_block.thisRepN'
p630
I1
sg163
g362
sg30
g40
sg363
Vpat
p631
sS'experimental_blocks.thisN'
p632
I0
sg42
g43
sg366
Vpoke
p633
sg368
Vrub
p634
sg370
Vseize
p635
sS'experimental_blocks.thisIndex'
p636
g375
sS'word_presentation.thisRepN'
p637
I0
sS'experimental_blocks.thisRepN'
p638
I0
sg44
g49
sg162
g380
sg381
g407
sS'training_block.thisIndex'
p639
g145
sg164
g386
sg20
F8.050243068286363
sS'experimental_blocks.thisTrialN'
p640
I0
sS'training_block.thisN'
p641
I1
sS'word_presentation.thisN'
p642
I12
sS'training_block.thisTrialN'
p643
I0
sg19
S'space'
p644
sg28
g29
sS'word_presentation.thisTrialN'
p645
I12
sg41
g12
sS'word_presentation.thisIndex'
p646
g31
(g131
S'\x0c\x00\x00\x00'
p647
tp648
Rp649
sa(dp650
S'training_block.thisRepN'
p651
I1
sg163
g362
sg30
g40
sg363
Vfold
p652
sS'experimental_blocks.thisN'
p653
I0
sg42
g43
sg366
Vclaw
p654
sg368
Vwash
p655
sg370
Vsnatch
p656
sS'experimental_blocks.thisIndex'
p657
g375
sS'word_presentation.thisRepN'
p658
I0
sS'experimental_blocks.thisRepN'
p659
I0
sg44
g49
sg162
g380
sg381
g407
sS'training_block.thisIndex'
p660
g145
sg164
g386
sg20
F12.763004469423322
sS'experimental_blocks.thisTrialN'
p661
I0
sS'training_block.thisN'
p662
I1
sS'word_presentation.thisN'
p663
I13
sS'training_block.thisTrialN'
p664
I0
sg19
S'space'
p665
sg28
g29
sS'word_presentation.thisTrialN'
p666
I13
sg41
g12
sS'word_presentation.thisIndex'
p667
g31
(g131
S'\r\x00\x00\x00'
p668
tp669
Rp670
sa(dp671
S'training_block.thisRepN'
p672
I1
sg163
g362
sg30
g40
sg363
Vwrap
p673
sS'experimental_blocks.thisN'
p674
I0
sg42
g43
sg366
Vdelve
p675
sg368
Vstir
p676
sg370
Vbraid
p677
sS'experimental_blocks.thisIndex'
p678
g375
sS'word_presentation.thisRepN'
p679
I0
sS'experimental_blocks.thisRepN'
p680
I0
sg44
g49
sg162
g380
sg381
g407
sS'training_block.thisIndex'
p681
g145
sg164
g386
sg20
F7.245867602063299
sS'experimental_blocks.thisTrialN'
p682
I0
sS'training_block.thisN'
p683
I1
sS'word_presentation.thisN'
p684
I14
sS'training_block.thisTrialN'
p685
I0
sg19
S'space'
p686
sg28
g29
sS'word_presentation.thisTrialN'
p687
I14
sg41
g12
sS'word_presentation.thisIndex'
p688
g31
(g131
S'\x0e\x00\x00\x00'
p689
tp690
Rp691
sa(dp692
S'training_block.thisRepN'
p693
I1
sg163
g362
sg30
g40
sg363
Vstumble
p694
sS'experimental_blocks.thisN'
p695
I0
sg42
g43
sg366
Vskip
p696
sg368
Vstroll
p697
sg370
Vslip
p698
sS'experimental_blocks.thisIndex'
p699
g375
sS'word_presentation.thisRepN'
p700
I0
sS'experimental_blocks.thisRepN'
p701
I0
sg44
g49
sg162
g380
sg381
g382
sS'training_block.thisIndex'
p702
g145
sg164
g386
sg20
F14.891869381614015
sS'experimental_blocks.thisTrialN'
p703
I0
sS'training_block.thisN'
p704
I1
sS'word_presentation.thisN'
p705
I15
sS'training_block.thisTrialN'
p706
I0
sg19
S'space'
p707
sg28
g29
sS'word_presentation.thisTrialN'
p708
I15
sg41
g12
sS'word_presentation.thisIndex'
p709
g31
(g131
S'\x0f\x00\x00\x00'
p710
tp711
Rp712
sa(dp713
S'training_block.thisRepN'
p714
I1
sg163
g362
sg30
g40
sg363
Vcatch
p715
sS'experimental_blocks.thisN'
p716
I0
sg42
g43
sg366
Vwhip
p717
sg368
Vpolish
p718
sg370
Vsqueeze
p719
sS'experimental_blocks.thisIndex'
p720
g375
sS'word_presentation.thisRepN'
p721
I0
sS'experimental_blocks.thisRepN'
p722
I0
sg44
g49
sg162
g380
sg381
g407
sS'training_block.thisIndex'
p723
g145
sg164
g386
sg20
F7.278301730242674
sS'experimental_blocks.thisTrialN'
p724
I0
sS'training_block.thisN'
p725
I1
sS'word_presentation.thisN'
p726
I16
sS'training_block.thisTrialN'
p727
I0
sg19
S'space'
p728
sg28
g29
sS'word_presentation.thisTrialN'
p729
I16
sg41
g12
sS'word_presentation.thisIndex'
p730
g31
(g131
S'\x10\x00\x00\x00'
p731
tp732
Rp733
sa(dp734
S'training_block.thisRepN'
p735
I1
sg163
g362
sg30
g40
sg363
Vwalk
p736
sS'experimental_blocks.thisN'
p737
I0
sg42
g43
sg366
Vslide
p738
sg368
Vjump
p739
sg370
Vmount
p740
sS'experimental_blocks.thisIndex'
p741
g375
sS'word_presentation.thisRepN'
p742
I0
sS'experimental_blocks.thisRepN'
p743
I0
sg44
g49
sg162
g380
sg381
g382
sS'training_block.thisIndex'
p744
g145
sg164
g386
sg20
F9.693528504418282
sS'experimental_blocks.thisTrialN'
p745
I0
sS'training_block.thisN'
p746
I1
sS'word_presentation.thisN'
p747
I17
sS'training_block.thisTrialN'
p748
I0
sg19
S'space'
p749
sg28
g29
sS'word_presentation.thisTrialN'
p750
I17
sg41
g12
sS'word_presentation.thisIndex'
p751
g31
(g131
S'\x11\x00\x00\x00'
p752
tp753
Rp754
sa(dp755
S'training_block.thisRepN'
p756
I1
sg163
g362
sg30
g40
sg363
Vstrut
p757
sS'experimental_blocks.thisN'
p758
I0
sg42
g43
sg366
Vhike
p759
sg368
Vprance
p760
sg370
Vstamp
p761
sS'experimental_blocks.thisIndex'
p762
g375
sS'word_presentation.thisRepN'
p763
I0
sS'experimental_blocks.thisRepN'
p764
I0
sg44
g49
sg162
g380
sg381
g382
sS'training_block.thisIndex'
p765
g145
sg164
g386
sg20
F9.090117409252343
sS'experimental_blocks.thisTrialN'
p766
I0
sS'training_block.thisN'
p767
I1
sS'word_presentation.thisN'
p768
I18
sS'training_block.thisTrialN'
p769
I0
sg19
S'space'
p770
sg28
g29
sS'word_presentation.thisTrialN'
p771
I18
sg41
g12
sS'word_presentation.thisIndex'
p772
g31
(g131
S'\x12\x00\x00\x00'
p773
tp774
Rp775
sa(dp776
S'training_block.thisRepN'
p777
I1
sg163
g362
sg30
g40
sg363
Vroam
p778
sS'experimental_blocks.thisN'
p779
I0
sg42
g43
sg366
Vskate
p780
sg368
Vtread
p781
sg370
Vsway
p782
sS'experimental_blocks.thisIndex'
p783
g375
sS'word_presentation.thisRepN'
p784
I0
sS'experimental_blocks.thisRepN'
p785
I0
sg44
g49
sg162
g380
sg381
g382
sS'training_block.thisIndex'
p786
g145
sg164
g386
sg20
F6.037579178941087
sS'experimental_blocks.thisTrialN'
p787
I0
sS'training_block.thisN'
p788
I1
sS'word_presentation.thisN'
p789
I19
sS'training_block.thisTrialN'
p790
I0
sg19
S'space'
p791
sg28
g29
sS'word_presentation.thisTrialN'
p792
I19
sg41
g12
sS'word_presentation.thisIndex'
p793
g31
(g131
S'\x13\x00\x00\x00'
p794
tp795
Rp796
sa(dp797
S'training_block.thisRepN'
p798
I1
sg163
g362
sg30
g40
sg363
Vgrab
p799
sS'experimental_blocks.thisN'
p800
I0
sg42
g43
sg366
Vscratch
p801
sg368
Vclutch
p802
sg370
Vgrip
p803
sS'experimental_blocks.thisIndex'
p804
g375
sS'word_presentation.thisRepN'
p805
I0
sS'experimental_blocks.thisRepN'
p806
I0
sg44
g49
sg162
g380
sg381
g407
sS'training_block.thisIndex'
p807
g145
sg164
g386
sg20
F11.72330713527117
sS'experimental_blocks.thisTrialN'
p808
I0
sS'training_block.thisN'
p809
I1
sS'word_presentation.thisN'
p810
I20
sS'training_block.thisTrialN'
p811
I0
sg19
S'space'
p812
sg28
g29
sS'word_presentation.thisTrialN'
p813
I20
sg41
g12
sS'word_presentation.thisIndex'
p814
g31
(g131
S'\x14\x00\x00\x00'
p815
tp816
Rp817
sa(dp818
S'training_block.thisRepN'
p819
I1
sg163
g362
sg30
g40
sg363
Vkick
p820
sS'experimental_blocks.thisN'
p821
I0
sg42
g43
sg366
Vscuff
p822
sg368
Vtrek
p823
sg370
Vcrawl
p824
sS'experimental_blocks.thisIndex'
p825
g375
sS'word_presentation.thisRepN'
p826
I0
sS'experimental_blocks.thisRepN'
p827
I0
sg44
g49
sg162
g380
sg381
g382
sS'training_block.thisIndex'
p828
g145
sg164
g386
sg20
F31.294765339536752
sS'experimental_blocks.thisTrialN'
p829
I0
sS'training_block.thisN'
p830
I1
sS'word_presentation.thisN'
p831
I21
sS'training_block.thisTrialN'
p832
I0
sg19
S'space'
p833
sg28
g29
sS'word_presentation.thisTrialN'
p834
I21
sg41
g12
sS'word_presentation.thisIndex'
p835
g31
(g131
S'\x15\x00\x00\x00'
p836
tp837
Rp838
sa(dp839
S'training_block.thisRepN'
p840
I1
sg163
g362
sg30
g40
sg363
Vsprint
p841
sS'experimental_blocks.thisN'
p842
I0
sg42
g43
sg366
Vtraipse
p843
sg368
Vstep
p844
sg370
Vslither
p845
sS'experimental_blocks.thisIndex'
p846
g375
sS'word_presentation.thisRepN'
p847
I0
sS'experimental_blocks.thisRepN'
p848
I0
sg44
g49
sg162
g380
sg381
g382
sS'training_block.thisIndex'
p849
g145
sg164
g386
sg20
F8.535973869369627
sS'experimental_blocks.thisTrialN'
p850
I0
sS'training_block.thisN'
p851
I1
sS'word_presentation.thisN'
p852
I22
sS'training_block.thisTrialN'
p853
I0
sg19
S'space'
p854
sg28
g29
sS'word_presentation.thisTrialN'
p855
I22
sg41
g12
sS'word_presentation.thisIndex'
p856
g31
(g131
S'\x16\x00\x00\x00'
p857
tp858
Rp859
sa(dp860
S'training_block.thisRepN'
p861
I1
sg163
g362
sg30
g40
sg363
Vtrudge
p862
sS'experimental_blocks.thisN'
p863
I0
sg42
g43
sg366
Vwander
p864
sg368
Vjog
p865
sg370
Vtrip
p866
sS'experimental_blocks.thisIndex'
p867
g375
sS'word_presentation.thisRepN'
p868
I0
sS'experimental_blocks.thisRepN'
p869
I0
sg44
g49
sg162
g380
sg381
g382
sS'training_block.thisIndex'
p870
g145
sg164
g386
sg20
F8.05037582339719
sS'experimental_blocks.thisTrialN'
p871
I0
sS'training_block.thisN'
p872
I1
sS'word_presentation.thisN'
p873
I23
sS'training_block.thisTrialN'
p874
I0
sg19
S'space'
p875
sg28
g29
sS'word_presentation.thisTrialN'
p876
I23
sg41
g12
sS'word_presentation.thisIndex'
p877
g31
(g131
S'\x17\x00\x00\x00'
p878
tp879
Rp880
sa(dp881
S'training_block.thisRepN'
p882
I1
sg163
g362
sg30
g40
sg363
Vscrub
p883
sS'experimental_blocks.thisN'
p884
I0
sg42
g43
sg366
Vtoss
p885
sg368
Vtug
p886
sg370
Vpeel
p887
sS'experimental_blocks.thisIndex'
p888
g375
sS'word_presentation.thisRepN'
p889
I0
sS'experimental_blocks.thisRepN'
p890
I0
sg44
g49
sg162
g380
sg381
g407
sS'training_block.thisIndex'
p891
g145
sg164
g386
sg20
F9.123074655784876
sS'experimental_blocks.thisTrialN'
p892
I0
sS'training_block.thisN'
p893
I1
sS'word_presentation.thisN'
p894
I24
sS'training_block.thisTrialN'
p895
I0
sg19
S'space'
p896
sg28
g29
sS'word_presentation.thisTrialN'
p897
I24
sg41
g12
sS'word_presentation.thisIndex'
p898
g31
(g131
S'\x18\x00\x00\x00'
p899
tp900
Rp901
sa(dp902
S'training_block.thisRepN'
p903
I1
sg163
g362
sg30
g40
sg363
Vflee
p904
sS'experimental_blocks.thisN'
p905
I0
sg42
g43
sg366
Vmarch
p906
sg368
Vramble
p907
sg370
Vstride
p908
sS'experimental_blocks.thisIndex'
p909
g375
sS'word_presentation.thisRepN'
p910
I0
sS'experimental_blocks.thisRepN'
p911
I0
sg44
g49
sg162
g380
sg381
g382
sS'training_block.thisIndex'
p912
g145
sg164
g386
sg20
F6.054485700378791
sS'experimental_blocks.thisTrialN'
p913
I0
sS'training_block.thisN'
p914
I1
sS'word_presentation.thisN'
p915
I25
sS'training_block.thisTrialN'
p916
I0
sg19
S'space'
p917
sg28
g29
sS'word_presentation.thisTrialN'
p918
I25
sg41
g12
sS'word_presentation.thisIndex'
p919
g31
(g131
S'\x19\x00\x00\x00'
p920
tp921
Rp922
sa(dp923
S'training_block.thisRepN'
p924
I1
sg163
g362
sg30
g40
sg363
Vplod
p925
sS'experimental_blocks.thisN'
p926
I0
sg42
g43
sg366
Vstray
p927
sg368
Vinch
p928
sg370
Vwade
p929
sS'experimental_blocks.thisIndex'
p930
g375
sS'word_presentation.thisRepN'
p931
I0
sS'experimental_blocks.thisRepN'
p932
I0
sg44
g49
sg162
g380
sg381
g382
sS'training_block.thisIndex'
p933
g145
sg164
g386
sg20
F13.51759913962087
sS'experimental_blocks.thisTrialN'
p934
I0
sS'training_block.thisN'
p935
I1
sS'word_presentation.thisN'
p936
I26
sS'training_block.thisTrialN'
p937
I0
sg19
S'space'
p938
sg28
g29
sS'word_presentation.thisTrialN'
p939
I26
sg41
g12
sS'word_presentation.thisIndex'
p940
g31
(g131
S'\x1a\x00\x00\x00'
p941
tp942
Rp943
sa(dp944
S'training_block.thisRepN'
p945
I1
sg163
g362
sg30
g40
sg363
Vscrape
p946
sS'experimental_blocks.thisN'
p947
I0
sg42
g43
sg366
Vshake
p948
sg368
Vlift
p949
sg370
Vbash
p950
sS'experimental_blocks.thisIndex'
p951
g375
sS'word_presentation.thisRepN'
p952
I0
sS'experimental_blocks.thisRepN'
p953
I0
sg44
g49
sg162
g380
sg381
g407
sS'training_block.thisIndex'
p954
g145
sg164
g386
sg20
F5.333248912671479
sS'experimental_blocks.thisTrialN'
p955
I0
sS'training_block.thisN'
p956
I1
sS'word_presentation.thisN'
p957
I27
sS'training_block.thisTrialN'
p958
I0
sg19
S'space'
p959
sg28
g29
sS'word_presentation.thisTrialN'
p960
I27
sg41
g12
sS'word_presentation.thisIndex'
p961
g31
(g131
S'\x1b\x00\x00\x00'
p962
tp963
Rp964
sa(dp965
S'training_block.thisRepN'
p966
I1
sg163
g362
sS'experimental_blocks.thisRepN'
p967
I0
sS'experimental_blocks.thisTrialN'
p968
I0
sS'training_block.thisN'
p969
I1
sg42
g43
sg41
g12
sg30
g40
sS'training_block.thisTrialN'
p970
I0
sg44
g49
sS'experimental_blocks.thisN'
p971
I0
sg164
g386
sg28
g29
sS'experimental_blocks.thisIndex'
p972
g375
sg162
g380
sS'training_block.thisIndex'
p973
g145
sa(dp974
S'training_block.thisRepN'
p975
I1
sg163
g31
(g35
S'\x9a\x99\x99\x99\x99\x99\xd9?'
p976
tp977
Rp978
sg30
g40
sS'word4'
p979
Vflee
p980
sS'experimental_blocks.thisN'
p981
I1
sg42
g43
sS'word1'
p982
Vhike
p983
sS'word3'
p984
Vstomp
p985
sS'word2'
p986
Vstep
p987
sS'experimental_blocks.thisIndex'
p988
g31
(g131
S'\x03\x00\x00\x00'
p989
tp990
Rp991
sS'word_presentation.thisRepN'
p992
I0
sS'experimental_blocks.thisRepN'
p993
I0
sg44
g49
sg162
g31
(g35
S'\x9a\x99\x99\x99\x99\x99\xd9?'
p994
tp995
Rp996
sS'type'
p997
Vleg
p998
sS'training_block.thisIndex'
p999
g145
sg164
g31
(g35
S'\x9a\x99\x99\x99\x99\x99\xe9?'
p1000
tp1001
Rp1002
sg20
F10.465527922824549
sS'experimental_blocks.thisTrialN'
p1003
I1
sS'training_block.thisN'
p1004
I1
sS'word_presentation.thisN'
p1005
I0
sS'training_block.thisTrialN'
p1006
I0
sg19
S'space'
p1007
sg28
g29
sS'word_presentation.thisTrialN'
p1008
I0
sg41
g12
sS'word_presentation.thisIndex'
p1009
g31
(g131
S'\x00\x00\x00\x00'
p1010
tp1011
Rp1012
sa(dp1013
S'training_block.thisRepN'
p1014
I1
sg163
g978
sg30
g40
sg979
Vpat
p1015
sS'experimental_blocks.thisN'
p1016
I1
sg42
g43
sg982
Vgrab
p1017
sg984
Vwipe
p1018
sg986
Vwhip
p1019
sS'experimental_blocks.thisIndex'
p1020
g991
sS'word_presentation.thisRepN'
p1021
I0
sS'experimental_blocks.thisRepN'
p1022
I0
sg44
g49
sg162
g996
sg997
Varm
p1023
sS'training_block.thisIndex'
p1024
g145
sg164
g1002
sg20
F7.228618525026832
sS'experimental_blocks.thisTrialN'
p1025
I1
sS'training_block.thisN'
p1026
I1
sS'word_presentation.thisN'
p1027
I1
sS'training_block.thisTrialN'
p1028
I0
sg19
S'space'
p1029
sg28
g29
sS'word_presentation.thisTrialN'
p1030
I1
sg41
g12
sS'word_presentation.thisIndex'
p1031
g31
(g131
S'\x01\x00\x00\x00'
p1032
tp1033
Rp1034
sa(dp1035
S'training_block.thisRepN'
p1036
I1
sg163
g978
sg30
g40
sg979
Vwade
p1037
sS'experimental_blocks.thisN'
p1038
I1
sg42
g43
sg982
Vlimp
p1039
sg984
Vwobble
p1040
sg986
Vinch
p1041
sS'experimental_blocks.thisIndex'
p1042
g991
sS'word_presentation.thisRepN'
p1043
I0
sS'experimental_blocks.thisRepN'
p1044
I0
sg44
g49
sg162
g996
sg997
g998
sS'training_block.thisIndex'
p1045
g145
sg164
g1002
sg20
F11.38787566535575
sS'experimental_blocks.thisTrialN'
p1046
I1
sS'training_block.thisN'
p1047
I1
sS'word_presentation.thisN'
p1048
I2
sS'training_block.thisTrialN'
p1049
I0
sg19
S'space'
p1050
sg28
g29
sS'word_presentation.thisTrialN'
p1051
I2
sg41
g12
sS'word_presentation.thisIndex'
p1052
g31
(g131
S'\x02\x00\x00\x00'
p1053
tp1054
Rp1055
sa(dp1056
S'training_block.thisRepN'
p1057
I1
sg163
g978
sg30
g40
sg979
Vjog
p1058
sS'experimental_blocks.thisN'
p1059
I1
sg42
g43
sg982
Vstamp
p1060
sg984
Vrun
p1061
sg986
Vclimb
p1062
sS'experimental_blocks.thisIndex'
p1063
g991
sS'word_presentation.thisRepN'
p1064
I0
sS'experimental_blocks.thisRepN'
p1065
I0
sg44
g49
sg162
g996
sg997
g998
sS'training_block.thisIndex'
p1066
g145
sg164
g1002
sg20
F17.827648306423725
sS'experimental_blocks.thisTrialN'
p1067
I1
sS'training_block.thisN'
p1068
I1
sS'word_presentation.thisN'
p1069
I3
sS'training_block.thisTrialN'
p1070
I0
sg19
S'space'
p1071
sg28
g29
sS'word_presentation.thisTrialN'
p1072
I3
sg41
g12
sS'word_presentation.thisIndex'
p1073
g31
(g131
S'\x03\x00\x00\x00'
p1074
tp1075
Rp1076
sa(dp1077
S'training_block.thisRepN'
p1078
I1
sg163
g978
sg30
g40
sg979
Vwash
p1079
sS'experimental_blocks.thisN'
p1080
I1
sg42
g43
sg982
Vfold
p1081
sg984
Vsnatch
p1082
sg986
Vwrap
p1083
sS'experimental_blocks.thisIndex'
p1084
g991
sS'word_presentation.thisRepN'
p1085
I0
sS'experimental_blocks.thisRepN'
p1086
I0
sg44
g49
sg162
g996
sg997
g1023
sS'training_block.thisIndex'
p1087
g145
sg164
g1002
sg20
F7.262270365265067
sS'experimental_blocks.thisTrialN'
p1088
I1
sS'training_block.thisN'
p1089
I1
sS'word_presentation.thisN'
p1090
I4
sS'training_block.thisTrialN'
p1091
I0
sg19
S'space'
p1092
sg28
g29
sS'word_presentation.thisTrialN'
p1093
I4
sg41
g12
sS'word_presentation.thisIndex'
p1094
g31
(g131
S'\x04\x00\x00\x00'
p1095
tp1096
Rp1097
sa(dp1098
S'training_block.thisRepN'
p1099
I1
sg163
g978
sg30
g40
sg979
Vslide
p1100
sS'experimental_blocks.thisN'
p1101
I1
sg42
g43
sg982
Vtrudge
p1102
sg984
Vcreep
p1103
sg986
Vstroll
p1104
sS'experimental_blocks.thisIndex'
p1105
g991
sS'word_presentation.thisRepN'
p1106
I0
sS'experimental_blocks.thisRepN'
p1107
I0
sg44
g49
sg162
g996
sg997
g998
sS'training_block.thisIndex'
p1108
g145
sg164
g1002
sg20
F14.17227227757212
sS'experimental_blocks.thisTrialN'
p1109
I1
sS'training_block.thisN'
p1110
I1
sS'word_presentation.thisN'
p1111
I5
sS'training_block.thisTrialN'
p1112
I0
sg19
S'space'
p1113
sg28
g29
sS'word_presentation.thisTrialN'
p1114
I5
sg41
g12
sS'word_presentation.thisIndex'
p1115
g31
(g131
S'\x05\x00\x00\x00'
p1116
tp1117
Rp1118
sa(dp1119
S'training_block.thisRepN'
p1120
I1
sg163
g978
sg30
g40
sg979
Vsqueeze
p1121
sS'experimental_blocks.thisN'
p1122
I1
sg42
g43
sg982
Vtwine
p1123
sg984
Vscratch
p1124
sg986
Vbrush
p1125
sS'experimental_blocks.thisIndex'
p1126
g991
sS'word_presentation.thisRepN'
p1127
I0
sS'experimental_blocks.thisRepN'
p1128
I0
sg44
g49
sg162
g996
sg997
g1023
sS'training_block.thisIndex'
p1129
g145
sg164
g1002
sg20
F8.218004042710163
sS'experimental_blocks.thisTrialN'
p1130
I1
sS'training_block.thisN'
p1131
I1
sS'word_presentation.thisN'
p1132
I6
sS'training_block.thisTrialN'
p1133
I0
sg19
S'space'
p1134
sg28
g29
sS'word_presentation.thisTrialN'
p1135
I6
sg41
g12
sS'word_presentation.thisIndex'
p1136
g31
(g131
S'\x06\x00\x00\x00'
p1137
tp1138
Rp1139
sa(dp1140
S'training_block.thisRepN'
p1141
I1
sg163
g978
sg30
g40
sg979
Vswitch
p1142
sS'experimental_blocks.thisN'
p1143
I1
sg42
g43
sg982
Vgrasp
p1144
sg984
Vpolish
p1145
sg986
Vpinch
p1146
sS'experimental_blocks.thisIndex'
p1147
g991
sS'word_presentation.thisRepN'
p1148
I0
sS'experimental_blocks.thisRepN'
p1149
I0
sg44
g49
sg162
g996
sg997
g1023
sS'training_block.thisIndex'
p1150
g145
sg164
g1002
sg20
F6.707837213785751
sS'experimental_blocks.thisTrialN'
p1151
I1
sS'training_block.thisN'
p1152
I1
sS'word_presentation.thisN'
p1153
I7
sS'training_block.thisTrialN'
p1154
I0
sg19
S'space'
p1155
sg28
g29
sS'word_presentation.thisTrialN'
p1156
I7
sg41
g12
sS'word_presentation.thisIndex'
p1157
g31
(g131
S'\x07\x00\x00\x00'
p1158
tp1159
Rp1160
sa(dp1161
S'training_block.thisRepN'
p1162
I1
sg163
g978
sg30
g40
sg979
Vdelve
p1163
sS'experimental_blocks.thisN'
p1164
I1
sg42
g43
sg982
Vdig
p1165
sg984
Vpunch
p1166
sg986
Vseize
p1167
sS'experimental_blocks.thisIndex'
p1168
g991
sS'word_presentation.thisRepN'
p1169
I0
sS'experimental_blocks.thisRepN'
p1170
I0
sg44
g49
sg162
g996
sg997
g1023
sS'training_block.thisIndex'
p1171
g145
sg164
g1002
sg20
F9.207453567320044
sS'experimental_blocks.thisTrialN'
p1172
I1
sS'training_block.thisN'
p1173
I1
sS'word_presentation.thisN'
p1174
I8
sS'training_block.thisTrialN'
p1175
I0
sg19
S'space'
p1176
sg28
g29
sS'word_presentation.thisTrialN'
p1177
I8
sg41
g12
sS'word_presentation.thisIndex'
p1178
g31
(g131
S'\x08\x00\x00\x00'
p1179
tp1180
Rp1181
sa(dp1182
S'training_block.thisRepN'
p1183
I1
sg163
g978
sg30
g40
sg979
Vsneak
p1184
sS'experimental_blocks.thisN'
p1185
I1
sg42
g43
sg982
Vstumble
p1186
sg984
Vsway
p1187
sg986
Vskip
p1188
sS'experimental_blocks.thisIndex'
p1189
g991
sS'word_presentation.thisRepN'
p1190
I0
sS'experimental_blocks.thisRepN'
p1191
I0
sg44
g49
sg162
g996
sg997
g998
sS'training_block.thisIndex'
p1192
g145
sg164
g1002
sg20
F5.853371189610698
sS'experimental_blocks.thisTrialN'
p1193
I1
sS'training_block.thisN'
p1194
I1
sS'word_presentation.thisN'
p1195
I9
sS'training_block.thisTrialN'
p1196
I0
sg19
S'space'
p1197
sg28
g29
sS'word_presentation.thisTrialN'
p1198
I9
sg41
g12
sS'word_presentation.thisIndex'
p1199
g31
(g131
S'\t\x00\x00\x00'
p1200
tp1201
Rp1202
sa(dp1203
S'training_block.thisRepN'
p1204
I1
sg163
g978
sg30
g40
sg979
Vstray
p1205
sS'experimental_blocks.thisN'
p1206
I1
sg42
g43
sg982
Vwalk
p1207
sg984
Vtiptoe
p1208
sg986
Vstride
p1209
sS'experimental_blocks.thisIndex'
p1210
g991
sS'word_presentation.thisRepN'
p1211
I0
sS'experimental_blocks.thisRepN'
p1212
I0
sg44
g49
sg162
g996
sg997
g998
sS'training_block.thisIndex'
p1213
g145
sg164
g1002
sg20
F11.018801442605763
sS'experimental_blocks.thisTrialN'
p1214
I1
sS'training_block.thisN'
p1215
I1
sS'word_presentation.thisN'
p1216
I10
sS'training_block.thisTrialN'
p1217
I0
sg19
S'space'
p1218
sg28
g29
sS'word_presentation.thisTrialN'
p1219
I10
sg41
g12
sS'word_presentation.thisIndex'
p1220
g31
(g131
S'\n\x00\x00\x00'
p1221
tp1222
Rp1223
sa(dp1224
S'training_block.thisRepN'
p1225
I1
sg163
g978
sg30
g40
sg979
Vpoke
p1226
sS'experimental_blocks.thisN'
p1227
I1
sg42
g43
sg982
Vpull
p1228
sg984
Vhack
p1229
sg986
Vclick
p1230
sS'experimental_blocks.thisIndex'
p1231
g991
sS'word_presentation.thisRepN'
p1232
I0
sS'experimental_blocks.thisRepN'
p1233
I0
sg44
g49
sg162
g996
sg997
g1023
sS'training_block.thisIndex'
p1234
g145
sg164
g1002
sg20
F6.004761404296005
sS'experimental_blocks.thisTrialN'
p1235
I1
sS'training_block.thisN'
p1236
I1
sS'word_presentation.thisN'
p1237
I11
sS'training_block.thisTrialN'
p1238
I0
sg19
S'space'
p1239
sg28
g29
sS'word_presentation.thisTrialN'
p1240
I11
sg41
g12
sS'word_presentation.thisIndex'
p1241
g31
(g131
S'\x0b\x00\x00\x00'
p1242
tp1243
Rp1244
sa(dp1245
S'training_block.thisRepN'
p1246
I1
sg163
g978
sg30
g40
sg979
Vbash
p1247
sS'experimental_blocks.thisN'
p1248
I1
sg42
g43
sg982
Vgrip
p1249
sg984
Vbind
p1250
sg986
Vrub
p1251
sS'experimental_blocks.thisIndex'
p1252
g991
sS'word_presentation.thisRepN'
p1253
I0
sS'experimental_blocks.thisRepN'
p1254
I0
sg44
g49
sg162
g996
sg997
g1023
sS'training_block.thisIndex'
p1255
g145
sg164
g1002
sg20
F9.693878171898177
sS'experimental_blocks.thisTrialN'
p1256
I1
sS'training_block.thisN'
p1257
I1
sS'word_presentation.thisN'
p1258
I12
sS'training_block.thisTrialN'
p1259
I0
sg19
S'space'
p1260
sg28
g29
sS'word_presentation.thisTrialN'
p1261
I12
sg41
g12
sS'word_presentation.thisIndex'
p1262
g31
(g131
S'\x0c\x00\x00\x00'
p1263
tp1264
Rp1265
sa(dp1266
S'training_block.thisRepN'
p1267
I1
sg163
g978
sg30
g40
sg979
Vtug
p1268
sS'experimental_blocks.thisN'
p1269
I1
sg42
g43
sg982
Vfile
p1270
sg984
Vdunk
p1271
sg986
Vbraid
p1272
sS'experimental_blocks.thisIndex'
p1273
g991
sS'word_presentation.thisRepN'
p1274
I0
sS'experimental_blocks.thisRepN'
p1275
I0
sg44
g49
sg162
g996
sg997
g1023
sS'training_block.thisIndex'
p1276
g145
sg164
g1002
sg20
F5.635273507135935
sS'experimental_blocks.thisTrialN'
p1277
I1
sS'training_block.thisN'
p1278
I1
sS'word_presentation.thisN'
p1279
I13
sS'training_block.thisTrialN'
p1280
I0
sg19
S'space'
p1281
sg28
g29
sS'word_presentation.thisTrialN'
p1282
I13
sg41
g12
sS'word_presentation.thisIndex'
p1283
g31
(g131
S'\r\x00\x00\x00'
p1284
tp1285
Rp1286
sa(dp1287
S'training_block.thisRepN'
p1288
I1
sg163
g978
sg30
g40
sg979
Vflit
p1289
sS'experimental_blocks.thisN'
p1290
I1
sg42
g43
sg982
Vskate
p1291
sg984
Vscuff
p1292
sg986
Vroll
p1293
sS'experimental_blocks.thisIndex'
p1294
g991
sS'word_presentation.thisRepN'
p1295
I0
sS'experimental_blocks.thisRepN'
p1296
I0
sg44
g49
sg162
g996
sg997
g998
sS'training_block.thisIndex'
p1297
g145
sg164
g1002
sg20
F7.362692494911244
sS'experimental_blocks.thisTrialN'
p1298
I1
sS'training_block.thisN'
p1299
I1
sS'word_presentation.thisN'
p1300
I14
sS'training_block.thisTrialN'
p1301
I0
sg19
S'space'
p1302
sg28
g29
sS'word_presentation.thisTrialN'
p1303
I14
sg41
g12
sS'word_presentation.thisIndex'
p1304
g31
(g131
S'\x0e\x00\x00\x00'
p1305
tp1306
Rp1307
sa(dp1308
S'training_block.thisRepN'
p1309
I1
sg163
g978
sg30
g40
sg979
Vpace
p1310
sS'experimental_blocks.thisN'
p1311
I1
sg42
g43
sg982
Vroam
p1312
sg984
Vkick
p1313
sg986
Vplod
p1314
sS'experimental_blocks.thisIndex'
p1315
g991
sS'word_presentation.thisRepN'
p1316
I0
sS'experimental_blocks.thisRepN'
p1317
I0
sg44
g49
sg162
g996
sg997
g998
sS'training_block.thisIndex'
p1318
g145
sg164
g1002
sg20
F12.880261606589556
sS'experimental_blocks.thisTrialN'
p1319
I1
sS'training_block.thisN'
p1320
I1
sS'word_presentation.thisN'
p1321
I15
sS'training_block.thisTrialN'
p1322
I0
sg19
S'space'
p1323
sg28
g29
sS'word_presentation.thisTrialN'
p1324
I15
sg41
g12
sS'word_presentation.thisIndex'
p1325
g31
(g131
S'\x0f\x00\x00\x00'
p1326
tp1327
Rp1328
sa(dp1329
S'training_block.thisRepN'
p1330
I1
sg163
g978
sg30
g40
sg979
Vleap
p1331
sS'experimental_blocks.thisN'
p1332
I1
sg42
g43
sg982
Vrush
p1333
sg984
Vslip
p1334
sg986
Vsprint
p1335
sS'experimental_blocks.thisIndex'
p1336
g991
sS'word_presentation.thisRepN'
p1337
I0
sS'experimental_blocks.thisRepN'
p1338
I0
sg44
g49
sg162
g996
sg997
g998
sS'training_block.thisIndex'
p1339
g145
sg164
g1002
sg20
F16.804882780397747
sS'experimental_blocks.thisTrialN'
p1340
I1
sS'training_block.thisN'
p1341
I1
sS'word_presentation.thisN'
p1342
I16
sS'training_block.thisTrialN'
p1343
I0
sg19
S'space'
p1344
sg28
g29
sS'word_presentation.thisTrialN'
p1345
I16
sg41
g12
sS'word_presentation.thisIndex'
p1346
g31
(g131
S'\x10\x00\x00\x00'
p1347
tp1348
Rp1349
sa(dp1350
S'training_block.thisRepN'
p1351
I1
sg163
g978
sg30
g40
sg979
Vstir
p1352
sS'experimental_blocks.thisN'
p1353
I1
sg42
g43
sg982
Vthrow
p1354
sg984
Vclutch
p1355
sg986
Vpeel
p1356
sS'experimental_blocks.thisIndex'
p1357
g991
sS'word_presentation.thisRepN'
p1358
I0
sS'experimental_blocks.thisRepN'
p1359
I0
sg44
g49
sg162
g996
sg997
g1023
sS'training_block.thisIndex'
p1360
g145
sg164
g1002
sg20
F5.517860303692942
sS'experimental_blocks.thisTrialN'
p1361
I1
sS'training_block.thisN'
p1362
I1
sS'word_presentation.thisN'
p1363
I17
sS'training_block.thisTrialN'
p1364
I0
sg19
S'space'
p1365
sg28
g29
sS'word_presentation.thisTrialN'
p1366
I17
sg41
g12
sS'word_presentation.thisIndex'
p1367
g31
(g131
S'\x11\x00\x00\x00'
p1368
tp1369
Rp1370
sa(dp1371
S'training_block.thisRepN'
p1372
I1
sg163
g978
sg30
g40
sg979
Vjump
p1373
sS'experimental_blocks.thisN'
p1374
I1
sg42
g43
sg982
Vtraipse
p1375
sg984
Vstagger
p1376
sg986
Vmarch
p1377
sS'experimental_blocks.thisIndex'
p1378
g991
sS'word_presentation.thisRepN'
p1379
I0
sS'experimental_blocks.thisRepN'
p1380
I0
sg44
g49
sg162
g996
sg997
g998
sS'training_block.thisIndex'
p1381
g145
sg164
g1002
sg20
F8.67075902734723
sS'experimental_blocks.thisTrialN'
p1382
I1
sS'training_block.thisN'
p1383
I1
sS'word_presentation.thisN'
p1384
I18
sS'training_block.thisTrialN'
p1385
I0
sg19
S'space'
p1386
sg28
g29
sS'word_presentation.thisTrialN'
p1387
I18
sg41
g12
sS'word_presentation.thisIndex'
p1388
g31
(g131
S'\x12\x00\x00\x00'
p1389
tp1390
Rp1391
sa(dp1392
S'training_block.thisRepN'
p1393
I1
sg163
g978
sg30
g40
sg979
Vtread
p1394
sS'experimental_blocks.thisN'
p1395
I1
sg42
g43
sg982
Vbounce
p1396
sg984
Vkneel
p1397
sg986
Vmount
p1398
sS'experimental_blocks.thisIndex'
p1399
g991
sS'word_presentation.thisRepN'
p1400
I0
sS'experimental_blocks.thisRepN'
p1401
I0
sg44
g49
sg162
g996
sg997
g998
sS'training_block.thisIndex'
p1402
g145
sg164
g1002
sg20
F9.10775131806804
sS'experimental_blocks.thisTrialN'
p1403
I1
sS'training_block.thisN'
p1404
I1
sS'word_presentation.thisN'
p1405
I19
sS'training_block.thisTrialN'
p1406
I0
sg19
S'space'
p1407
sg28
g29
sS'word_presentation.thisTrialN'
p1408
I19
sg41
g12
sS'word_presentation.thisIndex'
p1409
g31
(g131
S'\x13\x00\x00\x00'
p1410
tp1411
Rp1412
sa(dp1413
S'training_block.thisRepN'
p1414
I1
sg163
g978
sg30
g40
sg979
Vnip
p1415
sS'experimental_blocks.thisN'
p1416
I1
sg42
g43
sg982
Vcatch
p1417
sg984
Vclean
p1418
sg986
Vshake
p1419
sS'experimental_blocks.thisIndex'
p1420
g991
sS'word_presentation.thisRepN'
p1421
I0
sS'experimental_blocks.thisRepN'
p1422
I0
sg44
g49
sg162
g996
sg997
g1023
sS'training_block.thisIndex'
p1423
g145
sg164
g1002
sg20
F13.232505958176262
sS'experimental_blocks.thisTrialN'
p1424
I1
sS'training_block.thisN'
p1425
I1
sS'word_presentation.thisN'
p1426
I20
sS'training_block.thisTrialN'
p1427
I0
sg19
S'space'
p1428
sg28
g29
sS'word_presentation.thisTrialN'
p1429
I20
sg41
g12
sS'word_presentation.thisIndex'
p1430
g31
(g131
S'\x14\x00\x00\x00'
p1431
tp1432
Rp1433
sa(dp1434
S'training_block.thisRepN'
p1435
I1
sg163
g978
sg30
g40
sg979
Vscoop
p1436
sS'experimental_blocks.thisN'
p1437
I1
sg42
g43
sg982
Vcarve
p1438
sg984
Vknock
p1439
sg986
Vclap
p1440
sS'experimental_blocks.thisIndex'
p1441
g991
sS'word_presentation.thisRepN'
p1442
I0
sS'experimental_blocks.thisRepN'
p1443
I0
sg44
g49
sg162
g996
sg997
g1023
sS'training_block.thisIndex'
p1444
g145
sg164
g1002
sg20
F6.994313260971467
sS'experimental_blocks.thisTrialN'
p1445
I1
sS'training_block.thisN'
p1446
I1
sS'word_presentation.thisN'
p1447
I21
sS'training_block.thisTrialN'
p1448
I0
sg19
S'space'
p1449
sg28
g29
sS'word_presentation.thisTrialN'
p1450
I21
sg41
g12
sS'word_presentation.thisIndex'
p1451
g31
(g131
S'\x15\x00\x00\x00'
p1452
tp1453
Rp1454
sa(dp1455
S'training_block.thisRepN'
p1456
I1
sg163
g978
sg30
g40
sg979
Vgrate
p1457
sS'experimental_blocks.thisN'
p1458
I1
sg42
g43
sg982
Vscrub
p1459
sg984
Vclaw
p1460
sg986
Vpush
p1461
sS'experimental_blocks.thisIndex'
p1462
g991
sS'word_presentation.thisRepN'
p1463
I0
sS'experimental_blocks.thisRepN'
p1464
I0
sg44
g49
sg162
g996
sg997
g1023
sS'training_block.thisIndex'
p1465
g145
sg164
g1002
sg20
F11.186376717914754
sS'experimental_blocks.thisTrialN'
p1466
I1
sS'training_block.thisN'
p1467
I1
sS'word_presentation.thisN'
p1468
I22
sS'training_block.thisTrialN'
p1469
I0
sg19
S'space'
p1470
sg28
g29
sS'word_presentation.thisTrialN'
p1471
I22
sg41
g12
sS'word_presentation.thisIndex'
p1472
g31
(g131
S'\x16\x00\x00\x00'
p1473
tp1474
Rp1475
sa(dp1476
S'training_block.thisRepN'
p1477
I1
sg163
g978
sg30
g40
sg979
Vprance
p1478
sS'experimental_blocks.thisN'
p1479
I1
sg42
g43
sg982
Vwander
p1480
sg984
Vstrut
p1481
sg986
Vramble
p1482
sS'experimental_blocks.thisIndex'
p1483
g991
sS'word_presentation.thisRepN'
p1484
I0
sS'experimental_blocks.thisRepN'
p1485
I0
sg44
g49
sg162
g996
sg997
g998
sS'training_block.thisIndex'
p1486
g145
sg164
g1002
sg20
F7.413456706028228
sS'experimental_blocks.thisTrialN'
p1487
I1
sS'training_block.thisN'
p1488
I1
sS'word_presentation.thisN'
p1489
I23
sS'training_block.thisTrialN'
p1490
I0
sg19
S'space'
p1491
sg28
g29
sS'word_presentation.thisTrialN'
p1492
I23
sg41
g12
sS'word_presentation.thisIndex'
p1493
g31
(g131
S'\x17\x00\x00\x00'
p1494
tp1495
Rp1496
sa(dp1497
S'training_block.thisRepN'
p1498
I1
sg163
g978
sg30
g40
sg979
Vtrip
p1499
sS'experimental_blocks.thisN'
p1500
I1
sg42
g43
sg982
Vtrot
p1501
sg984
Vdance
p1502
sg986
Vslither
p1503
sS'experimental_blocks.thisIndex'
p1504
g991
sS'word_presentation.thisRepN'
p1505
I0
sS'experimental_blocks.thisRepN'
p1506
I0
sg44
g49
sg162
g996
sg997
g998
sS'training_block.thisIndex'
p1507
g145
sg164
g1002
sg20
F5.652025937821236
sS'experimental_blocks.thisTrialN'
p1508
I1
sS'training_block.thisN'
p1509
I1
sS'word_presentation.thisN'
p1510
I24
sS'training_block.thisTrialN'
p1511
I0
sg19
S'space'
p1512
sg28
g29
sS'word_presentation.thisTrialN'
p1513
I24
sg41
g12
sS'word_presentation.thisIndex'
p1514
g31
(g131
S'\x18\x00\x00\x00'
p1515
tp1516
Rp1517
sa(dp1518
S'training_block.thisRepN'
p1519
I1
sg163
g978
sg30
g40
sg979
Vskim
p1520
sS'experimental_blocks.thisN'
p1521
I1
sg42
g43
sg982
Vcut
p1522
sg984
Vchop
p1523
sg986
Vstab
p1524
sS'experimental_blocks.thisIndex'
p1525
g991
sS'word_presentation.thisRepN'
p1526
I0
sS'experimental_blocks.thisRepN'
p1527
I0
sg44
g49
sg162
g996
sg997
g1023
sS'training_block.thisIndex'
p1528
g145
sg164
g1002
sg20
F10.079737619005755
sS'experimental_blocks.thisTrialN'
p1529
I1
sS'training_block.thisN'
p1530
I1
sS'word_presentation.thisN'
p1531
I25
sS'training_block.thisTrialN'
p1532
I0
sg19
S'space'
p1533
sg28
g29
sS'word_presentation.thisTrialN'
p1534
I25
sg41
g12
sS'word_presentation.thisIndex'
p1535
g31
(g131
S'\x19\x00\x00\x00'
p1536
tp1537
Rp1538
sa(dp1539
S'training_block.thisRepN'
p1540
I1
sg163
g978
sg30
g40
sg979
Vglide
p1541
sS'experimental_blocks.thisN'
p1542
I1
sg42
g43
sg982
Vcrawl
p1543
sg984
Vtrek
p1544
sg986
Vhop
p1545
sS'experimental_blocks.thisIndex'
p1546
g991
sS'word_presentation.thisRepN'
p1547
I0
sS'experimental_blocks.thisRepN'
p1548
I0
sg44
g49
sg162
g996
sg997
g998
sS'training_block.thisIndex'
p1549
g145
sg164
g1002
sg20
F7.027383902493966
sS'experimental_blocks.thisTrialN'
p1550
I1
sS'training_block.thisN'
p1551
I1
sS'word_presentation.thisN'
p1552
I26
sS'training_block.thisTrialN'
p1553
I0
sg19
S'space'
p1554
sg28
g29
sS'word_presentation.thisTrialN'
p1555
I26
sg41
g12
sS'word_presentation.thisIndex'
p1556
g31
(g131
S'\x1a\x00\x00\x00'
p1557
tp1558
Rp1559
sa(dp1560
S'training_block.thisRepN'
p1561
I1
sg163
g978
sg30
g40
sg979
Vtoss
p1562
sS'experimental_blocks.thisN'
p1563
I1
sg42
g43
sg982
Vlift
p1564
sg984
Vscrape
p1565
sg986
Vslap
p1566
sS'experimental_blocks.thisIndex'
p1567
g991
sS'word_presentation.thisRepN'
p1568
I0
sS'experimental_blocks.thisRepN'
p1569
I0
sg44
g49
sg162
g996
sg997
g1023
sS'training_block.thisIndex'
p1570
g145
sg164
g1002
sg20
F7.86600149507467
sS'experimental_blocks.thisTrialN'
p1571
I1
sS'training_block.thisN'
p1572
I1
sS'word_presentation.thisN'
p1573
I27
sS'training_block.thisTrialN'
p1574
I0
sg19
S'space'
p1575
sg28
g29
sS'word_presentation.thisTrialN'
p1576
I27
sg41
g12
sS'word_presentation.thisIndex'
p1577
g31
(g131
S'\x1b\x00\x00\x00'
p1578
tp1579
Rp1580
sa(dp1581
S'training_block.thisRepN'
p1582
I1
sg163
g978
sS'experimental_blocks.thisRepN'
p1583
I0
sS'experimental_blocks.thisTrialN'
p1584
I1
sS'training_block.thisN'
p1585
I1
sg42
g43
sg41
g12
sg30
g40
sS'training_block.thisTrialN'
p1586
I0
sg44
g49
sS'experimental_blocks.thisN'
p1587
I1
sg164
g1002
sg28
g29
sS'experimental_blocks.thisIndex'
p1588
g991
sg162
g996
sS'training_block.thisIndex'
p1589
g145
sa(dp1590
S'training_block.thisRepN'
p1591
I1
sg163
g31
(g35
S'\x9a\x99\x99\x99\x99\x99\xd9?'
p1592
tp1593
Rp1594
sg30
g40
sS'word4'
p1595
Vpat
p1596
sS'experimental_blocks.thisN'
p1597
I2
sg42
g43
sS'word1'
p1598
Vsnatch
p1599
sS'word3'
p1600
Vtoss
p1601
sS'word2'
p1602
Vwipe
p1603
sS'experimental_blocks.thisIndex'
p1604
g31
(g131
S'\x02\x00\x00\x00'
p1605
tp1606
Rp1607
sS'word_presentation.thisRepN'
p1608
I0
sS'experimental_blocks.thisRepN'
p1609
I0
sg44
g49
sg162
g31
(g35
S'333333\xd3?'
p1610
tp1611
Rp1612
sS'type'
p1613
Varm
p1614
sS'training_block.thisIndex'
p1615
g145
sg164
g31
(g35
S'ffffff\xe6?'
p1616
tp1617
Rp1618
sg20
F10.231070938642006
sS'experimental_blocks.thisTrialN'
p1619
I2
sS'training_block.thisN'
p1620
I1
sS'word_presentation.thisN'
p1621
I0
sS'training_block.thisTrialN'
p1622
I0
sg19
S'space'
p1623
sg28
g29
sS'word_presentation.thisTrialN'
p1624
I0
sg41
g12
sS'word_presentation.thisIndex'
p1625
g31
(g131
S'\x00\x00\x00\x00'
p1626
tp1627
Rp1628
sa(dp1629
S'training_block.thisRepN'
p1630
I1
sg163
g1594
sg30
g40
sg1595
Vlimp
p1631
sS'experimental_blocks.thisN'
p1632
I2
sg42
g43
sg1598
Vsway
p1633
sg1600
Vstroll
p1634
sg1602
Vsprint
p1635
sS'experimental_blocks.thisIndex'
p1636
g1607
sS'word_presentation.thisRepN'
p1637
I0
sS'experimental_blocks.thisRepN'
p1638
I0
sg44
g49
sg162
g1612
sg1613
Vleg
p1639
sS'training_block.thisIndex'
p1640
g145
sg164
g1618
sg20
F5.971463972791753
sS'experimental_blocks.thisTrialN'
p1641
I2
sS'training_block.thisN'
p1642
I1
sS'word_presentation.thisN'
p1643
I1
sS'training_block.thisTrialN'
p1644
I0
sg19
S'space'
p1645
sg28
g29
sS'word_presentation.thisTrialN'
p1646
I1
sg41
g12
sS'word_presentation.thisIndex'
p1647
g31
(g131
S'\x01\x00\x00\x00'
p1648
tp1649
Rp1650
sa(dp1651
S'training_block.thisRepN'
p1652
I1
sg163
g1594
sg30
g40
sg1595
Vstride
p1653
sS'experimental_blocks.thisN'
p1654
I2
sg42
g43
sg1598
Vpace
p1655
sg1600
Vbounce
p1656
sg1602
Vstamp
p1657
sS'experimental_blocks.thisIndex'
p1658
g1607
sS'word_presentation.thisRepN'
p1659
I0
sS'experimental_blocks.thisRepN'
p1660
I0
sg44
g49
sg162
g1612
sg1613
g1639
sS'training_block.thisIndex'
p1661
g145
sg164
g1618
sg20
F9.173989006612828
sS'experimental_blocks.thisTrialN'
p1662
I2
sS'training_block.thisN'
p1663
I1
sS'word_presentation.thisN'
p1664
I2
sS'training_block.thisTrialN'
p1665
I0
sg19
S'space'
p1666
sg28
g29
sS'word_presentation.thisTrialN'
p1667
I2
sg41
g12
sS'word_presentation.thisIndex'
p1668
g31
(g131
S'\x02\x00\x00\x00'
p1669
tp1670
Rp1671
sa(dp1672
S'training_block.thisRepN'
p1673
I1
sg163
g1594
sg30
g40
sg1595
Vnip
p1674
sS'experimental_blocks.thisN'
p1675
I2
sg42
g43
sg1598
Vclap
p1676
sg1600
Vhack
p1677
sg1602
Vpolish
p1678
sS'experimental_blocks.thisIndex'
p1679
g1607
sS'word_presentation.thisRepN'
p1680
I0
sS'experimental_blocks.thisRepN'
p1681
I0
sg44
g49
sg162
g1612
sg1613
g1614
sS'training_block.thisIndex'
p1682
g145
sg164
g1618
sg20
F6.121442874211425
sS'experimental_blocks.thisTrialN'
p1683
I2
sS'training_block.thisN'
p1684
I1
sS'word_presentation.thisN'
p1685
I3
sS'training_block.thisTrialN'
p1686
I0
sg19
S'space'
p1687
sg28
g29
sS'word_presentation.thisTrialN'
p1688
I3
sg41
g12
sS'word_presentation.thisIndex'
p1689
g31
(g131
S'\x03\x00\x00\x00'
p1690
tp1691
Rp1692
sa(dp1693
S'training_block.thisRepN'
p1694
I1
sg163
g1594
sg30
g40
sg1595
Vpinch
p1695
sS'experimental_blocks.thisN'
p1696
I2
sg42
g43
sg1598
Vstir
p1697
sg1600
Vstab
p1698
sg1602
Vdelve
p1699
sS'experimental_blocks.thisIndex'
p1700
g1607
sS'word_presentation.thisRepN'
p1701
I0
sS'experimental_blocks.thisRepN'
p1702
I0
sg44
g49
sg162
g1612
sg1613
g1614
sS'training_block.thisIndex'
p1703
g145
sg164
g1618
sg20
F7.5636315792799
sS'experimental_blocks.thisTrialN'
p1704
I2
sS'training_block.thisN'
p1705
I1
sS'word_presentation.thisN'
p1706
I4
sS'training_block.thisTrialN'
p1707
I0
sg19
S'space'
p1708
sg28
g29
sS'word_presentation.thisTrialN'
p1709
I4
sg41
g12
sS'word_presentation.thisIndex'
p1710
g31
(g131
S'\x04\x00\x00\x00'
p1711
tp1712
Rp1713
sa(dp1714
S'training_block.thisRepN'
p1715
I1
sg163
g1594
sg30
g40
sg1595
Vflit
p1716
sS'experimental_blocks.thisN'
p1717
I2
sg42
g43
sg1598
Vslither
p1718
sg1600
Vstumble
p1719
sg1602
Vcrawl
p1720
sS'experimental_blocks.thisIndex'
p1721
g1607
sS'word_presentation.thisRepN'
p1722
I0
sS'experimental_blocks.thisRepN'
p1723
I0
sg44
g49
sg162
g1612
sg1613
g1639
sS'training_block.thisIndex'
p1724
g145
sg164
g1618
sg20
F7.094834956948034
sS'experimental_blocks.thisTrialN'
p1725
I2
sS'training_block.thisN'
p1726
I1
sS'word_presentation.thisN'
p1727
I5
sS'training_block.thisTrialN'
p1728
I0
sg19
S'space'
p1729
sg28
g29
sS'word_presentation.thisTrialN'
p1730
I5
sg41
g12
sS'word_presentation.thisIndex'
p1731
g31
(g131
S'\x05\x00\x00\x00'
p1732
tp1733
Rp1734
sa(dp1735
S'training_block.thisRepN'
p1736
I1
sg163
g1594
sg30
g40
sg1595
Vwhip
p1737
sS'experimental_blocks.thisN'
p1738
I2
sg42
g43
sg1598
Vscoop
p1739
sg1600
Vfile
p1740
sg1602
Vclutch
p1741
sS'experimental_blocks.thisIndex'
p1742
g1607
sS'word_presentation.thisRepN'
p1743
I0
sS'experimental_blocks.thisRepN'
p1744
I0
sg44
g49
sg162
g1612
sg1613
g1614
sS'training_block.thisIndex'
p1745
g145
sg164
g1618
sg20
F10.700067483849125
sS'experimental_blocks.thisTrialN'
p1746
I2
sS'training_block.thisN'
p1747
I1
sS'word_presentation.thisN'
p1748
I6
sS'training_block.thisTrialN'
p1749
I0
sg19
S'space'
p1750
sg28
g29
sS'word_presentation.thisTrialN'
p1751
I6
sg41
g12
sS'word_presentation.thisIndex'
p1752
g31
(g131
S'\x06\x00\x00\x00'
p1753
tp1754
Rp1755
sa(dp1756
S'training_block.thisRepN'
p1757
I1
sg163
g1594
sg30
g40
sg1595
Vthrow
p1758
sS'experimental_blocks.thisN'
p1759
I2
sg42
g43
sg1598
Vseize
p1760
sg1600
Vtug
p1761
sg1602
Vdig
p1762
sS'experimental_blocks.thisIndex'
p1763
g1607
sS'word_presentation.thisRepN'
p1764
I0
sS'experimental_blocks.thisRepN'
p1765
I0
sg44
g49
sg162
g1612
sg1613
g1614
sS'training_block.thisIndex'
p1766
g145
sg164
g1618
sg20
F6.289343320520857
sS'experimental_blocks.thisTrialN'
p1767
I2
sS'training_block.thisN'
p1768
I1
sS'word_presentation.thisN'
p1769
I7
sS'training_block.thisTrialN'
p1770
I0
sg19
S'space'
p1771
sg28
g29
sS'word_presentation.thisTrialN'
p1772
I7
sg41
g12
sS'word_presentation.thisIndex'
p1773
g31
(g131
S'\x07\x00\x00\x00'
p1774
tp1775
Rp1776
sa(dp1777
S'training_block.thisRepN'
p1778
I1
sg163
g1594
sg30
g40
sg1595
Vrub
p1779
sS'experimental_blocks.thisN'
p1780
I2
sg42
g43
sg1598
Vgrasp
p1781
sg1600
Vgrab
p1782
sg1602
Vbraid
p1783
sS'experimental_blocks.thisIndex'
p1784
g1607
sS'word_presentation.thisRepN'
p1785
I0
sS'experimental_blocks.thisRepN'
p1786
I0
sg44
g49
sg162
g1612
sg1613
g1614
sS'training_block.thisIndex'
p1787
g145
sg164
g1618
sg20
F8.33546110275347
sS'experimental_blocks.thisTrialN'
p1788
I2
sS'training_block.thisN'
p1789
I1
sS'word_presentation.thisN'
p1790
I8
sS'training_block.thisTrialN'
p1791
I0
sg19
S'space'
p1792
sg28
g29
sS'word_presentation.thisTrialN'
p1793
I8
sg41
g12
sS'word_presentation.thisIndex'
p1794
g31
(g131
S'\x08\x00\x00\x00'
p1795
tp1796
Rp1797
sa(dp1798
S'training_block.thisRepN'
p1799
I1
sg163
g1594
sg30
g40
sg1595
Vtrudge
p1800
sS'experimental_blocks.thisN'
p1801
I2
sg42
g43
sg1598
Vhop
p1802
sg1600
Vrush
p1803
sg1602
Vhike
p1804
sS'experimental_blocks.thisIndex'
p1805
g1607
sS'word_presentation.thisRepN'
p1806
I0
sS'experimental_blocks.thisRepN'
p1807
I0
sg44
g49
sg162
g1612
sg1613
g1639
sS'training_block.thisIndex'
p1808
g145
sg164
g1618
sg20
F7.58072735577116
sS'experimental_blocks.thisTrialN'
p1809
I2
sS'training_block.thisN'
p1810
I1
sS'word_presentation.thisN'
p1811
I9
sS'training_block.thisTrialN'
p1812
I0
sg19
S'space'
p1813
sg28
g29
sS'word_presentation.thisTrialN'
p1814
I9
sg41
g12
sS'word_presentation.thisIndex'
p1815
g31
(g131
S'\t\x00\x00\x00'
p1816
tp1817
Rp1818
sa(dp1819
S'training_block.thisRepN'
p1820
I1
sg163
g1594
sg30
g40
sg1595
Vcut
p1821
sS'experimental_blocks.thisN'
p1822
I2
sg42
g43
sg1598
Vskim
p1823
sg1600
Vdunk
p1824
sg1602
Vwash
p1825
sS'experimental_blocks.thisIndex'
p1826
g1607
sS'word_presentation.thisRepN'
p1827
I0
sS'experimental_blocks.thisRepN'
p1828
I0
sg44
g49
sg162
g1612
sg1613
g1614
sS'training_block.thisIndex'
p1829
g145
sg164
g1618
sg20
F6.004091702174264
sS'experimental_blocks.thisTrialN'
p1830
I2
sS'training_block.thisN'
p1831
I1
sS'word_presentation.thisN'
p1832
I10
sS'training_block.thisTrialN'
p1833
I0
sg19
S'space'
p1834
sg28
g29
sS'word_presentation.thisTrialN'
p1835
I10
sg41
g12
sS'word_presentation.thisIndex'
p1836
g31
(g131
S'\n\x00\x00\x00'
p1837
tp1838
Rp1839
sa(dp1840
S'training_block.thisRepN'
p1841
I1
sg163
g1594
sg30
g40
sg1595
Vgrip
p1842
sS'experimental_blocks.thisN'
p1843
I2
sg42
g43
sg1598
Vclean
p1844
sg1600
Vpush
p1845
sg1602
Vscrape
p1846
sS'experimental_blocks.thisIndex'
p1847
g1607
sS'word_presentation.thisRepN'
p1848
I0
sS'experimental_blocks.thisRepN'
p1849
I0
sg44
g49
sg162
g1612
sg1613
g1614
sS'training_block.thisIndex'
p1850
g145
sg164
g1618
sg20
F6.9093187766302435
sS'experimental_blocks.thisTrialN'
p1851
I2
sS'training_block.thisN'
p1852
I1
sS'word_presentation.thisN'
p1853
I11
sS'training_block.thisTrialN'
p1854
I0
sg19
S'space'
p1855
sg28
g29
sS'word_presentation.thisTrialN'
p1856
I11
sg41
g12
sS'word_presentation.thisIndex'
p1857
g31
(g131
S'\x0b\x00\x00\x00'
p1858
tp1859
Rp1860
sa(dp1861
S'training_block.thisRepN'
p1862
I1
sg163
g1594
sg30
g40
sg1595
Vroll
p1863
sS'experimental_blocks.thisN'
p1864
I2
sg42
g43
sg1598
Vcreep
p1865
sg1600
Vwobble
p1866
sg1602
Vstagger
p1867
sS'experimental_blocks.thisIndex'
p1868
g1607
sS'word_presentation.thisRepN'
p1869
I0
sS'experimental_blocks.thisRepN'
p1870
I0
sg44
g49
sg162
g1612
sg1613
g1639
sS'training_block.thisIndex'
p1871
g145
sg164
g1618
sg20
F7.580724985144116
sS'experimental_blocks.thisTrialN'
p1872
I2
sS'training_block.thisN'
p1873
I1
sS'word_presentation.thisN'
p1874
I12
sS'training_block.thisTrialN'
p1875
I0
sg19
S'space'
p1876
sg28
g29
sS'word_presentation.thisTrialN'
p1877
I12
sg41
g12
sS'word_presentation.thisIndex'
p1878
g31
(g131
S'\x0c\x00\x00\x00'
p1879
tp1880
Rp1881
sa(dp1882
S'training_block.thisRepN'
p1883
I1
sg163
g1594
sg30
g40
sg1595
Vcarve
p1884
sS'experimental_blocks.thisN'
p1885
I2
sg42
g43
sg1598
Vbash
p1886
sg1600
Vgrate
p1887
sg1602
Vpull
p1888
sS'experimental_blocks.thisIndex'
p1889
g1607
sS'word_presentation.thisRepN'
p1890
I0
sS'experimental_blocks.thisRepN'
p1891
I0
sg44
g49
sg162
g1612
sg1613
g1614
sS'training_block.thisIndex'
p1892
g145
sg164
g1618
sg20
F9.2238448724911
sS'experimental_blocks.thisTrialN'
p1893
I2
sS'training_block.thisN'
p1894
I1
sS'word_presentation.thisN'
p1895
I13
sS'training_block.thisTrialN'
p1896
I0
sg19
S'space'
p1897
sg28
g29
sS'word_presentation.thisTrialN'
p1898
I13
sg41
g12
sS'word_presentation.thisIndex'
p1899
g31
(g131
S'\r\x00\x00\x00'
p1900
tp1901
Rp1902
sa(dp1903
S'training_block.thisRepN'
p1904
I1
sg163
g1594
sg30
g40
sg1595
Vwalk
p1905
sS'experimental_blocks.thisN'
p1906
I2
sg42
g43
sg1598
Vslide
p1907
sg1600
Vwander
p1908
sg1602
Vtrip
p1909
sS'experimental_blocks.thisIndex'
p1910
g1607
sS'word_presentation.thisRepN'
p1911
I0
sS'experimental_blocks.thisRepN'
p1912
I0
sg44
g49
sg162
g1612
sg1613
g1639
sS'training_block.thisIndex'
p1913
g145
sg164
g1618
sg20
F5.652063867852121
sS'experimental_blocks.thisTrialN'
p1914
I2
sS'training_block.thisN'
p1915
I1
sS'word_presentation.thisN'
p1916
I14
sS'training_block.thisTrialN'
p1917
I0
sg19
S'space'
p1918
sg28
g29
sS'word_presentation.thisTrialN'
p1919
I14
sg41
g12
sS'word_presentation.thisIndex'
p1920
g31
(g131
S'\x0e\x00\x00\x00'
p1921
tp1922
Rp1923
sa(dp1924
S'training_block.thisRepN'
p1925
I1
sg163
g1594
sg30
g40
sg1595
Vkick
p1926
sS'experimental_blocks.thisN'
p1927
I2
sg42
g43
sg1598
Vtrot
p1928
sg1600
Vtiptoe
p1929
sg1602
Vrun
p1930
sS'experimental_blocks.thisIndex'
p1931
g1607
sS'word_presentation.thisRepN'
p1932
I0
sS'experimental_blocks.thisRepN'
p1933
I0
sg44
g49
sg162
g1612
sg1613
g1639
sS'training_block.thisIndex'
p1934
g145
sg164
g1618
sg20
F5.719116656973711
sS'experimental_blocks.thisTrialN'
p1935
I2
sS'training_block.thisN'
p1936
I1
sS'word_presentation.thisN'
p1937
I15
sS'training_block.thisTrialN'
p1938
I0
sg19
S'space'
p1939
sg28
g29
sS'word_presentation.thisTrialN'
p1940
I15
sg41
g12
sS'word_presentation.thisIndex'
p1941
g31
(g131
S'\x0f\x00\x00\x00'
p1942
tp1943
Rp1944
sa(dp1945
S'training_block.thisRepN'
p1946
I1
sg163
g1594
sg30
g40
sg1595
Vleap
p1947
sS'experimental_blocks.thisN'
p1948
I2
sg42
g43
sg1598
Vsneak
p1949
sg1600
Vslip
p1950
sg1602
Vtread
p1951
sS'experimental_blocks.thisIndex'
p1952
g1607
sS'word_presentation.thisRepN'
p1953
I0
sS'experimental_blocks.thisRepN'
p1954
I0
sg44
g49
sg162
g1612
sg1613
g1639
sS'training_block.thisIndex'
p1955
g145
sg164
g1618
sg20
F7.312200510790717
sS'experimental_blocks.thisTrialN'
p1956
I2
sS'training_block.thisN'
p1957
I1
sS'word_presentation.thisN'
p1958
I16
sS'training_block.thisTrialN'
p1959
I0
sg19
S'space'
p1960
sg28
g29
sS'word_presentation.thisTrialN'
p1961
I16
sg41
g12
sS'word_presentation.thisIndex'
p1962
g31
(g131
S'\x10\x00\x00\x00'
p1963
tp1964
Rp1965
sa(dp1966
S'training_block.thisRepN'
p1967
I1
sg163
g1594
sg30
g40
sg1595
Vpoke
p1968
sS'experimental_blocks.thisN'
p1969
I2
sg42
g43
sg1598
Vcatch
p1970
sg1600
Vpunch
p1971
sg1602
Vswitch
p1972
sS'experimental_blocks.thisIndex'
p1973
g1607
sS'word_presentation.thisRepN'
p1974
I0
sS'experimental_blocks.thisRepN'
p1975
I0
sg44
g49
sg162
g1612
sg1613
g1614
sS'training_block.thisIndex'
p1976
g145
sg164
g1618
sg20
F6.2566745002714015
sS'experimental_blocks.thisTrialN'
p1977
I2
sS'training_block.thisN'
p1978
I1
sS'word_presentation.thisN'
p1979
I17
sS'training_block.thisTrialN'
p1980
I0
sg19
S'space'
p1981
sg28
g29
sS'word_presentation.thisTrialN'
p1982
I17
sg41
g12
sS'word_presentation.thisIndex'
p1983
g31
(g131
S'\x11\x00\x00\x00'
p1984
tp1985
Rp1986
sa(dp1987
S'training_block.thisRepN'
p1988
I1
sg163
g1594
sg30
g40
sg1595
Vshake
p1989
sS'experimental_blocks.thisN'
p1990
I2
sg42
g43
sg1598
Vscratch
p1991
sg1600
Vpeel
p1992
sg1602
Vscrub
p1993
sS'experimental_blocks.thisIndex'
p1994
g1607
sS'word_presentation.thisRepN'
p1995
I0
sS'experimental_blocks.thisRepN'
p1996
I0
sg44
g49
sg162
g1612
sg1613
g1614
sS'training_block.thisIndex'
p1997
g145
sg164
g1618
sg20
F7.832769650916816
sS'experimental_blocks.thisTrialN'
p1998
I2
sS'training_block.thisN'
p1999
I1
sS'word_presentation.thisN'
p2000
I18
sS'training_block.thisTrialN'
p2001
I0
sg19
S'space'
p2002
sg28
g29
sS'word_presentation.thisTrialN'
p2003
I18
sg41
g12
sS'word_presentation.thisIndex'
p2004
g31
(g131
S'\x12\x00\x00\x00'
p2005
tp2006
Rp2007
sa(dp2008
S'training_block.thisRepN'
p2009
I1
sg163
g1594
sg30
g40
sg1595
Vskip
p2010
sS'experimental_blocks.thisN'
p2011
I2
sg42
g43
sg1598
Vdance
p2012
sg1600
Vskate
p2013
sg1602
Vkneel
p2014
sS'experimental_blocks.thisIndex'
p2015
g1607
sS'word_presentation.thisRepN'
p2016
I0
sS'experimental_blocks.thisRepN'
p2017
I0
sg44
g49
sg162
g1612
sg1613
g1639
sS'training_block.thisIndex'
p2018
g145
sg164
g1618
sg20
F6.624896482620898
sS'experimental_blocks.thisTrialN'
p2019
I2
sS'training_block.thisN'
p2020
I1
sS'word_presentation.thisN'
p2021
I19
sS'training_block.thisTrialN'
p2022
I0
sg19
S'space'
p2023
sg28
g29
sS'word_presentation.thisTrialN'
p2024
I19
sg41
g12
sS'word_presentation.thisIndex'
p2025
g31
(g131
S'\x13\x00\x00\x00'
p2026
tp2027
Rp2028
sa(dp2029
S'training_block.thisRepN'
p2030
I1
sg163
g1594
sg30
g40
sg1595
Vstomp
p2031
sS'experimental_blocks.thisN'
p2032
I2
sg42
g43
sg1598
Vjump
p2033
sg1600
Vwade
p2034
sg1602
Vramble
p2035
sS'experimental_blocks.thisIndex'
p2036
g1607
sS'word_presentation.thisRepN'
p2037
I0
sS'experimental_blocks.thisRepN'
p2038
I0
sg44
g49
sg162
g1612
sg1613
g1639
sS'training_block.thisIndex'
p2039
g145
sg164
g1618
sg20
F7.799398334871512
sS'experimental_blocks.thisTrialN'
p2040
I2
sS'training_block.thisN'
p2041
I1
sS'word_presentation.thisN'
p2042
I20
sS'training_block.thisTrialN'
p2043
I0
sg19
S'space'
p2044
sg28
g29
sS'word_presentation.thisTrialN'
p2045
I20
sg41
g12
sS'word_presentation.thisIndex'
p2046
g31
(g131
S'\x14\x00\x00\x00'
p2047
tp2048
Rp2049
sa(dp2050
S'training_block.thisRepN'
p2051
I1
sg163
g1594
sg30
g40
sg1595
Vplod
p2052
sS'experimental_blocks.thisN'
p2053
I2
sg42
g43
sg1598
Vprance
p2054
sg1600
Vscuff
p2055
sg1602
Vtraipse
p2056
sS'experimental_blocks.thisIndex'
p2057
g1607
sS'word_presentation.thisRepN'
p2058
I0
sS'experimental_blocks.thisRepN'
p2059
I0
sg44
g49
sg162
g1612
sg1613
g1639
sS'training_block.thisIndex'
p2060
g145
sg164
g1618
sg20
F10.113304116674044
sS'experimental_blocks.thisTrialN'
p2061
I2
sS'training_block.thisN'
p2062
I1
sS'word_presentation.thisN'
p2063
I21
sS'training_block.thisTrialN'
p2064
I0
sg19
S'space'
p2065
sg28
g29
sS'word_presentation.thisTrialN'
p2066
I21
sg41
g12
sS'word_presentation.thisIndex'
p2067
g31
(g131
S'\x15\x00\x00\x00'
p2068
tp2069
Rp2070
sa(dp2071
S'training_block.thisRepN'
p2072
I1
sg163
g1594
sg30
g40
sg1595
Vtwine
p2073
sS'experimental_blocks.thisN'
p2074
I2
sg42
g43
sg1598
Vbrush
p2075
sg1600
Vclaw
p2076
sg1602
Vbind
p2077
sS'experimental_blocks.thisIndex'
p2078
g1607
sS'word_presentation.thisRepN'
p2079
I0
sS'experimental_blocks.thisRepN'
p2080
I0
sg44
g49
sg162
g1612
sg1613
g1614
sS'training_block.thisIndex'
p2081
g145
sg164
g1618
sg20
F6.724714102387225
sS'experimental_blocks.thisTrialN'
p2082
I2
sS'training_block.thisN'
p2083
I1
sS'word_presentation.thisN'
p2084
I22
sS'training_block.thisTrialN'
p2085
I0
sg19
S'space'
p2086
sg28
g29
sS'word_presentation.thisTrialN'
p2087
I22
sg41
g12
sS'word_presentation.thisIndex'
p2088
g31
(g131
S'\x16\x00\x00\x00'
p2089
tp2090
Rp2091
sa(dp2092
S'training_block.thisRepN'
p2093
I1
sg163
g1594
sg30
g40
sg1595
Vroam
p2094
sS'experimental_blocks.thisN'
p2095
I2
sg42
g43
sg1598
Vinch
p2096
sg1600
Vmount
p2097
sg1602
Vstray
p2098
sS'experimental_blocks.thisIndex'
p2099
g1607
sS'word_presentation.thisRepN'
p2100
I0
sS'experimental_blocks.thisRepN'
p2101
I0
sg44
g49
sg162
g1612
sg1613
g1639
sS'training_block.thisIndex'
p2102
g145
sg164
g1618
sg20
F5.8370079368596635
sS'experimental_blocks.thisTrialN'
p2103
I2
sS'training_block.thisN'
p2104
I1
sS'word_presentation.thisN'
p2105
I23
sS'training_block.thisTrialN'
p2106
I0
sg19
S'space'
p2107
sg28
g29
sS'word_presentation.thisTrialN'
p2108
I23
sg41
g12
sS'word_presentation.thisIndex'
p2109
g31
(g131
S'\x17\x00\x00\x00'
p2110
tp2111
Rp2112
sa(dp2113
S'training_block.thisRepN'
p2114
I1
sg163
g1594
sg30
g40
sg1595
Vjog
p2115
sS'experimental_blocks.thisN'
p2116
I2
sg42
g43
sg1598
Vtrek
p2117
sg1600
Vclimb
p2118
sg1602
Vstep
p2119
sS'experimental_blocks.thisIndex'
p2120
g1607
sS'word_presentation.thisRepN'
p2121
I0
sS'experimental_blocks.thisRepN'
p2122
I0
sg44
g49
sg162
g1612
sg1613
g1639
sS'training_block.thisIndex'
p2123
g145
sg164
g1618
sg20
F7.949941840617612
sS'experimental_blocks.thisTrialN'
p2124
I2
sS'training_block.thisN'
p2125
I1
sS'word_presentation.thisN'
p2126
I24
sS'training_block.thisTrialN'
p2127
I0
sg19
S'space'
p2128
sg28
g29
sS'word_presentation.thisTrialN'
p2129
I24
sg41
g12
sS'word_presentation.thisIndex'
p2130
g31
(g131
S'\x18\x00\x00\x00'
p2131
tp2132
Rp2133
sa(dp2134
S'training_block.thisRepN'
p2135
I1
sg163
g1594
sg30
g40
sg1595
Vmarch
p2136
sS'experimental_blocks.thisN'
p2137
I2
sg42
g43
sg1598
Vstrut
p2138
sg1600
Vflee
p2139
sg1602
Vglide
p2140
sS'experimental_blocks.thisIndex'
p2141
g1607
sS'word_presentation.thisRepN'
p2142
I0
sS'experimental_blocks.thisRepN'
p2143
I0
sg44
g49
sg162
g1612
sg1613
g1639
sS'training_block.thisIndex'
p2144
g145
sg164
g1618
sg20
F7.3130713211030525
sS'experimental_blocks.thisTrialN'
p2145
I2
sS'training_block.thisN'
p2146
I1
sS'word_presentation.thisN'
p2147
I25
sS'training_block.thisTrialN'
p2148
I0
sg19
S'space'
p2149
sg28
g29
sS'word_presentation.thisTrialN'
p2150
I25
sg41
g12
sS'word_presentation.thisIndex'
p2151
g31
(g131
S'\x19\x00\x00\x00'
p2152
tp2153
Rp2154
sa(dp2155
S'training_block.thisRepN'
p2156
I1
sg163
g1594
sg30
g40
sg1595
Vfold
p2157
sS'experimental_blocks.thisN'
p2158
I2
sg42
g43
sg1598
Vslap
p2159
sg1600
Vwrap
p2160
sg1602
Vknock
p2161
sS'experimental_blocks.thisIndex'
p2162
g1607
sS'word_presentation.thisRepN'
p2163
I0
sS'experimental_blocks.thisRepN'
p2164
I0
sg44
g49
sg162
g1612
sg1613
g1614
sS'training_block.thisIndex'
p2165
g145
sg164
g1618
sg20
F6.138402339651293
sS'experimental_blocks.thisTrialN'
p2166
I2
sS'training_block.thisN'
p2167
I1
sS'word_presentation.thisN'
p2168
I26
sS'training_block.thisTrialN'
p2169
I0
sg19
S'space'
p2170
sg28
g29
sS'word_presentation.thisTrialN'
p2171
I26
sg41
g12
sS'word_presentation.thisIndex'
p2172
g31
(g131
S'\x1a\x00\x00\x00'
p2173
tp2174
Rp2175
sa(dp2176
S'training_block.thisRepN'
p2177
I1
sg163
g1594
sg30
g40
sg1595
Vsqueeze
p2178
sS'experimental_blocks.thisN'
p2179
I2
sg42
g43
sg1598
Vclick
p2180
sg1600
Vchop
p2181
sg1602
Vlift
p2182
sS'experimental_blocks.thisIndex'
p2183
g1607
sS'word_presentation.thisRepN'
p2184
I0
sS'experimental_blocks.thisRepN'
p2185
I0
sg44
g49
sg162
g1612
sg1613
g1614
sS'training_block.thisIndex'
p2186
g145
sg164
g1618
sg20
F6.373932032543962
sS'experimental_blocks.thisTrialN'
p2187
I2
sS'training_block.thisN'
p2188
I1
sS'word_presentation.thisN'
p2189
I27
sS'training_block.thisTrialN'
p2190
I0
sg19
S'space'
p2191
sg28
g29
sS'word_presentation.thisTrialN'
p2192
I27
sg41
g12
sS'word_presentation.thisIndex'
p2193
g31
(g131
S'\x1b\x00\x00\x00'
p2194
tp2195
Rp2196
sa(dp2197
S'training_block.thisRepN'
p2198
I1
sg163
g1594
sS'experimental_blocks.thisRepN'
p2199
I0
sS'experimental_blocks.thisTrialN'
p2200
I2
sS'training_block.thisN'
p2201
I1
sg42
g43
sg41
g12
sg30
g40
sS'training_block.thisTrialN'
p2202
I0
sg44
g49
sS'experimental_blocks.thisN'
p2203
I2
sg164
g1618
sg28
g29
sS'experimental_blocks.thisIndex'
p2204
g1607
sg162
g1612
sS'training_block.thisIndex'
p2205
g145
sa(dp2206
S'training_block.thisRepN'
p2207
I1
sg163
g31
(g35
S'\x9a\x99\x99\x99\x99\x99\xd9?'
p2208
tp2209
Rp2210
sg30
g40
sS'word4'
p2211
Vbind
p2212
sS'experimental_blocks.thisN'
p2213
I3
sg42
g43
sS'word1'
p2214
Vgrasp
p2215
sS'word3'
p2216
Vcut
p2217
sS'word2'
p2218
Vgrate
p2219
sS'experimental_blocks.thisIndex'
p2220
g31
(g131
S'\x01\x00\x00\x00'
p2221
tp2222
Rp2223
sS'word_presentation.thisRepN'
p2224
I0
sS'experimental_blocks.thisRepN'
p2225
I0
sg44
g49
sg162
g31
(g35
S'\x9a\x99\x99\x99\x99\x99\xc9?'
p2226
tp2227
Rp2228
sS'type'
p2229
Varm
p2230
sS'training_block.thisIndex'
p2231
g145
sg164
g31
(g35
S'333333\xe3?'
p2232
tp2233
Rp2234
sg20
F6.138441850100207
sS'experimental_blocks.thisTrialN'
p2235
I3
sS'training_block.thisN'
p2236
I1
sS'word_presentation.thisN'
p2237
I0
sS'training_block.thisTrialN'
p2238
I0
sg19
S'space'
p2239
sg28
g29
sS'word_presentation.thisTrialN'
p2240
I0
sg41
g12
sS'word_presentation.thisIndex'
p2241
g31
(g131
S'\x00\x00\x00\x00'
p2242
tp2243
Rp2244
sa(dp2245
S'training_block.thisRepN'
p2246
I1
sg163
g2210
sg30
g40
sg2211
Vprance
p2247
sS'experimental_blocks.thisN'
p2248
I3
sg42
g43
sg2214
Vslither
p2249
sg2216
Vskip
p2250
sg2218
Vjump
p2251
sS'experimental_blocks.thisIndex'
p2252
g2223
sS'word_presentation.thisRepN'
p2253
I0
sS'experimental_blocks.thisRepN'
p2254
I0
sg44
g49
sg162
g2228
sg2229
Vleg
p2255
sS'training_block.thisIndex'
p2256
g145
sg164
g2234
sg20
F4.863598074418405
sS'experimental_blocks.thisTrialN'
p2257
I3
sS'training_block.thisN'
p2258
I1
sS'word_presentation.thisN'
p2259
I1
sS'training_block.thisTrialN'
p2260
I0
sg19
S'space'
p2261
sg28
g29
sS'word_presentation.thisTrialN'
p2262
I1
sg41
g12
sS'word_presentation.thisIndex'
p2263
g31
(g131
S'\x01\x00\x00\x00'
p2264
tp2265
Rp2266
sa(dp2267
S'training_block.thisRepN'
p2268
I1
sg163
g2210
sg30
g40
sg2211
Vkick
p2269
sS'experimental_blocks.thisN'
p2270
I3
sg42
g43
sg2214
Vtrudge
p2271
sg2216
Vstomp
p2272
sg2218
Vcreep
p2273
sS'experimental_blocks.thisIndex'
p2274
g2223
sS'word_presentation.thisRepN'
p2275
I0
sS'experimental_blocks.thisRepN'
p2276
I0
sg44
g49
sg162
g2228
sg2229
g2255
sS'training_block.thisIndex'
p2277
g145
sg164
g2234
sg20
F5.752620333025334
sS'experimental_blocks.thisTrialN'
p2278
I3
sS'training_block.thisN'
p2279
I1
sS'word_presentation.thisN'
p2280
I2
sS'training_block.thisTrialN'
p2281
I0
sg19
S'space'
p2282
sg28
g29
sS'word_presentation.thisTrialN'
p2283
I2
sg41
g12
sS'word_presentation.thisIndex'
p2284
g31
(g131
S'\x02\x00\x00\x00'
p2285
tp2286
Rp2287
sa(dp2288
S'training_block.thisRepN'
p2289
I1
sg163
g2210
sg30
g40
sg2211
Vpace
p2290
sS'experimental_blocks.thisN'
p2291
I3
sg42
g43
sg2214
Vlimp
p2292
sg2216
Vslip
p2293
sg2218
Vramble
p2294
sS'experimental_blocks.thisIndex'
p2295
g2223
sS'word_presentation.thisRepN'
p2296
I0
sS'experimental_blocks.thisRepN'
p2297
I0
sg44
g49
sg162
g2228
sg2229
g2255
sS'training_block.thisIndex'
p2298
g145
sg164
g2234
sg20
F7.144864273701387
sS'experimental_blocks.thisTrialN'
p2299
I3
sS'training_block.thisN'
p2300
I1
sS'word_presentation.thisN'
p2301
I3
sS'training_block.thisTrialN'
p2302
I0
sg19
S'space'
p2303
sg28
g29
sS'word_presentation.thisTrialN'
p2304
I3
sg41
g12
sS'word_presentation.thisIndex'
p2305
g31
(g131
S'\x03\x00\x00\x00'
p2306
tp2307
Rp2308
sa(dp2309
S'training_block.thisRepN'
p2310
I1
sg163
g2210
sg30
g40
sg2211
Vshake
p2311
sS'experimental_blocks.thisN'
p2312
I3
sg42
g43
sg2214
Vwash
p2313
sg2216
Vknock
p2314
sg2218
Vpull
p2315
sS'experimental_blocks.thisIndex'
p2316
g2223
sS'word_presentation.thisRepN'
p2317
I0
sS'experimental_blocks.thisRepN'
p2318
I0
sg44
g49
sg162
g2228
sg2229
g2230
sS'training_block.thisIndex'
p2319
g145
sg164
g2234
sg20
F6.188675435878395
sS'experimental_blocks.thisTrialN'
p2320
I3
sS'training_block.thisN'
p2321
I1
sS'word_presentation.thisN'
p2322
I4
sS'training_block.thisTrialN'
p2323
I0
sg19
S'space'
p2324
sg28
g29
sS'word_presentation.thisTrialN'
p2325
I4
sg41
g12
sS'word_presentation.thisIndex'
p2326
g31
(g131
S'\x04\x00\x00\x00'
p2327
tp2328
Rp2329
sa(dp2330
S'training_block.thisRepN'
p2331
I1
sg163
g2210
sg30
g40
sg2211
Vpolish
p2332
sS'experimental_blocks.thisN'
p2333
I3
sg42
g43
sg2214
Vscoop
p2334
sg2216
Vwrap
p2335
sg2218
Vscrape
p2336
sS'experimental_blocks.thisIndex'
p2337
g2223
sS'word_presentation.thisRepN'
p2338
I0
sS'experimental_blocks.thisRepN'
p2339
I0
sg44
g49
sg162
g2228
sg2229
g2230
sS'training_block.thisIndex'
p2340
g145
sg164
g2234
sg20
F6.255949878623142
sS'experimental_blocks.thisTrialN'
p2341
I3
sS'training_block.thisN'
p2342
I1
sS'word_presentation.thisN'
p2343
I5
sS'training_block.thisTrialN'
p2344
I0
sg19
S'space'
p2345
sg28
g29
sS'word_presentation.thisTrialN'
p2346
I5
sg41
g12
sS'word_presentation.thisIndex'
p2347
g31
(g131
S'\x05\x00\x00\x00'
p2348
tp2349
Rp2350
sa(dp2351
S'training_block.thisRepN'
p2352
I1
sg163
g2210
sg30
g40
sg2211
Vtug
p2353
sS'experimental_blocks.thisN'
p2354
I3
sg42
g43
sg2214
Vgrab
p2355
sg2216
Vdunk
p2356
sg2218
Vrub
p2357
sS'experimental_blocks.thisIndex'
p2358
g2223
sS'word_presentation.thisRepN'
p2359
I0
sS'experimental_blocks.thisRepN'
p2360
I0
sg44
g49
sg162
g2228
sg2229
g2230
sS'training_block.thisIndex'
p2361
g145
sg164
g2234
sg20
F8.201069468852438
sS'experimental_blocks.thisTrialN'
p2362
I3
sS'training_block.thisN'
p2363
I1
sS'word_presentation.thisN'
p2364
I6
sS'training_block.thisTrialN'
p2365
I0
sg19
S'space'
p2366
sg28
g29
sS'word_presentation.thisTrialN'
p2367
I6
sg41
g12
sS'word_presentation.thisIndex'
p2368
g31
(g131
S'\x06\x00\x00\x00'
p2369
tp2370
Rp2371
sa(dp2372
S'training_block.thisRepN'
p2373
I1
sg163
g2210
sg30
g40
sg2211
Vmount
p2374
sS'experimental_blocks.thisN'
p2375
I3
sg42
g43
sg2214
Vroam
p2376
sg2216
Vplod
p2377
sg2218
Vclimb
p2378
sS'experimental_blocks.thisIndex'
p2379
g2223
sS'word_presentation.thisRepN'
p2380
I0
sS'experimental_blocks.thisRepN'
p2381
I0
sg44
g49
sg162
g2228
sg2229
g2255
sS'training_block.thisIndex'
p2382
g145
sg164
g2234
sg20
F7.597485713022252
sS'experimental_blocks.thisTrialN'
p2383
I3
sS'training_block.thisN'
p2384
I1
sS'word_presentation.thisN'
p2385
I7
sS'training_block.thisTrialN'
p2386
I0
sg19
S'space'
p2387
sg28
g29
sS'word_presentation.thisTrialN'
p2388
I7
sg41
g12
sS'word_presentation.thisIndex'
p2389
g31
(g131
S'\x07\x00\x00\x00'
p2390
tp2391
Rp2392
sa(dp2393
S'training_block.thisRepN'
p2394
I1
sg163
g2210
sg30
g40
sg2211
Vnip
p2395
sS'experimental_blocks.thisN'
p2396
I3
sg42
g43
sg2214
Vhack
p2397
sg2216
Vclap
p2398
sg2218
Vbrush
p2399
sS'experimental_blocks.thisIndex'
p2400
g2223
sS'word_presentation.thisRepN'
p2401
I0
sS'experimental_blocks.thisRepN'
p2402
I0
sg44
g49
sg162
g2228
sg2229
g2230
sS'training_block.thisIndex'
p2403
g145
sg164
g2234
sg20
F5.2998617924477
sS'experimental_blocks.thisTrialN'
p2404
I3
sS'training_block.thisN'
p2405
I1
sS'word_presentation.thisN'
p2406
I8
sS'training_block.thisTrialN'
p2407
I0
sg19
S'space'
p2408
sg28
g29
sS'word_presentation.thisTrialN'
p2409
I8
sg41
g12
sS'word_presentation.thisIndex'
p2410
g31
(g131
S'\x08\x00\x00\x00'
p2411
tp2412
Rp2413
sa(dp2414
S'training_block.thisRepN'
p2415
I1
sg163
g2210
sg30
g40
sg2211
Vstroll
p2416
sS'experimental_blocks.thisN'
p2417
I3
sg42
g43
sg2214
Vbounce
p2418
sg2216
Vhop
p2419
sg2218
Vjog
p2420
sS'experimental_blocks.thisIndex'
p2421
g2223
sS'word_presentation.thisRepN'
p2422
I0
sS'experimental_blocks.thisRepN'
p2423
I0
sg44
g49
sg162
g2228
sg2229
g2255
sS'training_block.thisIndex'
p2424
g145
sg164
g2234
sg20
F6.373306582125224
sS'experimental_blocks.thisTrialN'
p2425
I3
sS'training_block.thisN'
p2426
I1
sS'word_presentation.thisN'
p2427
I9
sS'training_block.thisTrialN'
p2428
I0
sg19
S'space'
p2429
sg28
g29
sS'word_presentation.thisTrialN'
p2430
I9
sg41
g12
sS'word_presentation.thisIndex'
p2431
g31
(g131
S'\t\x00\x00\x00'
p2432
tp2433
Rp2434
sa(dp2435
S'training_block.thisRepN'
p2436
I1
sg163
g2210
sg30
g40
sg2211
Vsqueeze
p2437
sS'experimental_blocks.thisN'
p2438
I3
sg42
g43
sg2214
Vfile
p2439
sg2216
Vstir
p2440
sg2218
Vseize
p2441
sS'experimental_blocks.thisIndex'
p2442
g2223
sS'word_presentation.thisRepN'
p2443
I0
sS'experimental_blocks.thisRepN'
p2444
I0
sg44
g49
sg162
g2228
sg2229
g2230
sS'training_block.thisIndex'
p2445
g145
sg164
g2234
sg20
F6.171989777854833
sS'experimental_blocks.thisTrialN'
p2446
I3
sS'training_block.thisN'
p2447
I1
sS'word_presentation.thisN'
p2448
I10
sS'training_block.thisTrialN'
p2449
I0
sg19
S'space'
p2450
sg28
g29
sS'word_presentation.thisTrialN'
p2451
I10
sg41
g12
sS'word_presentation.thisIndex'
p2452
g31
(g131
S'\n\x00\x00\x00'
p2453
tp2454
Rp2455
sa(dp2456
S'training_block.thisRepN'
p2457
I1
sg163
g2210
sg30
g40
sg2211
Vrush
p2458
sS'experimental_blocks.thisN'
p2459
I3
sg42
g43
sg2214
Vsprint
p2460
sg2216
Vtiptoe
p2461
sg2218
Vstumble
p2462
sS'experimental_blocks.thisIndex'
p2463
g2223
sS'word_presentation.thisRepN'
p2464
I0
sS'experimental_blocks.thisRepN'
p2465
I0
sg44
g49
sg162
g2228
sg2229
g2255
sS'training_block.thisIndex'
p2466
g145
sg164
g2234
sg20
F5.165694182796869
sS'experimental_blocks.thisTrialN'
p2467
I3
sS'training_block.thisN'
p2468
I1
sS'word_presentation.thisN'
p2469
I11
sS'training_block.thisTrialN'
p2470
I0
sg19
S'space'
p2471
sg28
g29
sS'word_presentation.thisTrialN'
p2472
I11
sg41
g12
sS'word_presentation.thisIndex'
p2473
g31
(g131
S'\x0b\x00\x00\x00'
p2474
tp2475
Rp2476
sa(dp2477
S'training_block.thisRepN'
p2478
I1
sg163
g2210
sg30
g40
sg2211
Vswitch
p2479
sS'experimental_blocks.thisN'
p2480
I3
sg42
g43
sg2214
Vgrip
p2481
sg2216
Vstab
p2482
sg2218
Vclaw
p2483
sS'experimental_blocks.thisIndex'
p2484
g2223
sS'word_presentation.thisRepN'
p2485
I0
sS'experimental_blocks.thisRepN'
p2486
I0
sg44
g49
sg162
g2228
sg2229
g2230
sS'training_block.thisIndex'
p2487
g145
sg164
g2234
sg20
F6.187848877270881
sS'experimental_blocks.thisTrialN'
p2488
I3
sS'training_block.thisN'
p2489
I1
sS'word_presentation.thisN'
p2490
I12
sS'training_block.thisTrialN'
p2491
I0
sg19
S'space'
p2492
sg28
g29
sS'word_presentation.thisTrialN'
p2493
I12
sg41
g12
sS'word_presentation.thisIndex'
p2494
g31
(g131
S'\x0c\x00\x00\x00'
p2495
tp2496
Rp2497
sa(dp2498
S'training_block.thisRepN'
p2499
I1
sg163
g2210
sg30
g40
sg2211
Vcrawl
p2500
sS'experimental_blocks.thisN'
p2501
I3
sg42
g43
sg2214
Vstagger
p2502
sg2216
Vleap
p2503
sg2218
Vsway
p2504
sS'experimental_blocks.thisIndex'
p2505
g2223
sS'word_presentation.thisRepN'
p2506
I0
sS'experimental_blocks.thisRepN'
p2507
I0
sg44
g49
sg162
g2228
sg2229
g2255
sS'training_block.thisIndex'
p2508
g145
sg164
g2234
sg20
F5.9542907558206934
sS'experimental_blocks.thisTrialN'
p2509
I3
sS'training_block.thisN'
p2510
I1
sS'word_presentation.thisN'
p2511
I13
sS'training_block.thisTrialN'
p2512
I0
sg19
S'space'
p2513
sg28
g29
sS'word_presentation.thisTrialN'
p2514
I13
sg41
g12
sS'word_presentation.thisIndex'
p2515
g31
(g131
S'\r\x00\x00\x00'
p2516
tp2517
Rp2518
sa(dp2519
S'training_block.thisRepN'
p2520
I1
sg163
g2210
sg30
g40
sg2211
Vtraipse
p2521
sS'experimental_blocks.thisN'
p2522
I3
sg42
g43
sg2214
Vtrip
p2523
sg2216
Vflit
p2524
sg2218
Vinch
p2525
sS'experimental_blocks.thisIndex'
p2526
g2223
sS'word_presentation.thisRepN'
p2527
I0
sS'experimental_blocks.thisRepN'
p2528
I0
sg44
g49
sg162
g2228
sg2229
g2255
sS'training_block.thisIndex'
p2529
g145
sg164
g2234
sg20
F5.7525879344557325
sS'experimental_blocks.thisTrialN'
p2530
I3
sS'training_block.thisN'
p2531
I1
sS'word_presentation.thisN'
p2532
I14
sS'training_block.thisTrialN'
p2533
I0
sg19
S'space'
p2534
sg28
g29
sS'word_presentation.thisTrialN'
p2535
I14
sg41
g12
sS'word_presentation.thisIndex'
p2536
g31
(g131
S'\x0e\x00\x00\x00'
p2537
tp2538
Rp2539
sa(dp2540
S'training_block.thisRepN'
p2541
I1
sg163
g2210
sg30
g40
sg2211
Vdig
p2542
sS'experimental_blocks.thisN'
p2543
I3
sg42
g43
sg2214
Vwipe
p2544
sg2216
Vpoke
p2545
sg2218
Vsnatch
p2546
sS'experimental_blocks.thisIndex'
p2547
g2223
sS'word_presentation.thisRepN'
p2548
I0
sS'experimental_blocks.thisRepN'
p2549
I0
sg44
g49
sg162
g2228
sg2229
g2230
sS'training_block.thisIndex'
p2550
g145
sg164
g2234
sg20
F5.115279244055273
sS'experimental_blocks.thisTrialN'
p2551
I3
sS'training_block.thisN'
p2552
I1
sS'word_presentation.thisN'
p2553
I15
sS'training_block.thisTrialN'
p2554
I0
sg19
S'space'
p2555
sg28
g29
sS'word_presentation.thisTrialN'
p2556
I15
sg41
g12
sS'word_presentation.thisIndex'
p2557
g31
(g131
S'\x0f\x00\x00\x00'
p2558
tp2559
Rp2560
sa(dp2561
S'training_block.thisRepN'
p2562
I1
sg163
g2210
sg30
g40
sg2211
Vflee
p2563
sS'experimental_blocks.thisN'
p2564
I3
sg42
g43
sg2214
Vstray
p2565
sg2216
Vroll
p2566
sg2218
Vtrek
p2567
sS'experimental_blocks.thisIndex'
p2568
g2223
sS'word_presentation.thisRepN'
p2569
I0
sS'experimental_blocks.thisRepN'
p2570
I0
sg44
g49
sg162
g2228
sg2229
g2255
sS'training_block.thisIndex'
p2571
g145
sg164
g2234
sg20
F5.199385928590345
sS'experimental_blocks.thisTrialN'
p2572
I3
sS'training_block.thisN'
p2573
I1
sS'word_presentation.thisN'
p2574
I16
sS'training_block.thisTrialN'
p2575
I0
sg19
S'space'
p2576
sg28
g29
sS'word_presentation.thisTrialN'
p2577
I16
sg41
g12
sS'word_presentation.thisIndex'
p2578
g31
(g131
S'\x10\x00\x00\x00'
p2579
tp2580
Rp2581
sa(dp2582
S'training_block.thisRepN'
p2583
I1
sg163
g2210
sg30
g40
sg2211
Vtoss
p2584
sS'experimental_blocks.thisN'
p2585
I3
sg42
g43
sg2214
Vcatch
p2586
sg2216
Vbash
p2587
sg2218
Vdelve
p2588
sS'experimental_blocks.thisIndex'
p2589
g2223
sS'word_presentation.thisRepN'
p2590
I0
sS'experimental_blocks.thisRepN'
p2591
I0
sg44
g49
sg162
g2228
sg2229
g2230
sS'training_block.thisIndex'
p2592
g145
sg164
g2234
sg20
F8.553209117748338
sS'experimental_blocks.thisTrialN'
p2593
I3
sS'training_block.thisN'
p2594
I1
sS'word_presentation.thisN'
p2595
I17
sS'training_block.thisTrialN'
p2596
I0
sg19
S'space'
p2597
sg28
g29
sS'word_presentation.thisTrialN'
p2598
I17
sg41
g12
sS'word_presentation.thisIndex'
p2599
g31
(g131
S'\x11\x00\x00\x00'
p2600
tp2601
Rp2602
sa(dp2603
S'training_block.thisRepN'
p2604
I1
sg163
g2210
sg30
g40
sg2211
Vclick
p2605
sS'experimental_blocks.thisN'
p2606
I3
sg42
g43
sg2214
Vpunch
p2607
sg2216
Vscratch
p2608
sg2218
Vtwine
p2609
sS'experimental_blocks.thisIndex'
p2610
g2223
sS'word_presentation.thisRepN'
p2611
I0
sS'experimental_blocks.thisRepN'
p2612
I0
sg44
g49
sg162
g2228
sg2229
g2230
sS'training_block.thisIndex'
p2613
g145
sg164
g2234
sg20
F8.486841439824275
sS'experimental_blocks.thisTrialN'
p2614
I3
sS'training_block.thisN'
p2615
I1
sS'word_presentation.thisN'
p2616
I18
sS'training_block.thisTrialN'
p2617
I0
sg19
S'space'
p2618
sg28
g29
sS'word_presentation.thisTrialN'
p2619
I18
sg41
g12
sS'word_presentation.thisIndex'
p2620
g31
(g131
S'\x12\x00\x00\x00'
p2621
tp2622
Rp2623
sa(dp2624
S'training_block.thisRepN'
p2625
I1
sg163
g2210
sg30
g40
sg2211
Vdance
p2626
sS'experimental_blocks.thisN'
p2627
I3
sg42
g43
sg2214
Vslide
p2628
sg2216
Vstep
p2629
sg2218
Vrun
p2630
sS'experimental_blocks.thisIndex'
p2631
g2223
sS'word_presentation.thisRepN'
p2632
I0
sS'experimental_blocks.thisRepN'
p2633
I0
sg44
g49
sg162
g2228
sg2229
g2255
sS'training_block.thisIndex'
p2634
g145
sg164
g2234
sg20
F6.742704395457622
sS'experimental_blocks.thisTrialN'
p2635
I3
sS'training_block.thisN'
p2636
I1
sS'word_presentation.thisN'
p2637
I19
sS'training_block.thisTrialN'
p2638
I0
sg19
S'space'
p2639
sg28
g29
sS'word_presentation.thisTrialN'
p2640
I19
sg41
g12
sS'word_presentation.thisIndex'
p2641
g31
(g131
S'\x13\x00\x00\x00'
p2642
tp2643
Rp2644
sa(dp2645
S'training_block.thisRepN'
p2646
I1
sg163
g2210
sg30
g40
sg2211
Vtread
p2647
sS'experimental_blocks.thisN'
p2648
I3
sg42
g43
sg2214
Vstamp
p2649
sg2216
Vstrut
p2650
sg2218
Vwade
p2651
sS'experimental_blocks.thisIndex'
p2652
g2223
sS'word_presentation.thisRepN'
p2653
I0
sS'experimental_blocks.thisRepN'
p2654
I0
sg44
g49
sg162
g2228
sg2229
g2255
sS'training_block.thisIndex'
p2655
g145
sg164
g2234
sg20
F6.524149972185114
sS'experimental_blocks.thisTrialN'
p2656
I3
sS'training_block.thisN'
p2657
I1
sS'word_presentation.thisN'
p2658
I20
sS'training_block.thisTrialN'
p2659
I0
sg19
S'space'
p2660
sg28
g29
sS'word_presentation.thisTrialN'
p2661
I20
sg41
g12
sS'word_presentation.thisIndex'
p2662
g31
(g131
S'\x14\x00\x00\x00'
p2663
tp2664
Rp2665
sa(dp2666
S'training_block.thisRepN'
p2667
I1
sg163
g2210
sg30
g40
sg2211
Vpush
p2668
sS'experimental_blocks.thisN'
p2669
I3
sg42
g43
sg2214
Vwhip
p2670
sg2216
Vchop
p2671
sg2218
Vbraid
p2672
sS'experimental_blocks.thisIndex'
p2673
g2223
sS'word_presentation.thisRepN'
p2674
I0
sS'experimental_blocks.thisRepN'
p2675
I0
sg44
g49
sg162
g2228
sg2229
g2230
sS'training_block.thisIndex'
p2676
g145
sg164
g2234
sg20
F4.4786951752994355
sS'experimental_blocks.thisTrialN'
p2677
I3
sS'training_block.thisN'
p2678
I1
sS'word_presentation.thisN'
p2679
I21
sS'training_block.thisTrialN'
p2680
I0
sg19
S'space'
p2681
sg28
g29
sS'word_presentation.thisTrialN'
p2682
I21
sg41
g12
sS'word_presentation.thisIndex'
p2683
g31
(g131
S'\x15\x00\x00\x00'
p2684
tp2685
Rp2686
sa(dp2687
S'training_block.thisRepN'
p2688
I1
sg163
g2210
sg30
g40
sg2211
Vkneel
p2689
sS'experimental_blocks.thisN'
p2690
I3
sg42
g43
sg2214
Vhike
p2691
sg2216
Vscuff
p2692
sg2218
Vglide
p2693
sS'experimental_blocks.thisIndex'
p2694
g2223
sS'word_presentation.thisRepN'
p2695
I0
sS'experimental_blocks.thisRepN'
p2696
I0
sg44
g49
sg162
g2228
sg2229
g2255
sS'training_block.thisIndex'
p2697
g145
sg164
g2234
sg20
F4.830576030748489
sS'experimental_blocks.thisTrialN'
p2698
I3
sS'training_block.thisN'
p2699
I1
sS'word_presentation.thisN'
p2700
I22
sS'training_block.thisTrialN'
p2701
I0
sg19
S'space'
p2702
sg28
g29
sS'word_presentation.thisTrialN'
p2703
I22
sg41
g12
sS'word_presentation.thisIndex'
p2704
g31
(g131
S'\x16\x00\x00\x00'
p2705
tp2706
Rp2707
sa(dp2708
S'training_block.thisRepN'
p2709
I1
sg163
g2210
sg30
g40
sg2211
Vlift
p2710
sS'experimental_blocks.thisN'
p2711
I3
sg42
g43
sg2214
Vcarve
p2712
sg2216
Vscrub
p2713
sg2218
Vpinch
p2714
sS'experimental_blocks.thisIndex'
p2715
g2223
sS'word_presentation.thisRepN'
p2716
I0
sS'experimental_blocks.thisRepN'
p2717
I0
sg44
g49
sg162
g2228
sg2229
g2230
sS'training_block.thisIndex'
p2718
g145
sg164
g2234
sg20
F4.930911632507559
sS'experimental_blocks.thisTrialN'
p2719
I3
sS'training_block.thisN'
p2720
I1
sS'word_presentation.thisN'
p2721
I23
sS'training_block.thisTrialN'
p2722
I0
sg19
S'space'
p2723
sg28
g29
sS'word_presentation.thisTrialN'
p2724
I23
sg41
g12
sS'word_presentation.thisIndex'
p2725
g31
(g131
S'\x17\x00\x00\x00'
p2726
tp2727
Rp2728
sa(dp2729
S'training_block.thisRepN'
p2730
I1
sg163
g2210
sg30
g40
sg2211
Vsneak
p2731
sS'experimental_blocks.thisN'
p2732
I3
sg42
g43
sg2214
Vmarch
p2733
sg2216
Vwobble
p2734
sg2218
Vskate
p2735
sS'experimental_blocks.thisIndex'
p2736
g2223
sS'word_presentation.thisRepN'
p2737
I0
sS'experimental_blocks.thisRepN'
p2738
I0
sg44
g49
sg162
g2228
sg2229
g2255
sS'training_block.thisIndex'
p2739
g145
sg164
g2234
sg20
F6.138386535471
sS'experimental_blocks.thisTrialN'
p2740
I3
sS'training_block.thisN'
p2741
I1
sS'word_presentation.thisN'
p2742
I24
sS'training_block.thisTrialN'
p2743
I0
sg19
S'space'
p2744
sg28
g29
sS'word_presentation.thisTrialN'
p2745
I24
sg41
g12
sS'word_presentation.thisIndex'
p2746
g31
(g131
S'\x18\x00\x00\x00'
p2747
tp2748
Rp2749
sa(dp2750
S'training_block.thisRepN'
p2751
I1
sg163
g2210
sg30
g40
sg2211
Vskim
p2752
sS'experimental_blocks.thisN'
p2753
I3
sg42
g43
sg2214
Vclutch
p2754
sg2216
Vpeel
p2755
sg2218
Vclean
p2756
sS'experimental_blocks.thisIndex'
p2757
g2223
sS'word_presentation.thisRepN'
p2758
I0
sS'experimental_blocks.thisRepN'
p2759
I0
sg44
g49
sg162
g2228
sg2229
g2230
sS'training_block.thisIndex'
p2760
g145
sg164
g2234
sg20
F7.060821596094684
sS'experimental_blocks.thisTrialN'
p2761
I3
sS'training_block.thisN'
p2762
I1
sS'word_presentation.thisN'
p2763
I25
sS'training_block.thisTrialN'
p2764
I0
sg19
S'space'
p2765
sg28
g29
sS'word_presentation.thisTrialN'
p2766
I25
sg41
g12
sS'word_presentation.thisIndex'
p2767
g31
(g131
S'\x19\x00\x00\x00'
p2768
tp2769
Rp2770
sa(dp2771
S'training_block.thisRepN'
p2772
I1
sg163
g2210
sg30
g40
sg2211
Vtrot
p2773
sS'experimental_blocks.thisN'
p2774
I3
sg42
g43
sg2214
Vstride
p2775
sg2216
Vwander
p2776
sg2218
Vwalk
p2777
sS'experimental_blocks.thisIndex'
p2778
g2223
sS'word_presentation.thisRepN'
p2779
I0
sS'experimental_blocks.thisRepN'
p2780
I0
sg44
g49
sg162
g2228
sg2229
g2255
sS'training_block.thisIndex'
p2781
g145
sg164
g2234
sg20
F5.769453365026493
sS'experimental_blocks.thisTrialN'
p2782
I3
sS'training_block.thisN'
p2783
I1
sS'word_presentation.thisN'
p2784
I26
sS'training_block.thisTrialN'
p2785
I0
sg19
S'space'
p2786
sg28
g29
sS'word_presentation.thisTrialN'
p2787
I26
sg41
g12
sS'word_presentation.thisIndex'
p2788
g31
(g131
S'\x1a\x00\x00\x00'
p2789
tp2790
Rp2791
sa(dp2792
S'training_block.thisRepN'
p2793
I1
sg163
g2210
sg30
g40
sg2211
Vpat
p2794
sS'experimental_blocks.thisN'
p2795
I3
sg42
g43
sg2214
Vslap
p2796
sg2216
Vfold
p2797
sg2218
Vthrow
p2798
sS'experimental_blocks.thisIndex'
p2799
g2223
sS'word_presentation.thisRepN'
p2800
I0
sS'experimental_blocks.thisRepN'
p2801
I0
sg44
g49
sg162
g2228
sg2229
g2230
sS'training_block.thisIndex'
p2802
g145
sg164
g2234
sg20
F7.463315732746196
sS'experimental_blocks.thisTrialN'
p2803
I3
sS'training_block.thisN'
p2804
I1
sS'word_presentation.thisN'
p2805
I27
sS'training_block.thisTrialN'
p2806
I0
sg19
S'space'
p2807
sg28
g29
sS'word_presentation.thisTrialN'
p2808
I27
sg41
g12
sS'word_presentation.thisIndex'
p2809
g31
(g131
S'\x1b\x00\x00\x00'
p2810
tp2811
Rp2812
sa(dp2813
S'training_block.thisRepN'
p2814
I1
sg163
g2210
sS'experimental_blocks.thisRepN'
p2815
I0
sS'experimental_blocks.thisTrialN'
p2816
I3
sS'training_block.thisN'
p2817
I1
sg42
g43
sg41
g12
sg30
g40
sS'training_block.thisTrialN'
p2818
I0
sg44
g49
sS'experimental_blocks.thisN'
p2819
I3
sg164
g2234
sg28
g29
sS'experimental_blocks.thisIndex'
p2820
g2223
sg162
g2228
sS'training_block.thisIndex'
p2821
g145
sasS'loops'
p2822
(lp2823
g54
ag0
(g52
g2
Ntp2824
Rp2825
(dp2826
g56
Nsg57
(lp2827
sg58
I353542128
sg11
S'word_presentation_training'
p2828
sg6
I-1
sg60
I1
sg25
I01
sg26
g27
sg61
g0
(g62
g63
(dp2829
g65
g66
(g67
g68
g69
g70
tp2830
Rp2831
(I1
(I4
I1
tp2832
g76
I00
S'\x00\x00\x80?\x00\x00\x80?\x00\x00\x80?\x00\x00\x80?'
p2833
S'\x00\x00\x00\x00'
p2834
Ntp2835
bsg20
g66
(g67
g68
g69
g70
tp2836
Rp2837
(I1
(I4
I1
tp2838
g76
I00
S'\x96\x13"A\xdcG\xe3A\x83b\xc4@\xcbB\xdf@'
p2839
S'\x00\x00\x00\x00'
p2840
Ntp2841
bsg105
g66
(g67
g68
g69
g70
tp2842
Rp2843
(I1
(I4
I1
tp2844
g76
I00
S'\x00\x00\x00@\x00\x00\x00\x00\x00\x00\x80?\x00\x00@@'
p2845
S'\x00\x00\x00\x00'
p2846
Ntp2847
bsg19
g88
(g68
(I0
tp2848
g70
tp2849
Rp2850
(I1
(I4
I1
tp2851
g95
I00
(lp2852
g227
ag178
ag207
ag247
atp2853
bstp2854
Rp2855
(dp2856
g115
(dp2857
g65
I01
sg20
I01
sg105
I01
sg19
I00
ssg117
g2825
sg118
(lp2858
g65
ag105
ag19
ag20
asg120
(lp2859
I4
aI1
asbsg122
g123
sg124
g88
(g68
(I0
tp2860
g70
tp2861
Rp2862
(I1
(I4
I1
tp2863
g131
I00
S'\x01\x00\x00\x00\x02\x00\x00\x00\x00\x00\x00\x00\x03\x00\x00\x00'
p2864
tp2865
bsg136
I01
sg137
I1
sg138
I-1
sg139
(lp2866
ccollections
OrderedDict
p2867
((lp2868
(lp2869
g156
ag230
aa(lp2870
g157
ag195
aa(lp2871
g158
ag231
aa(lp2872
g159
ag237
aa(lp2873
g160
ag236
aa(lp2874
g161
ag224
aatp2875
Rp2876
ag2867
((lp2877
(lp2878
g156
ag186
aa(lp2879
g157
ag195
aa(lp2880
g158
ag187
aa(lp2881
g159
ag193
aa(lp2882
g160
ag192
aa(lp2883
g161
ag175
aatp2884
Rp2885
ag2867
((lp2886
(lp2887
g156
ag210
aa(lp2888
g157
ag195
aa(lp2889
g158
ag211
aa(lp2890
g159
ag217
aa(lp2891
g160
ag216
aa(lp2892
g161
ag204
aatp2893
Rp2894
ag2867
((lp2895
(lp2896
g156
ag250
aa(lp2897
g157
ag195
aa(lp2898
g158
ag251
aa(lp2899
g159
ag257
aa(lp2900
g160
ag256
aa(lp2901
g161
ag244
aatp2902
Rp2903
asg141
Nsg142
g255
sg146
I4
sg147
I0
sg148
I4
sbag0
(g52
g2
Ntp2904
Rp2905
(dp2906
g56
Nsg57
(lp2907
sg58
I353542128
sg11
g2828
sg6
I-1
sg60
I1
sg25
I01
sg26
g27
sg61
g0
(g62
g63
(dp2908
g65
g66
(g67
g68
g69
g70
tp2909
Rp2910
(I1
(I4
I1
tp2911
g76
I00
S'\x00\x00\x80?\x00\x00\x80?\x00\x00\x80?\x00\x00\x80?'
p2912
S'\x00\x00\x00\x00'
p2913
Ntp2914
bsg20
g66
(g67
g68
g69
g70
tp2915
Rp2916
(I1
(I4
I1
tp2917
g76
I00
S'>\t\x9a@}\n\xc6@\xda\xd8\xac@$\xf8\x82@'
p2918
S'\x00\x00\x00\x00'
p2919
Ntp2920
bsg105
g66
(g67
g68
g69
g70
tp2921
Rp2922
(I1
(I4
I1
tp2923
g76
I00
S'\x00\x00\x80?\x00\x00@@\x00\x00\x00\x00\x00\x00\x00@'
p2924
S'\x00\x00\x00\x00'
p2925
Ntp2926
bsg19
g88
(g68
(I0
tp2927
g70
tp2928
Rp2929
(I1
(I4
I1
tp2930
g95
I00
(lp2931
g299
ag339
ag273
ag319
atp2932
bstp2933
Rp2934
(dp2935
g115
(dp2936
g65
I01
sg20
I01
sg105
I01
sg19
I00
ssg117
g2905
sg118
(lp2937
g65
ag105
ag19
ag20
asg120
(lp2938
I4
aI1
asbsg122
g123
sg124
g88
(g68
(I0
tp2939
g70
tp2940
Rp2941
(I1
(I4
I1
tp2942
g131
I00
S'\x02\x00\x00\x00\x00\x00\x00\x00\x03\x00\x00\x00\x01\x00\x00\x00'
p2943
tp2944
bsg136
I01
sg137
I1
sg138
I-1
sg139
(lp2945
g2867
((lp2946
(lp2947
g274
ag302
aa(lp2948
g289
ag290
aa(lp2949
g278
ag303
aa(lp2950
g286
ag309
aa(lp2951
g284
ag308
aa(lp2952
g269
ag296
aatp2953
Rp2954
ag2867
((lp2955
(lp2956
g274
ag342
aa(lp2957
g289
ag290
aa(lp2958
g278
ag343
aa(lp2959
g286
ag349
aa(lp2960
g284
ag348
aa(lp2961
g269
ag336
aatp2962
Rp2963
ag2867
((lp2964
(lp2965
g274
ag277
aa(lp2966
g289
ag290
aa(lp2967
g278
ag279
aa(lp2968
g286
ag287
aa(lp2969
g284
ag285
aa(lp2970
g269
ag270
aatp2971
Rp2972
ag2867
((lp2973
(lp2974
g274
ag322
aa(lp2975
g289
ag290
aa(lp2976
g278
ag323
aa(lp2977
g286
ag329
aa(lp2978
g284
ag328
aa(lp2979
g269
ag316
aatp2980
Rp2981
asg141
Nsg142
g347
sg146
I4
sg147
I0
sg148
I4
sbag0
(g52
g2
Ntp2982
Rp2983
(dp2984
g56
Nsg57
(lp2985
sg58
I353542128
sg11
S'experimental_blocks'
p2986
sg6
I-1
sg60
I1
sg25
I01
sg26
g27
sg61
g0
(g62
g63
(dp2987
g65
g66
(g67
g68
g69
g70
tp2988
Rp2989
(I1
(I4
I1
tp2990
g76
I00
S'\x00\x00\x80?\x00\x00\x80?\x00\x00\x80?\x00\x00\x80?'
p2991
S'\x00\x00\x00\x00'
p2992
Ntp2993
bsg105
g66
(g67
g68
g69
g70
tp2994
Rp2995
(I1
(I4
I1
tp2996
g76
I00
S'\x00\x00\x00\x00\x00\x00@@\x00\x00\x00@\x00\x00\x80?'
p2997
S'\x00\x00\x00\x00'
p2998
Ntp2999
bstp3000
Rp3001
(dp3002
g115
(dp3003
g65
I01
sg105
I01
ssg117
g2983
sg118
(lp3004
g65
ag105
asg120
(lp3005
I4
aI1
asbsg122
g123
sg124
g88
(g68
(I0
tp3006
g70
tp3007
Rp3008
(I1
(I4
I1
tp3009
g131
I00
S'\x00\x00\x00\x00\x03\x00\x00\x00\x02\x00\x00\x00\x01\x00\x00\x00'
p3010
tp3011
bsg136
I01
sg137
I1
sg138
I-1
sg139
(lp3012
g2867
((lp3013
(lp3014
g162
ag380
aa(lp3015
g163
ag362
aa(lp3016
g164
ag386
aatp3017
Rp3018
ag2867
((lp3019
(lp3020
g162
ag2228
aa(lp3021
g163
ag2210
aa(lp3022
g164
ag2234
aatp3023
Rp3024
ag2867
((lp3025
(lp3026
g162
ag1612
aa(lp3027
g163
ag1594
aa(lp3028
g164
ag1618
aatp3029
Rp3030
ag2867
((lp3031
(lp3032
g162
ag996
aa(lp3033
g163
ag978
aa(lp3034
g164
ag1002
aatp3035
Rp3036
asg141
Nsg142
g2223
sg146
I4
sg147
I0
sg148
I4
sbag0
(g52
g2
Ntp3037
Rp3038
(dp3039
g56
Nsg57
(lp3040
sg58
I353542128
sg11
S'word_presentation'
p3041
sg6
I-1
sg60
I1
sg25
I01
sg26
g27
sg61
g0
(g62
g63
(dp3042
g65
g66
(g67
g68
g69
g70
tp3043
Rp3044
(I1
(I28
I1
tp3045
g76
I00
S'\x00\x00\x80?\x00\x00\x80?\x00\x00\x80?\x00\x00\x80?\x00\x00\x80?\x00\x00\x80?\x00\x00\x80?\x00\x00\x80?\x00\x00\x80?\x00\x00\x80?\x00\x00\x80?\x00\x00\x80?\x00\x00\x80?\x00\x00\x80?\x00\x00\x80?\x00\x00\x80?\x00\x00\x80?\x00\x00\x80?\x00\x00\x80?\x00\x00\x80?\x00\x00\x80?\x00\x00\x80?\x00\x00\x80?\x00\x00\x80?\x00\x00\x80?\x00\x00\x80?\x00\x00\x80?\x00\x00\x80?'
p3046
S'\x00\x00\x00\x00\x00\x00\x00\x00\x00\x00\x00\x00\x00\x00\x00\x00\x00\x00\x00\x00\x00\x00\x00\x00\x00\x00\x00\x00'
p3047
Ntp3048
bsg20
g66
(g67
g68
g69
g70
tp3049
Rp3050
(I1
(I28
I1
tp3051
g76
I00
S'\xe2B\xdf@L\x18\xfa@\xf3\xf5\xc4Ak\xc7\x92A\x15\x06\xa5A\xd0\x0e\xbf@\xc2\x17CA\x92\xf5\xf0@\x9d\x03\xcd@w\xbd\x95@\x14%#A\xf4(\x9aA\xcc\xcd\x00AD5LA&\xde\xe7@\x19EnA\xd9\xe7\xe8@\xb1\x18\x1bA\x1fq\x11A\xd93\xc1@\xab\x92;A\xae[\xfaAY\x93\x08AW\xce\x00A\x1d\xf8\x11AY\xbe\xc1@\x16HXA\xfa\xa9\xaa@'
p3052
S'\x00\x00\x00\x00\x00\x00\x00\x00\x00\x00\x00\x00\x00\x00\x00\x00\x00\x00\x00\x00\x00\x00\x00\x00\x00\x00\x00\x00'
p3053
Ntp3054
bsg105
g66
(g67
g68
g69
g70
tp3055
Rp3056
(I1
(I28
I1
tp3057
g76
I00
S'\x00\x00\x00\x00\x00\x00\x80?\x00\x00\x00@\x00\x00@@\x00\x00\x80@\x00\x00\xa0@\x00\x00\xc0@\x00\x00\xe0@\x00\x00\x00A\x00\x00\x10A\x00\x00 A\x00\x000A\x00\x00@A\x00\x00PA\x00\x00`A\x00\x00pA\x00\x00\x80A\x00\x00\x88A\x00\x00\x90A\x00\x00\x98A\x00\x00\xa0A\x00\x00\xa8A\x00\x00\xb0A\x00\x00\xb8A\x00\x00\xc0A\x00\x00\xc8A\x00\x00\xd0A\x00\x00\xd8A'
p3058
S'\x00\x00\x00\x00\x00\x00\x00\x00\x00\x00\x00\x00\x00\x00\x00\x00\x00\x00\x00\x00\x00\x00\x00\x00\x00\x00\x00\x00'
p3059
Ntp3060
bsg19
g88
(g68
(I0
tp3061
g70
tp3062
Rp3063
(I1
(I28
I1
tp3064
g95
I00
(lp3065
g391
ag413
ag434
ag455
ag476
ag497
ag518
ag539
ag560
ag581
ag602
ag623
ag644
ag665
ag686
ag707
ag728
ag749
ag770
ag791
ag812
ag833
ag854
ag875
ag896
ag917
ag938
ag959
atp3066
bstp3067
Rp3068
(dp3069
g115
(dp3070
g65
I01
sg20
I01
sg105
I01
sg19
I00
ssg117
g3038
sg118
(lp3071
g65
ag105
ag19
ag20
asg120
(lp3072
I28
aI1
asbsg122
S'sequential'
p3073
sg124
g88
(g68
(I0
tp3074
g70
tp3075
Rp3076
(I1
(I28
I1
tp3077
g131
I00
S'\x00\x00\x00\x00\x01\x00\x00\x00\x02\x00\x00\x00\x03\x00\x00\x00\x04\x00\x00\x00\x05\x00\x00\x00\x06\x00\x00\x00\x07\x00\x00\x00\x08\x00\x00\x00\t\x00\x00\x00\n\x00\x00\x00\x0b\x00\x00\x00\x0c\x00\x00\x00\r\x00\x00\x00\x0e\x00\x00\x00\x0f\x00\x00\x00\x10\x00\x00\x00\x11\x00\x00\x00\x12\x00\x00\x00\x13\x00\x00\x00\x14\x00\x00\x00\x15\x00\x00\x00\x16\x00\x00\x00\x17\x00\x00\x00\x18\x00\x00\x00\x19\x00\x00\x00\x1a\x00\x00\x00\x1b\x00\x00\x00'
p3078
tp3079
bsg136
I01
sg137
I1
sg138
I-1
sg139
(lp3080
g2867
((lp3081
(lp3082
g381
ag382
aa(lp3083
g366
ag367
aa(lp3084
g370
ag371
aa(lp3085
g368
ag369
aa(lp3086
g363
ag364
aatp3087
Rp3088
ag2867
((lp3089
(lp3090
g381
ag407
aa(lp3091
g366
ag401
aa(lp3092
g370
ag403
aa(lp3093
g368
ag402
aa(lp3094
g363
ag399
aatp3095
Rp3096
ag2867
((lp3097
(lp3098
g381
ag407
aa(lp3099
g366
ag423
aa(lp3100
g370
ag425
aa(lp3101
g368
ag424
aa(lp3102
g363
ag421
aatp3103
Rp3104
ag2867
((lp3105
(lp3106
g381
ag382
aa(lp3107
g366
ag444
aa(lp3108
g370
ag446
aa(lp3109
g368
ag445
aa(lp3110
g363
ag442
aatp3111
Rp3112
ag2867
((lp3113
(lp3114
g381
ag407
aa(lp3115
g366
ag465
aa(lp3116
g370
ag467
aa(lp3117
g368
ag466
aa(lp3118
g363
ag463
aatp3119
Rp3120
ag2867
((lp3121
(lp3122
g381
ag407
aa(lp3123
g366
ag486
aa(lp3124
g370
ag488
aa(lp3125
g368
ag487
aa(lp3126
g363
ag484
aatp3127
Rp3128
ag2867
((lp3129
(lp3130
g381
ag407
aa(lp3131
g366
ag507
aa(lp3132
g370
ag509
aa(lp3133
g368
ag508
aa(lp3134
g363
ag505
aatp3135
Rp3136
ag2867
((lp3137
(lp3138
g381
ag382
aa(lp3139
g366
ag528
aa(lp3140
g370
ag530
aa(lp3141
g368
ag529
aa(lp3142
g363
ag526
aatp3143
Rp3144
ag2867
((lp3145
(lp3146
g381
ag407
aa(lp3147
g366
ag549
aa(lp3148
g370
ag551
aa(lp3149
g368
ag550
aa(lp3150
g363
ag547
aatp3151
Rp3152
ag2867
((lp3153
(lp3154
g381
ag407
aa(lp3155
g366
ag570
aa(lp3156
g370
ag572
aa(lp3157
g368
ag571
aa(lp3158
g363
ag568
aatp3159
Rp3160
ag2867
((lp3161
(lp3162
g381
ag382
aa(lp3163
g366
ag591
aa(lp3164
g370
ag593
aa(lp3165
g368
ag592
aa(lp3166
g363
ag589
aatp3167
Rp3168
ag2867
((lp3169
(lp3170
g381
ag382
aa(lp3171
g366
ag612
aa(lp3172
g370
ag614
aa(lp3173
g368
ag613
aa(lp3174
g363
ag610
aatp3175
Rp3176
ag2867
((lp3177
(lp3178
g381
ag407
aa(lp3179
g366
ag633
aa(lp3180
g370
ag635
aa(lp3181
g368
ag634
aa(lp3182
g363
ag631
aatp3183
Rp3184
ag2867
((lp3185
(lp3186
g381
ag407
aa(lp3187
g366
ag654
aa(lp3188
g370
ag656
aa(lp3189
g368
ag655
aa(lp3190
g363
ag652
aatp3191
Rp3192
ag2867
((lp3193
(lp3194
g381
ag407
aa(lp3195
g366
ag675
aa(lp3196
g370
ag677
aa(lp3197
g368
ag676
aa(lp3198
g363
ag673
aatp3199
Rp3200
ag2867
((lp3201
(lp3202
g381
ag382
aa(lp3203
g366
ag696
aa(lp3204
g370
ag698
aa(lp3205
g368
ag697
aa(lp3206
g363
ag694
aatp3207
Rp3208
ag2867
((lp3209
(lp3210
g381
ag407
aa(lp3211
g366
ag717
aa(lp3212
g370
ag719
aa(lp3213
g368
ag718
aa(lp3214
g363
ag715
aatp3215
Rp3216
ag2867
((lp3217
(lp3218
g381
ag382
aa(lp3219
g366
ag738
aa(lp3220
g370
ag740
aa(lp3221
g368
ag739
aa(lp3222
g363
ag736
aatp3223
Rp3224
ag2867
((lp3225
(lp3226
g381
ag382
aa(lp3227
g366
ag759
aa(lp3228
g370
ag761
aa(lp3229
g368
ag760
aa(lp3230
g363
ag757
aatp3231
Rp3232
ag2867
((lp3233
(lp3234
g381
ag382
aa(lp3235
g366
ag780
aa(lp3236
g370
ag782
aa(lp3237
g368
ag781
aa(lp3238
g363
ag778
aatp3239
Rp3240
ag2867
((lp3241
(lp3242
g381
ag407
aa(lp3243
g366
ag801
aa(lp3244
g370
ag803
aa(lp3245
g368
ag802
aa(lp3246
g363
ag799
aatp3247
Rp3248
ag2867
((lp3249
(lp3250
g381
ag382
aa(lp3251
g366
ag822
aa(lp3252
g370
ag824
aa(lp3253
g368
ag823
aa(lp3254
g363
ag820
aatp3255
Rp3256
ag2867
((lp3257
(lp3258
g381
ag382
aa(lp3259
g366
ag843
aa(lp3260
g370
ag845
aa(lp3261
g368
ag844
aa(lp3262
g363
ag841
aatp3263
Rp3264
ag2867
((lp3265
(lp3266
g381
ag382
aa(lp3267
g366
ag864
aa(lp3268
g370
ag866
aa(lp3269
g368
ag865
aa(lp3270
g363
ag862
aatp3271
Rp3272
ag2867
((lp3273
(lp3274
g381
ag407
aa(lp3275
g366
ag885
aa(lp3276
g370
ag887
aa(lp3277
g368
ag886
aa(lp3278
g363
ag883
aatp3279
Rp3280
ag2867
((lp3281
(lp3282
g381
ag382
aa(lp3283
g366
ag906
aa(lp3284
g370
ag908
aa(lp3285
g368
ag907
aa(lp3286
g363
ag904
aatp3287
Rp3288
ag2867
((lp3289
(lp3290
g381
ag382
aa(lp3291
g366
ag927
aa(lp3292
g370
ag929
aa(lp3293
g368
ag928
aa(lp3294
g363
ag925
aatp3295
Rp3296
ag2867
((lp3297
(lp3298
g381
ag407
aa(lp3299
g366
ag948
aa(lp3300
g370
ag950
aa(lp3301
g368
ag949
aa(lp3302
g363
ag946
aatp3303
Rp3304
asg141
Nsg142
g964
sg146
I28
sg147
I0
sg148
I28
sbag0
(g52
g2
Ntp3305
Rp3306
(dp3307
g56
Nsg57
(lp3308
sg58
I353542128
sg11
g3041
sg6
I-1
sg60
I1
sg25
I01
sg26
g27
sg61
g0
(g62
g63
(dp3309
g65
g66
(g67
g68
g69
g70
tp3310
Rp3311
(I1
(I28
I1
tp3312
g76
I00
S'\x00\x00\x80?\x00\x00\x80?\x00\x00\x80?\x00\x00\x80?\x00\x00\x80?\x00\x00\x80?\x00\x00\x80?\x00\x00\x80?\x00\x00\x80?\x00\x00\x80?\x00\x00\x80?\x00\x00\x80?\x00\x00\x80?\x00\x00\x80?\x00\x00\x80?\x00\x00\x80?\x00\x00\x80?\x00\x00\x80?\x00\x00\x80?\x00\x00\x80?\x00\x00\x80?\x00\x00\x80?\x00\x00\x80?\x00\x00\x80?\x00\x00\x80?\x00\x00\x80?\x00\x00\x80?\x00\x00\x80?'
p3313
S'\x00\x00\x00\x00\x00\x00\x00\x00\x00\x00\x00\x00\x00\x00\x00\x00\x00\x00\x00\x00\x00\x00\x00\x00\x00\x00\x00\x00'
p3314
Ntp3315
bsg20
g66
(g67
g68
g69
g70
tp3316
Rp3317
(I1
(I28
I1
tp3318
g76
I00
S"\xcdr'A\xd8P\xe7@\xbd46A\x06\x9f\x8eA\x85d\xe8@\xa1\xc1bA\xf2|\x03A\x9a\xa6\xd6@\xbbQ\x13A\xd1N\xbb@\x03M0A\x01'\xc0@ \x1a\x1bA)T\xb4@-\x9b\xeb@\x8d\x15NAfp\x86AP\x92\xb0@n\xbb\nAY\xb9\x11AX\xb8SAj\xd1\xdf@f\xfb2A\n;\xed@e\xdd\xb4@\x9bF!AT\xe0\xe0@I\xb6\xfb@"
p3319
S'\x00\x00\x00\x00\x00\x00\x00\x00\x00\x00\x00\x00\x00\x00\x00\x00\x00\x00\x00\x00\x00\x00\x00\x00\x00\x00\x00\x00'
p3320
Ntp3321
bsg105
g66
(g67
g68
g69
g70
tp3322
Rp3323
(I1
(I28
I1
tp3324
g76
I00
S'\x00\x00\x00\x00\x00\x00\x80?\x00\x00\x00@\x00\x00@@\x00\x00\x80@\x00\x00\xa0@\x00\x00\xc0@\x00\x00\xe0@\x00\x00\x00A\x00\x00\x10A\x00\x00 A\x00\x000A\x00\x00@A\x00\x00PA\x00\x00`A\x00\x00pA\x00\x00\x80A\x00\x00\x88A\x00\x00\x90A\x00\x00\x98A\x00\x00\xa0A\x00\x00\xa8A\x00\x00\xb0A\x00\x00\xb8A\x00\x00\xc0A\x00\x00\xc8A\x00\x00\xd0A\x00\x00\xd8A'
p3325
S'\x00\x00\x00\x00\x00\x00\x00\x00\x00\x00\x00\x00\x00\x00\x00\x00\x00\x00\x00\x00\x00\x00\x00\x00\x00\x00\x00\x00'
p3326
Ntp3327
bsg19
g88
(g68
(I0
tp3328
g70
tp3329
Rp3330
(I1
(I28
I1
tp3331
g95
I00
(lp3332
g1007
ag1029
ag1050
ag1071
ag1092
ag1113
ag1134
ag1155
ag1176
ag1197
ag1218
ag1239
ag1260
ag1281
ag1302
ag1323
ag1344
ag1365
ag1386
ag1407
ag1428
ag1449
ag1470
ag1491
ag1512
ag1533
ag1554
ag1575
atp3333
bstp3334
Rp3335
(dp3336
g115
(dp3337
g65
I01
sg20
I01
sg105
I01
sg19
I00
ssg117
g3306
sg118
(lp3338
g65
ag105
ag19
ag20
asg120
(lp3339
I28
aI1
asbsg122
g3073
sg124
g88
(g68
(I0
tp3340
g70
tp3341
Rp3342
(I1
(I28
I1
tp3343
g131
I00
S'\x00\x00\x00\x00\x01\x00\x00\x00\x02\x00\x00\x00\x03\x00\x00\x00\x04\x00\x00\x00\x05\x00\x00\x00\x06\x00\x00\x00\x07\x00\x00\x00\x08\x00\x00\x00\t\x00\x00\x00\n\x00\x00\x00\x0b\x00\x00\x00\x0c\x00\x00\x00\r\x00\x00\x00\x0e\x00\x00\x00\x0f\x00\x00\x00\x10\x00\x00\x00\x11\x00\x00\x00\x12\x00\x00\x00\x13\x00\x00\x00\x14\x00\x00\x00\x15\x00\x00\x00\x16\x00\x00\x00\x17\x00\x00\x00\x18\x00\x00\x00\x19\x00\x00\x00\x1a\x00\x00\x00\x1b\x00\x00\x00'
p3344
tp3345
bsg136
I01
sg137
I1
sg138
I-1
sg139
(lp3346
g2867
((lp3347
(lp3348
g997
ag998
aa(lp3349
g982
ag983
aa(lp3350
g986
ag987
aa(lp3351
g984
ag985
aa(lp3352
g979
ag980
aatp3353
Rp3354
ag2867
((lp3355
(lp3356
g997
ag1023
aa(lp3357
g982
ag1017
aa(lp3358
g986
ag1019
aa(lp3359
g984
ag1018
aa(lp3360
g979
ag1015
aatp3361
Rp3362
ag2867
((lp3363
(lp3364
g997
ag998
aa(lp3365
g982
ag1039
aa(lp3366
g986
ag1041
aa(lp3367
g984
ag1040
aa(lp3368
g979
ag1037
aatp3369
Rp3370
ag2867
((lp3371
(lp3372
g997
ag998
aa(lp3373
g982
ag1060
aa(lp3374
g986
ag1062
aa(lp3375
g984
ag1061
aa(lp3376
g979
ag1058
aatp3377
Rp3378
ag2867
((lp3379
(lp3380
g997
ag1023
aa(lp3381
g982
ag1081
aa(lp3382
g986
ag1083
aa(lp3383
g984
ag1082
aa(lp3384
g979
ag1079
aatp3385
Rp3386
ag2867
((lp3387
(lp3388
g997
ag998
aa(lp3389
g982
ag1102
aa(lp3390
g986
ag1104
aa(lp3391
g984
ag1103
aa(lp3392
g979
ag1100
aatp3393
Rp3394
ag2867
((lp3395
(lp3396
g997
ag1023
aa(lp3397
g982
ag1123
aa(lp3398
g986
ag1125
aa(lp3399
g984
ag1124
aa(lp3400
g979
ag1121
aatp3401
Rp3402
ag2867
((lp3403
(lp3404
g997
ag1023
aa(lp3405
g982
ag1144
aa(lp3406
g986
ag1146
aa(lp3407
g984
ag1145
aa(lp3408
g979
ag1142
aatp3409
Rp3410
ag2867
((lp3411
(lp3412
g997
ag1023
aa(lp3413
g982
ag1165
aa(lp3414
g986
ag1167
aa(lp3415
g984
ag1166
aa(lp3416
g979
ag1163
aatp3417
Rp3418
ag2867
((lp3419
(lp3420
g997
ag998
aa(lp3421
g982
ag1186
aa(lp3422
g986
ag1188
aa(lp3423
g984
ag1187
aa(lp3424
g979
ag1184
aatp3425
Rp3426
ag2867
((lp3427
(lp3428
g997
ag998
aa(lp3429
g982
ag1207
aa(lp3430
g986
ag1209
aa(lp3431
g984
ag1208
aa(lp3432
g979
ag1205
aatp3433
Rp3434
ag2867
((lp3435
(lp3436
g997
ag1023
aa(lp3437
g982
ag1228
aa(lp3438
g986
ag1230
aa(lp3439
g984
ag1229
aa(lp3440
g979
ag1226
aatp3441
Rp3442
ag2867
((lp3443
(lp3444
g997
ag1023
aa(lp3445
g982
ag1249
aa(lp3446
g986
ag1251
aa(lp3447
g984
ag1250
aa(lp3448
g979
ag1247
aatp3449
Rp3450
ag2867
((lp3451
(lp3452
g997
ag1023
aa(lp3453
g982
ag1270
aa(lp3454
g986
ag1272
aa(lp3455
g984
ag1271
aa(lp3456
g979
ag1268
aatp3457
Rp3458
ag2867
((lp3459
(lp3460
g997
ag998
aa(lp3461
g982
ag1291
aa(lp3462
g986
ag1293
aa(lp3463
g984
ag1292
aa(lp3464
g979
ag1289
aatp3465
Rp3466
ag2867
((lp3467
(lp3468
g997
ag998
aa(lp3469
g982
ag1312
aa(lp3470
g986
ag1314
aa(lp3471
g984
ag1313
aa(lp3472
g979
ag1310
aatp3473
Rp3474
ag2867
((lp3475
(lp3476
g997
ag998
aa(lp3477
g982
ag1333
aa(lp3478
g986
ag1335
aa(lp3479
g984
ag1334
aa(lp3480
g979
ag1331
aatp3481
Rp3482
ag2867
((lp3483
(lp3484
g997
ag1023
aa(lp3485
g982
ag1354
aa(lp3486
g986
ag1356
aa(lp3487
g984
ag1355
aa(lp3488
g979
ag1352
aatp3489
Rp3490
ag2867
((lp3491
(lp3492
g997
ag998
aa(lp3493
g982
ag1375
aa(lp3494
g986
ag1377
aa(lp3495
g984
ag1376
aa(lp3496
g979
ag1373
aatp3497
Rp3498
ag2867
((lp3499
(lp3500
g997
ag998
aa(lp3501
g982
ag1396
aa(lp3502
g986
ag1398
aa(lp3503
g984
ag1397
aa(lp3504
g979
ag1394
aatp3505
Rp3506
ag2867
((lp3507
(lp3508
g997
ag1023
aa(lp3509
g982
ag1417
aa(lp3510
g986
ag1419
aa(lp3511
g984
ag1418
aa(lp3512
g979
ag1415
aatp3513
Rp3514
ag2867
((lp3515
(lp3516
g997
ag1023
aa(lp3517
g982
ag1438
aa(lp3518
g986
ag1440
aa(lp3519
g984
ag1439
aa(lp3520
g979
ag1436
aatp3521
Rp3522
ag2867
((lp3523
(lp3524
g997
ag1023
aa(lp3525
g982
ag1459
aa(lp3526
g986
ag1461
aa(lp3527
g984
ag1460
aa(lp3528
g979
ag1457
aatp3529
Rp3530
ag2867
((lp3531
(lp3532
g997
ag998
aa(lp3533
g982
ag1480
aa(lp3534
g986
ag1482
aa(lp3535
g984
ag1481
aa(lp3536
g979
ag1478
aatp3537
Rp3538
ag2867
((lp3539
(lp3540
g997
ag998
aa(lp3541
g982
ag1501
aa(lp3542
g986
ag1503
aa(lp3543
g984
ag1502
aa(lp3544
g979
ag1499
aatp3545
Rp3546
ag2867
((lp3547
(lp3548
g997
ag1023
aa(lp3549
g982
ag1522
aa(lp3550
g986
ag1524
aa(lp3551
g984
ag1523
aa(lp3552
g979
ag1520
aatp3553
Rp3554
ag2867
((lp3555
(lp3556
g997
ag998
aa(lp3557
g982
ag1543
aa(lp3558
g986
ag1545
aa(lp3559
g984
ag1544
aa(lp3560
g979
ag1541
aatp3561
Rp3562
ag2867
((lp3563
(lp3564
g997
ag1023
aa(lp3565
g982
ag1564
aa(lp3566
g986
ag1566
aa(lp3567
g984
ag1565
aa(lp3568
g979
ag1562
aatp3569
Rp3570
asg141
Nsg142
g1580
sg146
I28
sg147
I0
sg148
I28
sbag0
(g52
g2
Ntp3571
Rp3572
(dp3573
g56
Nsg57
(lp3574
sg58
I353542128
sg11
g3041
sg6
I-1
sg60
I1
sg25
I01
sg26
g27
sg61
g0
(g62
g63
(dp3575
g65
g66
(g67
g68
g69
g70
tp3576
Rp3577
(I1
(I28
I1
tp3578
g76
I00
S'\x00\x00\x80?\x00\x00\x80?\x00\x00\x80?\x00\x00\x80?\x00\x00\x80?\x00\x00\x80?\x00\x00\x80?\x00\x00\x80?\x00\x00\x80?\x00\x00\x80?\x00\x00\x80?\x00\x00\x80?\x00\x00\x80?\x00\x00\x80?\x00\x00\x80?\x00\x00\x80?\x00\x00\x80?\x00\x00\x80?\x00\x00\x80?\x00\x00\x80?\x00\x00\x80?\x00\x00\x80?\x00\x00\x80?\x00\x00\x80?\x00\x00\x80?\x00\x00\x80?\x00\x00\x80?\x00\x00\x80?'
p3579
S'\x00\x00\x00\x00\x00\x00\x00\x00\x00\x00\x00\x00\x00\x00\x00\x00\x00\x00\x00\x00\x00\x00\x00\x00\x00\x00\x00\x00'
p3580
Ntp3581
bsg20
g66
(g67
g68
g69
g70
tp3582
Rp3583
(I1
(I28
I1
tp3584
g76
I00
S"w\xb2#A<\x16\xbf@\xa9\xc8\x12A\xdc\xe2\xc3@E\t\xf2@\xe3\x08\xe3@z3+AMB\xc9@\x0c^\x05AR\x95\xf2@\x85!\xc0@$\x19\xdd@M\x95\xf2@\xde\x94\x13A\xb5\xdd\xb4@\x01\x03\xb7@\x8c\xfd\xe9@\xad6\xc8@\r\xa6\xfa@'\xff\xd3@\xac\x94\xf9@\x18\xd0!A\xdc0\xd7@\xc5\xc8\xba@\xece\xfe@\xae\x04\xea@\xcbm\xc4@@\xf7\xcb@"
p3585
S'\x00\x00\x00\x00\x00\x00\x00\x00\x00\x00\x00\x00\x00\x00\x00\x00\x00\x00\x00\x00\x00\x00\x00\x00\x00\x00\x00\x00'
p3586
Ntp3587
bsg105
g66
(g67
g68
g69
g70
tp3588
Rp3589
(I1
(I28
I1
tp3590
g76
I00
S'\x00\x00\x00\x00\x00\x00\x80?\x00\x00\x00@\x00\x00@@\x00\x00\x80@\x00\x00\xa0@\x00\x00\xc0@\x00\x00\xe0@\x00\x00\x00A\x00\x00\x10A\x00\x00 A\x00\x000A\x00\x00@A\x00\x00PA\x00\x00`A\x00\x00pA\x00\x00\x80A\x00\x00\x88A\x00\x00\x90A\x00\x00\x98A\x00\x00\xa0A\x00\x00\xa8A\x00\x00\xb0A\x00\x00\xb8A\x00\x00\xc0A\x00\x00\xc8A\x00\x00\xd0A\x00\x00\xd8A'
p3591
S'\x00\x00\x00\x00\x00\x00\x00\x00\x00\x00\x00\x00\x00\x00\x00\x00\x00\x00\x00\x00\x00\x00\x00\x00\x00\x00\x00\x00'
p3592
Ntp3593
bsg19
g88
(g68
(I0
tp3594
g70
tp3595
Rp3596
(I1
(I28
I1
tp3597
g95
I00
(lp3598
g1623
ag1645
ag1666
ag1687
ag1708
ag1729
ag1750
ag1771
ag1792
ag1813
ag1834
ag1855
ag1876
ag1897
ag1918
ag1939
ag1960
ag1981
ag2002
ag2023
ag2044
ag2065
ag2086
ag2107
ag2128
ag2149
ag2170
ag2191
atp3599
bstp3600
Rp3601
(dp3602
g115
(dp3603
g65
I01
sg20
I01
sg105
I01
sg19
I00
ssg117
g3572
sg118
(lp3604
g65
ag105
ag19
ag20
asg120
(lp3605
I28
aI1
asbsg122
g3073
sg124
g88
(g68
(I0
tp3606
g70
tp3607
Rp3608
(I1
(I28
I1
tp3609
g131
I00
S'\x00\x00\x00\x00\x01\x00\x00\x00\x02\x00\x00\x00\x03\x00\x00\x00\x04\x00\x00\x00\x05\x00\x00\x00\x06\x00\x00\x00\x07\x00\x00\x00\x08\x00\x00\x00\t\x00\x00\x00\n\x00\x00\x00\x0b\x00\x00\x00\x0c\x00\x00\x00\r\x00\x00\x00\x0e\x00\x00\x00\x0f\x00\x00\x00\x10\x00\x00\x00\x11\x00\x00\x00\x12\x00\x00\x00\x13\x00\x00\x00\x14\x00\x00\x00\x15\x00\x00\x00\x16\x00\x00\x00\x17\x00\x00\x00\x18\x00\x00\x00\x19\x00\x00\x00\x1a\x00\x00\x00\x1b\x00\x00\x00'
p3610
tp3611
bsg136
I01
sg137
I1
sg138
I-1
sg139
(lp3612
g2867
((lp3613
(lp3614
g1613
ag1614
aa(lp3615
g1598
ag1599
aa(lp3616
g1602
ag1603
aa(lp3617
g1600
ag1601
aa(lp3618
g1595
ag1596
aatp3619
Rp3620
ag2867
((lp3621
(lp3622
g1613
ag1639
aa(lp3623
g1598
ag1633
aa(lp3624
g1602
ag1635
aa(lp3625
g1600
ag1634
aa(lp3626
g1595
ag1631
aatp3627
Rp3628
ag2867
((lp3629
(lp3630
g1613
ag1639
aa(lp3631
g1598
ag1655
aa(lp3632
g1602
ag1657
aa(lp3633
g1600
ag1656
aa(lp3634
g1595
ag1653
aatp3635
Rp3636
ag2867
((lp3637
(lp3638
g1613
ag1614
aa(lp3639
g1598
ag1676
aa(lp3640
g1602
ag1678
aa(lp3641
g1600
ag1677
aa(lp3642
g1595
ag1674
aatp3643
Rp3644
ag2867
((lp3645
(lp3646
g1613
ag1614
aa(lp3647
g1598
ag1697
aa(lp3648
g1602
ag1699
aa(lp3649
g1600
ag1698
aa(lp3650
g1595
ag1695
aatp3651
Rp3652
ag2867
((lp3653
(lp3654
g1613
ag1639
aa(lp3655
g1598
ag1718
aa(lp3656
g1602
ag1720
aa(lp3657
g1600
ag1719
aa(lp3658
g1595
ag1716
aatp3659
Rp3660
ag2867
((lp3661
(lp3662
g1613
ag1614
aa(lp3663
g1598
ag1739
aa(lp3664
g1602
ag1741
aa(lp3665
g1600
ag1740
aa(lp3666
g1595
ag1737
aatp3667
Rp3668
ag2867
((lp3669
(lp3670
g1613
ag1614
aa(lp3671
g1598
ag1760
aa(lp3672
g1602
ag1762
aa(lp3673
g1600
ag1761
aa(lp3674
g1595
ag1758
aatp3675
Rp3676
ag2867
((lp3677
(lp3678
g1613
ag1614
aa(lp3679
g1598
ag1781
aa(lp3680
g1602
ag1783
aa(lp3681
g1600
ag1782
aa(lp3682
g1595
ag1779
aatp3683
Rp3684
ag2867
((lp3685
(lp3686
g1613
ag1639
aa(lp3687
g1598
ag1802
aa(lp3688
g1602
ag1804
aa(lp3689
g1600
ag1803
aa(lp3690
g1595
ag1800
aatp3691
Rp3692
ag2867
((lp3693
(lp3694
g1613
ag1614
aa(lp3695
g1598
ag1823
aa(lp3696
g1602
ag1825
aa(lp3697
g1600
ag1824
aa(lp3698
g1595
ag1821
aatp3699
Rp3700
ag2867
((lp3701
(lp3702
g1613
ag1614
aa(lp3703
g1598
ag1844
aa(lp3704
g1602
ag1846
aa(lp3705
g1600
ag1845
aa(lp3706
g1595
ag1842
aatp3707
Rp3708
ag2867
((lp3709
(lp3710
g1613
ag1639
aa(lp3711
g1598
ag1865
aa(lp3712
g1602
ag1867
aa(lp3713
g1600
ag1866
aa(lp3714
g1595
ag1863
aatp3715
Rp3716
ag2867
((lp3717
(lp3718
g1613
ag1614
aa(lp3719
g1598
ag1886
aa(lp3720
g1602
ag1888
aa(lp3721
g1600
ag1887
aa(lp3722
g1595
ag1884
aatp3723
Rp3724
ag2867
((lp3725
(lp3726
g1613
ag1639
aa(lp3727
g1598
ag1907
aa(lp3728
g1602
ag1909
aa(lp3729
g1600
ag1908
aa(lp3730
g1595
ag1905
aatp3731
Rp3732
ag2867
((lp3733
(lp3734
g1613
ag1639
aa(lp3735
g1598
ag1928
aa(lp3736
g1602
ag1930
aa(lp3737
g1600
ag1929
aa(lp3738
g1595
ag1926
aatp3739
Rp3740
ag2867
((lp3741
(lp3742
g1613
ag1639
aa(lp3743
g1598
ag1949
aa(lp3744
g1602
ag1951
aa(lp3745
g1600
ag1950
aa(lp3746
g1595
ag1947
aatp3747
Rp3748
ag2867
((lp3749
(lp3750
g1613
ag1614
aa(lp3751
g1598
ag1970
aa(lp3752
g1602
ag1972
aa(lp3753
g1600
ag1971
aa(lp3754
g1595
ag1968
aatp3755
Rp3756
ag2867
((lp3757
(lp3758
g1613
ag1614
aa(lp3759
g1598
ag1991
aa(lp3760
g1602
ag1993
aa(lp3761
g1600
ag1992
aa(lp3762
g1595
ag1989
aatp3763
Rp3764
ag2867
((lp3765
(lp3766
g1613
ag1639
aa(lp3767
g1598
ag2012
aa(lp3768
g1602
ag2014
aa(lp3769
g1600
ag2013
aa(lp3770
g1595
ag2010
aatp3771
Rp3772
ag2867
((lp3773
(lp3774
g1613
ag1639
aa(lp3775
g1598
ag2033
aa(lp3776
g1602
ag2035
aa(lp3777
g1600
ag2034
aa(lp3778
g1595
ag2031
aatp3779
Rp3780
ag2867
((lp3781
(lp3782
g1613
ag1639
aa(lp3783
g1598
ag2054
aa(lp3784
g1602
ag2056
aa(lp3785
g1600
ag2055
aa(lp3786
g1595
ag2052
aatp3787
Rp3788
ag2867
((lp3789
(lp3790
g1613
ag1614
aa(lp3791
g1598
ag2075
aa(lp3792
g1602
ag2077
aa(lp3793
g1600
ag2076
aa(lp3794
g1595
ag2073
aatp3795
Rp3796
ag2867
((lp3797
(lp3798
g1613
ag1639
aa(lp3799
g1598
ag2096
aa(lp3800
g1602
ag2098
aa(lp3801
g1600
ag2097
aa(lp3802
g1595
ag2094
aatp3803
Rp3804
ag2867
((lp3805
(lp3806
g1613
ag1639
aa(lp3807
g1598
ag2117
aa(lp3808
g1602
ag2119
aa(lp3809
g1600
ag2118
aa(lp3810
g1595
ag2115
aatp3811
Rp3812
ag2867
((lp3813
(lp3814
g1613
ag1639
aa(lp3815
g1598
ag2138
aa(lp3816
g1602
ag2140
aa(lp3817
g1600
ag2139
aa(lp3818
g1595
ag2136
aatp3819
Rp3820
ag2867
((lp3821
(lp3822
g1613
ag1614
aa(lp3823
g1598
ag2159
aa(lp3824
g1602
ag2161
aa(lp3825
g1600
ag2160
aa(lp3826
g1595
ag2157
aatp3827
Rp3828
ag2867
((lp3829
(lp3830
g1613
ag1614
aa(lp3831
g1598
ag2180
aa(lp3832
g1602
ag2182
aa(lp3833
g1600
ag2181
aa(lp3834
g1595
ag2178
aatp3835
Rp3836
asg141
Nsg142
g2196
sg146
I28
sg147
I0
sg148
I28
sbag0
(g52
g2
Ntp3837
Rp3838
(dp3839
g56
Nsg57
(lp3840
sg58
I353542128
sg11
g3041
sg6
I-1
sg60
I1
sg25
I01
sg26
g27
sg61
g0
(g62
g63
(dp3841
g65
g66
(g67
g68
g69
g70
tp3842
Rp3843
(I1
(I28
I1
tp3844
g76
I00
S'\x00\x00\x80?\x00\x00\x80?\x00\x00\x80?\x00\x00\x80?\x00\x00\x80?\x00\x00\x80?\x00\x00\x80?\x00\x00\x80?\x00\x00\x80?\x00\x00\x80?\x00\x00\x80?\x00\x00\x80?\x00\x00\x80?\x00\x00\x80?\x00\x00\x80?\x00\x00\x80?\x00\x00\x80?\x00\x00\x80?\x00\x00\x80?\x00\x00\x80?\x00\x00\x80?\x00\x00\x80?\x00\x00\x80?\x00\x00\x80?\x00\x00\x80?\x00\x00\x80?\x00\x00\x80?\x00\x00\x80?'
p3845
S'\x00\x00\x00\x00\x00\x00\x00\x00\x00\x00\x00\x00\x00\x00\x00\x00\x00\x00\x00\x00\x00\x00\x00\x00\x00\x00\x00\x00'
p3846
Ntp3847
bsg20
g66
(g67
g68
g69
g70
tp3848
Rp3849
(I1
(I28
I1
tp3850
g76
I00
S'\x1en\xc4@\x98\xa2\x9b@w\x15\xb8@\xba\xa2\xe4@\xa1\t\xc6@\xbe0\xc8@\x957\x03A\x9a\x1e\xf3@x\x98\xa9@!\xf2\xcb@\xf1\x80\xc5@^M\xa5@\xdc\x02\xc6@\x8d\x89\xbe@3\x15\xb8@^\xb0\xa3@_a\xa6@\xf2\xd9\x08A\x1a\xca\x07A<\xc4\xd7@\xd6\xc5\xd0@yQ\x8f@\x14\x94\x9a@\x07\xca\x9d@\xaam\xc4@@\xf2\xe1@]\x9f\xb8@|\xd3\xee@'
p3851
S'\x00\x00\x00\x00\x00\x00\x00\x00\x00\x00\x00\x00\x00\x00\x00\x00\x00\x00\x00\x00\x00\x00\x00\x00\x00\x00\x00\x00'
p3852
Ntp3853
bsg105
g66
(g67
g68
g69
g70
tp3854
Rp3855
(I1
(I28
I1
tp3856
g76
I00
S'\x00\x00\x00\x00\x00\x00\x80?\x00\x00\x00@\x00\x00@@\x00\x00\x80@\x00\x00\xa0@\x00\x00\xc0@\x00\x00\xe0@\x00\x00\x00A\x00\x00\x10A\x00\x00 A\x00\x000A\x00\x00@A\x00\x00PA\x00\x00`A\x00\x00pA\x00\x00\x80A\x00\x00\x88A\x00\x00\x90A\x00\x00\x98A\x00\x00\xa0A\x00\x00\xa8A\x00\x00\xb0A\x00\x00\xb8A\x00\x00\xc0A\x00\x00\xc8A\x00\x00\xd0A\x00\x00\xd8A'
p3857
S'\x00\x00\x00\x00\x00\x00\x00\x00\x00\x00\x00\x00\x00\x00\x00\x00\x00\x00\x00\x00\x00\x00\x00\x00\x00\x00\x00\x00'
p3858
Ntp3859
bsg19
g88
(g68
(I0
tp3860
g70
tp3861
Rp3862
(I1
(I28
I1
tp3863
g95
I00
(lp3864
g2239
ag2261
ag2282
ag2303
ag2324
ag2345
ag2366
ag2387
ag2408
ag2429
ag2450
ag2471
ag2492
ag2513
ag2534
ag2555
ag2576
ag2597
ag2618
ag2639
ag2660
ag2681
ag2702
ag2723
ag2744
ag2765
ag2786
ag2807
atp3865
bstp3866
Rp3867
(dp3868
g115
(dp3869
g65
I01
sg20
I01
sg105
I01
sg19
I00
ssg117
g3838
sg118
(lp3870
g65
ag105
ag19
ag20
asg120
(lp3871
I28
aI1
asbsg122
g3073
sg124
g88
(g68
(I0
tp3872
g70
tp3873
Rp3874
(I1
(I28
I1
tp3875
g131
I00
S'\x00\x00\x00\x00\x01\x00\x00\x00\x02\x00\x00\x00\x03\x00\x00\x00\x04\x00\x00\x00\x05\x00\x00\x00\x06\x00\x00\x00\x07\x00\x00\x00\x08\x00\x00\x00\t\x00\x00\x00\n\x00\x00\x00\x0b\x00\x00\x00\x0c\x00\x00\x00\r\x00\x00\x00\x0e\x00\x00\x00\x0f\x00\x00\x00\x10\x00\x00\x00\x11\x00\x00\x00\x12\x00\x00\x00\x13\x00\x00\x00\x14\x00\x00\x00\x15\x00\x00\x00\x16\x00\x00\x00\x17\x00\x00\x00\x18\x00\x00\x00\x19\x00\x00\x00\x1a\x00\x00\x00\x1b\x00\x00\x00'
p3876
tp3877
bsg136
I01
sg137
I1
sg138
I-1
sg139
(lp3878
g2867
((lp3879
(lp3880
g2229
ag2230
aa(lp3881
g2214
ag2215
aa(lp3882
g2218
ag2219
aa(lp3883
g2216
ag2217
aa(lp3884
g2211
ag2212
aatp3885
Rp3886
ag2867
((lp3887
(lp3888
g2229
ag2255
aa(lp3889
g2214
ag2249
aa(lp3890
g2218
ag2251
aa(lp3891
g2216
ag2250
aa(lp3892
g2211
ag2247
aatp3893
Rp3894
ag2867
((lp3895
(lp3896
g2229
ag2255
aa(lp3897
g2214
ag2271
aa(lp3898
g2218
ag2273
aa(lp3899
g2216
ag2272
aa(lp3900
g2211
ag2269
aatp3901
Rp3902
ag2867
((lp3903
(lp3904
g2229
ag2255
aa(lp3905
g2214
ag2292
aa(lp3906
g2218
ag2294
aa(lp3907
g2216
ag2293
aa(lp3908
g2211
ag2290
aatp3909
Rp3910
ag2867
((lp3911
(lp3912
g2229
ag2230
aa(lp3913
g2214
ag2313
aa(lp3914
g2218
ag2315
aa(lp3915
g2216
ag2314
aa(lp3916
g2211
ag2311
aatp3917
Rp3918
ag2867
((lp3919
(lp3920
g2229
ag2230
aa(lp3921
g2214
ag2334
aa(lp3922
g2218
ag2336
aa(lp3923
g2216
ag2335
aa(lp3924
g2211
ag2332
aatp3925
Rp3926
ag2867
((lp3927
(lp3928
g2229
ag2230
aa(lp3929
g2214
ag2355
aa(lp3930
g2218
ag2357
aa(lp3931
g2216
ag2356
aa(lp3932
g2211
ag2353
aatp3933
Rp3934
ag2867
((lp3935
(lp3936
g2229
ag2255
aa(lp3937
g2214
ag2376
aa(lp3938
g2218
ag2378
aa(lp3939
g2216
ag2377
aa(lp3940
g2211
ag2374
aatp3941
Rp3942
ag2867
((lp3943
(lp3944
g2229
ag2230
aa(lp3945
g2214
ag2397
aa(lp3946
g2218
ag2399
aa(lp3947
g2216
ag2398
aa(lp3948
g2211
ag2395
aatp3949
Rp3950
ag2867
((lp3951
(lp3952
g2229
ag2255
aa(lp3953
g2214
ag2418
aa(lp3954
g2218
ag2420
aa(lp3955
g2216
ag2419
aa(lp3956
g2211
ag2416
aatp3957
Rp3958
ag2867
((lp3959
(lp3960
g2229
ag2230
aa(lp3961
g2214
ag2439
aa(lp3962
g2218
ag2441
aa(lp3963
g2216
ag2440
aa(lp3964
g2211
ag2437
aatp3965
Rp3966
ag2867
((lp3967
(lp3968
g2229
ag2255
aa(lp3969
g2214
ag2460
aa(lp3970
g2218
ag2462
aa(lp3971
g2216
ag2461
aa(lp3972
g2211
ag2458
aatp3973
Rp3974
ag2867
((lp3975
(lp3976
g2229
ag2230
aa(lp3977
g2214
ag2481
aa(lp3978
g2218
ag2483
aa(lp3979
g2216
ag2482
aa(lp3980
g2211
ag2479
aatp3981
Rp3982
ag2867
((lp3983
(lp3984
g2229
ag2255
aa(lp3985
g2214
ag2502
aa(lp3986
g2218
ag2504
aa(lp3987
g2216
ag2503
aa(lp3988
g2211
ag2500
aatp3989
Rp3990
ag2867
((lp3991
(lp3992
g2229
ag2255
aa(lp3993
g2214
ag2523
aa(lp3994
g2218
ag2525
aa(lp3995
g2216
ag2524
aa(lp3996
g2211
ag2521
aatp3997
Rp3998
ag2867
((lp3999
(lp4000
g2229
ag2230
aa(lp4001
g2214
ag2544
aa(lp4002
g2218
ag2546
aa(lp4003
g2216
ag2545
aa(lp4004
g2211
ag2542
aatp4005
Rp4006
ag2867
((lp4007
(lp4008
g2229
ag2255
aa(lp4009
g2214
ag2565
aa(lp4010
g2218
ag2567
aa(lp4011
g2216
ag2566
aa(lp4012
g2211
ag2563
aatp4013
Rp4014
ag2867
((lp4015
(lp4016
g2229
ag2230
aa(lp4017
g2214
ag2586
aa(lp4018
g2218
ag2588
aa(lp4019
g2216
ag2587
aa(lp4020
g2211
ag2584
aatp4021
Rp4022
ag2867
((lp4023
(lp4024
g2229
ag2230
aa(lp4025
g2214
ag2607
aa(lp4026
g2218
ag2609
aa(lp4027
g2216
ag2608
aa(lp4028
g2211
ag2605
aatp4029
Rp4030
ag2867
((lp4031
(lp4032
g2229
ag2255
aa(lp4033
g2214
ag2628
aa(lp4034
g2218
ag2630
aa(lp4035
g2216
ag2629
aa(lp4036
g2211
ag2626
aatp4037
Rp4038
ag2867
((lp4039
(lp4040
g2229
ag2255
aa(lp4041
g2214
ag2649
aa(lp4042
g2218
ag2651
aa(lp4043
g2216
ag2650
aa(lp4044
g2211
ag2647
aatp4045
Rp4046
ag2867
((lp4047
(lp4048
g2229
ag2230
aa(lp4049
g2214
ag2670
aa(lp4050
g2218
ag2672
aa(lp4051
g2216
ag2671
aa(lp4052
g2211
ag2668
aatp4053
Rp4054
ag2867
((lp4055
(lp4056
g2229
ag2255
aa(lp4057
g2214
ag2691
aa(lp4058
g2218
ag2693
aa(lp4059
g2216
ag2692
aa(lp4060
g2211
ag2689
aatp4061
Rp4062
ag2867
((lp4063
(lp4064
g2229
ag2230
aa(lp4065
g2214
ag2712
aa(lp4066
g2218
ag2714
aa(lp4067
g2216
ag2713
aa(lp4068
g2211
ag2710
aatp4069
Rp4070
ag2867
((lp4071
(lp4072
g2229
ag2255
aa(lp4073
g2214
ag2733
aa(lp4074
g2218
ag2735
aa(lp4075
g2216
ag2734
aa(lp4076
g2211
ag2731
aatp4077
Rp4078
ag2867
((lp4079
(lp4080
g2229
ag2230
aa(lp4081
g2214
ag2754
aa(lp4082
g2218
ag2756
aa(lp4083
g2216
ag2755
aa(lp4084
g2211
ag2752
aatp4085
Rp4086
ag2867
((lp4087
(lp4088
g2229
ag2255
aa(lp4089
g2214
ag2775
aa(lp4090
g2218
ag2777
aa(lp4091
g2216
ag2776
aa(lp4092
g2211
ag2773
aatp4093
Rp4094
ag2867
((lp4095
(lp4096
g2229
ag2230
aa(lp4097
g2214
ag2796
aa(lp4098
g2218
ag2798
aa(lp4099
g2216
ag2797
aa(lp4100
g2211
ag2794
aatp4101
Rp4102
asg141
Nsg142
g2812
sg146
I28
sg147
I0
sg148
I28
sbasS'savePickle'
p4103
I00
sb.